(dp1
S'output'
p2
S"<type 'exceptions.SyntaxError'> invalid syntax (user_homepage.html, line 95)"
p3
sS'layer'
p4
S'/home/aditi/Desktop/web2py/applications/assignment2/views/default/user_homepage.html'
p5
sS'code'
p6
S'response.write(\'<!DOCTYPE html>\\n<!-- paulirish.com/2008/conditional-stylesheets-vs-css-hacks-answer-neither/ -->\\n<!--[if lt IE 7]><html class="ie ie6 ie-lte9 ie-lte8 ie-lte7 no-js" lang="\', escape=False)\nresponse.write(T.accepted_language or \'en\')\nresponse.write(\'"> <![endif]-->\\n<!--[if IE 7]><html class="ie ie7 ie-lte9 ie-lte8 ie-lte7 no-js" lang="\', escape=False)\nresponse.write(T.accepted_language or \'en\')\nresponse.write(\'"> <![endif]-->\\n<!--[if IE 8]><html class="ie ie8 ie-lte9 ie-lte8 no-js" lang="\', escape=False)\nresponse.write(T.accepted_language or \'en\')\nresponse.write(\'"> <![endif]-->\\n<!--[if IE 9]><html class="ie9 ie-lte9 no-js" lang="\', escape=False)\nresponse.write(T.accepted_language or \'en\')\nresponse.write(\'"> <![endif]-->\\n<!--[if (gt IE 9)|!(IE)]><!--> <html class="no-js" lang="\', escape=False)\nresponse.write(T.accepted_language or \'en\')\nresponse.write(\'"> <!--<![endif]-->\\n<head>\\n  <meta charset="utf-8" />\\n  <!-- www.phpied.com/conditional-comments-block-downloads/ -->\\n  <!-- Always force latest IE rendering engine\\n       (even in intranet) & Chrome Frame\\n       Remove this if you use the .htaccess -->\\n  <!--[if IE]>\\n      <meta http-equiv="X-UA-Compatible" content="IE=edge\', escape=False)\nresponse.write(not request.is_local and \',chrome=1\' or \'\')\nresponse.write(\'">\\n      <![endif]-->\\n\\n  <title>\', escape=False)\nresponse.write(response.title or request.application)\nresponse.write(\'</title>\\n\\n  <!-- http://dev.w3.org/html5/markup/meta.name.html -->\\n  <meta name="application-name" content="\', escape=False)\nresponse.write(request.application)\nresponse.write(\'" />\\n\\n  <!-- Speaking of Google, don\\\'t forget to set your site up:\\n       http://google.com/webmasters -->\\n  <meta name="google-site-verification" content="" />\\n\\n  <!--  Mobile Viewport Fix\\n        j.mp/mobileviewport & davidbcalhoun.com/2010/viewport-metatag\\n        device-width: Occupy full width of the screen in its current orientation\\n        initial-scale = 1.0 retains dimensions instead of zooming out if page height > device height\\n        user-scalable = yes allows the user to zoom in -->\\n  <meta name="viewport" content="width=device-width, initial-scale=1.0" />\\n\\n  <link rel="shortcut icon" href="\', escape=False)\nresponse.write(URL(\'static\',\'images/favicon.ico\'))\nresponse.write(\'" type="image/x-icon">\\n  <link rel="apple-touch-icon" href="\', escape=False)\nresponse.write(URL(\'static\',\'images/favicon.png\'))\nresponse.write(\'">\\n\\n  <!-- All JavaScript at the bottom, except for Modernizr which enables\\n       HTML5 elements & feature detects -->\\n  <script src="\', escape=False)\nresponse.write(URL(\'static\',\'js/modernizr.custom.js\'))\nresponse.write(\'"></script>\\n\\n  <!-- include stylesheets -->\\n  \', escape=False)\nresponse.files.append(URL(\'static\',\'css/web2py.css\'))\nresponse.files.append(URL(\'static\',\'css/bootstrap.min.css\'))\nresponse.files.append(URL(\'static\',\'css/bootstrap-responsive.min.css\'))\nresponse.files.append(URL(\'static\',\'css/web2py_bootstrap.css\'))\nresponse.write(\'\\n\\n  \', escape=False)\nresponse.write(\'<script type="text/javascript"><!--\\n    // These variables are used by the web2py_ajax_init function in web2py_ajax.js (which is loaded below).\\n    var w2p_ajax_confirm_message = "\', escape=False)\nresponse.write(T(\'Are you sure you want to delete this object?\'))\nresponse.write(\'";\\n    var w2p_ajax_date_format = "\', escape=False)\nresponse.write(T(\'%Y-%m-%d\'))\nresponse.write(\'";\\n    var w2p_ajax_datetime_format = "\', escape=False)\nresponse.write(T(\'%Y-%m-%d %H:%M:%S\'))\nresponse.write(\'";\\n    //--></script>\\n\', escape=False)\nresponse.files.insert(0,URL(\'static\',\'js/jquery.js\'))\nresponse.files.insert(1,URL(\'static\',\'css/calendar.css\'))\nresponse.files.insert(2,URL(\'static\',\'js/calendar.js\'))\nresponse.files.insert(3,URL(\'static\',\'js/web2py.js\'))\nresponse.include_meta()\nresponse.include_files()\nresponse.write(\'\\n\', escape=False)\nresponse.write(\'\\n\\n  \', escape=False)\n# using sidebars need to know what sidebar you want to use\nleft_sidebar_enabled = globals().get(\'left_sidebar_enabled\',False)\nright_sidebar_enabled = globals().get(\'right_sidebar_enabled\',False)\nmiddle_columns = {0:\'span12\',1:\'span9\',2:\'span6\'}[\n(left_sidebar_enabled and 1 or 0)+(right_sidebar_enabled and 1 or 0)]\nresponse.write(\'\\n\\n  <!-- uncomment here to load jquery-ui\\n       <link rel="stylesheet" href="http://ajax.googleapis.com/ajax/libs/jqueryui/1.8.16/themes/base/jquery-ui.css" type="text/css" media="all" />\\n       <script src="http://ajax.googleapis.com/ajax/libs/jqueryui/1.8.16/jquery-ui.min.js" type="text/javascript"></script>\\n       uncomment to load jquery-ui //-->\\n  <noscript><link href="\', escape=False)\nresponse.write(URL(\'static\', \'css/web2py_bootstrap_nojs.css\'))\nresponse.write(\'" rel="stylesheet" type="text/css" /></noscript>\\n  \', escape=False)\nresponse.write(\'\\n</head>\\n\\n<body>\\n  <!-- Navbar ================================================== -->\\n  <div class="navbar navbar-inverse navbar-fixed-top">\\n    <div class="flash">\', escape=False)\nresponse.write(response.flash or \'\')\nresponse.write(\'</div>\\n    <div class="navbar-inner">\\n      <div class="container">\\n        <!-- the next tag is necessary for bootstrap menus, do not remove -->\\n        <button type="button" class="btn btn-navbar" data-toggle="collapse" data-target=".nav-collapse">\\n          <span class="icon-bar"></span>\\n          <span class="icon-bar"></span>\\n          <span class="icon-bar"></span>\\n        </button>\\n\\t\', escape=False)\nresponse.write(response.logo or \'\')\nresponse.write(\'\\n        <ul id="navbar" class="nav pull-right">\', escape=False)\nresponse.write(\'auth\' in globals() and auth.navbar(mode="dropdown") or \'\')\nresponse.write(\'</ul>\\n        <div class="nav-collapse">\\n          \', escape=False)\nis_mobile=request.user_agent().is_mobile\nresponse.write(\'\\n          \', escape=False)\nif response.menu:\n    response.write(\'\\n          \', escape=False)\n    response.write(MENU(response.menu, _class=\'mobile-menu nav\' if is_mobile else \'nav\',mobile=is_mobile,li_class=\'dropdown\',ul_class=\'dropdown-menu\'))\n    response.write(\'\\n          \', escape=False)\n    pass\nresponse.write(\'\\n        </div><!--/.nav-collapse -->\\n      </div>\\n    </div>\\n  </div><!--/top navbar -->\\n\\n  <div class="container">\\n    <!-- Masthead ================================================== -->\\n    <header class="mastheader row" id="header">\\n        <div class="span12">\\n            <div class="page-header">\\n                <h1>\\n                    \', escape=False)\nresponse.write(response.title or request.application)\nresponse.write(\'\\n                    <small>\', escape=False)\nresponse.write(response.subtitle or \'\')\nresponse.write(\'</small>\\n                </h1>\\n            </div>\\n        </div>\\n    </header>\\n\\n    <section id="main" class="main row">\\n        \', escape=False)\nif left_sidebar_enabled:\n    response.write(\'\\n        <div class="span3 left-sidebar">\\n            \', escape=False)\n    response.write(\'\\n            <h3>Left Sidebar</h3>\\n            <p></p>\\n            \', escape=False)\n    response.write(\'\\n        </div>\\n        \', escape=False)\n    pass\nresponse.write(\'\\n\\n        <div class="\', escape=False)\nresponse.write(middle_columns)\nresponse.write(\'">\\n            \', escape=False)\nresponse.write(\'\\n            \', escape=False)\nresponse.write(\'\\n<h1>Welcome \', escape=False)\nresponse.write(f[0][\'first_name\'])\nresponse.write(\' \', escape=False)\nresponse.write(l[0][\'last_name\'])\nresponse.write(\'!</h1>\\n<h3>Want to post something new?</h3>\\n\', escape=False)\nresponse.write(form)\nresponse.write(\'\\n<h2>Current news items:</h2>\\n\', escape=False)\nfor i in range(len(c)):\n    response.write(\'\\n\\t<ol><h3>\', escape=False)\n    response.write(c[i][\'name\'])\n    response.write(\'</h3>\\n\\t\', escape=False)\n    for j in range(len(n)):\n        response.write(\'\\n\\t\\t\', escape=False)\n        if n[j][\'category\']==c[i][\'name\']:\n            response.write(\'\\n        \\t<li>\', escape=False)\n            response.write(n[j][\'heading\']</li>\n            {{pass)\n            response.write(\'\\n    \', escape=False)\n            pass\n        response.write(\'\\n\\t</ol>\\n\\t\', escape=False)\n        pass\n    response.write(\'\\n\', escape=False)\n    pass\nresponse.write(\'\\n\', escape=False)\nresponse.write(\'\\n            \', escape=False)\nresponse.write(\'\\n        </div>\\n\\n        \', escape=False)\nif right_sidebar_enabled:\n    response.write(\'\\n        <div class="span3">\\n            \', escape=False)\n    response.write(\'\\n            <h3>Right Sidebar</h3>\\n            <p></p>\\n            \', escape=False)\n    response.write(\'\\n        </div>\\n        \', escape=False)\n    pass\nresponse.write(\'\\n    </section><!--/main-->\\n\\n    <!-- Footer ================================================== -->\\n    <div class="row">\\n        <footer class="footer span12" id="footer">\\n            <div class="footer-content">\\n                \', escape=False)\nresponse.write(\' <!-- this is default footer -->\\n                <div class="copyright pull-left">\', escape=False)\nresponse.write(T(\'Copyright\'))\nresponse.write(\' &#169; \', escape=False)\nresponse.write(request.now.year)\nresponse.write(\'</div>\\n                <div id="poweredBy" class="pull-right">\\n                    \', escape=False)\nresponse.write(T(\'Powered by\'))\nresponse.write(\'\\n                    <a href="http://www.web2py.com/">web2py</a>\\n                </div>\\n                \', escape=False)\nresponse.write(\'\\n            </div>\\n        </footer>\\n    </div>\\n\\n  </div> <!-- /container -->\\n\\n  <!-- The javascript =============================================\\n       (Placed at the end of the document so the pages load faster) -->\\n  <script src="\', escape=False)\nresponse.write(URL(\'static\',\'js/bootstrap.min.js\'))\nresponse.write(\'"></script>\\n  <script src="\', escape=False)\nresponse.write(URL(\'static\',\'js/web2py_bootstrap.js\'))\nresponse.write(\'"></script>\\n  <!--[if lt IE 7 ]>\\n      <script src="\', escape=False)\nresponse.write(URL(\'static\',\'js/dd_belatedpng.js\'))\nresponse.write(\'"></script>\\n      <script> DD_belatedPNG.fix(\\\'img, .png_bg\\\'); //fix any <img> or .png_bg background-images </script>\\n      <![endif]-->\\n  \\n  \', escape=False)\nif response.google_analytics_id:\n    response.write(\'\\n  <script src="\', escape=False)\n    response.write(URL(\'static\',\'js/analytics.js\'))\n    response.write(\'"></script>\\n  <script type="text/javascript">\\n  analytics.initialize({\\n    \\\'Google Analytics\\\':{trackingId:\\\'\', escape=False)\n    response.write(response.google_analytics_id)\n    response.write("\'} \\n  });</script>\\n  ", escape=False)\n    pass\nresponse.write(\'\\n  <script src="\', escape=False)\nresponse.write(URL(\'static\',\'js/share.js\',vars=dict(static=URL(\'static\',\'images\'))))\nresponse.write(\'"></script>\\n</body>\\n</html>\\n\\n\', escape=False)'
p7
sS'snapshot'
p8
(dp9
S'exception'
p10
(dp11
S'__getslice__'
p12
S"<method-wrapper '__getslice__' of exceptions.SyntaxError object>"
p13
sS'text'
p14
S'"            response.write(n[j][\'heading\']</li>\\n"'
p15
sS'__str__'
p16
S"<method-wrapper '__str__' of exceptions.SyntaxError object>"
p17
sS'__reduce__'
p18
S'<built-in method __reduce__ of exceptions.SyntaxError object>'
p19
sS'__dict__'
p20
S'{}'
p21
sS'__sizeof__'
p22
S'<built-in method __sizeof__ of exceptions.SyntaxError object>'
p23
sS'__init__'
p24
S"<method-wrapper '__init__' of exceptions.SyntaxError object>"
p25
sS'__setattr__'
p26
S"<method-wrapper '__setattr__' of exceptions.SyntaxError object>"
p27
sS'__reduce_ex__'
p28
S'<built-in method __reduce_ex__ of exceptions.SyntaxError object>'
p29
sS'__new__'
p30
S'<built-in method __new__ of type object>'
p31
sS'__format__'
p32
S'<built-in method __format__ of exceptions.SyntaxError object>'
p33
sS'__class__'
p34
S"<type 'exceptions.SyntaxError'>"
p35
sS'filename'
p36
S"'/home/aditi/Desktop/web2py/applications/assignment2/views/default/user_homepage.html'"
p37
sS'lineno'
p38
S'95'
p39
sS'msg'
p40
S"'invalid syntax'"
p41
sS'__doc__'
p42
S"'Invalid syntax.'"
p43
sS'__getitem__'
p44
S"<method-wrapper '__getitem__' of exceptions.SyntaxError object>"
p45
sS'__setstate__'
p46
S'<built-in method __setstate__ of exceptions.SyntaxError object>'
p47
sS'__getattribute__'
p48
S"<method-wrapper '__getattribute__' of exceptions.SyntaxError object>"
p49
sS'print_file_and_line'
p50
S'None'
p51
sS'args'
p52
S'(\'invalid syntax\', (\'/home/aditi/Desktop/web2py/applications/assignment2/views/default/user_homepage.html\', 95, 44, "            response.write(n[j][\'heading\']</li>\\n"))'
p53
sS'__subclasshook__'
p54
S'<built-in method __subclasshook__ of type object>'
p55
sS'offset'
p56
S'44'
p57
sS'__unicode__'
p58
S'<built-in method __unicode__ of exceptions.SyntaxError object>'
p59
sS'__delattr__'
p60
S"<method-wrapper '__delattr__' of exceptions.SyntaxError object>"
p61
sS'__repr__'
p62
S"<method-wrapper '__repr__' of exceptions.SyntaxError object>"
p63
sS'__hash__'
p64
S"<method-wrapper '__hash__' of exceptions.SyntaxError object>"
p65
ssS'evalue'
p66
S'invalid syntax (user_homepage.html, line 95)'
p67
sS'request'
p68
ccopy_reg
_reconstructor
p69
(cgluon.html
BEAUTIFY
p70
c__builtin__
object
p71
NtRp72
(dp73
S'attributes'
p74
(dp75
sS'components'
p76
(lp77
g69
(cgluon.html
TABLE
p78
g71
NtRp79
(dp80
g74
(dp81
S'level'
p82
I5
ssS'parent'
p83
Nsg76
(lp84
g69
(cgluon.html
TR
p85
g71
NtRp86
(dp87
g74
(dp88
sg83
g79
sg76
(lp89
g69
(cgluon.html
TD
p90
g71
NtRp91
(dp92
g74
(dp93
S'_style'
p94
S'font-weight:bold;vertical-align:top'
p95
ssg83
g86
sg76
(lp96
S'ajax'
p97
asbag69
(g90
g71
NtRp98
(dp99
g74
(dp100
S'_valign'
p101
S'top'
p102
ssg83
g86
sg76
(lp103
S':'
asbag69
(g90
g71
NtRp104
(dp105
g74
(dp106
sg83
g86
sg76
(lp107
g69
(g70
g71
NtRp108
(dp109
g74
(dp110
g82
I5
ssg83
g104
sg76
(lp111
S'False'
p112
asbasbasbag69
(g85
g71
NtRp113
(dp114
g74
(dp115
sg83
g79
sg76
(lp116
g69
(g90
g71
NtRp117
(dp118
g74
(dp119
g94
g95
ssg83
g113
sg76
(lp120
S'application'
p121
asbag69
(g90
g71
NtRp122
(dp123
g74
(dp124
g101
g102
ssg83
g113
sg76
(lp125
S':'
asbag69
(g90
g71
NtRp126
(dp127
g74
(dp128
sg83
g113
sg76
(lp129
g69
(g70
g71
NtRp130
(dp131
g74
(dp132
g82
I5
ssg83
g126
sg76
(lp133
S'assignment2'
p134
asbasbasbag69
(g85
g71
NtRp135
(dp136
g74
(dp137
sg83
g79
sg76
(lp138
g69
(g90
g71
NtRp139
(dp140
g74
(dp141
g94
g95
ssg83
g135
sg76
(lp142
g52
asbag69
(g90
g71
NtRp143
(dp144
g74
(dp145
g101
g102
ssg83
g135
sg76
(lp146
S':'
asbag69
(g90
g71
NtRp147
(dp148
g74
(dp149
sg83
g135
sg76
(lp150
g69
(g70
g71
NtRp151
(dp152
g74
(dp153
g82
I5
ssg83
g147
sg76
(lp154
g69
(g78
g71
NtRp155
(dp156
g74
(dp157
g82
I4
ssg83
Nsg76
(lp158
sbasbasbasbag69
(g85
g71
NtRp159
(dp160
g74
(dp161
sg83
g79
sg76
(lp162
g69
(g90
g71
NtRp163
(dp164
g74
(dp165
g94
g95
ssg83
g159
sg76
(lp166
S'body'
p167
asbag69
(g90
g71
NtRp168
(dp169
g74
(dp170
g101
g102
ssg83
g159
sg76
(lp171
S':'
asbag69
(g90
g71
NtRp172
(dp173
g74
(dp174
sg83
g159
sg76
(lp175
g69
(g70
g71
NtRp176
(dp177
g74
(dp178
g82
I5
ssg83
g172
sg76
(lp179
S'<cStringIO.StringO object at 0xad3a62c0>'
p180
asbasbasbag69
(g85
g71
NtRp181
(dp182
g74
(dp183
sg83
g79
sg76
(lp184
g69
(g90
g71
NtRp185
(dp186
g74
(dp187
g94
g95
ssg83
g181
sg76
(lp188
S'cid'
p189
asbag69
(g90
g71
NtRp190
(dp191
g74
(dp192
g101
g102
ssg83
g181
sg76
(lp193
S':'
asbag69
(g90
g71
NtRp194
(dp195
g74
(dp196
sg83
g181
sg76
(lp197
g69
(g70
g71
NtRp198
(dp199
g74
(dp200
g82
I5
ssg83
g194
sg76
(lp201
S'None'
p202
asbasbasbag69
(g85
g71
NtRp203
(dp204
g74
(dp205
sg83
g79
sg76
(lp206
g69
(g90
g71
NtRp207
(dp208
g74
(dp209
g94
g95
ssg83
g203
sg76
(lp210
S'client'
p211
asbag69
(g90
g71
NtRp212
(dp213
g74
(dp214
g101
g102
ssg83
g203
sg76
(lp215
S':'
asbag69
(g90
g71
NtRp216
(dp217
g74
(dp218
sg83
g203
sg76
(lp219
g69
(g70
g71
NtRp220
(dp221
g74
(dp222
g82
I5
ssg83
g216
sg76
(lp223
S'127.0.0.1'
p224
asbasbasbag69
(g85
g71
NtRp225
(dp226
g74
(dp227
sg83
g79
sg76
(lp228
g69
(g90
g71
NtRp229
(dp230
g74
(dp231
g94
g95
ssg83
g225
sg76
(lp232
S'controller'
p233
asbag69
(g90
g71
NtRp234
(dp235
g74
(dp236
g101
g102
ssg83
g225
sg76
(lp237
S':'
asbag69
(g90
g71
NtRp238
(dp239
g74
(dp240
sg83
g225
sg76
(lp241
g69
(g70
g71
NtRp242
(dp243
g74
(dp244
g82
I5
ssg83
g238
sg76
(lp245
S'default'
p246
asbasbasbag69
(g85
g71
NtRp247
(dp248
g74
(dp249
sg83
g79
sg76
(lp250
g69
(g90
g71
NtRp251
(dp252
g74
(dp253
g94
g95
ssg83
g247
sg76
(lp254
S'cookies'
p255
asbag69
(g90
g71
NtRp256
(dp257
g74
(dp258
g101
g102
ssg83
g247
sg76
(lp259
S':'
asbag69
(g90
g71
NtRp260
(dp261
g74
(dp262
sg83
g247
sg76
(lp263
g69
(g70
g71
NtRp264
(dp265
g74
(dp266
g82
I5
ssg83
g260
sg76
(lp267
g69
(g78
g71
NtRp268
(dp269
g74
(dp270
g82
I4
ssg83
Nsg76
(lp271
g69
(g85
g71
NtRp272
(dp273
g74
(dp274
sg83
g268
sg76
(lp275
g69
(g90
g71
NtRp276
(dp277
g74
(dp278
g94
g95
ssg83
g272
sg76
(lp279
S'session_id_admin'
p280
asbag69
(g90
g71
NtRp281
(dp282
g74
(dp283
g101
g102
ssg83
g272
sg76
(lp284
S':'
asbag69
(g90
g71
NtRp285
(dp286
g74
(dp287
sg83
g272
sg76
(lp288
g69
(g70
g71
NtRp289
(dp290
g74
(dp291
g82
I4
ssg83
g285
sg76
(lp292
S'127.0.0.1-9c0e4d2d-c8df-42da-a1dd-3cd897b96f95'
p293
ag69
(g78
g71
NtRp294
(dp295
g74
(dp296
g82
I3
ssg83
Nsg76
(lp297
g69
(g85
g71
NtRp298
(dp299
g74
(dp300
sg83
g294
sg76
(lp301
g69
(g90
g71
NtRp302
(dp303
g74
(dp304
g94
g95
ssg83
g298
sg76
(lp305
S'comment'
p306
asbag69
(g90
g71
NtRp307
(dp308
g74
(dp309
g101
g102
ssg83
g298
sg76
(lp310
S':'
asbag69
(g90
g71
NtRp311
(dp312
g74
(dp313
sg83
g298
sg76
(lp314
g69
(g70
g71
NtRp315
(dp316
g74
(dp317
g82
I3
ssg83
g311
sg76
(lp318
S''
asbasbasbag69
(g85
g71
NtRp319
(dp320
g74
(dp321
sg83
g294
sg76
(lp322
g69
(g90
g71
NtRp323
(dp324
g74
(dp325
g94
g95
ssg83
g319
sg76
(lp326
S'domain'
p327
asbag69
(g90
g71
NtRp328
(dp329
g74
(dp330
g101
g102
ssg83
g319
sg76
(lp331
S':'
asbag69
(g90
g71
NtRp332
(dp333
g74
(dp334
sg83
g319
sg76
(lp335
g69
(g70
g71
NtRp336
(dp337
g74
(dp338
g82
I3
ssg83
g332
sg76
(lp339
S''
asbasbasbag69
(g85
g71
NtRp340
(dp341
g74
(dp342
sg83
g294
sg76
(lp343
g69
(g90
g71
NtRp344
(dp345
g74
(dp346
g94
g95
ssg83
g340
sg76
(lp347
S'expires'
p348
asbag69
(g90
g71
NtRp349
(dp350
g74
(dp351
g101
g102
ssg83
g340
sg76
(lp352
S':'
asbag69
(g90
g71
NtRp353
(dp354
g74
(dp355
sg83
g340
sg76
(lp356
g69
(g70
g71
NtRp357
(dp358
g74
(dp359
g82
I3
ssg83
g353
sg76
(lp360
S''
asbasbasbag69
(g85
g71
NtRp361
(dp362
g74
(dp363
sg83
g294
sg76
(lp364
g69
(g90
g71
NtRp365
(dp366
g74
(dp367
g94
g95
ssg83
g361
sg76
(lp368
S'httponly'
p369
asbag69
(g90
g71
NtRp370
(dp371
g74
(dp372
g101
g102
ssg83
g361
sg76
(lp373
S':'
asbag69
(g90
g71
NtRp374
(dp375
g74
(dp376
sg83
g361
sg76
(lp377
g69
(g70
g71
NtRp378
(dp379
g74
(dp380
g82
I3
ssg83
g374
sg76
(lp381
S''
asbasbasbag69
(g85
g71
NtRp382
(dp383
g74
(dp384
sg83
g294
sg76
(lp385
g69
(g90
g71
NtRp386
(dp387
g74
(dp388
g94
g95
ssg83
g382
sg76
(lp389
S'max-age'
p390
asbag69
(g90
g71
NtRp391
(dp392
g74
(dp393
g101
g102
ssg83
g382
sg76
(lp394
S':'
asbag69
(g90
g71
NtRp395
(dp396
g74
(dp397
sg83
g382
sg76
(lp398
g69
(g70
g71
NtRp399
(dp400
g74
(dp401
g82
I3
ssg83
g395
sg76
(lp402
S''
asbasbasbag69
(g85
g71
NtRp403
(dp404
g74
(dp405
sg83
g294
sg76
(lp406
g69
(g90
g71
NtRp407
(dp408
g74
(dp409
g94
g95
ssg83
g403
sg76
(lp410
S'path'
p411
asbag69
(g90
g71
NtRp412
(dp413
g74
(dp414
g101
g102
ssg83
g403
sg76
(lp415
S':'
asbag69
(g90
g71
NtRp416
(dp417
g74
(dp418
sg83
g403
sg76
(lp419
g69
(g70
g71
NtRp420
(dp421
g74
(dp422
g82
I3
ssg83
g416
sg76
(lp423
S''
asbasbasbag69
(g85
g71
NtRp424
(dp425
g74
(dp426
sg83
g294
sg76
(lp427
g69
(g90
g71
NtRp428
(dp429
g74
(dp430
g94
g95
ssg83
g424
sg76
(lp431
S'secure'
p432
asbag69
(g90
g71
NtRp433
(dp434
g74
(dp435
g101
g102
ssg83
g424
sg76
(lp436
S':'
asbag69
(g90
g71
NtRp437
(dp438
g74
(dp439
sg83
g424
sg76
(lp440
g69
(g70
g71
NtRp441
(dp442
g74
(dp443
g82
I3
ssg83
g437
sg76
(lp444
S''
asbasbasbag69
(g85
g71
NtRp445
(dp446
g74
(dp447
sg83
g294
sg76
(lp448
g69
(g90
g71
NtRp449
(dp450
g74
(dp451
g94
g95
ssg83
g445
sg76
(lp452
S'version'
p453
asbag69
(g90
g71
NtRp454
(dp455
g74
(dp456
g101
g102
ssg83
g445
sg76
(lp457
S':'
asbag69
(g90
g71
NtRp458
(dp459
g74
(dp460
sg83
g445
sg76
(lp461
g69
(g70
g71
NtRp462
(dp463
g74
(dp464
g82
I3
ssg83
g458
sg76
(lp465
S''
asbasbasbasbasbasbasbag69
(g85
g71
NtRp466
(dp467
g74
(dp468
sg83
g268
sg76
(lp469
g69
(g90
g71
NtRp470
(dp471
g74
(dp472
g94
g95
ssg83
g466
sg76
(lp473
S'session_id_assignment2'
p474
asbag69
(g90
g71
NtRp475
(dp476
g74
(dp477
g101
g102
ssg83
g466
sg76
(lp478
S':'
asbag69
(g90
g71
NtRp479
(dp480
g74
(dp481
sg83
g466
sg76
(lp482
g69
(g70
g71
NtRp483
(dp484
g74
(dp485
g82
I4
ssg83
g479
sg76
(lp486
S'127.0.0.1-df3317b1-fbdf-40a6-bfa1-0af1b15533cc'
p487
ag69
(g78
g71
NtRp488
(dp489
g74
(dp490
g82
I3
ssg83
Nsg76
(lp491
g69
(g85
g71
NtRp492
(dp493
g74
(dp494
sg83
g488
sg76
(lp495
g69
(g90
g71
NtRp496
(dp497
g74
(dp498
g94
g95
ssg83
g492
sg76
(lp499
g306
asbag69
(g90
g71
NtRp500
(dp501
g74
(dp502
g101
g102
ssg83
g492
sg76
(lp503
S':'
asbag69
(g90
g71
NtRp504
(dp505
g74
(dp506
sg83
g492
sg76
(lp507
g69
(g70
g71
NtRp508
(dp509
g74
(dp510
g82
I3
ssg83
g504
sg76
(lp511
S''
asbasbasbag69
(g85
g71
NtRp512
(dp513
g74
(dp514
sg83
g488
sg76
(lp515
g69
(g90
g71
NtRp516
(dp517
g74
(dp518
g94
g95
ssg83
g512
sg76
(lp519
g327
asbag69
(g90
g71
NtRp520
(dp521
g74
(dp522
g101
g102
ssg83
g512
sg76
(lp523
S':'
asbag69
(g90
g71
NtRp524
(dp525
g74
(dp526
sg83
g512
sg76
(lp527
g69
(g70
g71
NtRp528
(dp529
g74
(dp530
g82
I3
ssg83
g524
sg76
(lp531
S''
asbasbasbag69
(g85
g71
NtRp532
(dp533
g74
(dp534
sg83
g488
sg76
(lp535
g69
(g90
g71
NtRp536
(dp537
g74
(dp538
g94
g95
ssg83
g532
sg76
(lp539
g348
asbag69
(g90
g71
NtRp540
(dp541
g74
(dp542
g101
g102
ssg83
g532
sg76
(lp543
S':'
asbag69
(g90
g71
NtRp544
(dp545
g74
(dp546
sg83
g532
sg76
(lp547
g69
(g70
g71
NtRp548
(dp549
g74
(dp550
g82
I3
ssg83
g544
sg76
(lp551
S''
asbasbasbag69
(g85
g71
NtRp552
(dp553
g74
(dp554
sg83
g488
sg76
(lp555
g69
(g90
g71
NtRp556
(dp557
g74
(dp558
g94
g95
ssg83
g552
sg76
(lp559
g369
asbag69
(g90
g71
NtRp560
(dp561
g74
(dp562
g101
g102
ssg83
g552
sg76
(lp563
S':'
asbag69
(g90
g71
NtRp564
(dp565
g74
(dp566
sg83
g552
sg76
(lp567
g69
(g70
g71
NtRp568
(dp569
g74
(dp570
g82
I3
ssg83
g564
sg76
(lp571
S''
asbasbasbag69
(g85
g71
NtRp572
(dp573
g74
(dp574
sg83
g488
sg76
(lp575
g69
(g90
g71
NtRp576
(dp577
g74
(dp578
g94
g95
ssg83
g572
sg76
(lp579
g390
asbag69
(g90
g71
NtRp580
(dp581
g74
(dp582
g101
g102
ssg83
g572
sg76
(lp583
S':'
asbag69
(g90
g71
NtRp584
(dp585
g74
(dp586
sg83
g572
sg76
(lp587
g69
(g70
g71
NtRp588
(dp589
g74
(dp590
g82
I3
ssg83
g584
sg76
(lp591
S''
asbasbasbag69
(g85
g71
NtRp592
(dp593
g74
(dp594
sg83
g488
sg76
(lp595
g69
(g90
g71
NtRp596
(dp597
g74
(dp598
g94
g95
ssg83
g592
sg76
(lp599
g411
asbag69
(g90
g71
NtRp600
(dp601
g74
(dp602
g101
g102
ssg83
g592
sg76
(lp603
S':'
asbag69
(g90
g71
NtRp604
(dp605
g74
(dp606
sg83
g592
sg76
(lp607
g69
(g70
g71
NtRp608
(dp609
g74
(dp610
g82
I3
ssg83
g604
sg76
(lp611
S''
asbasbasbag69
(g85
g71
NtRp612
(dp613
g74
(dp614
sg83
g488
sg76
(lp615
g69
(g90
g71
NtRp616
(dp617
g74
(dp618
g94
g95
ssg83
g612
sg76
(lp619
g432
asbag69
(g90
g71
NtRp620
(dp621
g74
(dp622
g101
g102
ssg83
g612
sg76
(lp623
S':'
asbag69
(g90
g71
NtRp624
(dp625
g74
(dp626
sg83
g612
sg76
(lp627
g69
(g70
g71
NtRp628
(dp629
g74
(dp630
g82
I3
ssg83
g624
sg76
(lp631
S''
asbasbasbag69
(g85
g71
NtRp632
(dp633
g74
(dp634
sg83
g488
sg76
(lp635
g69
(g90
g71
NtRp636
(dp637
g74
(dp638
g94
g95
ssg83
g632
sg76
(lp639
g453
asbag69
(g90
g71
NtRp640
(dp641
g74
(dp642
g101
g102
ssg83
g632
sg76
(lp643
S':'
asbag69
(g90
g71
NtRp644
(dp645
g74
(dp646
sg83
g632
sg76
(lp647
g69
(g70
g71
NtRp648
(dp649
g74
(dp650
g82
I3
ssg83
g644
sg76
(lp651
S''
asbasbasbasbasbasbasbag69
(g85
g71
NtRp652
(dp653
g74
(dp654
sg83
g268
sg76
(lp655
g69
(g90
g71
NtRp656
(dp657
g74
(dp658
g94
g95
ssg83
g652
sg76
(lp659
S'session_id_welcome'
p660
asbag69
(g90
g71
NtRp661
(dp662
g74
(dp663
g101
g102
ssg83
g652
sg76
(lp664
S':'
asbag69
(g90
g71
NtRp665
(dp666
g74
(dp667
sg83
g652
sg76
(lp668
g69
(g70
g71
NtRp669
(dp670
g74
(dp671
g82
I4
ssg83
g665
sg76
(lp672
S'127.0.0.1-6aa11d39-ce3f-4f8c-b6ea-9cd6a4750daa'
p673
ag69
(g78
g71
NtRp674
(dp675
g74
(dp676
g82
I3
ssg83
Nsg76
(lp677
g69
(g85
g71
NtRp678
(dp679
g74
(dp680
sg83
g674
sg76
(lp681
g69
(g90
g71
NtRp682
(dp683
g74
(dp684
g94
g95
ssg83
g678
sg76
(lp685
g306
asbag69
(g90
g71
NtRp686
(dp687
g74
(dp688
g101
g102
ssg83
g678
sg76
(lp689
S':'
asbag69
(g90
g71
NtRp690
(dp691
g74
(dp692
sg83
g678
sg76
(lp693
g69
(g70
g71
NtRp694
(dp695
g74
(dp696
g82
I3
ssg83
g690
sg76
(lp697
S''
asbasbasbag69
(g85
g71
NtRp698
(dp699
g74
(dp700
sg83
g674
sg76
(lp701
g69
(g90
g71
NtRp702
(dp703
g74
(dp704
g94
g95
ssg83
g698
sg76
(lp705
g327
asbag69
(g90
g71
NtRp706
(dp707
g74
(dp708
g101
g102
ssg83
g698
sg76
(lp709
S':'
asbag69
(g90
g71
NtRp710
(dp711
g74
(dp712
sg83
g698
sg76
(lp713
g69
(g70
g71
NtRp714
(dp715
g74
(dp716
g82
I3
ssg83
g710
sg76
(lp717
S''
asbasbasbag69
(g85
g71
NtRp718
(dp719
g74
(dp720
sg83
g674
sg76
(lp721
g69
(g90
g71
NtRp722
(dp723
g74
(dp724
g94
g95
ssg83
g718
sg76
(lp725
g348
asbag69
(g90
g71
NtRp726
(dp727
g74
(dp728
g101
g102
ssg83
g718
sg76
(lp729
S':'
asbag69
(g90
g71
NtRp730
(dp731
g74
(dp732
sg83
g718
sg76
(lp733
g69
(g70
g71
NtRp734
(dp735
g74
(dp736
g82
I3
ssg83
g730
sg76
(lp737
S''
asbasbasbag69
(g85
g71
NtRp738
(dp739
g74
(dp740
sg83
g674
sg76
(lp741
g69
(g90
g71
NtRp742
(dp743
g74
(dp744
g94
g95
ssg83
g738
sg76
(lp745
g369
asbag69
(g90
g71
NtRp746
(dp747
g74
(dp748
g101
g102
ssg83
g738
sg76
(lp749
S':'
asbag69
(g90
g71
NtRp750
(dp751
g74
(dp752
sg83
g738
sg76
(lp753
g69
(g70
g71
NtRp754
(dp755
g74
(dp756
g82
I3
ssg83
g750
sg76
(lp757
S''
asbasbasbag69
(g85
g71
NtRp758
(dp759
g74
(dp760
sg83
g674
sg76
(lp761
g69
(g90
g71
NtRp762
(dp763
g74
(dp764
g94
g95
ssg83
g758
sg76
(lp765
g390
asbag69
(g90
g71
NtRp766
(dp767
g74
(dp768
g101
g102
ssg83
g758
sg76
(lp769
S':'
asbag69
(g90
g71
NtRp770
(dp771
g74
(dp772
sg83
g758
sg76
(lp773
g69
(g70
g71
NtRp774
(dp775
g74
(dp776
g82
I3
ssg83
g770
sg76
(lp777
S''
asbasbasbag69
(g85
g71
NtRp778
(dp779
g74
(dp780
sg83
g674
sg76
(lp781
g69
(g90
g71
NtRp782
(dp783
g74
(dp784
g94
g95
ssg83
g778
sg76
(lp785
g411
asbag69
(g90
g71
NtRp786
(dp787
g74
(dp788
g101
g102
ssg83
g778
sg76
(lp789
S':'
asbag69
(g90
g71
NtRp790
(dp791
g74
(dp792
sg83
g778
sg76
(lp793
g69
(g70
g71
NtRp794
(dp795
g74
(dp796
g82
I3
ssg83
g790
sg76
(lp797
S''
asbasbasbag69
(g85
g71
NtRp798
(dp799
g74
(dp800
sg83
g674
sg76
(lp801
g69
(g90
g71
NtRp802
(dp803
g74
(dp804
g94
g95
ssg83
g798
sg76
(lp805
g432
asbag69
(g90
g71
NtRp806
(dp807
g74
(dp808
g101
g102
ssg83
g798
sg76
(lp809
S':'
asbag69
(g90
g71
NtRp810
(dp811
g74
(dp812
sg83
g798
sg76
(lp813
g69
(g70
g71
NtRp814
(dp815
g74
(dp816
g82
I3
ssg83
g810
sg76
(lp817
S''
asbasbasbag69
(g85
g71
NtRp818
(dp819
g74
(dp820
sg83
g674
sg76
(lp821
g69
(g90
g71
NtRp822
(dp823
g74
(dp824
g94
g95
ssg83
g818
sg76
(lp825
g453
asbag69
(g90
g71
NtRp826
(dp827
g74
(dp828
g101
g102
ssg83
g818
sg76
(lp829
S':'
asbag69
(g90
g71
NtRp830
(dp831
g74
(dp832
sg83
g818
sg76
(lp833
g69
(g70
g71
NtRp834
(dp835
g74
(dp836
g82
I3
ssg83
g830
sg76
(lp837
S''
asbasbasbasbasbasbasbasbasbasbasbag69
(g85
g71
NtRp838
(dp839
g74
(dp840
sg83
g79
sg76
(lp841
g69
(g90
g71
NtRp842
(dp843
g74
(dp844
g94
g95
ssg83
g838
sg76
(lp845
S'env'
p846
asbag69
(g90
g71
NtRp847
(dp848
g74
(dp849
g101
g102
ssg83
g838
sg76
(lp850
S':'
asbag69
(g90
g71
NtRp851
(dp852
g74
(dp853
sg83
g838
sg76
(lp854
g69
(g70
g71
NtRp855
(dp856
g74
(dp857
g82
I5
ssg83
g851
sg76
(lp858
g69
(g78
g71
NtRp859
(dp860
g74
(dp861
g82
I4
ssg83
Nsg76
(lp862
g69
(g85
g71
NtRp863
(dp864
g74
(dp865
sg83
g859
sg76
(lp866
g69
(g90
g71
NtRp867
(dp868
g74
(dp869
g94
g95
ssg83
g863
sg76
(lp870
S'app_folders'
p871
asbag69
(g90
g71
NtRp872
(dp873
g74
(dp874
g101
g102
ssg83
g863
sg76
(lp875
S':'
asbag69
(g90
g71
NtRp876
(dp877
g74
(dp878
sg83
g863
sg76
(lp879
g69
(g70
g71
NtRp880
(dp881
g74
(dp882
g82
I4
ssg83
g876
sg76
(lp883
S"set(['/home/aditi/Desktop/web2py/applications/assignment2/', '/home/aditi/Desktop/web2py/applications/admin/', '/home/aditi/Desktop/web2py/applications/welcome/'])"
p884
asbasbasbag69
(g85
g71
NtRp885
(dp886
g74
(dp887
sg83
g859
sg76
(lp888
g69
(g90
g71
NtRp889
(dp890
g74
(dp891
g94
g95
ssg83
g885
sg76
(lp892
S'applications_parent'
p893
asbag69
(g90
g71
NtRp894
(dp895
g74
(dp896
g101
g102
ssg83
g885
sg76
(lp897
S':'
asbag69
(g90
g71
NtRp898
(dp899
g74
(dp900
sg83
g885
sg76
(lp901
g69
(g70
g71
NtRp902
(dp903
g74
(dp904
g82
I4
ssg83
g898
sg76
(lp905
S'/home/aditi/Desktop/web2py'
p906
asbasbasbag69
(g85
g71
NtRp907
(dp908
g74
(dp909
sg83
g859
sg76
(lp910
g69
(g90
g71
NtRp911
(dp912
g74
(dp913
g94
g95
ssg83
g907
sg76
(lp914
S'cmd_args'
p915
asbag69
(g90
g71
NtRp916
(dp917
g74
(dp918
g101
g102
ssg83
g907
sg76
(lp919
S':'
asbag69
(g90
g71
NtRp920
(dp921
g74
(dp922
sg83
g907
sg76
(lp923
g69
(g70
g71
NtRp924
(dp925
g74
(dp926
g82
I4
ssg83
g920
sg76
(lp927
g69
(g78
g71
NtRp928
(dp929
g74
(dp930
g82
I3
ssg83
Nsg76
(lp931
sbasbasbasbag69
(g85
g71
NtRp932
(dp933
g74
(dp934
sg83
g859
sg76
(lp935
g69
(g90
g71
NtRp936
(dp937
g74
(dp938
g94
g95
ssg83
g932
sg76
(lp939
S'cmd_options'
p940
asbag69
(g90
g71
NtRp941
(dp942
g74
(dp943
g101
g102
ssg83
g932
sg76
(lp944
S':'
asbag69
(g90
g71
NtRp945
(dp946
g74
(dp947
sg83
g932
sg76
(lp948
g69
(g70
g71
NtRp949
(dp950
g74
(dp951
g82
I4
ssg83
g945
sg76
(lp952
S"<Values at 0xa651a0c: {'verbose': False, 'ip': '127.0.0.1', 'with_scheduler': False, 'ips': [], 'shutdown_timeout': 5, 'taskbar': False, 'port': 8000, 'maxthreads': None, 'softcron': False, 'server_name': 'ubuntu', 'bpython': False, 'nogui': False, 'pid_filename': 'httpserver.pid', 'extcron': False, 'runcron': False, 'run_system_tests': False, 'test': None, 'folder': '/home/aditi/Desktop/web2py', 'config': '', 'import_models': False, 'winservice': '', 'shell': None, 'run': '', 'log_filename': 'httpserver.log', 'debuglevel': 30, 'args': [''], 'socket_timeout': 5, 'ssl_ca_certificate': None, 'scheduler': None, 'profiler_filename': None, 'ssl_private_key': '', 'scheduler_groups': None, 'password': '<ask>', 'request_queue_size': 5, 'ssl_certificate': '', 'cronjob': False, 'numthreads': None, 'quiet': False, 'interfaces': None, 'minthreads': None, 'timeout': 10, 'plain': False, 'nobanner': False}>"
p953
asbasbasbag69
(g85
g71
NtRp954
(dp955
g74
(dp956
sg83
g859
sg76
(lp957
g69
(g90
g71
NtRp958
(dp959
g74
(dp960
g94
g95
ssg83
g954
sg76
(lp961
S'db_sessions'
p962
asbag69
(g90
g71
NtRp963
(dp964
g74
(dp965
g101
g102
ssg83
g954
sg76
(lp966
S':'
asbag69
(g90
g71
NtRp967
(dp968
g74
(dp969
sg83
g954
sg76
(lp970
g69
(g70
g71
NtRp971
(dp972
g74
(dp973
g82
I4
ssg83
g967
sg76
(lp974
S'set([])'
p975
asbasbasbag69
(g85
g71
NtRp976
(dp977
g74
(dp978
sg83
g859
sg76
(lp979
g69
(g90
g71
NtRp980
(dp981
g74
(dp982
g94
g95
ssg83
g976
sg76
(lp983
S'debugging'
p984
asbag69
(g90
g71
NtRp985
(dp986
g74
(dp987
g101
g102
ssg83
g976
sg76
(lp988
S':'
asbag69
(g90
g71
NtRp989
(dp990
g74
(dp991
sg83
g976
sg76
(lp992
g69
(g70
g71
NtRp993
(dp994
g74
(dp995
g82
I4
ssg83
g989
sg76
(lp996
g112
asbasbasbag69
(g85
g71
NtRp997
(dp998
g74
(dp999
sg83
g859
sg76
(lp1000
g69
(g90
g71
NtRp1001
(dp1002
g74
(dp1003
g94
g95
ssg83
g997
sg76
(lp1004
S'gluon_parent'
p1005
asbag69
(g90
g71
NtRp1006
(dp1007
g74
(dp1008
g101
g102
ssg83
g997
sg76
(lp1009
S':'
asbag69
(g90
g71
NtRp1010
(dp1011
g74
(dp1012
sg83
g997
sg76
(lp1013
g69
(g70
g71
NtRp1014
(dp1015
g74
(dp1016
g82
I4
ssg83
g1010
sg76
(lp1017
S'/home/aditi/Desktop/web2py'
p1018
asbasbasbag69
(g85
g71
NtRp1019
(dp1020
g74
(dp1021
sg83
g859
sg76
(lp1022
g69
(g90
g71
NtRp1023
(dp1024
g74
(dp1025
g94
g95
ssg83
g1019
sg76
(lp1026
S'http_accept'
p1027
asbag69
(g90
g71
NtRp1028
(dp1029
g74
(dp1030
g101
g102
ssg83
g1019
sg76
(lp1031
S':'
asbag69
(g90
g71
NtRp1032
(dp1033
g74
(dp1034
sg83
g1019
sg76
(lp1035
g69
(g70
g71
NtRp1036
(dp1037
g74
(dp1038
g82
I4
ssg83
g1032
sg76
(lp1039
S'text/html,application/xhtml+xml,application/xml;q=0.9,*/*;q=0.8'
p1040
asbasbasbag69
(g85
g71
NtRp1041
(dp1042
g74
(dp1043
sg83
g859
sg76
(lp1044
g69
(g90
g71
NtRp1045
(dp1046
g74
(dp1047
g94
g95
ssg83
g1041
sg76
(lp1048
S'http_accept_encoding'
p1049
asbag69
(g90
g71
NtRp1050
(dp1051
g74
(dp1052
g101
g102
ssg83
g1041
sg76
(lp1053
S':'
asbag69
(g90
g71
NtRp1054
(dp1055
g74
(dp1056
sg83
g1041
sg76
(lp1057
g69
(g70
g71
NtRp1058
(dp1059
g74
(dp1060
g82
I4
ssg83
g1054
sg76
(lp1061
S'gzip, deflate'
p1062
asbasbasbag69
(g85
g71
NtRp1063
(dp1064
g74
(dp1065
sg83
g859
sg76
(lp1066
g69
(g90
g71
NtRp1067
(dp1068
g74
(dp1069
g94
g95
ssg83
g1063
sg76
(lp1070
S'http_accept_language'
p1071
asbag69
(g90
g71
NtRp1072
(dp1073
g74
(dp1074
g101
g102
ssg83
g1063
sg76
(lp1075
S':'
asbag69
(g90
g71
NtRp1076
(dp1077
g74
(dp1078
sg83
g1063
sg76
(lp1079
g69
(g70
g71
NtRp1080
(dp1081
g74
(dp1082
g82
I4
ssg83
g1076
sg76
(lp1083
S'en-US,en;q=0.5'
p1084
asbasbasbag69
(g85
g71
NtRp1085
(dp1086
g74
(dp1087
sg83
g859
sg76
(lp1088
g69
(g90
g71
NtRp1089
(dp1090
g74
(dp1091
g94
g95
ssg83
g1085
sg76
(lp1092
S'http_connection'
p1093
asbag69
(g90
g71
NtRp1094
(dp1095
g74
(dp1096
g101
g102
ssg83
g1085
sg76
(lp1097
S':'
asbag69
(g90
g71
NtRp1098
(dp1099
g74
(dp1100
sg83
g1085
sg76
(lp1101
g69
(g70
g71
NtRp1102
(dp1103
g74
(dp1104
g82
I4
ssg83
g1098
sg76
(lp1105
S'keep-alive'
p1106
asbasbasbag69
(g85
g71
NtRp1107
(dp1108
g74
(dp1109
sg83
g859
sg76
(lp1110
g69
(g90
g71
NtRp1111
(dp1112
g74
(dp1113
g94
g95
ssg83
g1107
sg76
(lp1114
S'http_cookie'
p1115
asbag69
(g90
g71
NtRp1116
(dp1117
g74
(dp1118
g101
g102
ssg83
g1107
sg76
(lp1119
S':'
asbag69
(g90
g71
NtRp1120
(dp1121
g74
(dp1122
sg83
g1107
sg76
(lp1123
g69
(g70
g71
NtRp1124
(dp1125
g74
(dp1126
g82
I4
ssg83
g1120
sg76
(lp1127
S'session_id_welcome=127.0.0.1-6aa11d39-ce3f-4f8c-b6ea-9cd6a4750daa; session_id_admin=127.0.0.1-9c0e4d2d-c8df-42da-a1dd-3cd897b96f95; session_id_assignment2=127.0.0.1-df3317b1-fbdf-40a6-bfa1-0af1b15533cc'
p1128
asbasbasbag69
(g85
g71
NtRp1129
(dp1130
g74
(dp1131
sg83
g859
sg76
(lp1132
g69
(g90
g71
NtRp1133
(dp1134
g74
(dp1135
g94
g95
ssg83
g1129
sg76
(lp1136
S'http_host'
p1137
asbag69
(g90
g71
NtRp1138
(dp1139
g74
(dp1140
g101
g102
ssg83
g1129
sg76
(lp1141
S':'
asbag69
(g90
g71
NtRp1142
(dp1143
g74
(dp1144
sg83
g1129
sg76
(lp1145
g69
(g70
g71
NtRp1146
(dp1147
g74
(dp1148
g82
I4
ssg83
g1142
sg76
(lp1149
S'127.0.0.1:8000'
p1150
asbasbasbag69
(g85
g71
NtRp1151
(dp1152
g74
(dp1153
sg83
g859
sg76
(lp1154
g69
(g90
g71
NtRp1155
(dp1156
g74
(dp1157
g94
g95
ssg83
g1151
sg76
(lp1158
S'http_referer'
p1159
asbag69
(g90
g71
NtRp1160
(dp1161
g74
(dp1162
g101
g102
ssg83
g1151
sg76
(lp1163
S':'
asbag69
(g90
g71
NtRp1164
(dp1165
g74
(dp1166
sg83
g1151
sg76
(lp1167
g69
(g70
g71
NtRp1168
(dp1169
g74
(dp1170
g82
I4
ssg83
g1164
sg76
(lp1171
S'http://127.0.0.1:8000/admin/default/design/assignment2'
p1172
asbasbasbag69
(g85
g71
NtRp1173
(dp1174
g74
(dp1175
sg83
g859
sg76
(lp1176
g69
(g90
g71
NtRp1177
(dp1178
g74
(dp1179
g94
g95
ssg83
g1173
sg76
(lp1180
S'http_user_agent'
p1181
asbag69
(g90
g71
NtRp1182
(dp1183
g74
(dp1184
g101
g102
ssg83
g1173
sg76
(lp1185
S':'
asbag69
(g90
g71
NtRp1186
(dp1187
g74
(dp1188
sg83
g1173
sg76
(lp1189
g69
(g70
g71
NtRp1190
(dp1191
g74
(dp1192
g82
I4
ssg83
g1186
sg76
(lp1193
S'Mozilla/5.0 (X11; Ubuntu; Linux i686; rv:23.0) Gecko/20100101 Firefox/23.0'
p1194
asbasbasbag69
(g85
g71
NtRp1195
(dp1196
g74
(dp1197
sg83
g859
sg76
(lp1198
g69
(g90
g71
NtRp1199
(dp1200
g74
(dp1201
g94
g95
ssg83
g1195
sg76
(lp1202
S'is_jython'
p1203
asbag69
(g90
g71
NtRp1204
(dp1205
g74
(dp1206
g101
g102
ssg83
g1195
sg76
(lp1207
S':'
asbag69
(g90
g71
NtRp1208
(dp1209
g74
(dp1210
sg83
g1195
sg76
(lp1211
g69
(g70
g71
NtRp1212
(dp1213
g74
(dp1214
g82
I4
ssg83
g1208
sg76
(lp1215
g112
asbasbasbag69
(g85
g71
NtRp1216
(dp1217
g74
(dp1218
sg83
g859
sg76
(lp1219
g69
(g90
g71
NtRp1220
(dp1221
g74
(dp1222
g94
g95
ssg83
g1216
sg76
(lp1223
S'is_pypy'
p1224
asbag69
(g90
g71
NtRp1225
(dp1226
g74
(dp1227
g101
g102
ssg83
g1216
sg76
(lp1228
S':'
asbag69
(g90
g71
NtRp1229
(dp1230
g74
(dp1231
sg83
g1216
sg76
(lp1232
g69
(g70
g71
NtRp1233
(dp1234
g74
(dp1235
g82
I4
ssg83
g1229
sg76
(lp1236
g112
asbasbasbag69
(g85
g71
NtRp1237
(dp1238
g74
(dp1239
sg83
g859
sg76
(lp1240
g69
(g90
g71
NtRp1241
(dp1242
g74
(dp1243
g94
g95
ssg83
g1237
sg76
(lp1244
S'local_hosts'
p1245
asbag69
(g90
g71
NtRp1246
(dp1247
g74
(dp1248
g101
g102
ssg83
g1237
sg76
(lp1249
S':'
asbag69
(g90
g71
NtRp1250
(dp1251
g74
(dp1252
sg83
g1237
sg76
(lp1253
g69
(g70
g71
NtRp1254
(dp1255
g74
(dp1256
g82
I4
ssg83
g1250
sg76
(lp1257
g69
(g78
g71
NtRp1258
(dp1259
g74
(dp1260
g82
I3
ssg83
Nsg76
(lp1261
g69
(g85
g71
NtRp1262
(dp1263
g74
(dp1264
sg83
g1258
sg76
(lp1265
g69
(g90
g71
NtRp1266
(dp1267
g74
(dp1268
sg83
g1262
sg76
(lp1269
g69
(g70
g71
NtRp1270
(dp1271
g74
(dp1272
g82
I3
ssg83
g1266
sg76
(lp1273
S'ubuntu.ubuntu-domain'
p1274
asbasbasbag69
(g85
g71
NtRp1275
(dp1276
g74
(dp1277
sg83
g1258
sg76
(lp1278
g69
(g90
g71
NtRp1279
(dp1280
g74
(dp1281
sg83
g1275
sg76
(lp1282
g69
(g70
g71
NtRp1283
(dp1284
g74
(dp1285
g82
I3
ssg83
g1279
sg76
(lp1286
S'::ffff:127.0.0.1'
p1287
asbasbasbag69
(g85
g71
NtRp1288
(dp1289
g74
(dp1290
sg83
g1258
sg76
(lp1291
g69
(g90
g71
NtRp1292
(dp1293
g74
(dp1294
sg83
g1288
sg76
(lp1295
g69
(g70
g71
NtRp1296
(dp1297
g74
(dp1298
g82
I3
ssg83
g1292
sg76
(lp1299
S'::1'
p1300
asbasbasbag69
(g85
g71
NtRp1301
(dp1302
g74
(dp1303
sg83
g1258
sg76
(lp1304
g69
(g90
g71
NtRp1305
(dp1306
g74
(dp1307
sg83
g1301
sg76
(lp1308
g69
(g70
g71
NtRp1309
(dp1310
g74
(dp1311
g82
I3
ssg83
g1305
sg76
(lp1312
S'ubuntu'
p1313
asbasbasbag69
(g85
g71
NtRp1314
(dp1315
g74
(dp1316
sg83
g1258
sg76
(lp1317
g69
(g90
g71
NtRp1318
(dp1319
g74
(dp1320
sg83
g1314
sg76
(lp1321
g69
(g70
g71
NtRp1322
(dp1323
g74
(dp1324
g82
I3
ssg83
g1318
sg76
(lp1325
S'127.0.1.1'
p1326
asbasbasbag69
(g85
g71
NtRp1327
(dp1328
g74
(dp1329
sg83
g1258
sg76
(lp1330
g69
(g90
g71
NtRp1331
(dp1332
g74
(dp1333
sg83
g1327
sg76
(lp1334
g69
(g70
g71
NtRp1335
(dp1336
g74
(dp1337
g82
I3
ssg83
g1331
sg76
(lp1338
S'127.0.0.1'
p1339
asbasbasbasbasbasbasbag69
(g85
g71
NtRp1340
(dp1341
g74
(dp1342
sg83
g859
sg76
(lp1343
g69
(g90
g71
NtRp1344
(dp1345
g74
(dp1346
g94
g95
ssg83
g1340
sg76
(lp1347
S'path_info'
p1348
asbag69
(g90
g71
NtRp1349
(dp1350
g74
(dp1351
g101
g102
ssg83
g1340
sg76
(lp1352
S':'
asbag69
(g90
g71
NtRp1353
(dp1354
g74
(dp1355
sg83
g1340
sg76
(lp1356
g69
(g70
g71
NtRp1357
(dp1358
g74
(dp1359
g82
I4
ssg83
g1353
sg76
(lp1360
S'/assignment2/default/user_homepage'
p1361
asbasbasbag69
(g85
g71
NtRp1362
(dp1363
g74
(dp1364
sg83
g859
sg76
(lp1365
g69
(g90
g71
NtRp1366
(dp1367
g74
(dp1368
g94
g95
ssg83
g1362
sg76
(lp1369
S'query_string'
p1370
asbag69
(g90
g71
NtRp1371
(dp1372
g74
(dp1373
g101
g102
ssg83
g1362
sg76
(lp1374
S':'
asbag69
(g90
g71
NtRp1375
(dp1376
g74
(dp1377
sg83
g1362
sg76
(lp1378
g69
(g70
g71
NtRp1379
(dp1380
g74
(dp1381
g82
I4
ssg83
g1375
sg76
(lp1382
S''
asbasbasbag69
(g85
g71
NtRp1383
(dp1384
g74
(dp1385
sg83
g859
sg76
(lp1386
g69
(g90
g71
NtRp1387
(dp1388
g74
(dp1389
g94
g95
ssg83
g1383
sg76
(lp1390
S'remote_addr'
p1391
asbag69
(g90
g71
NtRp1392
(dp1393
g74
(dp1394
g101
g102
ssg83
g1383
sg76
(lp1395
S':'
asbag69
(g90
g71
NtRp1396
(dp1397
g74
(dp1398
sg83
g1383
sg76
(lp1399
g69
(g70
g71
NtRp1400
(dp1401
g74
(dp1402
g82
I4
ssg83
g1396
sg76
(lp1403
g224
asbasbasbag69
(g85
g71
NtRp1404
(dp1405
g74
(dp1406
sg83
g859
sg76
(lp1407
g69
(g90
g71
NtRp1408
(dp1409
g74
(dp1410
g94
g95
ssg83
g1404
sg76
(lp1411
S'remote_port'
p1412
asbag69
(g90
g71
NtRp1413
(dp1414
g74
(dp1415
g101
g102
ssg83
g1404
sg76
(lp1416
S':'
asbag69
(g90
g71
NtRp1417
(dp1418
g74
(dp1419
sg83
g1404
sg76
(lp1420
g69
(g70
g71
NtRp1421
(dp1422
g74
(dp1423
g82
I4
ssg83
g1417
sg76
(lp1424
S'33037'
p1425
asbasbasbag69
(g85
g71
NtRp1426
(dp1427
g74
(dp1428
sg83
g859
sg76
(lp1429
g69
(g90
g71
NtRp1430
(dp1431
g74
(dp1432
g94
g95
ssg83
g1426
sg76
(lp1433
S'request_method'
p1434
asbag69
(g90
g71
NtRp1435
(dp1436
g74
(dp1437
g101
g102
ssg83
g1426
sg76
(lp1438
S':'
asbag69
(g90
g71
NtRp1439
(dp1440
g74
(dp1441
sg83
g1426
sg76
(lp1442
g69
(g70
g71
NtRp1443
(dp1444
g74
(dp1445
g82
I4
ssg83
g1439
sg76
(lp1446
S'GET'
p1447
asbasbasbag69
(g85
g71
NtRp1448
(dp1449
g74
(dp1450
sg83
g859
sg76
(lp1451
g69
(g90
g71
NtRp1452
(dp1453
g74
(dp1454
g94
g95
ssg83
g1448
sg76
(lp1455
S'request_uri'
p1456
asbag69
(g90
g71
NtRp1457
(dp1458
g74
(dp1459
g101
g102
ssg83
g1448
sg76
(lp1460
S':'
asbag69
(g90
g71
NtRp1461
(dp1462
g74
(dp1463
sg83
g1448
sg76
(lp1464
g69
(g70
g71
NtRp1465
(dp1466
g74
(dp1467
g82
I4
ssg83
g1461
sg76
(lp1468
g1361
asbasbasbag69
(g85
g71
NtRp1469
(dp1470
g74
(dp1471
sg83
g859
sg76
(lp1472
g69
(g90
g71
NtRp1473
(dp1474
g74
(dp1475
g94
g95
ssg83
g1469
sg76
(lp1476
S'script_name'
p1477
asbag69
(g90
g71
NtRp1478
(dp1479
g74
(dp1480
g101
g102
ssg83
g1469
sg76
(lp1481
S':'
asbag69
(g90
g71
NtRp1482
(dp1483
g74
(dp1484
sg83
g1469
sg76
(lp1485
g69
(g70
g71
NtRp1486
(dp1487
g74
(dp1488
g82
I4
ssg83
g1482
sg76
(lp1489
S''
asbasbasbag69
(g85
g71
NtRp1490
(dp1491
g74
(dp1492
sg83
g859
sg76
(lp1493
g69
(g90
g71
NtRp1494
(dp1495
g74
(dp1496
g94
g95
ssg83
g1490
sg76
(lp1497
S'server_name'
p1498
asbag69
(g90
g71
NtRp1499
(dp1500
g74
(dp1501
g101
g102
ssg83
g1490
sg76
(lp1502
S':'
asbag69
(g90
g71
NtRp1503
(dp1504
g74
(dp1505
sg83
g1490
sg76
(lp1506
g69
(g70
g71
NtRp1507
(dp1508
g74
(dp1509
g82
I4
ssg83
g1503
sg76
(lp1510
S'ubuntu'
p1511
asbasbasbag69
(g85
g71
NtRp1512
(dp1513
g74
(dp1514
sg83
g859
sg76
(lp1515
g69
(g90
g71
NtRp1516
(dp1517
g74
(dp1518
g94
g95
ssg83
g1512
sg76
(lp1519
S'server_port'
p1520
asbag69
(g90
g71
NtRp1521
(dp1522
g74
(dp1523
g101
g102
ssg83
g1512
sg76
(lp1524
S':'
asbag69
(g90
g71
NtRp1525
(dp1526
g74
(dp1527
sg83
g1512
sg76
(lp1528
g69
(g70
g71
NtRp1529
(dp1530
g74
(dp1531
g82
I4
ssg83
g1525
sg76
(lp1532
S'8000'
p1533
asbasbasbag69
(g85
g71
NtRp1534
(dp1535
g74
(dp1536
sg83
g859
sg76
(lp1537
g69
(g90
g71
NtRp1538
(dp1539
g74
(dp1540
g94
g95
ssg83
g1534
sg76
(lp1541
S'server_protocol'
p1542
asbag69
(g90
g71
NtRp1543
(dp1544
g74
(dp1545
g101
g102
ssg83
g1534
sg76
(lp1546
S':'
asbag69
(g90
g71
NtRp1547
(dp1548
g74
(dp1549
sg83
g1534
sg76
(lp1550
g69
(g70
g71
NtRp1551
(dp1552
g74
(dp1553
g82
I4
ssg83
g1547
sg76
(lp1554
S'HTTP/1.1'
p1555
asbasbasbag69
(g85
g71
NtRp1556
(dp1557
g74
(dp1558
sg83
g859
sg76
(lp1559
g69
(g90
g71
NtRp1560
(dp1561
g74
(dp1562
g94
g95
ssg83
g1556
sg76
(lp1563
S'server_software'
p1564
asbag69
(g90
g71
NtRp1565
(dp1566
g74
(dp1567
g101
g102
ssg83
g1556
sg76
(lp1568
S':'
asbag69
(g90
g71
NtRp1569
(dp1570
g74
(dp1571
sg83
g1556
sg76
(lp1572
g69
(g70
g71
NtRp1573
(dp1574
g74
(dp1575
g82
I4
ssg83
g1569
sg76
(lp1576
S'Rocket 1.2.6'
p1577
asbasbasbag69
(g85
g71
NtRp1578
(dp1579
g74
(dp1580
sg83
g859
sg76
(lp1581
g69
(g90
g71
NtRp1582
(dp1583
g74
(dp1584
g94
g95
ssg83
g1578
sg76
(lp1585
S'web2py_path'
p1586
asbag69
(g90
g71
NtRp1587
(dp1588
g74
(dp1589
g101
g102
ssg83
g1578
sg76
(lp1590
S':'
asbag69
(g90
g71
NtRp1591
(dp1592
g74
(dp1593
sg83
g1578
sg76
(lp1594
g69
(g70
g71
NtRp1595
(dp1596
g74
(dp1597
g82
I4
ssg83
g1591
sg76
(lp1598
g906
asbasbasbag69
(g85
g71
NtRp1599
(dp1600
g74
(dp1601
sg83
g859
sg76
(lp1602
g69
(g90
g71
NtRp1603
(dp1604
g74
(dp1605
g94
g95
ssg83
g1599
sg76
(lp1606
S'web2py_version'
p1607
asbag69
(g90
g71
NtRp1608
(dp1609
g74
(dp1610
g101
g102
ssg83
g1599
sg76
(lp1611
S':'
asbag69
(g90
g71
NtRp1612
(dp1613
g74
(dp1614
sg83
g1599
sg76
(lp1615
g69
(g70
g71
NtRp1616
(dp1617
g74
(dp1618
g82
I4
ssg83
g1612
sg76
(lp1619
g69
(g78
g71
NtRp1620
(dp1621
g74
(dp1622
g82
I3
ssg83
Nsg76
(lp1623
g69
(g85
g71
NtRp1624
(dp1625
g74
(dp1626
sg83
g1620
sg76
(lp1627
g69
(g90
g71
NtRp1628
(dp1629
g74
(dp1630
sg83
g1624
sg76
(lp1631
g69
(g70
g71
NtRp1632
(dp1633
g74
(dp1634
g82
I3
ssg83
g1628
sg76
(lp1635
S'2'
asbasbasbag69
(g85
g71
NtRp1636
(dp1637
g74
(dp1638
sg83
g1620
sg76
(lp1639
g69
(g90
g71
NtRp1640
(dp1641
g74
(dp1642
sg83
g1636
sg76
(lp1643
g69
(g70
g71
NtRp1644
(dp1645
g74
(dp1646
g82
I3
ssg83
g1640
sg76
(lp1647
S'3'
asbasbasbag69
(g85
g71
NtRp1648
(dp1649
g74
(dp1650
sg83
g1620
sg76
(lp1651
g69
(g90
g71
NtRp1652
(dp1653
g74
(dp1654
sg83
g1648
sg76
(lp1655
g69
(g70
g71
NtRp1656
(dp1657
g74
(dp1658
g82
I3
ssg83
g1652
sg76
(lp1659
S'2'
asbasbasbag69
(g85
g71
NtRp1660
(dp1661
g74
(dp1662
sg83
g1620
sg76
(lp1663
g69
(g90
g71
NtRp1664
(dp1665
g74
(dp1666
sg83
g1660
sg76
(lp1667
g69
(g70
g71
NtRp1668
(dp1669
g74
(dp1670
g82
I3
ssg83
g1664
sg76
(lp1671
S'datetime.datetime(2012, 12, 17, 15, 3, 30)'
p1672
asbasbasbag69
(g85
g71
NtRp1673
(dp1674
g74
(dp1675
sg83
g1620
sg76
(lp1676
g69
(g90
g71
NtRp1677
(dp1678
g74
(dp1679
sg83
g1673
sg76
(lp1680
g69
(g70
g71
NtRp1681
(dp1682
g74
(dp1683
g82
I3
ssg83
g1677
sg76
(lp1684
S'stable'
p1685
asbasbasbasbasbasbasbag69
(g85
g71
NtRp1686
(dp1687
g74
(dp1688
sg83
g859
sg76
(lp1689
g69
(g90
g71
NtRp1690
(dp1691
g74
(dp1692
g94
g95
ssg83
g1686
sg76
(lp1693
S'wsgi_errors'
p1694
asbag69
(g90
g71
NtRp1695
(dp1696
g74
(dp1697
g101
g102
ssg83
g1686
sg76
(lp1698
S':'
asbag69
(g90
g71
NtRp1699
(dp1700
g74
(dp1701
sg83
g1686
sg76
(lp1702
g69
(g70
g71
NtRp1703
(dp1704
g74
(dp1705
g82
I4
ssg83
g1699
sg76
(lp1706
S"<open file '<stderr>', mode 'w' at 0xb72990d0>"
p1707
asbasbasbag69
(g85
g71
NtRp1708
(dp1709
g74
(dp1710
sg83
g859
sg76
(lp1711
g69
(g90
g71
NtRp1712
(dp1713
g74
(dp1714
g94
g95
ssg83
g1708
sg76
(lp1715
S'wsgi_file_wrapper'
p1716
asbag69
(g90
g71
NtRp1717
(dp1718
g74
(dp1719
g101
g102
ssg83
g1708
sg76
(lp1720
S':'
asbag69
(g90
g71
NtRp1721
(dp1722
g74
(dp1723
sg83
g1708
sg76
(lp1724
g69
(g70
g71
NtRp1725
(dp1726
g74
(dp1727
g82
I4
ssg83
g1721
sg76
(lp1728
S'<class wsgiref.util.FileWrapper at 0xa60d65c>'
p1729
asbasbasbag69
(g85
g71
NtRp1730
(dp1731
g74
(dp1732
sg83
g859
sg76
(lp1733
g69
(g90
g71
NtRp1734
(dp1735
g74
(dp1736
g94
g95
ssg83
g1730
sg76
(lp1737
S'wsgi_input'
p1738
asbag69
(g90
g71
NtRp1739
(dp1740
g74
(dp1741
g101
g102
ssg83
g1730
sg76
(lp1742
S':'
asbag69
(g90
g71
NtRp1743
(dp1744
g74
(dp1745
sg83
g1730
sg76
(lp1746
g69
(g70
g71
NtRp1747
(dp1748
g74
(dp1749
g82
I4
ssg83
g1743
sg76
(lp1750
S'<socket._fileobject object at 0xadb9dcac>'
p1751
asbasbasbag69
(g85
g71
NtRp1752
(dp1753
g74
(dp1754
sg83
g859
sg76
(lp1755
g69
(g90
g71
NtRp1756
(dp1757
g74
(dp1758
g94
g95
ssg83
g1752
sg76
(lp1759
S'wsgi_multiprocess'
p1760
asbag69
(g90
g71
NtRp1761
(dp1762
g74
(dp1763
g101
g102
ssg83
g1752
sg76
(lp1764
S':'
asbag69
(g90
g71
NtRp1765
(dp1766
g74
(dp1767
sg83
g1752
sg76
(lp1768
g69
(g70
g71
NtRp1769
(dp1770
g74
(dp1771
g82
I4
ssg83
g1765
sg76
(lp1772
g112
asbasbasbag69
(g85
g71
NtRp1773
(dp1774
g74
(dp1775
sg83
g859
sg76
(lp1776
g69
(g90
g71
NtRp1777
(dp1778
g74
(dp1779
g94
g95
ssg83
g1773
sg76
(lp1780
S'wsgi_multithread'
p1781
asbag69
(g90
g71
NtRp1782
(dp1783
g74
(dp1784
g101
g102
ssg83
g1773
sg76
(lp1785
S':'
asbag69
(g90
g71
NtRp1786
(dp1787
g74
(dp1788
sg83
g1773
sg76
(lp1789
g69
(g70
g71
NtRp1790
(dp1791
g74
(dp1792
g82
I4
ssg83
g1786
sg76
(lp1793
S'True'
p1794
asbasbasbag69
(g85
g71
NtRp1795
(dp1796
g74
(dp1797
sg83
g859
sg76
(lp1798
g69
(g90
g71
NtRp1799
(dp1800
g74
(dp1801
g94
g95
ssg83
g1795
sg76
(lp1802
S'wsgi_run_once'
p1803
asbag69
(g90
g71
NtRp1804
(dp1805
g74
(dp1806
g101
g102
ssg83
g1795
sg76
(lp1807
S':'
asbag69
(g90
g71
NtRp1808
(dp1809
g74
(dp1810
sg83
g1795
sg76
(lp1811
g69
(g70
g71
NtRp1812
(dp1813
g74
(dp1814
g82
I4
ssg83
g1808
sg76
(lp1815
g112
asbasbasbag69
(g85
g71
NtRp1816
(dp1817
g74
(dp1818
sg83
g859
sg76
(lp1819
g69
(g90
g71
NtRp1820
(dp1821
g74
(dp1822
g94
g95
ssg83
g1816
sg76
(lp1823
S'wsgi_url_scheme'
p1824
asbag69
(g90
g71
NtRp1825
(dp1826
g74
(dp1827
g101
g102
ssg83
g1816
sg76
(lp1828
S':'
asbag69
(g90
g71
NtRp1829
(dp1830
g74
(dp1831
sg83
g1816
sg76
(lp1832
g69
(g70
g71
NtRp1833
(dp1834
g74
(dp1835
g82
I4
ssg83
g1829
sg76
(lp1836
S'http'
p1837
asbasbasbag69
(g85
g71
NtRp1838
(dp1839
g74
(dp1840
sg83
g859
sg76
(lp1841
g69
(g90
g71
NtRp1842
(dp1843
g74
(dp1844
g94
g95
ssg83
g1838
sg76
(lp1845
S'wsgi_version'
p1846
asbag69
(g90
g71
NtRp1847
(dp1848
g74
(dp1849
g101
g102
ssg83
g1838
sg76
(lp1850
S':'
asbag69
(g90
g71
NtRp1851
(dp1852
g74
(dp1853
sg83
g1838
sg76
(lp1854
g69
(g70
g71
NtRp1855
(dp1856
g74
(dp1857
g82
I4
ssg83
g1851
sg76
(lp1858
g69
(g78
g71
NtRp1859
(dp1860
g74
(dp1861
g82
I3
ssg83
Nsg76
(lp1862
g69
(g85
g71
NtRp1863
(dp1864
g74
(dp1865
sg83
g1859
sg76
(lp1866
g69
(g90
g71
NtRp1867
(dp1868
g74
(dp1869
sg83
g1863
sg76
(lp1870
g69
(g70
g71
NtRp1871
(dp1872
g74
(dp1873
g82
I3
ssg83
g1867
sg76
(lp1874
S'1'
asbasbasbag69
(g85
g71
NtRp1875
(dp1876
g74
(dp1877
sg83
g1859
sg76
(lp1878
g69
(g90
g71
NtRp1879
(dp1880
g74
(dp1881
sg83
g1875
sg76
(lp1882
g69
(g70
g71
NtRp1883
(dp1884
g74
(dp1885
g82
I3
ssg83
g1879
sg76
(lp1886
S'0'
asbasbasbasbasbasbasbasbasbasbasbag69
(g85
g71
NtRp1887
(dp1888
g74
(dp1889
sg83
g79
sg76
(lp1890
g69
(g90
g71
NtRp1891
(dp1892
g74
(dp1893
g94
g95
ssg83
g1887
sg76
(lp1894
S'extension'
p1895
asbag69
(g90
g71
NtRp1896
(dp1897
g74
(dp1898
g101
g102
ssg83
g1887
sg76
(lp1899
S':'
asbag69
(g90
g71
NtRp1900
(dp1901
g74
(dp1902
sg83
g1887
sg76
(lp1903
g69
(g70
g71
NtRp1904
(dp1905
g74
(dp1906
g82
I5
ssg83
g1900
sg76
(lp1907
S'html'
p1908
asbasbasbag69
(g85
g71
NtRp1909
(dp1910
g74
(dp1911
sg83
g79
sg76
(lp1912
g69
(g90
g71
NtRp1913
(dp1914
g74
(dp1915
g94
g95
ssg83
g1909
sg76
(lp1916
S'folder'
p1917
asbag69
(g90
g71
NtRp1918
(dp1919
g74
(dp1920
g101
g102
ssg83
g1909
sg76
(lp1921
S':'
asbag69
(g90
g71
NtRp1922
(dp1923
g74
(dp1924
sg83
g1909
sg76
(lp1925
g69
(g70
g71
NtRp1926
(dp1927
g74
(dp1928
g82
I5
ssg83
g1922
sg76
(lp1929
S'/home/aditi/Desktop/web2py/applications/assignment2/'
p1930
asbasbasbag69
(g85
g71
NtRp1931
(dp1932
g74
(dp1933
sg83
g79
sg76
(lp1934
g69
(g90
g71
NtRp1935
(dp1936
g74
(dp1937
g94
g95
ssg83
g1931
sg76
(lp1938
S'function'
p1939
asbag69
(g90
g71
NtRp1940
(dp1941
g74
(dp1942
g101
g102
ssg83
g1931
sg76
(lp1943
S':'
asbag69
(g90
g71
NtRp1944
(dp1945
g74
(dp1946
sg83
g1931
sg76
(lp1947
g69
(g70
g71
NtRp1948
(dp1949
g74
(dp1950
g82
I5
ssg83
g1944
sg76
(lp1951
S'user_homepage'
p1952
asbasbasbag69
(g85
g71
NtRp1953
(dp1954
g74
(dp1955
sg83
g79
sg76
(lp1956
g69
(g90
g71
NtRp1957
(dp1958
g74
(dp1959
g94
g95
ssg83
g1953
sg76
(lp1960
S'get_vars'
p1961
asbag69
(g90
g71
NtRp1962
(dp1963
g74
(dp1964
g101
g102
ssg83
g1953
sg76
(lp1965
S':'
asbag69
(g90
g71
NtRp1966
(dp1967
g74
(dp1968
sg83
g1953
sg76
(lp1969
g69
(g70
g71
NtRp1970
(dp1971
g74
(dp1972
g82
I5
ssg83
g1966
sg76
(lp1973
g69
(g78
g71
NtRp1974
(dp1975
g74
(dp1976
g82
I4
ssg83
Nsg76
(lp1977
sbasbasbasbag69
(g85
g71
NtRp1978
(dp1979
g74
(dp1980
sg83
g79
sg76
(lp1981
g69
(g90
g71
NtRp1982
(dp1983
g74
(dp1984
g94
g95
ssg83
g1978
sg76
(lp1985
S'global_settings'
p1986
asbag69
(g90
g71
NtRp1987
(dp1988
g74
(dp1989
g101
g102
ssg83
g1978
sg76
(lp1990
S':'
asbag69
(g90
g71
NtRp1991
(dp1992
g74
(dp1993
sg83
g1978
sg76
(lp1994
g69
(g70
g71
NtRp1995
(dp1996
g74
(dp1997
g82
I5
ssg83
g1991
sg76
(lp1998
g69
(g78
g71
NtRp1999
(dp2000
g74
(dp2001
g82
I4
ssg83
Nsg76
(lp2002
g69
(g85
g71
NtRp2003
(dp2004
g74
(dp2005
sg83
g1999
sg76
(lp2006
g69
(g90
g71
NtRp2007
(dp2008
g74
(dp2009
g94
g95
ssg83
g2003
sg76
(lp2010
g871
asbag69
(g90
g71
NtRp2011
(dp2012
g74
(dp2013
g101
g102
ssg83
g2003
sg76
(lp2014
S':'
asbag69
(g90
g71
NtRp2015
(dp2016
g74
(dp2017
sg83
g2003
sg76
(lp2018
g69
(g70
g71
NtRp2019
(dp2020
g74
(dp2021
g82
I4
ssg83
g2015
sg76
(lp2022
S"set(['/home/aditi/Desktop/web2py/applications/assignment2/', '/home/aditi/Desktop/web2py/applications/admin/', '/home/aditi/Desktop/web2py/applications/welcome/'])"
p2023
asbasbasbag69
(g85
g71
NtRp2024
(dp2025
g74
(dp2026
sg83
g1999
sg76
(lp2027
g69
(g90
g71
NtRp2028
(dp2029
g74
(dp2030
g94
g95
ssg83
g2024
sg76
(lp2031
g893
asbag69
(g90
g71
NtRp2032
(dp2033
g74
(dp2034
g101
g102
ssg83
g2024
sg76
(lp2035
S':'
asbag69
(g90
g71
NtRp2036
(dp2037
g74
(dp2038
sg83
g2024
sg76
(lp2039
g69
(g70
g71
NtRp2040
(dp2041
g74
(dp2042
g82
I4
ssg83
g2036
sg76
(lp2043
g906
asbasbasbag69
(g85
g71
NtRp2044
(dp2045
g74
(dp2046
sg83
g1999
sg76
(lp2047
g69
(g90
g71
NtRp2048
(dp2049
g74
(dp2050
g94
g95
ssg83
g2044
sg76
(lp2051
g915
asbag69
(g90
g71
NtRp2052
(dp2053
g74
(dp2054
g101
g102
ssg83
g2044
sg76
(lp2055
S':'
asbag69
(g90
g71
NtRp2056
(dp2057
g74
(dp2058
sg83
g2044
sg76
(lp2059
g69
(g70
g71
NtRp2060
(dp2061
g74
(dp2062
g82
I4
ssg83
g2056
sg76
(lp2063
g69
(g78
g71
NtRp2064
(dp2065
g74
(dp2066
g82
I3
ssg83
Nsg76
(lp2067
sbasbasbasbag69
(g85
g71
NtRp2068
(dp2069
g74
(dp2070
sg83
g1999
sg76
(lp2071
g69
(g90
g71
NtRp2072
(dp2073
g74
(dp2074
g94
g95
ssg83
g2068
sg76
(lp2075
g940
asbag69
(g90
g71
NtRp2076
(dp2077
g74
(dp2078
g101
g102
ssg83
g2068
sg76
(lp2079
S':'
asbag69
(g90
g71
NtRp2080
(dp2081
g74
(dp2082
sg83
g2068
sg76
(lp2083
g69
(g70
g71
NtRp2084
(dp2085
g74
(dp2086
g82
I4
ssg83
g2080
sg76
(lp2087
S"<Values at 0xa651a0c: {'verbose': False, 'ip': '127.0.0.1', 'with_scheduler': False, 'ips': [], 'shutdown_timeout': 5, 'taskbar': False, 'port': 8000, 'maxthreads': None, 'softcron': False, 'server_name': 'ubuntu', 'bpython': False, 'nogui': False, 'pid_filename': 'httpserver.pid', 'extcron': False, 'runcron': False, 'run_system_tests': False, 'test': None, 'folder': '/home/aditi/Desktop/web2py', 'config': '', 'import_models': False, 'winservice': '', 'shell': None, 'run': '', 'log_filename': 'httpserver.log', 'debuglevel': 30, 'args': [''], 'socket_timeout': 5, 'ssl_ca_certificate': None, 'scheduler': None, 'profiler_filename': None, 'ssl_private_key': '', 'scheduler_groups': None, 'password': '<ask>', 'request_queue_size': 5, 'ssl_certificate': '', 'cronjob': False, 'numthreads': None, 'quiet': False, 'interfaces': None, 'minthreads': None, 'timeout': 10, 'plain': False, 'nobanner': False}>"
p2088
asbasbasbag69
(g85
g71
NtRp2089
(dp2090
g74
(dp2091
sg83
g1999
sg76
(lp2092
g69
(g90
g71
NtRp2093
(dp2094
g74
(dp2095
g94
g95
ssg83
g2089
sg76
(lp2096
g962
asbag69
(g90
g71
NtRp2097
(dp2098
g74
(dp2099
g101
g102
ssg83
g2089
sg76
(lp2100
S':'
asbag69
(g90
g71
NtRp2101
(dp2102
g74
(dp2103
sg83
g2089
sg76
(lp2104
g69
(g70
g71
NtRp2105
(dp2106
g74
(dp2107
g82
I4
ssg83
g2101
sg76
(lp2108
S'set([])'
p2109
asbasbasbag69
(g85
g71
NtRp2110
(dp2111
g74
(dp2112
sg83
g1999
sg76
(lp2113
g69
(g90
g71
NtRp2114
(dp2115
g74
(dp2116
g94
g95
ssg83
g2110
sg76
(lp2117
g984
asbag69
(g90
g71
NtRp2118
(dp2119
g74
(dp2120
g101
g102
ssg83
g2110
sg76
(lp2121
S':'
asbag69
(g90
g71
NtRp2122
(dp2123
g74
(dp2124
sg83
g2110
sg76
(lp2125
g69
(g70
g71
NtRp2126
(dp2127
g74
(dp2128
g82
I4
ssg83
g2122
sg76
(lp2129
g112
asbasbasbag69
(g85
g71
NtRp2130
(dp2131
g74
(dp2132
sg83
g1999
sg76
(lp2133
g69
(g90
g71
NtRp2134
(dp2135
g74
(dp2136
g94
g95
ssg83
g2130
sg76
(lp2137
g1005
asbag69
(g90
g71
NtRp2138
(dp2139
g74
(dp2140
g101
g102
ssg83
g2130
sg76
(lp2141
S':'
asbag69
(g90
g71
NtRp2142
(dp2143
g74
(dp2144
sg83
g2130
sg76
(lp2145
g69
(g70
g71
NtRp2146
(dp2147
g74
(dp2148
g82
I4
ssg83
g2142
sg76
(lp2149
g1018
asbasbasbag69
(g85
g71
NtRp2150
(dp2151
g74
(dp2152
sg83
g1999
sg76
(lp2153
g69
(g90
g71
NtRp2154
(dp2155
g74
(dp2156
g94
g95
ssg83
g2150
sg76
(lp2157
g1203
asbag69
(g90
g71
NtRp2158
(dp2159
g74
(dp2160
g101
g102
ssg83
g2150
sg76
(lp2161
S':'
asbag69
(g90
g71
NtRp2162
(dp2163
g74
(dp2164
sg83
g2150
sg76
(lp2165
g69
(g70
g71
NtRp2166
(dp2167
g74
(dp2168
g82
I4
ssg83
g2162
sg76
(lp2169
g112
asbasbasbag69
(g85
g71
NtRp2170
(dp2171
g74
(dp2172
sg83
g1999
sg76
(lp2173
g69
(g90
g71
NtRp2174
(dp2175
g74
(dp2176
g94
g95
ssg83
g2170
sg76
(lp2177
g1224
asbag69
(g90
g71
NtRp2178
(dp2179
g74
(dp2180
g101
g102
ssg83
g2170
sg76
(lp2181
S':'
asbag69
(g90
g71
NtRp2182
(dp2183
g74
(dp2184
sg83
g2170
sg76
(lp2185
g69
(g70
g71
NtRp2186
(dp2187
g74
(dp2188
g82
I4
ssg83
g2182
sg76
(lp2189
g112
asbasbasbag69
(g85
g71
NtRp2190
(dp2191
g74
(dp2192
sg83
g1999
sg76
(lp2193
g69
(g90
g71
NtRp2194
(dp2195
g74
(dp2196
g94
g95
ssg83
g2190
sg76
(lp2197
g1245
asbag69
(g90
g71
NtRp2198
(dp2199
g74
(dp2200
g101
g102
ssg83
g2190
sg76
(lp2201
S':'
asbag69
(g90
g71
NtRp2202
(dp2203
g74
(dp2204
sg83
g2190
sg76
(lp2205
g69
(g70
g71
NtRp2206
(dp2207
g74
(dp2208
g82
I4
ssg83
g2202
sg76
(lp2209
g69
(g78
g71
NtRp2210
(dp2211
g74
(dp2212
g82
I3
ssg83
Nsg76
(lp2213
g69
(g85
g71
NtRp2214
(dp2215
g74
(dp2216
sg83
g2210
sg76
(lp2217
g69
(g90
g71
NtRp2218
(dp2219
g74
(dp2220
sg83
g2214
sg76
(lp2221
g69
(g70
g71
NtRp2222
(dp2223
g74
(dp2224
g82
I3
ssg83
g2218
sg76
(lp2225
g1274
asbasbasbag69
(g85
g71
NtRp2226
(dp2227
g74
(dp2228
sg83
g2210
sg76
(lp2229
g69
(g90
g71
NtRp2230
(dp2231
g74
(dp2232
sg83
g2226
sg76
(lp2233
g69
(g70
g71
NtRp2234
(dp2235
g74
(dp2236
g82
I3
ssg83
g2230
sg76
(lp2237
g1287
asbasbasbag69
(g85
g71
NtRp2238
(dp2239
g74
(dp2240
sg83
g2210
sg76
(lp2241
g69
(g90
g71
NtRp2242
(dp2243
g74
(dp2244
sg83
g2238
sg76
(lp2245
g69
(g70
g71
NtRp2246
(dp2247
g74
(dp2248
g82
I3
ssg83
g2242
sg76
(lp2249
g1300
asbasbasbag69
(g85
g71
NtRp2250
(dp2251
g74
(dp2252
sg83
g2210
sg76
(lp2253
g69
(g90
g71
NtRp2254
(dp2255
g74
(dp2256
sg83
g2250
sg76
(lp2257
g69
(g70
g71
NtRp2258
(dp2259
g74
(dp2260
g82
I3
ssg83
g2254
sg76
(lp2261
g1313
asbasbasbag69
(g85
g71
NtRp2262
(dp2263
g74
(dp2264
sg83
g2210
sg76
(lp2265
g69
(g90
g71
NtRp2266
(dp2267
g74
(dp2268
sg83
g2262
sg76
(lp2269
g69
(g70
g71
NtRp2270
(dp2271
g74
(dp2272
g82
I3
ssg83
g2266
sg76
(lp2273
g1326
asbasbasbag69
(g85
g71
NtRp2274
(dp2275
g74
(dp2276
sg83
g2210
sg76
(lp2277
g69
(g90
g71
NtRp2278
(dp2279
g74
(dp2280
sg83
g2274
sg76
(lp2281
g69
(g70
g71
NtRp2282
(dp2283
g74
(dp2284
g82
I3
ssg83
g2278
sg76
(lp2285
g1339
asbasbasbasbasbasbasbag69
(g85
g71
NtRp2286
(dp2287
g74
(dp2288
sg83
g1999
sg76
(lp2289
g69
(g90
g71
NtRp2290
(dp2291
g74
(dp2292
g94
g95
ssg83
g2286
sg76
(lp2293
g1607
asbag69
(g90
g71
NtRp2294
(dp2295
g74
(dp2296
g101
g102
ssg83
g2286
sg76
(lp2297
S':'
asbag69
(g90
g71
NtRp2298
(dp2299
g74
(dp2300
sg83
g2286
sg76
(lp2301
g69
(g70
g71
NtRp2302
(dp2303
g74
(dp2304
g82
I4
ssg83
g2298
sg76
(lp2305
g69
(g78
g71
NtRp2306
(dp2307
g74
(dp2308
g82
I3
ssg83
Nsg76
(lp2309
g69
(g85
g71
NtRp2310
(dp2311
g74
(dp2312
sg83
g2306
sg76
(lp2313
g69
(g90
g71
NtRp2314
(dp2315
g74
(dp2316
sg83
g2310
sg76
(lp2317
g69
(g70
g71
NtRp2318
(dp2319
g74
(dp2320
g82
I3
ssg83
g2314
sg76
(lp2321
S'2'
asbasbasbag69
(g85
g71
NtRp2322
(dp2323
g74
(dp2324
sg83
g2306
sg76
(lp2325
g69
(g90
g71
NtRp2326
(dp2327
g74
(dp2328
sg83
g2322
sg76
(lp2329
g69
(g70
g71
NtRp2330
(dp2331
g74
(dp2332
g82
I3
ssg83
g2326
sg76
(lp2333
S'3'
asbasbasbag69
(g85
g71
NtRp2334
(dp2335
g74
(dp2336
sg83
g2306
sg76
(lp2337
g69
(g90
g71
NtRp2338
(dp2339
g74
(dp2340
sg83
g2334
sg76
(lp2341
g69
(g70
g71
NtRp2342
(dp2343
g74
(dp2344
g82
I3
ssg83
g2338
sg76
(lp2345
S'2'
asbasbasbag69
(g85
g71
NtRp2346
(dp2347
g74
(dp2348
sg83
g2306
sg76
(lp2349
g69
(g90
g71
NtRp2350
(dp2351
g74
(dp2352
sg83
g2346
sg76
(lp2353
g69
(g70
g71
NtRp2354
(dp2355
g74
(dp2356
g82
I3
ssg83
g2350
sg76
(lp2357
S'datetime.datetime(2012, 12, 17, 15, 3, 30)'
p2358
asbasbasbag69
(g85
g71
NtRp2359
(dp2360
g74
(dp2361
sg83
g2306
sg76
(lp2362
g69
(g90
g71
NtRp2363
(dp2364
g74
(dp2365
sg83
g2359
sg76
(lp2366
g69
(g70
g71
NtRp2367
(dp2368
g74
(dp2369
g82
I3
ssg83
g2363
sg76
(lp2370
g1685
asbasbasbasbasbasbasbasbasbasbasbag69
(g85
g71
NtRp2371
(dp2372
g74
(dp2373
sg83
g79
sg76
(lp2374
g69
(g90
g71
NtRp2375
(dp2376
g74
(dp2377
g94
g95
ssg83
g2371
sg76
(lp2378
S'is_https'
p2379
asbag69
(g90
g71
NtRp2380
(dp2381
g74
(dp2382
g101
g102
ssg83
g2371
sg76
(lp2383
S':'
asbag69
(g90
g71
NtRp2384
(dp2385
g74
(dp2386
sg83
g2371
sg76
(lp2387
g69
(g70
g71
NtRp2388
(dp2389
g74
(dp2390
g82
I5
ssg83
g2384
sg76
(lp2391
g112
asbasbasbag69
(g85
g71
NtRp2392
(dp2393
g74
(dp2394
sg83
g79
sg76
(lp2395
g69
(g90
g71
NtRp2396
(dp2397
g74
(dp2398
g94
g95
ssg83
g2392
sg76
(lp2399
S'is_local'
p2400
asbag69
(g90
g71
NtRp2401
(dp2402
g74
(dp2403
g101
g102
ssg83
g2392
sg76
(lp2404
S':'
asbag69
(g90
g71
NtRp2405
(dp2406
g74
(dp2407
sg83
g2392
sg76
(lp2408
g69
(g70
g71
NtRp2409
(dp2410
g74
(dp2411
g82
I5
ssg83
g2405
sg76
(lp2412
g1794
asbasbasbag69
(g85
g71
NtRp2413
(dp2414
g74
(dp2415
sg83
g79
sg76
(lp2416
g69
(g90
g71
NtRp2417
(dp2418
g74
(dp2419
g94
g95
ssg83
g2413
sg76
(lp2420
S'is_restful'
p2421
asbag69
(g90
g71
NtRp2422
(dp2423
g74
(dp2424
g101
g102
ssg83
g2413
sg76
(lp2425
S':'
asbag69
(g90
g71
NtRp2426
(dp2427
g74
(dp2428
sg83
g2413
sg76
(lp2429
g69
(g70
g71
NtRp2430
(dp2431
g74
(dp2432
g82
I5
ssg83
g2426
sg76
(lp2433
g112
asbasbasbag69
(g85
g71
NtRp2434
(dp2435
g74
(dp2436
sg83
g79
sg76
(lp2437
g69
(g90
g71
NtRp2438
(dp2439
g74
(dp2440
g94
g95
ssg83
g2434
sg76
(lp2441
S'now'
p2442
asbag69
(g90
g71
NtRp2443
(dp2444
g74
(dp2445
g101
g102
ssg83
g2434
sg76
(lp2446
S':'
asbag69
(g90
g71
NtRp2447
(dp2448
g74
(dp2449
sg83
g2434
sg76
(lp2450
g69
(g70
g71
NtRp2451
(dp2452
g74
(dp2453
g82
I5
ssg83
g2447
sg76
(lp2454
S'datetime.datetime(2013, 8, 26, 18, 52, 2, 544558)'
p2455
asbasbasbag69
(g85
g71
NtRp2456
(dp2457
g74
(dp2458
sg83
g79
sg76
(lp2459
g69
(g90
g71
NtRp2460
(dp2461
g74
(dp2462
g94
g95
ssg83
g2456
sg76
(lp2463
S'post_vars'
p2464
asbag69
(g90
g71
NtRp2465
(dp2466
g74
(dp2467
g101
g102
ssg83
g2456
sg76
(lp2468
S':'
asbag69
(g90
g71
NtRp2469
(dp2470
g74
(dp2471
sg83
g2456
sg76
(lp2472
g69
(g70
g71
NtRp2473
(dp2474
g74
(dp2475
g82
I5
ssg83
g2469
sg76
(lp2476
g69
(g78
g71
NtRp2477
(dp2478
g74
(dp2479
g82
I4
ssg83
Nsg76
(lp2480
sbasbasbasbag69
(g85
g71
NtRp2481
(dp2482
g74
(dp2483
sg83
g79
sg76
(lp2484
g69
(g90
g71
NtRp2485
(dp2486
g74
(dp2487
g94
g95
ssg83
g2481
sg76
(lp2488
S'raw_args'
p2489
asbag69
(g90
g71
NtRp2490
(dp2491
g74
(dp2492
g101
g102
ssg83
g2481
sg76
(lp2493
S':'
asbag69
(g90
g71
NtRp2494
(dp2495
g74
(dp2496
sg83
g2481
sg76
(lp2497
g69
(g70
g71
NtRp2498
(dp2499
g74
(dp2500
g82
I5
ssg83
g2494
sg76
(lp2501
S''
asbasbasbag69
(g85
g71
NtRp2502
(dp2503
g74
(dp2504
sg83
g79
sg76
(lp2505
g69
(g90
g71
NtRp2506
(dp2507
g74
(dp2508
g94
g95
ssg83
g2502
sg76
(lp2509
S'raw_extension'
p2510
asbag69
(g90
g71
NtRp2511
(dp2512
g74
(dp2513
g101
g102
ssg83
g2502
sg76
(lp2514
S':'
asbag69
(g90
g71
NtRp2515
(dp2516
g74
(dp2517
sg83
g2502
sg76
(lp2518
g69
(g70
g71
NtRp2519
(dp2520
g74
(dp2521
g82
I5
ssg83
g2515
sg76
(lp2522
S'None'
p2523
asbasbasbag69
(g85
g71
NtRp2524
(dp2525
g74
(dp2526
sg83
g79
sg76
(lp2527
g69
(g90
g71
NtRp2528
(dp2529
g74
(dp2530
g94
g95
ssg83
g2524
sg76
(lp2531
S'url'
p2532
asbag69
(g90
g71
NtRp2533
(dp2534
g74
(dp2535
g101
g102
ssg83
g2524
sg76
(lp2536
S':'
asbag69
(g90
g71
NtRp2537
(dp2538
g74
(dp2539
sg83
g2524
sg76
(lp2540
g69
(g70
g71
NtRp2541
(dp2542
g74
(dp2543
g82
I5
ssg83
g2537
sg76
(lp2544
g1361
asbasbasbag69
(g85
g71
NtRp2545
(dp2546
g74
(dp2547
sg83
g79
sg76
(lp2548
g69
(g90
g71
NtRp2549
(dp2550
g74
(dp2551
g94
g95
ssg83
g2545
sg76
(lp2552
S'utcnow'
p2553
asbag69
(g90
g71
NtRp2554
(dp2555
g74
(dp2556
g101
g102
ssg83
g2545
sg76
(lp2557
S':'
asbag69
(g90
g71
NtRp2558
(dp2559
g74
(dp2560
sg83
g2545
sg76
(lp2561
g69
(g70
g71
NtRp2562
(dp2563
g74
(dp2564
g82
I5
ssg83
g2558
sg76
(lp2565
S'datetime.datetime(2013, 8, 26, 13, 22, 2, 544611)'
p2566
asbasbasbag69
(g85
g71
NtRp2567
(dp2568
g74
(dp2569
sg83
g79
sg76
(lp2570
g69
(g90
g71
NtRp2571
(dp2572
g74
(dp2573
g94
g95
ssg83
g2567
sg76
(lp2574
S'uuid'
p2575
asbag69
(g90
g71
NtRp2576
(dp2577
g74
(dp2578
g101
g102
ssg83
g2567
sg76
(lp2579
S':'
asbag69
(g90
g71
NtRp2580
(dp2581
g74
(dp2582
sg83
g2567
sg76
(lp2583
g69
(g70
g71
NtRp2584
(dp2585
g74
(dp2586
g82
I5
ssg83
g2580
sg76
(lp2587
S'assignment2/127.0.0.1.2013-08-26.18-52-02.f55a4b8c-5503-4e8a-a720-7171d376df64'
p2588
asbasbasbag69
(g85
g71
NtRp2589
(dp2590
g74
(dp2591
sg83
g79
sg76
(lp2592
g69
(g90
g71
NtRp2593
(dp2594
g74
(dp2595
g94
g95
ssg83
g2589
sg76
(lp2596
S'vars'
p2597
asbag69
(g90
g71
NtRp2598
(dp2599
g74
(dp2600
g101
g102
ssg83
g2589
sg76
(lp2601
S':'
asbag69
(g90
g71
NtRp2602
(dp2603
g74
(dp2604
sg83
g2589
sg76
(lp2605
g69
(g70
g71
NtRp2606
(dp2607
g74
(dp2608
g82
I5
ssg83
g2602
sg76
(lp2609
g69
(g78
g71
NtRp2610
(dp2611
g74
(dp2612
g82
I4
ssg83
Nsg76
(lp2613
sbasbasbasbag69
(g85
g71
NtRp2614
(dp2615
g74
(dp2616
sg83
g79
sg76
(lp2617
g69
(g90
g71
NtRp2618
(dp2619
g74
(dp2620
g94
g95
ssg83
g2614
sg76
(lp2621
S'wsgi'
p2622
asbag69
(g90
g71
NtRp2623
(dp2624
g74
(dp2625
g101
g102
ssg83
g2614
sg76
(lp2626
S':'
asbag69
(g90
g71
NtRp2627
(dp2628
g74
(dp2629
sg83
g2614
sg76
(lp2630
g69
(g70
g71
NtRp2631
(dp2632
g74
(dp2633
g82
I5
ssg83
g2627
sg76
(lp2634
g69
(g78
g71
NtRp2635
(dp2636
g74
(dp2637
g82
I4
ssg83
Nsg76
(lp2638
g69
(g85
g71
NtRp2639
(dp2640
g74
(dp2641
sg83
g2635
sg76
(lp2642
g69
(g90
g71
NtRp2643
(dp2644
g74
(dp2645
g94
g95
ssg83
g2639
sg76
(lp2646
S'environ'
p2647
asbag69
(g90
g71
NtRp2648
(dp2649
g74
(dp2650
g101
g102
ssg83
g2639
sg76
(lp2651
S':'
asbag69
(g90
g71
NtRp2652
(dp2653
g74
(dp2654
sg83
g2639
sg76
(lp2655
g69
(g70
g71
NtRp2656
(dp2657
g74
(dp2658
g82
I4
ssg83
g2652
sg76
(lp2659
g69
(g78
g71
NtRp2660
(dp2661
g74
(dp2662
g82
I3
ssg83
Nsg76
(lp2663
g69
(g85
g71
NtRp2664
(dp2665
g74
(dp2666
sg83
g2660
sg76
(lp2667
g69
(g90
g71
NtRp2668
(dp2669
g74
(dp2670
g94
g95
ssg83
g2664
sg76
(lp2671
S'HTTP_ACCEPT'
p2672
asbag69
(g90
g71
NtRp2673
(dp2674
g74
(dp2675
g101
g102
ssg83
g2664
sg76
(lp2676
S':'
asbag69
(g90
g71
NtRp2677
(dp2678
g74
(dp2679
sg83
g2664
sg76
(lp2680
g69
(g70
g71
NtRp2681
(dp2682
g74
(dp2683
g82
I3
ssg83
g2677
sg76
(lp2684
g1040
asbasbasbag69
(g85
g71
NtRp2685
(dp2686
g74
(dp2687
sg83
g2660
sg76
(lp2688
g69
(g90
g71
NtRp2689
(dp2690
g74
(dp2691
g94
g95
ssg83
g2685
sg76
(lp2692
S'HTTP_ACCEPT_ENCODING'
p2693
asbag69
(g90
g71
NtRp2694
(dp2695
g74
(dp2696
g101
g102
ssg83
g2685
sg76
(lp2697
S':'
asbag69
(g90
g71
NtRp2698
(dp2699
g74
(dp2700
sg83
g2685
sg76
(lp2701
g69
(g70
g71
NtRp2702
(dp2703
g74
(dp2704
g82
I3
ssg83
g2698
sg76
(lp2705
g1062
asbasbasbag69
(g85
g71
NtRp2706
(dp2707
g74
(dp2708
sg83
g2660
sg76
(lp2709
g69
(g90
g71
NtRp2710
(dp2711
g74
(dp2712
g94
g95
ssg83
g2706
sg76
(lp2713
S'HTTP_ACCEPT_LANGUAGE'
p2714
asbag69
(g90
g71
NtRp2715
(dp2716
g74
(dp2717
g101
g102
ssg83
g2706
sg76
(lp2718
S':'
asbag69
(g90
g71
NtRp2719
(dp2720
g74
(dp2721
sg83
g2706
sg76
(lp2722
g69
(g70
g71
NtRp2723
(dp2724
g74
(dp2725
g82
I3
ssg83
g2719
sg76
(lp2726
g1084
asbasbasbag69
(g85
g71
NtRp2727
(dp2728
g74
(dp2729
sg83
g2660
sg76
(lp2730
g69
(g90
g71
NtRp2731
(dp2732
g74
(dp2733
g94
g95
ssg83
g2727
sg76
(lp2734
S'HTTP_CONNECTION'
p2735
asbag69
(g90
g71
NtRp2736
(dp2737
g74
(dp2738
g101
g102
ssg83
g2727
sg76
(lp2739
S':'
asbag69
(g90
g71
NtRp2740
(dp2741
g74
(dp2742
sg83
g2727
sg76
(lp2743
g69
(g70
g71
NtRp2744
(dp2745
g74
(dp2746
g82
I3
ssg83
g2740
sg76
(lp2747
g1106
asbasbasbag69
(g85
g71
NtRp2748
(dp2749
g74
(dp2750
sg83
g2660
sg76
(lp2751
g69
(g90
g71
NtRp2752
(dp2753
g74
(dp2754
g94
g95
ssg83
g2748
sg76
(lp2755
S'HTTP_COOKIE'
p2756
asbag69
(g90
g71
NtRp2757
(dp2758
g74
(dp2759
g101
g102
ssg83
g2748
sg76
(lp2760
S':'
asbag69
(g90
g71
NtRp2761
(dp2762
g74
(dp2763
sg83
g2748
sg76
(lp2764
g69
(g70
g71
NtRp2765
(dp2766
g74
(dp2767
g82
I3
ssg83
g2761
sg76
(lp2768
g1128
asbasbasbag69
(g85
g71
NtRp2769
(dp2770
g74
(dp2771
sg83
g2660
sg76
(lp2772
g69
(g90
g71
NtRp2773
(dp2774
g74
(dp2775
g94
g95
ssg83
g2769
sg76
(lp2776
S'HTTP_HOST'
p2777
asbag69
(g90
g71
NtRp2778
(dp2779
g74
(dp2780
g101
g102
ssg83
g2769
sg76
(lp2781
S':'
asbag69
(g90
g71
NtRp2782
(dp2783
g74
(dp2784
sg83
g2769
sg76
(lp2785
g69
(g70
g71
NtRp2786
(dp2787
g74
(dp2788
g82
I3
ssg83
g2782
sg76
(lp2789
g1150
asbasbasbag69
(g85
g71
NtRp2790
(dp2791
g74
(dp2792
sg83
g2660
sg76
(lp2793
g69
(g90
g71
NtRp2794
(dp2795
g74
(dp2796
g94
g95
ssg83
g2790
sg76
(lp2797
S'HTTP_REFERER'
p2798
asbag69
(g90
g71
NtRp2799
(dp2800
g74
(dp2801
g101
g102
ssg83
g2790
sg76
(lp2802
S':'
asbag69
(g90
g71
NtRp2803
(dp2804
g74
(dp2805
sg83
g2790
sg76
(lp2806
g69
(g70
g71
NtRp2807
(dp2808
g74
(dp2809
g82
I3
ssg83
g2803
sg76
(lp2810
g1172
asbasbasbag69
(g85
g71
NtRp2811
(dp2812
g74
(dp2813
sg83
g2660
sg76
(lp2814
g69
(g90
g71
NtRp2815
(dp2816
g74
(dp2817
g94
g95
ssg83
g2811
sg76
(lp2818
S'HTTP_USER_AGENT'
p2819
asbag69
(g90
g71
NtRp2820
(dp2821
g74
(dp2822
g101
g102
ssg83
g2811
sg76
(lp2823
S':'
asbag69
(g90
g71
NtRp2824
(dp2825
g74
(dp2826
sg83
g2811
sg76
(lp2827
g69
(g70
g71
NtRp2828
(dp2829
g74
(dp2830
g82
I3
ssg83
g2824
sg76
(lp2831
g1194
asbasbasbag69
(g85
g71
NtRp2832
(dp2833
g74
(dp2834
sg83
g2660
sg76
(lp2835
g69
(g90
g71
NtRp2836
(dp2837
g74
(dp2838
g94
g95
ssg83
g2832
sg76
(lp2839
S'PATH_INFO'
p2840
asbag69
(g90
g71
NtRp2841
(dp2842
g74
(dp2843
g101
g102
ssg83
g2832
sg76
(lp2844
S':'
asbag69
(g90
g71
NtRp2845
(dp2846
g74
(dp2847
sg83
g2832
sg76
(lp2848
g69
(g70
g71
NtRp2849
(dp2850
g74
(dp2851
g82
I3
ssg83
g2845
sg76
(lp2852
g1361
asbasbasbag69
(g85
g71
NtRp2853
(dp2854
g74
(dp2855
sg83
g2660
sg76
(lp2856
g69
(g90
g71
NtRp2857
(dp2858
g74
(dp2859
g94
g95
ssg83
g2853
sg76
(lp2860
S'QUERY_STRING'
p2861
asbag69
(g90
g71
NtRp2862
(dp2863
g74
(dp2864
g101
g102
ssg83
g2853
sg76
(lp2865
S':'
asbag69
(g90
g71
NtRp2866
(dp2867
g74
(dp2868
sg83
g2853
sg76
(lp2869
g69
(g70
g71
NtRp2870
(dp2871
g74
(dp2872
g82
I3
ssg83
g2866
sg76
(lp2873
S''
asbasbasbag69
(g85
g71
NtRp2874
(dp2875
g74
(dp2876
sg83
g2660
sg76
(lp2877
g69
(g90
g71
NtRp2878
(dp2879
g74
(dp2880
g94
g95
ssg83
g2874
sg76
(lp2881
S'REMOTE_ADDR'
p2882
asbag69
(g90
g71
NtRp2883
(dp2884
g74
(dp2885
g101
g102
ssg83
g2874
sg76
(lp2886
S':'
asbag69
(g90
g71
NtRp2887
(dp2888
g74
(dp2889
sg83
g2874
sg76
(lp2890
g69
(g70
g71
NtRp2891
(dp2892
g74
(dp2893
g82
I3
ssg83
g2887
sg76
(lp2894
g224
asbasbasbag69
(g85
g71
NtRp2895
(dp2896
g74
(dp2897
sg83
g2660
sg76
(lp2898
g69
(g90
g71
NtRp2899
(dp2900
g74
(dp2901
g94
g95
ssg83
g2895
sg76
(lp2902
S'REMOTE_PORT'
p2903
asbag69
(g90
g71
NtRp2904
(dp2905
g74
(dp2906
g101
g102
ssg83
g2895
sg76
(lp2907
S':'
asbag69
(g90
g71
NtRp2908
(dp2909
g74
(dp2910
sg83
g2895
sg76
(lp2911
g69
(g70
g71
NtRp2912
(dp2913
g74
(dp2914
g82
I3
ssg83
g2908
sg76
(lp2915
g1425
asbasbasbag69
(g85
g71
NtRp2916
(dp2917
g74
(dp2918
sg83
g2660
sg76
(lp2919
g69
(g90
g71
NtRp2920
(dp2921
g74
(dp2922
g94
g95
ssg83
g2916
sg76
(lp2923
S'REQUEST_METHOD'
p2924
asbag69
(g90
g71
NtRp2925
(dp2926
g74
(dp2927
g101
g102
ssg83
g2916
sg76
(lp2928
S':'
asbag69
(g90
g71
NtRp2929
(dp2930
g74
(dp2931
sg83
g2916
sg76
(lp2932
g69
(g70
g71
NtRp2933
(dp2934
g74
(dp2935
g82
I3
ssg83
g2929
sg76
(lp2936
g1447
asbasbasbag69
(g85
g71
NtRp2937
(dp2938
g74
(dp2939
sg83
g2660
sg76
(lp2940
g69
(g90
g71
NtRp2941
(dp2942
g74
(dp2943
g94
g95
ssg83
g2937
sg76
(lp2944
S'REQUEST_URI'
p2945
asbag69
(g90
g71
NtRp2946
(dp2947
g74
(dp2948
g101
g102
ssg83
g2937
sg76
(lp2949
S':'
asbag69
(g90
g71
NtRp2950
(dp2951
g74
(dp2952
sg83
g2937
sg76
(lp2953
g69
(g70
g71
NtRp2954
(dp2955
g74
(dp2956
g82
I3
ssg83
g2950
sg76
(lp2957
g1361
asbasbasbag69
(g85
g71
NtRp2958
(dp2959
g74
(dp2960
sg83
g2660
sg76
(lp2961
g69
(g90
g71
NtRp2962
(dp2963
g74
(dp2964
g94
g95
ssg83
g2958
sg76
(lp2965
S'SCRIPT_NAME'
p2966
asbag69
(g90
g71
NtRp2967
(dp2968
g74
(dp2969
g101
g102
ssg83
g2958
sg76
(lp2970
S':'
asbag69
(g90
g71
NtRp2971
(dp2972
g74
(dp2973
sg83
g2958
sg76
(lp2974
g69
(g70
g71
NtRp2975
(dp2976
g74
(dp2977
g82
I3
ssg83
g2971
sg76
(lp2978
S''
asbasbasbag69
(g85
g71
NtRp2979
(dp2980
g74
(dp2981
sg83
g2660
sg76
(lp2982
g69
(g90
g71
NtRp2983
(dp2984
g74
(dp2985
g94
g95
ssg83
g2979
sg76
(lp2986
S'SERVER_NAME'
p2987
asbag69
(g90
g71
NtRp2988
(dp2989
g74
(dp2990
g101
g102
ssg83
g2979
sg76
(lp2991
S':'
asbag69
(g90
g71
NtRp2992
(dp2993
g74
(dp2994
sg83
g2979
sg76
(lp2995
g69
(g70
g71
NtRp2996
(dp2997
g74
(dp2998
g82
I3
ssg83
g2992
sg76
(lp2999
g1511
asbasbasbag69
(g85
g71
NtRp3000
(dp3001
g74
(dp3002
sg83
g2660
sg76
(lp3003
g69
(g90
g71
NtRp3004
(dp3005
g74
(dp3006
g94
g95
ssg83
g3000
sg76
(lp3007
S'SERVER_PORT'
p3008
asbag69
(g90
g71
NtRp3009
(dp3010
g74
(dp3011
g101
g102
ssg83
g3000
sg76
(lp3012
S':'
asbag69
(g90
g71
NtRp3013
(dp3014
g74
(dp3015
sg83
g3000
sg76
(lp3016
g69
(g70
g71
NtRp3017
(dp3018
g74
(dp3019
g82
I3
ssg83
g3013
sg76
(lp3020
g1533
asbasbasbag69
(g85
g71
NtRp3021
(dp3022
g74
(dp3023
sg83
g2660
sg76
(lp3024
g69
(g90
g71
NtRp3025
(dp3026
g74
(dp3027
g94
g95
ssg83
g3021
sg76
(lp3028
S'SERVER_PROTOCOL'
p3029
asbag69
(g90
g71
NtRp3030
(dp3031
g74
(dp3032
g101
g102
ssg83
g3021
sg76
(lp3033
S':'
asbag69
(g90
g71
NtRp3034
(dp3035
g74
(dp3036
sg83
g3021
sg76
(lp3037
g69
(g70
g71
NtRp3038
(dp3039
g74
(dp3040
g82
I3
ssg83
g3034
sg76
(lp3041
g1555
asbasbasbag69
(g85
g71
NtRp3042
(dp3043
g74
(dp3044
sg83
g2660
sg76
(lp3045
g69
(g90
g71
NtRp3046
(dp3047
g74
(dp3048
g94
g95
ssg83
g3042
sg76
(lp3049
S'SERVER_SOFTWARE'
p3050
asbag69
(g90
g71
NtRp3051
(dp3052
g74
(dp3053
g101
g102
ssg83
g3042
sg76
(lp3054
S':'
asbag69
(g90
g71
NtRp3055
(dp3056
g74
(dp3057
sg83
g3042
sg76
(lp3058
g69
(g70
g71
NtRp3059
(dp3060
g74
(dp3061
g82
I3
ssg83
g3055
sg76
(lp3062
g1577
asbasbasbag69
(g85
g71
NtRp3063
(dp3064
g74
(dp3065
sg83
g2660
sg76
(lp3066
g69
(g90
g71
NtRp3067
(dp3068
g74
(dp3069
g94
g95
ssg83
g3063
sg76
(lp3070
S'wsgi.errors'
p3071
asbag69
(g90
g71
NtRp3072
(dp3073
g74
(dp3074
g101
g102
ssg83
g3063
sg76
(lp3075
S':'
asbag69
(g90
g71
NtRp3076
(dp3077
g74
(dp3078
sg83
g3063
sg76
(lp3079
g69
(g70
g71
NtRp3080
(dp3081
g74
(dp3082
g82
I3
ssg83
g3076
sg76
(lp3083
S"<open file '<stderr>', mode 'w' at 0xb72990d0>"
p3084
asbasbasbag69
(g85
g71
NtRp3085
(dp3086
g74
(dp3087
sg83
g2660
sg76
(lp3088
g69
(g90
g71
NtRp3089
(dp3090
g74
(dp3091
g94
g95
ssg83
g3085
sg76
(lp3092
S'wsgi.file_wrapper'
p3093
asbag69
(g90
g71
NtRp3094
(dp3095
g74
(dp3096
g101
g102
ssg83
g3085
sg76
(lp3097
S':'
asbag69
(g90
g71
NtRp3098
(dp3099
g74
(dp3100
sg83
g3085
sg76
(lp3101
g69
(g70
g71
NtRp3102
(dp3103
g74
(dp3104
g82
I3
ssg83
g3098
sg76
(lp3105
S'<class wsgiref.util.FileWrapper at 0xa60d65c>'
p3106
asbasbasbag69
(g85
g71
NtRp3107
(dp3108
g74
(dp3109
sg83
g2660
sg76
(lp3110
g69
(g90
g71
NtRp3111
(dp3112
g74
(dp3113
g94
g95
ssg83
g3107
sg76
(lp3114
S'wsgi.input'
p3115
asbag69
(g90
g71
NtRp3116
(dp3117
g74
(dp3118
g101
g102
ssg83
g3107
sg76
(lp3119
S':'
asbag69
(g90
g71
NtRp3120
(dp3121
g74
(dp3122
sg83
g3107
sg76
(lp3123
g69
(g70
g71
NtRp3124
(dp3125
g74
(dp3126
g82
I3
ssg83
g3120
sg76
(lp3127
S'<cStringIO.StringO object at 0xad3a62c0>'
p3128
asbasbasbag69
(g85
g71
NtRp3129
(dp3130
g74
(dp3131
sg83
g2660
sg76
(lp3132
g69
(g90
g71
NtRp3133
(dp3134
g74
(dp3135
g94
g95
ssg83
g3129
sg76
(lp3136
S'wsgi.multiprocess'
p3137
asbag69
(g90
g71
NtRp3138
(dp3139
g74
(dp3140
g101
g102
ssg83
g3129
sg76
(lp3141
S':'
asbag69
(g90
g71
NtRp3142
(dp3143
g74
(dp3144
sg83
g3129
sg76
(lp3145
g69
(g70
g71
NtRp3146
(dp3147
g74
(dp3148
g82
I3
ssg83
g3142
sg76
(lp3149
g112
asbasbasbag69
(g85
g71
NtRp3150
(dp3151
g74
(dp3152
sg83
g2660
sg76
(lp3153
g69
(g90
g71
NtRp3154
(dp3155
g74
(dp3156
g94
g95
ssg83
g3150
sg76
(lp3157
S'wsgi.multithread'
p3158
asbag69
(g90
g71
NtRp3159
(dp3160
g74
(dp3161
g101
g102
ssg83
g3150
sg76
(lp3162
S':'
asbag69
(g90
g71
NtRp3163
(dp3164
g74
(dp3165
sg83
g3150
sg76
(lp3166
g69
(g70
g71
NtRp3167
(dp3168
g74
(dp3169
g82
I3
ssg83
g3163
sg76
(lp3170
g1794
asbasbasbag69
(g85
g71
NtRp3171
(dp3172
g74
(dp3173
sg83
g2660
sg76
(lp3174
g69
(g90
g71
NtRp3175
(dp3176
g74
(dp3177
g94
g95
ssg83
g3171
sg76
(lp3178
S'wsgi.run_once'
p3179
asbag69
(g90
g71
NtRp3180
(dp3181
g74
(dp3182
g101
g102
ssg83
g3171
sg76
(lp3183
S':'
asbag69
(g90
g71
NtRp3184
(dp3185
g74
(dp3186
sg83
g3171
sg76
(lp3187
g69
(g70
g71
NtRp3188
(dp3189
g74
(dp3190
g82
I3
ssg83
g3184
sg76
(lp3191
g112
asbasbasbag69
(g85
g71
NtRp3192
(dp3193
g74
(dp3194
sg83
g2660
sg76
(lp3195
g69
(g90
g71
NtRp3196
(dp3197
g74
(dp3198
g94
g95
ssg83
g3192
sg76
(lp3199
S'wsgi.url_scheme'
p3200
asbag69
(g90
g71
NtRp3201
(dp3202
g74
(dp3203
g101
g102
ssg83
g3192
sg76
(lp3204
S':'
asbag69
(g90
g71
NtRp3205
(dp3206
g74
(dp3207
sg83
g3192
sg76
(lp3208
g69
(g70
g71
NtRp3209
(dp3210
g74
(dp3211
g82
I3
ssg83
g3205
sg76
(lp3212
g1837
asbasbasbag69
(g85
g71
NtRp3213
(dp3214
g74
(dp3215
sg83
g2660
sg76
(lp3216
g69
(g90
g71
NtRp3217
(dp3218
g74
(dp3219
g94
g95
ssg83
g3213
sg76
(lp3220
S'wsgi.version'
p3221
asbag69
(g90
g71
NtRp3222
(dp3223
g74
(dp3224
g101
g102
ssg83
g3213
sg76
(lp3225
S':'
asbag69
(g90
g71
NtRp3226
(dp3227
g74
(dp3228
sg83
g3213
sg76
(lp3229
g69
(g70
g71
NtRp3230
(dp3231
g74
(dp3232
g82
I3
ssg83
g3226
sg76
(lp3233
S'1'
asbasbasbasbasbasbasbasbasbasbasbasbasbsS'frames'
p3234
(lp3235
(dp3236
S'file'
p3237
S'/home/aditi/Desktop/web2py/gluon/restricted.py'
p3238
sS'dump'
p3239
(dp3240
S'code'
p3241
S'\'response.write(\\\'<!DOCTYPE html>\\\\n<!-- paulirish...."></script>\\\\n</body>\\\\n</html>\\\\n\\\\n\\\', escape=False)\''
p3242
sS'layer'
p3243
S"'/home/aditi/Desktop/web2py/applications/assignment2/views/default/user_homepage.html'"
p3244
sS'global compile2'
p3245
S'<function compile2>'
p3246
sS'ccode'
p3247
S'undefined'
p3248
ssS'lnum'
p3249
I211
sS'lines'
p3250
(dp3251
I206
S"    environment['__name__'] = '__restricted__'"
p3252
sI207
S'    try:'
p3253
sI208
S'        if isinstance(code, types.CodeType):'
p3254
sI209
S'            ccode = code'
p3255
sI210
S'        else:'
p3256
sI211
S'            ccode = compile2(code, layer)'
p3257
sI212
S'        exec ccode in environment'
p3258
sI213
S'    except HTTP:'
p3259
sI214
S'        raise'
p3260
sI215
S'    except RestrictedError:'
p3261
ssS'call'
p3262
S'(code=\'response.write(\\\'<!DOCTYPE html>\\\\n<!-- paulirish...."></script>\\\\n</body>\\\\n</html>\\\\n\\\\n\\\', escape=False)\', environment={\'A\': <class \'gluon.html.A\'>, \'Auth\': <class \'gluon.tools.Auth\'>, \'B\': <class \'gluon.html.B\'>, \'BEAUTIFY\': <class \'gluon.html.BEAUTIFY\'>, \'BODY\': <class \'gluon.html.BODY\'>, \'BR\': <class \'gluon.html.BR\'>, \'BUTTON\': <class \'gluon.html.BUTTON\'>, \'CAT\': <class \'gluon.html.CAT\'>, \'CENTER\': <class \'gluon.html.CENTER\'>, \'CLEANUP\': <class \'gluon.validators.CLEANUP\'>, ...}, layer=\'/home/aditi/Desktop/web2py/applications/assignment2/views/default/user_homepage.html\')'
p3263
sS'func'
p3264
S'restricted'
p3265
sa(dp3266
g3237
S'/home/aditi/Desktop/web2py/gluon/restricted.py'
p3267
sg3239
(dp3268
S'builtincompile'
p3269
S'<built-in function compile>'
p3270
sS'code'
p3271
S'\'response.write(\\\'<!DOCTYPE html>\\\\n<!-- paulirish...."></script>\\\\n</body>\\\\n</html>\\\\n\\\\n\\\', escape=False)\''
p3272
sS'code.rstrip'
p3273
S'<built-in method rstrip of str object>'
p3274
sS').replace'
p3275
g3248
sS'layer'
p3276
S"'/home/aditi/Desktop/web2py/applications/assignment2/views/default/user_homepage.html'"
p3277
ssg3249
I194
sg3250
(dp3278
I192
S"    The +'\\n' is necessary else compile fails when code ends in a comment."
p3279
sI193
S'    """'
p3280
sI194
S"    return compile(code.rstrip().replace('\\r\\n', '\\n') + '\\n', layer, 'exec')"
p3281
sI195
S''
sI196
S''
sI197
S"def restricted(code, environment=None, layer='Unknown'):"
p3282
sI198
S'    """'
p3283
sI189
S''
sI190
S'def compile2(code, layer):'
p3284
sI191
S'    """'
p3285
ssg3262
S'(code=\'response.write(\\\'<!DOCTYPE html>\\\\n<!-- paulirish...."></script>\\\\n</body>\\\\n</html>\\\\n\\\\n\\\', escape=False)\', layer=\'/home/aditi/Desktop/web2py/applications/assignment2/views/default/user_homepage.html\')'
p3286
sg3264
S'compile2'
p3287
sasS'pyver'
p3288
S'Python 2.7.3: /usr/bin/python'
p3289
sS'session'
p3290
g69
(g70
g71
NtRp3291
(dp3292
g74
(dp3293
sg76
(lp3294
g69
(g78
g71
NtRp3295
(dp3296
g74
(dp3297
g82
I5
ssg83
Nsg76
(lp3298
g69
(g85
g71
NtRp3299
(dp3300
g74
(dp3301
sg83
g3295
sg76
(lp3302
g69
(g90
g71
NtRp3303
(dp3304
g74
(dp3305
g94
g95
ssg83
g3299
sg76
(lp3306
S'auth'
p3307
asbag69
(g90
g71
NtRp3308
(dp3309
g74
(dp3310
g101
g102
ssg83
g3299
sg76
(lp3311
S':'
asbag69
(g90
g71
NtRp3312
(dp3313
g74
(dp3314
sg83
g3299
sg76
(lp3315
g69
(g70
g71
NtRp3316
(dp3317
g74
(dp3318
g82
I5
ssg83
g3312
sg76
(lp3319
g69
(g78
g71
NtRp3320
(dp3321
g74
(dp3322
g82
I4
ssg83
Nsg76
(lp3323
g69
(g85
g71
NtRp3324
(dp3325
g74
(dp3326
sg83
g3320
sg76
(lp3327
g69
(g90
g71
NtRp3328
(dp3329
g74
(dp3330
g94
g95
ssg83
g3324
sg76
(lp3331
S'expiration'
p3332
asbag69
(g90
g71
NtRp3333
(dp3334
g74
(dp3335
g101
g102
ssg83
g3324
sg76
(lp3336
S':'
asbag69
(g90
g71
NtRp3337
(dp3338
g74
(dp3339
sg83
g3324
sg76
(lp3340
g69
(g70
g71
NtRp3341
(dp3342
g74
(dp3343
g82
I4
ssg83
g3337
sg76
(lp3344
S'3600'
p3345
asbasbasbag69
(g85
g71
NtRp3346
(dp3347
g74
(dp3348
sg83
g3320
sg76
(lp3349
g69
(g90
g71
NtRp3350
(dp3351
g74
(dp3352
g94
g95
ssg83
g3346
sg76
(lp3353
S'hmac_key'
p3354
asbag69
(g90
g71
NtRp3355
(dp3356
g74
(dp3357
g101
g102
ssg83
g3346
sg76
(lp3358
S':'
asbag69
(g90
g71
NtRp3359
(dp3360
g74
(dp3361
sg83
g3346
sg76
(lp3362
g69
(g70
g71
NtRp3363
(dp3364
g74
(dp3365
g82
I4
ssg83
g3359
sg76
(lp3366
S'ec45fc78-c773-4203-ad87-39319a05206f'
p3367
asbasbasbag69
(g85
g71
NtRp3368
(dp3369
g74
(dp3370
sg83
g3320
sg76
(lp3371
g69
(g90
g71
NtRp3372
(dp3373
g74
(dp3374
g94
g95
ssg83
g3368
sg76
(lp3375
S'last_visit'
p3376
asbag69
(g90
g71
NtRp3377
(dp3378
g74
(dp3379
g101
g102
ssg83
g3368
sg76
(lp3380
S':'
asbag69
(g90
g71
NtRp3381
(dp3382
g74
(dp3383
sg83
g3368
sg76
(lp3384
g69
(g70
g71
NtRp3385
(dp3386
g74
(dp3387
g82
I4
ssg83
g3381
sg76
(lp3388
S'datetime.datetime(2013, 8, 26, 18, 51, 51, 760704)'
p3389
asbasbasbag69
(g85
g71
NtRp3390
(dp3391
g74
(dp3392
sg83
g3320
sg76
(lp3393
g69
(g90
g71
NtRp3394
(dp3395
g74
(dp3396
g94
g95
ssg83
g3390
sg76
(lp3397
S'remember'
p3398
asbag69
(g90
g71
NtRp3399
(dp3400
g74
(dp3401
g101
g102
ssg83
g3390
sg76
(lp3402
S':'
asbag69
(g90
g71
NtRp3403
(dp3404
g74
(dp3405
sg83
g3390
sg76
(lp3406
g69
(g70
g71
NtRp3407
(dp3408
g74
(dp3409
g82
I4
ssg83
g3403
sg76
(lp3410
g112
asbasbasbag69
(g85
g71
NtRp3411
(dp3412
g74
(dp3413
sg83
g3320
sg76
(lp3414
g69
(g90
g71
NtRp3415
(dp3416
g74
(dp3417
g94
g95
ssg83
g3411
sg76
(lp3418
S'user'
p3419
asbag69
(g90
g71
NtRp3420
(dp3421
g74
(dp3422
g101
g102
ssg83
g3411
sg76
(lp3423
S':'
asbag69
(g90
g71
NtRp3424
(dp3425
g74
(dp3426
sg83
g3411
sg76
(lp3427
g69
(g70
g71
NtRp3428
(dp3429
g74
(dp3430
g82
I4
ssg83
g3424
sg76
(lp3431
g69
(g78
g71
NtRp3432
(dp3433
g74
(dp3434
g82
I3
ssg83
Nsg76
(lp3435
g69
(g85
g71
NtRp3436
(dp3437
g74
(dp3438
sg83
g3432
sg76
(lp3439
g69
(g90
g71
NtRp3440
(dp3441
g74
(dp3442
g94
g95
ssg83
g3436
sg76
(lp3443
S'account_type'
p3444
asbag69
(g90
g71
NtRp3445
(dp3446
g74
(dp3447
g101
g102
ssg83
g3436
sg76
(lp3448
S':'
asbag69
(g90
g71
NtRp3449
(dp3450
g74
(dp3451
sg83
g3436
sg76
(lp3452
g69
(g70
g71
NtRp3453
(dp3454
g74
(dp3455
g82
I3
ssg83
g3449
sg76
(lp3456
S'user'
p3457
asbasbasbag69
(g85
g71
NtRp3458
(dp3459
g74
(dp3460
sg83
g3432
sg76
(lp3461
g69
(g90
g71
NtRp3462
(dp3463
g74
(dp3464
g94
g95
ssg83
g3458
sg76
(lp3465
S'alt_email'
p3466
asbag69
(g90
g71
NtRp3467
(dp3468
g74
(dp3469
g101
g102
ssg83
g3458
sg76
(lp3470
S':'
asbag69
(g90
g71
NtRp3471
(dp3472
g74
(dp3473
sg83
g3458
sg76
(lp3474
g69
(g70
g71
NtRp3475
(dp3476
g74
(dp3477
g82
I3
ssg83
g3471
sg76
(lp3478
S'switch2aditi@gmail.com'
p3479
asbasbasbag69
(g85
g71
NtRp3480
(dp3481
g74
(dp3482
sg83
g3432
sg76
(lp3483
g69
(g90
g71
NtRp3484
(dp3485
g74
(dp3486
g94
g95
ssg83
g3480
sg76
(lp3487
S'dob'
p3488
asbag69
(g90
g71
NtRp3489
(dp3490
g74
(dp3491
g101
g102
ssg83
g3480
sg76
(lp3492
S':'
asbag69
(g90
g71
NtRp3493
(dp3494
g74
(dp3495
sg83
g3480
sg76
(lp3496
g69
(g70
g71
NtRp3497
(dp3498
g74
(dp3499
g82
I3
ssg83
g3493
sg76
(lp3500
S'datetime.date(1994, 5, 11)'
p3501
asbasbasbag69
(g85
g71
NtRp3502
(dp3503
g74
(dp3504
sg83
g3432
sg76
(lp3505
g69
(g90
g71
NtRp3506
(dp3507
g74
(dp3508
g94
g95
ssg83
g3502
sg76
(lp3509
S'email'
p3510
asbag69
(g90
g71
NtRp3511
(dp3512
g74
(dp3513
g101
g102
ssg83
g3502
sg76
(lp3514
S':'
asbag69
(g90
g71
NtRp3515
(dp3516
g74
(dp3517
sg83
g3502
sg76
(lp3518
g69
(g70
g71
NtRp3519
(dp3520
g74
(dp3521
g82
I3
ssg83
g3515
sg76
(lp3522
S'aditi.mavalankar@students.iiit.ac.in'
p3523
asbasbasbag69
(g85
g71
NtRp3524
(dp3525
g74
(dp3526
sg83
g3432
sg76
(lp3527
g69
(g90
g71
NtRp3528
(dp3529
g74
(dp3530
g94
g95
ssg83
g3524
sg76
(lp3531
S'first_name'
p3532
asbag69
(g90
g71
NtRp3533
(dp3534
g74
(dp3535
g101
g102
ssg83
g3524
sg76
(lp3536
S':'
asbag69
(g90
g71
NtRp3537
(dp3538
g74
(dp3539
sg83
g3524
sg76
(lp3540
g69
(g70
g71
NtRp3541
(dp3542
g74
(dp3543
g82
I3
ssg83
g3537
sg76
(lp3544
S'aditi'
p3545
asbasbasbag69
(g85
g71
NtRp3546
(dp3547
g74
(dp3548
sg83
g3432
sg76
(lp3549
g69
(g90
g71
NtRp3550
(dp3551
g74
(dp3552
g94
g95
ssg83
g3546
sg76
(lp3553
S'id'
p3554
asbag69
(g90
g71
NtRp3555
(dp3556
g74
(dp3557
g101
g102
ssg83
g3546
sg76
(lp3558
S':'
asbag69
(g90
g71
NtRp3559
(dp3560
g74
(dp3561
sg83
g3546
sg76
(lp3562
g69
(g70
g71
NtRp3563
(dp3564
g74
(dp3565
g82
I3
ssg83
g3559
sg76
(lp3566
S'1'
asbasbasbag69
(g85
g71
NtRp3567
(dp3568
g74
(dp3569
sg83
g3432
sg76
(lp3570
g69
(g90
g71
NtRp3571
(dp3572
g74
(dp3573
g94
g95
ssg83
g3567
sg76
(lp3574
S'last_name'
p3575
asbag69
(g90
g71
NtRp3576
(dp3577
g74
(dp3578
g101
g102
ssg83
g3567
sg76
(lp3579
S':'
asbag69
(g90
g71
NtRp3580
(dp3581
g74
(dp3582
sg83
g3567
sg76
(lp3583
g69
(g70
g71
NtRp3584
(dp3585
g74
(dp3586
g82
I3
ssg83
g3580
sg76
(lp3587
S'mavalankar'
p3588
asbasbasbag69
(g85
g71
NtRp3589
(dp3590
g74
(dp3591
sg83
g3432
sg76
(lp3592
g69
(g90
g71
NtRp3593
(dp3594
g74
(dp3595
g94
g95
ssg83
g3589
sg76
(lp3596
S'registration_id'
p3597
asbag69
(g90
g71
NtRp3598
(dp3599
g74
(dp3600
g101
g102
ssg83
g3589
sg76
(lp3601
S':'
asbag69
(g90
g71
NtRp3602
(dp3603
g74
(dp3604
sg83
g3589
sg76
(lp3605
g69
(g70
g71
NtRp3606
(dp3607
g74
(dp3608
g82
I3
ssg83
g3602
sg76
(lp3609
S''
asbasbasbag69
(g85
g71
NtRp3610
(dp3611
g74
(dp3612
sg83
g3432
sg76
(lp3613
g69
(g90
g71
NtRp3614
(dp3615
g74
(dp3616
g94
g95
ssg83
g3610
sg76
(lp3617
S'registration_key'
p3618
asbag69
(g90
g71
NtRp3619
(dp3620
g74
(dp3621
g101
g102
ssg83
g3610
sg76
(lp3622
S':'
asbag69
(g90
g71
NtRp3623
(dp3624
g74
(dp3625
sg83
g3610
sg76
(lp3626
g69
(g70
g71
NtRp3627
(dp3628
g74
(dp3629
g82
I3
ssg83
g3623
sg76
(lp3630
S''
asbasbasbag69
(g85
g71
NtRp3631
(dp3632
g74
(dp3633
sg83
g3432
sg76
(lp3634
g69
(g90
g71
NtRp3635
(dp3636
g74
(dp3637
g94
g95
ssg83
g3631
sg76
(lp3638
S'reset_password_key'
p3639
asbag69
(g90
g71
NtRp3640
(dp3641
g74
(dp3642
g101
g102
ssg83
g3631
sg76
(lp3643
S':'
asbag69
(g90
g71
NtRp3644
(dp3645
g74
(dp3646
sg83
g3631
sg76
(lp3647
g69
(g70
g71
NtRp3648
(dp3649
g74
(dp3650
g82
I3
ssg83
g3644
sg76
(lp3651
S''
asbasbasbag69
(g85
g71
NtRp3652
(dp3653
g74
(dp3654
sg83
g3432
sg76
(lp3655
g69
(g90
g71
NtRp3656
(dp3657
g74
(dp3658
g94
g95
ssg83
g3652
sg76
(lp3659
S'username'
p3660
asbag69
(g90
g71
NtRp3661
(dp3662
g74
(dp3663
g101
g102
ssg83
g3652
sg76
(lp3664
S':'
asbag69
(g90
g71
NtRp3665
(dp3666
g74
(dp3667
sg83
g3652
sg76
(lp3668
g69
(g70
g71
NtRp3669
(dp3670
g74
(dp3671
g82
I3
ssg83
g3665
sg76
(lp3672
S'aditi.mavalankar'
p3673
asbasbasbasbasbasbasbag69
(g85
g71
NtRp3674
(dp3675
g74
(dp3676
sg83
g3320
sg76
(lp3677
g69
(g90
g71
NtRp3678
(dp3679
g74
(dp3680
g94
g95
ssg83
g3674
sg76
(lp3681
S'user_groups'
p3682
asbag69
(g90
g71
NtRp3683
(dp3684
g74
(dp3685
g101
g102
ssg83
g3674
sg76
(lp3686
S':'
asbag69
(g90
g71
NtRp3687
(dp3688
g74
(dp3689
sg83
g3674
sg76
(lp3690
g69
(g70
g71
NtRp3691
(dp3692
g74
(dp3693
g82
I4
ssg83
g3687
sg76
(lp3694
g69
(g78
g71
NtRp3695
(dp3696
g74
(dp3697
g82
I3
ssg83
Nsg76
(lp3698
g69
(g85
g71
NtRp3699
(dp3700
g74
(dp3701
sg83
g3695
sg76
(lp3702
g69
(g90
g71
NtRp3703
(dp3704
g74
(dp3705
g94
g95
ssg83
g3699
sg76
(lp3706
S'1'
asbag69
(g90
g71
NtRp3707
(dp3708
g74
(dp3709
g101
g102
ssg83
g3699
sg76
(lp3710
S':'
asbag69
(g90
g71
NtRp3711
(dp3712
g74
(dp3713
sg83
g3699
sg76
(lp3714
g69
(g70
g71
NtRp3715
(dp3716
g74
(dp3717
g82
I3
ssg83
g3711
sg76
(lp3718
S'user_1'
p3719
asbasbasbasbasbasbasbasbasbasbasbag69
(g85
g71
NtRp3720
(dp3721
g74
(dp3722
sg83
g3295
sg76
(lp3723
g69
(g90
g71
NtRp3724
(dp3725
g74
(dp3726
g94
g95
ssg83
g3720
sg76
(lp3727
S'flash'
p3728
asbag69
(g90
g71
NtRp3729
(dp3730
g74
(dp3731
g101
g102
ssg83
g3720
sg76
(lp3732
S':'
asbag69
(g90
g71
NtRp3733
(dp3734
g74
(dp3735
sg83
g3720
sg76
(lp3736
g69
(g70
g71
NtRp3737
(dp3738
g74
(dp3739
g82
I5
ssg83
g3733
sg76
(lp3740
S'None'
p3741
asbasbasbag69
(g85
g71
NtRp3742
(dp3743
g74
(dp3744
sg83
g3295
sg76
(lp3745
g69
(g90
g71
NtRp3746
(dp3747
g74
(dp3748
g94
g95
ssg83
g3742
sg76
(lp3749
S'last_orderby'
p3750
asbag69
(g90
g71
NtRp3751
(dp3752
g74
(dp3753
g101
g102
ssg83
g3742
sg76
(lp3754
S':'
asbag69
(g90
g71
NtRp3755
(dp3756
g74
(dp3757
sg83
g3742
sg76
(lp3758
g69
(g70
g71
NtRp3759
(dp3760
g74
(dp3761
g82
I5
ssg83
g3755
sg76
(lp3762
S'None'
p3763
asbasbasbag69
(g85
g71
NtRp3764
(dp3765
g74
(dp3766
sg83
g3295
sg76
(lp3767
g69
(g90
g71
NtRp3768
(dp3769
g74
(dp3770
g94
g95
ssg83
g3764
sg76
(lp3771
S'last_query'
p3772
asbag69
(g90
g71
NtRp3773
(dp3774
g74
(dp3775
g101
g102
ssg83
g3764
sg76
(lp3776
S':'
asbag69
(g90
g71
NtRp3777
(dp3778
g74
(dp3779
sg83
g3764
sg76
(lp3780
g69
(g70
g71
NtRp3781
(dp3782
g74
(dp3783
g82
I5
ssg83
g3777
sg76
(lp3784
S'db.newsitem.id>0'
p3785
asbasbasbasbasbsS'etype'
p3786
S"<type 'exceptions.SyntaxError'>"
p3787
sS'date'
p3788
S'Mon Aug 26 18:52:02 2013'
p3789
sS'response'
p3790
g69
(g70
g71
NtRp3791
(dp3792
g74
(dp3793
sg76
(lp3794
g69
(g78
g71
NtRp3795
(dp3796
g74
(dp3797
g82
I5
ssg83
Nsg76
(lp3798
g69
(g85
g71
NtRp3799
(dp3800
g74
(dp3801
sg83
g3795
sg76
(lp3802
g69
(g90
g71
NtRp3803
(dp3804
g74
(dp3805
g94
g95
ssg83
g3799
sg76
(lp3806
g167
asbag69
(g90
g71
NtRp3807
(dp3808
g74
(dp3809
g101
g102
ssg83
g3799
sg76
(lp3810
S':'
asbag69
(g90
g71
NtRp3811
(dp3812
g74
(dp3813
sg83
g3799
sg76
(lp3814
g69
(g70
g71
NtRp3815
(dp3816
g74
(dp3817
g82
I5
ssg83
g3811
sg76
(lp3818
S'<cStringIO.StringO object at 0xaa3cf60>'
p3819
asbasbasbag69
(g85
g71
NtRp3820
(dp3821
g74
(dp3822
sg83
g3795
sg76
(lp3823
g69
(g90
g71
NtRp3824
(dp3825
g74
(dp3826
g94
g95
ssg83
g3820
sg76
(lp3827
g255
asbag69
(g90
g71
NtRp3828
(dp3829
g74
(dp3830
g101
g102
ssg83
g3820
sg76
(lp3831
S':'
asbag69
(g90
g71
NtRp3832
(dp3833
g74
(dp3834
sg83
g3820
sg76
(lp3835
g69
(g70
g71
NtRp3836
(dp3837
g74
(dp3838
g82
I5
ssg83
g3832
sg76
(lp3839
g69
(g78
g71
NtRp3840
(dp3841
g74
(dp3842
g82
I4
ssg83
Nsg76
(lp3843
g69
(g85
g71
NtRp3844
(dp3845
g74
(dp3846
sg83
g3840
sg76
(lp3847
g69
(g90
g71
NtRp3848
(dp3849
g74
(dp3850
g94
g95
ssg83
g3844
sg76
(lp3851
S'session_id_assignment2'
p3852
asbag69
(g90
g71
NtRp3853
(dp3854
g74
(dp3855
g101
g102
ssg83
g3844
sg76
(lp3856
S':'
asbag69
(g90
g71
NtRp3857
(dp3858
g74
(dp3859
sg83
g3844
sg76
(lp3860
g69
(g70
g71
NtRp3861
(dp3862
g74
(dp3863
g82
I4
ssg83
g3857
sg76
(lp3864
g487
ag69
(g78
g71
NtRp3865
(dp3866
g74
(dp3867
g82
I3
ssg83
Nsg76
(lp3868
g69
(g85
g71
NtRp3869
(dp3870
g74
(dp3871
sg83
g3865
sg76
(lp3872
g69
(g90
g71
NtRp3873
(dp3874
g74
(dp3875
g94
g95
ssg83
g3869
sg76
(lp3876
g306
asbag69
(g90
g71
NtRp3877
(dp3878
g74
(dp3879
g101
g102
ssg83
g3869
sg76
(lp3880
S':'
asbag69
(g90
g71
NtRp3881
(dp3882
g74
(dp3883
sg83
g3869
sg76
(lp3884
g69
(g70
g71
NtRp3885
(dp3886
g74
(dp3887
g82
I3
ssg83
g3881
sg76
(lp3888
S''
asbasbasbag69
(g85
g71
NtRp3889
(dp3890
g74
(dp3891
sg83
g3865
sg76
(lp3892
g69
(g90
g71
NtRp3893
(dp3894
g74
(dp3895
g94
g95
ssg83
g3889
sg76
(lp3896
g327
asbag69
(g90
g71
NtRp3897
(dp3898
g74
(dp3899
g101
g102
ssg83
g3889
sg76
(lp3900
S':'
asbag69
(g90
g71
NtRp3901
(dp3902
g74
(dp3903
sg83
g3889
sg76
(lp3904
g69
(g70
g71
NtRp3905
(dp3906
g74
(dp3907
g82
I3
ssg83
g3901
sg76
(lp3908
S''
asbasbasbag69
(g85
g71
NtRp3909
(dp3910
g74
(dp3911
sg83
g3865
sg76
(lp3912
g69
(g90
g71
NtRp3913
(dp3914
g74
(dp3915
g94
g95
ssg83
g3909
sg76
(lp3916
g348
asbag69
(g90
g71
NtRp3917
(dp3918
g74
(dp3919
g101
g102
ssg83
g3909
sg76
(lp3920
S':'
asbag69
(g90
g71
NtRp3921
(dp3922
g74
(dp3923
sg83
g3909
sg76
(lp3924
g69
(g70
g71
NtRp3925
(dp3926
g74
(dp3927
g82
I3
ssg83
g3921
sg76
(lp3928
S''
asbasbasbag69
(g85
g71
NtRp3929
(dp3930
g74
(dp3931
sg83
g3865
sg76
(lp3932
g69
(g90
g71
NtRp3933
(dp3934
g74
(dp3935
g94
g95
ssg83
g3929
sg76
(lp3936
g369
asbag69
(g90
g71
NtRp3937
(dp3938
g74
(dp3939
g101
g102
ssg83
g3929
sg76
(lp3940
S':'
asbag69
(g90
g71
NtRp3941
(dp3942
g74
(dp3943
sg83
g3929
sg76
(lp3944
g69
(g70
g71
NtRp3945
(dp3946
g74
(dp3947
g82
I3
ssg83
g3941
sg76
(lp3948
S''
asbasbasbag69
(g85
g71
NtRp3949
(dp3950
g74
(dp3951
sg83
g3865
sg76
(lp3952
g69
(g90
g71
NtRp3953
(dp3954
g74
(dp3955
g94
g95
ssg83
g3949
sg76
(lp3956
g390
asbag69
(g90
g71
NtRp3957
(dp3958
g74
(dp3959
g101
g102
ssg83
g3949
sg76
(lp3960
S':'
asbag69
(g90
g71
NtRp3961
(dp3962
g74
(dp3963
sg83
g3949
sg76
(lp3964
g69
(g70
g71
NtRp3965
(dp3966
g74
(dp3967
g82
I3
ssg83
g3961
sg76
(lp3968
S''
asbasbasbag69
(g85
g71
NtRp3969
(dp3970
g74
(dp3971
sg83
g3865
sg76
(lp3972
g69
(g90
g71
NtRp3973
(dp3974
g74
(dp3975
g94
g95
ssg83
g3969
sg76
(lp3976
g411
asbag69
(g90
g71
NtRp3977
(dp3978
g74
(dp3979
g101
g102
ssg83
g3969
sg76
(lp3980
S':'
asbag69
(g90
g71
NtRp3981
(dp3982
g74
(dp3983
sg83
g3969
sg76
(lp3984
g69
(g70
g71
NtRp3985
(dp3986
g74
(dp3987
g82
I3
ssg83
g3981
sg76
(lp3988
S'/'
asbasbasbag69
(g85
g71
NtRp3989
(dp3990
g74
(dp3991
sg83
g3865
sg76
(lp3992
g69
(g90
g71
NtRp3993
(dp3994
g74
(dp3995
g94
g95
ssg83
g3989
sg76
(lp3996
g432
asbag69
(g90
g71
NtRp3997
(dp3998
g74
(dp3999
g101
g102
ssg83
g3989
sg76
(lp4000
S':'
asbag69
(g90
g71
NtRp4001
(dp4002
g74
(dp4003
sg83
g3989
sg76
(lp4004
g69
(g70
g71
NtRp4005
(dp4006
g74
(dp4007
g82
I3
ssg83
g4001
sg76
(lp4008
S''
asbasbasbag69
(g85
g71
NtRp4009
(dp4010
g74
(dp4011
sg83
g3865
sg76
(lp4012
g69
(g90
g71
NtRp4013
(dp4014
g74
(dp4015
g94
g95
ssg83
g4009
sg76
(lp4016
g453
asbag69
(g90
g71
NtRp4017
(dp4018
g74
(dp4019
g101
g102
ssg83
g4009
sg76
(lp4020
S':'
asbag69
(g90
g71
NtRp4021
(dp4022
g74
(dp4023
sg83
g4009
sg76
(lp4024
g69
(g70
g71
NtRp4025
(dp4026
g74
(dp4027
g82
I3
ssg83
g4021
sg76
(lp4028
S''
asbasbasbasbasbasbasbasbasbasbasbag69
(g85
g71
NtRp4029
(dp4030
g74
(dp4031
sg83
g3795
sg76
(lp4032
g69
(g90
g71
NtRp4033
(dp4034
g74
(dp4035
g94
g95
ssg83
g4029
sg76
(lp4036
S'delimiters'
p4037
asbag69
(g90
g71
NtRp4038
(dp4039
g74
(dp4040
g101
g102
ssg83
g4029
sg76
(lp4041
S':'
asbag69
(g90
g71
NtRp4042
(dp4043
g74
(dp4044
sg83
g4029
sg76
(lp4045
g69
(g70
g71
NtRp4046
(dp4047
g74
(dp4048
g82
I5
ssg83
g4042
sg76
(lp4049
g69
(g78
g71
NtRp4050
(dp4051
g74
(dp4052
g82
I4
ssg83
Nsg76
(lp4053
g69
(g85
g71
NtRp4054
(dp4055
g74
(dp4056
sg83
g4050
sg76
(lp4057
g69
(g90
g71
NtRp4058
(dp4059
g74
(dp4060
sg83
g4054
sg76
(lp4061
g69
(g70
g71
NtRp4062
(dp4063
g74
(dp4064
g82
I4
ssg83
g4058
sg76
(lp4065
S'{{'
p4066
asbasbasbag69
(g85
g71
NtRp4067
(dp4068
g74
(dp4069
sg83
g4050
sg76
(lp4070
g69
(g90
g71
NtRp4071
(dp4072
g74
(dp4073
sg83
g4067
sg76
(lp4074
g69
(g70
g71
NtRp4075
(dp4076
g74
(dp4077
g82
I4
ssg83
g4071
sg76
(lp4078
S'}}'
p4079
asbasbasbasbasbasbasbag69
(g85
g71
NtRp4080
(dp4081
g74
(dp4082
sg83
g3795
sg76
(lp4083
g69
(g90
g71
NtRp4084
(dp4085
g74
(dp4086
g94
g95
ssg83
g4080
sg76
(lp4087
S'files'
p4088
asbag69
(g90
g71
NtRp4089
(dp4090
g74
(dp4091
g101
g102
ssg83
g4080
sg76
(lp4092
S':'
asbag69
(g90
g71
NtRp4093
(dp4094
g74
(dp4095
sg83
g4080
sg76
(lp4096
g69
(g70
g71
NtRp4097
(dp4098
g74
(dp4099
g82
I5
ssg83
g4093
sg76
(lp4100
g69
(g78
g71
NtRp4101
(dp4102
g74
(dp4103
g82
I4
ssg83
Nsg76
(lp4104
sbasbasbasbag69
(g85
g71
NtRp4105
(dp4106
g74
(dp4107
sg83
g3795
sg76
(lp4108
g69
(g90
g71
NtRp4109
(dp4110
g74
(dp4111
g94
g95
ssg83
g4105
sg76
(lp4112
S'flash'
p4113
asbag69
(g90
g71
NtRp4114
(dp4115
g74
(dp4116
g101
g102
ssg83
g4105
sg76
(lp4117
S':'
asbag69
(g90
g71
NtRp4118
(dp4119
g74
(dp4120
sg83
g4105
sg76
(lp4121
g69
(g70
g71
NtRp4122
(dp4123
g74
(dp4124
g82
I5
ssg83
g4118
sg76
(lp4125
S''
asbasbasbag69
(g85
g71
NtRp4126
(dp4127
g74
(dp4128
sg83
g3795
sg76
(lp4129
g69
(g90
g71
NtRp4130
(dp4131
g74
(dp4132
g94
g95
ssg83
g4126
sg76
(lp4133
S'generic_patterns'
p4134
asbag69
(g90
g71
NtRp4135
(dp4136
g74
(dp4137
g101
g102
ssg83
g4126
sg76
(lp4138
S':'
asbag69
(g90
g71
NtRp4139
(dp4140
g74
(dp4141
sg83
g4126
sg76
(lp4142
g69
(g70
g71
NtRp4143
(dp4144
g74
(dp4145
g82
I5
ssg83
g4139
sg76
(lp4146
g69
(g78
g71
NtRp4147
(dp4148
g74
(dp4149
g82
I4
ssg83
Nsg76
(lp4150
g69
(g85
g71
NtRp4151
(dp4152
g74
(dp4153
sg83
g4147
sg76
(lp4154
g69
(g90
g71
NtRp4155
(dp4156
g74
(dp4157
sg83
g4151
sg76
(lp4158
g69
(g70
g71
NtRp4159
(dp4160
g74
(dp4161
g82
I4
ssg83
g4155
sg76
(lp4162
S'*'
asbasbasbasbasbasbasbag69
(g85
g71
NtRp4163
(dp4164
g74
(dp4165
sg83
g3795
sg76
(lp4166
g69
(g90
g71
NtRp4167
(dp4168
g74
(dp4169
g94
g95
ssg83
g4163
sg76
(lp4170
S'google_analytics_id'
p4171
asbag69
(g90
g71
NtRp4172
(dp4173
g74
(dp4174
g101
g102
ssg83
g4163
sg76
(lp4175
S':'
asbag69
(g90
g71
NtRp4176
(dp4177
g74
(dp4178
sg83
g4163
sg76
(lp4179
g69
(g70
g71
NtRp4180
(dp4181
g74
(dp4182
g82
I5
ssg83
g4176
sg76
(lp4183
S'None'
p4184
asbasbasbag69
(g85
g71
NtRp4185
(dp4186
g74
(dp4187
sg83
g3795
sg76
(lp4188
g69
(g90
g71
NtRp4189
(dp4190
g74
(dp4191
g94
g95
ssg83
g4185
sg76
(lp4192
S'headers'
p4193
asbag69
(g90
g71
NtRp4194
(dp4195
g74
(dp4196
g101
g102
ssg83
g4185
sg76
(lp4197
S':'
asbag69
(g90
g71
NtRp4198
(dp4199
g74
(dp4200
sg83
g4185
sg76
(lp4201
g69
(g70
g71
NtRp4202
(dp4203
g74
(dp4204
g82
I5
ssg83
g4198
sg76
(lp4205
g69
(g78
g71
NtRp4206
(dp4207
g74
(dp4208
g82
I4
ssg83
Nsg76
(lp4209
g69
(g85
g71
NtRp4210
(dp4211
g74
(dp4212
sg83
g4206
sg76
(lp4213
g69
(g90
g71
NtRp4214
(dp4215
g74
(dp4216
g94
g95
ssg83
g4210
sg76
(lp4217
S'X-Powered-By'
p4218
asbag69
(g90
g71
NtRp4219
(dp4220
g74
(dp4221
g101
g102
ssg83
g4210
sg76
(lp4222
S':'
asbag69
(g90
g71
NtRp4223
(dp4224
g74
(dp4225
sg83
g4210
sg76
(lp4226
g69
(g70
g71
NtRp4227
(dp4228
g74
(dp4229
g82
I4
ssg83
g4223
sg76
(lp4230
S'web2py'
p4231
asbasbasbasbasbasbasbag69
(g85
g71
NtRp4232
(dp4233
g74
(dp4234
sg83
g3795
sg76
(lp4235
g69
(g90
g71
NtRp4236
(dp4237
g74
(dp4238
g94
g95
ssg83
g4232
sg76
(lp4239
S'logo'
p4240
asbag69
(g90
g71
NtRp4241
(dp4242
g74
(dp4243
g101
g102
ssg83
g4232
sg76
(lp4244
S':'
asbag69
(g90
g71
NtRp4245
(dp4246
g74
(dp4247
sg83
g4232
sg76
(lp4248
g69
(g70
g71
NtRp4249
(dp4250
g74
(dp4251
g82
I5
ssg83
g4245
sg76
(lp4252
g69
(cgluon.html
A
p4253
g71
NtRp4254
(dp4255
g74
(dp4256
S'_class'
p4257
S'brand'
p4258
sS'_href'
p4259
S'http://www.web2py.com/'
p4260
ssg83
Nsg76
(lp4261
g69
(cgluon.html
B
p4262
g71
NtRp4263
(dp4264
g74
(dp4265
sg83
g4254
sg76
(lp4266
S'web'
p4267
ag69
(cgluon.html
SPAN
p4268
g71
NtRp4269
(dp4270
g74
(dp4271
sg83
g4263
sg76
(lp4272
I2
asbaS'py'
p4273
asbacgluon.html
XML_unpickle
p4274
(S's\r\x00\x00\x00&trade;&nbsp;'
tRp4275
asbasbasbasbag69
(g85
g71
NtRp4276
(dp4277
g74
(dp4278
sg83
g3795
sg76
(lp4279
g69
(g90
g71
NtRp4280
(dp4281
g74
(dp4282
g94
g95
ssg83
g4276
sg76
(lp4283
S'menu'
p4284
asbag69
(g90
g71
NtRp4285
(dp4286
g74
(dp4287
g101
g102
ssg83
g4276
sg76
(lp4288
S':'
asbag69
(g90
g71
NtRp4289
(dp4290
g74
(dp4291
sg83
g4276
sg76
(lp4292
g69
(g70
g71
NtRp4293
(dp4294
g74
(dp4295
g82
I5
ssg83
g4289
sg76
(lp4296
g69
(g78
g71
NtRp4297
(dp4298
g74
(dp4299
g82
I4
ssg83
Nsg76
(lp4300
g69
(g85
g71
NtRp4301
(dp4302
g74
(dp4303
sg83
g4297
sg76
(lp4304
g69
(g90
g71
NtRp4305
(dp4306
g74
(dp4307
sg83
g4301
sg76
(lp4308
g69
(g70
g71
NtRp4309
(dp4310
g74
(dp4311
g82
I4
ssg83
g4305
sg76
(lp4312
g69
(g78
g71
NtRp4313
(dp4314
g74
(dp4315
g82
I3
ssg83
Nsg76
(lp4316
g69
(g85
g71
NtRp4317
(dp4318
g74
(dp4319
sg83
g4313
sg76
(lp4320
g69
(g90
g71
NtRp4321
(dp4322
g74
(dp4323
sg83
g4317
sg76
(lp4324
g69
(g70
g71
NtRp4325
(dp4326
g74
(dp4327
g82
I3
ssg83
g4321
sg76
(lp4328
cgluon.languages
lazyT_unpickle
p4329
(S's\x04\x00\x00\x00Home'
tRp4330
asbasbasbag69
(g85
g71
NtRp4331
(dp4332
g74
(dp4333
sg83
g4313
sg76
(lp4334
g69
(g90
g71
NtRp4335
(dp4336
g74
(dp4337
sg83
g4331
sg76
(lp4338
g69
(g70
g71
NtRp4339
(dp4340
g74
(dp4341
g82
I3
ssg83
g4335
sg76
(lp4342
g112
asbasbasbag69
(g85
g71
NtRp4343
(dp4344
g74
(dp4345
sg83
g4313
sg76
(lp4346
g69
(g90
g71
NtRp4347
(dp4348
g74
(dp4349
sg83
g4343
sg76
(lp4350
g69
(g70
g71
NtRp4351
(dp4352
g74
(dp4353
g82
I3
ssg83
g4347
sg76
(lp4354
S'/assignment2/default/index'
p4355
asbasbasbag69
(g85
g71
NtRp4356
(dp4357
g74
(dp4358
sg83
g4313
sg76
(lp4359
g69
(g90
g71
NtRp4360
(dp4361
g74
(dp4362
sg83
g4356
sg76
(lp4363
g69
(g70
g71
NtRp4364
(dp4365
g74
(dp4366
g82
I3
ssg83
g4360
sg76
(lp4367
g69
(g78
g71
NtRp4368
(dp4369
g74
(dp4370
g82
I2
ssg83
Nsg76
(lp4371
sbasbasbasbasbasbasbasbag69
(g85
g71
NtRp4372
(dp4373
g74
(dp4374
sg83
g4297
sg76
(lp4375
g69
(g90
g71
NtRp4376
(dp4377
g74
(dp4378
sg83
g4372
sg76
(lp4379
g69
(g70
g71
NtRp4380
(dp4381
g74
(dp4382
g82
I4
ssg83
g4376
sg76
(lp4383
g69
(g78
g71
NtRp4384
(dp4385
g74
(dp4386
g82
I3
ssg83
Nsg76
(lp4387
g69
(g85
g71
NtRp4388
(dp4389
g74
(dp4390
sg83
g4384
sg76
(lp4391
g69
(g90
g71
NtRp4392
(dp4393
g74
(dp4394
sg83
g4388
sg76
(lp4395
g69
(g70
g71
NtRp4396
(dp4397
g74
(dp4398
g82
I3
ssg83
g4392
sg76
(lp4399
g69
(g4268
g71
NtRp4400
(dp4401
g74
(dp4402
g4257
S'highlighted'
p4403
ssg83
Nsg76
(lp4404
g4231
asbasbasbasbag69
(g85
g71
NtRp4405
(dp4406
g74
(dp4407
sg83
g4384
sg76
(lp4408
g69
(g90
g71
NtRp4409
(dp4410
g74
(dp4411
sg83
g4405
sg76
(lp4412
g69
(g70
g71
NtRp4413
(dp4414
g74
(dp4415
g82
I3
ssg83
g4409
sg76
(lp4416
g112
asbasbasbag69
(g85
g71
NtRp4417
(dp4418
g74
(dp4419
sg83
g4384
sg76
(lp4420
g69
(g90
g71
NtRp4421
(dp4422
g74
(dp4423
sg83
g4417
sg76
(lp4424
g69
(g70
g71
NtRp4425
(dp4426
g74
(dp4427
g82
I3
ssg83
g4421
sg76
(lp4428
S'http://web2py.com'
p4429
asbasbasbag69
(g85
g71
NtRp4430
(dp4431
g74
(dp4432
sg83
g4384
sg76
(lp4433
g69
(g90
g71
NtRp4434
(dp4435
g74
(dp4436
sg83
g4430
sg76
(lp4437
g69
(g70
g71
NtRp4438
(dp4439
g74
(dp4440
g82
I3
ssg83
g4434
sg76
(lp4441
g69
(g78
g71
NtRp4442
(dp4443
g74
(dp4444
g82
I2
ssg83
Nsg76
(lp4445
g69
(g85
g71
NtRp4446
(dp4447
g74
(dp4448
sg83
g4442
sg76
(lp4449
g69
(g90
g71
NtRp4450
(dp4451
g74
(dp4452
sg83
g4446
sg76
(lp4453
g69
(g70
g71
NtRp4454
(dp4455
g74
(dp4456
g82
I2
ssg83
g4450
sg76
(lp4457
g69
(g78
g71
NtRp4458
(dp4459
g74
(dp4460
g82
I1
ssg83
Nsg76
(lp4461
g69
(g85
g71
NtRp4462
(dp4463
g74
(dp4464
sg83
g4458
sg76
(lp4465
g69
(g90
g71
NtRp4466
(dp4467
g74
(dp4468
sg83
g4462
sg76
(lp4469
g69
(g70
g71
NtRp4470
(dp4471
g74
(dp4472
g82
I1
ssg83
g4466
sg76
(lp4473
g4329
(S's\x08\x00\x00\x00My Sites'
tRp4474
asbasbasbag69
(g85
g71
NtRp4475
(dp4476
g74
(dp4477
sg83
g4458
sg76
(lp4478
g69
(g90
g71
NtRp4479
(dp4480
g74
(dp4481
sg83
g4475
sg76
(lp4482
g69
(g70
g71
NtRp4483
(dp4484
g74
(dp4485
g82
I1
ssg83
g4479
sg76
(lp4486
I00
asbasbasbag69
(g85
g71
NtRp4487
(dp4488
g74
(dp4489
sg83
g4458
sg76
(lp4490
g69
(g90
g71
NtRp4491
(dp4492
g74
(dp4493
sg83
g4487
sg76
(lp4494
g69
(g70
g71
NtRp4495
(dp4496
g74
(dp4497
g82
I1
ssg83
g4491
sg76
(lp4498
S'/admin/default/site'
p4499
asbasbasbasbasbasbasbag69
(g85
g71
NtRp4500
(dp4501
g74
(dp4502
sg83
g4442
sg76
(lp4503
g69
(g90
g71
NtRp4504
(dp4505
g74
(dp4506
sg83
g4500
sg76
(lp4507
g69
(g70
g71
NtRp4508
(dp4509
g74
(dp4510
g82
I2
ssg83
g4504
sg76
(lp4511
g69
(g78
g71
NtRp4512
(dp4513
g74
(dp4514
g82
I1
ssg83
Nsg76
(lp4515
g69
(g85
g71
NtRp4516
(dp4517
g74
(dp4518
sg83
g4512
sg76
(lp4519
g69
(g90
g71
NtRp4520
(dp4521
g74
(dp4522
sg83
g4516
sg76
(lp4523
g69
(g70
g71
NtRp4524
(dp4525
g74
(dp4526
g82
I1
ssg83
g4520
sg76
(lp4527
g4329
(S's\x08\x00\x00\x00This App'
tRp4528
asbasbasbag69
(g85
g71
NtRp4529
(dp4530
g74
(dp4531
sg83
g4512
sg76
(lp4532
g69
(g90
g71
NtRp4533
(dp4534
g74
(dp4535
sg83
g4529
sg76
(lp4536
g69
(g70
g71
NtRp4537
(dp4538
g74
(dp4539
g82
I1
ssg83
g4533
sg76
(lp4540
I00
asbasbasbag69
(g85
g71
NtRp4541
(dp4542
g74
(dp4543
sg83
g4512
sg76
(lp4544
g69
(g90
g71
NtRp4545
(dp4546
g74
(dp4547
sg83
g4541
sg76
(lp4548
g69
(g70
g71
NtRp4549
(dp4550
g74
(dp4551
g82
I1
ssg83
g4545
sg76
(lp4552
S'/admin/default/design/assignment2'
p4553
asbasbasbag69
(g85
g71
NtRp4554
(dp4555
g74
(dp4556
sg83
g4512
sg76
(lp4557
g69
(g90
g71
NtRp4558
(dp4559
g74
(dp4560
sg83
g4554
sg76
(lp4561
g69
(g70
g71
NtRp4562
(dp4563
g74
(dp4564
g82
I1
ssg83
g4558
sg76
(lp4565
(lp4566
(g4329
(S's\n\x00\x00\x00Controller'
tRp4567
I00
S'/admin/default/edit/assignment2/controllers/default.py'
tp4568
a(g4329
(S's\x04\x00\x00\x00View'
tRp4569
I00
S'/admin/default/edit/assignment2/views/default/user_homepage.html'
tp4570
a(g4329
(S's\x06\x00\x00\x00Layout'
tRp4571
I00
S'/admin/default/edit/assignment2/views/layout.html'
tp4572
a(g4329
(S's\n\x00\x00\x00Stylesheet'
tRp4573
I00
S'/admin/default/edit/assignment2/static/css/web2py.css'
tp4574
a(g4329
(S's\x08\x00\x00\x00DB Model'
tRp4575
I00
S'/admin/default/edit/assignment2/models/db.py'
tp4576
a(g4329
(S's\n\x00\x00\x00Menu Model'
tRp4577
I00
S'/admin/default/edit/assignment2/models/menu.py'
tp4578
a(g4329
(S's\x08\x00\x00\x00Database'
tRp4579
I00
S'/assignment2/appadmin/index'
tp4580
a(g4329
(S's\x06\x00\x00\x00Errors'
tRp4581
I00
S'/admin/default/errors/assignment2'
tp4582
a(g4329
(S's\x05\x00\x00\x00About'
tRp4583
I00
S'/admin/default/about/assignment2'
tp4584
aasbasbasbasbasbasbasbag69
(g85
g71
NtRp4585
(dp4586
g74
(dp4587
sg83
g4442
sg76
(lp4588
g69
(g90
g71
NtRp4589
(dp4590
g74
(dp4591
sg83
g4585
sg76
(lp4592
g69
(g70
g71
NtRp4593
(dp4594
g74
(dp4595
g82
I2
ssg83
g4589
sg76
(lp4596
g69
(g78
g71
NtRp4597
(dp4598
g74
(dp4599
g82
I1
ssg83
Nsg76
(lp4600
g69
(g85
g71
NtRp4601
(dp4602
g74
(dp4603
sg83
g4597
sg76
(lp4604
g69
(g90
g71
NtRp4605
(dp4606
g74
(dp4607
sg83
g4601
sg76
(lp4608
g69
(g70
g71
NtRp4609
(dp4610
g74
(dp4611
g82
I1
ssg83
g4605
sg76
(lp4612
S'web2py.com'
p4613
asbasbasbag69
(g85
g71
NtRp4614
(dp4615
g74
(dp4616
sg83
g4597
sg76
(lp4617
g69
(g90
g71
NtRp4618
(dp4619
g74
(dp4620
sg83
g4614
sg76
(lp4621
g69
(g70
g71
NtRp4622
(dp4623
g74
(dp4624
g82
I1
ssg83
g4618
sg76
(lp4625
I00
asbasbasbag69
(g85
g71
NtRp4626
(dp4627
g74
(dp4628
sg83
g4597
sg76
(lp4629
g69
(g90
g71
NtRp4630
(dp4631
g74
(dp4632
sg83
g4626
sg76
(lp4633
g69
(g70
g71
NtRp4634
(dp4635
g74
(dp4636
g82
I1
ssg83
g4630
sg76
(lp4637
S'http://www.web2py.com'
p4638
asbasbasbag69
(g85
g71
NtRp4639
(dp4640
g74
(dp4641
sg83
g4597
sg76
(lp4642
g69
(g90
g71
NtRp4643
(dp4644
g74
(dp4645
sg83
g4639
sg76
(lp4646
g69
(g70
g71
NtRp4647
(dp4648
g74
(dp4649
g82
I1
ssg83
g4643
sg76
(lp4650
(lp4651
(g4329
(S's\x08\x00\x00\x00Download'
tRp4652
I00
S'http://www.web2py.com/examples/default/download'
p4653
tp4654
a(g4329
(S's\x07\x00\x00\x00Support'
tRp4655
I00
S'http://www.web2py.com/examples/default/support'
p4656
tp4657
a(g4329
(S's\x04\x00\x00\x00Demo'
tRp4658
I00
S'http://web2py.com/demo_admin'
p4659
tp4660
a(g4329
(S's\x0e\x00\x00\x00Quick Examples'
tRp4661
I00
S'http://web2py.com/examples/default/examples'
p4662
tp4663
a(g4329
(S's\x03\x00\x00\x00FAQ'
tRp4664
I00
S'http://web2py.com/AlterEgo'
p4665
tp4666
a(g4329
(S's\x06\x00\x00\x00Videos'
tRp4667
I00
S'http://www.web2py.com/examples/default/videos/'
p4668
tp4669
a(g4329
(S's\x11\x00\x00\x00Free Applications'
tRp4670
I00
S'http://web2py.com/appliances'
p4671
tp4672
a(g4329
(S's\x07\x00\x00\x00Plugins'
tRp4673
I00
S'http://web2py.com/plugins'
p4674
tp4675
a(g4329
(S's\x07\x00\x00\x00Layouts'
tRp4676
I00
S'http://web2py.com/layouts'
p4677
tp4678
a(g4329
(S's\x07\x00\x00\x00Recipes'
tRp4679
I00
S'http://web2pyslices.com/'
p4680
tp4681
a(g4329
(S's\x08\x00\x00\x00Semantic'
tRp4682
I00
S'http://web2py.com/semantic'
p4683
tp4684
aasbasbasbasbasbasbasbag69
(g85
g71
NtRp4685
(dp4686
g74
(dp4687
sg83
g4442
sg76
(lp4688
g69
(g90
g71
NtRp4689
(dp4690
g74
(dp4691
sg83
g4685
sg76
(lp4692
g69
(g70
g71
NtRp4693
(dp4694
g74
(dp4695
g82
I2
ssg83
g4689
sg76
(lp4696
g69
(g78
g71
NtRp4697
(dp4698
g74
(dp4699
g82
I1
ssg83
Nsg76
(lp4700
g69
(g85
g71
NtRp4701
(dp4702
g74
(dp4703
sg83
g4697
sg76
(lp4704
g69
(g90
g71
NtRp4705
(dp4706
g74
(dp4707
sg83
g4701
sg76
(lp4708
g69
(g70
g71
NtRp4709
(dp4710
g74
(dp4711
g82
I1
ssg83
g4705
sg76
(lp4712
g4329
(S's\r\x00\x00\x00Documentation'
tRp4713
asbasbasbag69
(g85
g71
NtRp4714
(dp4715
g74
(dp4716
sg83
g4697
sg76
(lp4717
g69
(g90
g71
NtRp4718
(dp4719
g74
(dp4720
sg83
g4714
sg76
(lp4721
g69
(g70
g71
NtRp4722
(dp4723
g74
(dp4724
g82
I1
ssg83
g4718
sg76
(lp4725
I00
asbasbasbag69
(g85
g71
NtRp4726
(dp4727
g74
(dp4728
sg83
g4697
sg76
(lp4729
g69
(g90
g71
NtRp4730
(dp4731
g74
(dp4732
sg83
g4726
sg76
(lp4733
g69
(g70
g71
NtRp4734
(dp4735
g74
(dp4736
g82
I1
ssg83
g4730
sg76
(lp4737
S'http://www.web2py.com/book'
p4738
asbasbasbag69
(g85
g71
NtRp4739
(dp4740
g74
(dp4741
sg83
g4697
sg76
(lp4742
g69
(g90
g71
NtRp4743
(dp4744
g74
(dp4745
sg83
g4739
sg76
(lp4746
g69
(g70
g71
NtRp4747
(dp4748
g74
(dp4749
g82
I1
ssg83
g4743
sg76
(lp4750
(lp4751
(g4329
(S's\x07\x00\x00\x00Preface'
tRp4752
I00
S'http://www.web2py.com/book/default/chapter/00'
p4753
tp4754
a(g4329
(S's\x0c\x00\x00\x00Introduction'
tRp4755
I00
S'http://www.web2py.com/book/default/chapter/01'
p4756
tp4757
a(g4329
(S's\x06\x00\x00\x00Python'
tRp4758
I00
S'http://www.web2py.com/book/default/chapter/02'
p4759
tp4760
a(g4329
(S's\x08\x00\x00\x00Overview'
tRp4761
I00
S'http://www.web2py.com/book/default/chapter/03'
p4762
tp4763
a(g4329
(S's\x08\x00\x00\x00The Core'
tRp4764
I00
S'http://www.web2py.com/book/default/chapter/04'
p4765
tp4766
a(g4329
(S's\t\x00\x00\x00The Views'
tRp4767
I00
S'http://www.web2py.com/book/default/chapter/05'
p4768
tp4769
a(g4329
(S's\x08\x00\x00\x00Database'
tRp4770
I00
S'http://www.web2py.com/book/default/chapter/06'
p4771
tp4772
a(g4329
(S's\x14\x00\x00\x00Forms and Validators'
tRp4773
I00
S'http://www.web2py.com/book/default/chapter/07'
p4774
tp4775
a(g4329
(S's\r\x00\x00\x00Email and SMS'
tRp4776
I00
S'http://www.web2py.com/book/default/chapter/08'
p4777
tp4778
a(g4329
(S's\x0e\x00\x00\x00Access Control'
tRp4779
I00
S'http://www.web2py.com/book/default/chapter/09'
p4780
tp4781
a(g4329
(S's\x08\x00\x00\x00Services'
tRp4782
I00
S'http://www.web2py.com/book/default/chapter/10'
p4783
tp4784
a(g4329
(S's\x0c\x00\x00\x00Ajax Recipes'
tRp4785
I00
S'http://www.web2py.com/book/default/chapter/11'
p4786
tp4787
a(g4329
(S's\x16\x00\x00\x00Components and Plugins'
tRp4788
I00
S'http://www.web2py.com/book/default/chapter/12'
p4789
tp4790
a(g4329
(S's\x12\x00\x00\x00Deployment Recipes'
tRp4791
I00
S'http://www.web2py.com/book/default/chapter/13'
p4792
tp4793
a(g4329
(S's\r\x00\x00\x00Other Recipes'
tRp4794
I00
S'http://www.web2py.com/book/default/chapter/14'
p4795
tp4796
a(g4329
(S's\r\x00\x00\x00Buy this book'
tRp4797
I00
S'http://stores.lulu.com/web2py'
p4798
tp4799
aasbasbasbasbasbasbasbag69
(g85
g71
NtRp4800
(dp4801
g74
(dp4802
sg83
g4442
sg76
(lp4803
g69
(g90
g71
NtRp4804
(dp4805
g74
(dp4806
sg83
g4800
sg76
(lp4807
g69
(g70
g71
NtRp4808
(dp4809
g74
(dp4810
g82
I2
ssg83
g4804
sg76
(lp4811
g69
(g78
g71
NtRp4812
(dp4813
g74
(dp4814
g82
I1
ssg83
Nsg76
(lp4815
g69
(g85
g71
NtRp4816
(dp4817
g74
(dp4818
sg83
g4812
sg76
(lp4819
g69
(g90
g71
NtRp4820
(dp4821
g74
(dp4822
sg83
g4816
sg76
(lp4823
g69
(g70
g71
NtRp4824
(dp4825
g74
(dp4826
g82
I1
ssg83
g4820
sg76
(lp4827
g4329
(S's\t\x00\x00\x00Community'
tRp4828
asbasbasbag69
(g85
g71
NtRp4829
(dp4830
g74
(dp4831
sg83
g4812
sg76
(lp4832
g69
(g90
g71
NtRp4833
(dp4834
g74
(dp4835
sg83
g4829
sg76
(lp4836
g69
(g70
g71
NtRp4837
(dp4838
g74
(dp4839
g82
I1
ssg83
g4833
sg76
(lp4840
I00
asbasbasbag69
(g85
g71
NtRp4841
(dp4842
g74
(dp4843
sg83
g4812
sg76
(lp4844
g69
(g90
g71
NtRp4845
(dp4846
g74
(dp4847
sg83
g4841
sg76
(lp4848
g69
(g70
g71
NtRp4849
(dp4850
g74
(dp4851
g82
I1
ssg83
g4845
sg76
(lp4852
Nasbasbasbag69
(g85
g71
NtRp4853
(dp4854
g74
(dp4855
sg83
g4812
sg76
(lp4856
g69
(g90
g71
NtRp4857
(dp4858
g74
(dp4859
sg83
g4853
sg76
(lp4860
g69
(g70
g71
NtRp4861
(dp4862
g74
(dp4863
g82
I1
ssg83
g4857
sg76
(lp4864
(lp4865
(g4329
(S's\x06\x00\x00\x00Groups'
tRp4866
I00
S'http://www.web2py.com/examples/default/usergroups'
p4867
tp4868
a(g4329
(S's\x07\x00\x00\x00Twitter'
tRp4869
I00
S'http://twitter.com/web2py'
p4870
tp4871
a(g4329
(S's\t\x00\x00\x00Live Chat'
tRp4872
I00
S'http://webchat.freenode.net/?channels=web2py'
p4873
tp4874
aasbasbasbasbasbasbasbag69
(g85
g71
NtRp4875
(dp4876
g74
(dp4877
sg83
g4442
sg76
(lp4878
g69
(g90
g71
NtRp4879
(dp4880
g74
(dp4881
sg83
g4875
sg76
(lp4882
g69
(g70
g71
NtRp4883
(dp4884
g74
(dp4885
g82
I2
ssg83
g4879
sg76
(lp4886
g69
(g78
g71
NtRp4887
(dp4888
g74
(dp4889
g82
I1
ssg83
Nsg76
(lp4890
g69
(g85
g71
NtRp4891
(dp4892
g74
(dp4893
sg83
g4887
sg76
(lp4894
g69
(g90
g71
NtRp4895
(dp4896
g74
(dp4897
sg83
g4891
sg76
(lp4898
g69
(g70
g71
NtRp4899
(dp4900
g74
(dp4901
g82
I1
ssg83
g4895
sg76
(lp4902
g4329
(S's\x07\x00\x00\x00Plugins'
tRp4903
asbasbasbag69
(g85
g71
NtRp4904
(dp4905
g74
(dp4906
sg83
g4887
sg76
(lp4907
g69
(g90
g71
NtRp4908
(dp4909
g74
(dp4910
sg83
g4904
sg76
(lp4911
g69
(g70
g71
NtRp4912
(dp4913
g74
(dp4914
g82
I1
ssg83
g4908
sg76
(lp4915
I00
asbasbasbag69
(g85
g71
NtRp4916
(dp4917
g74
(dp4918
sg83
g4887
sg76
(lp4919
g69
(g90
g71
NtRp4920
(dp4921
g74
(dp4922
sg83
g4916
sg76
(lp4923
g69
(g70
g71
NtRp4924
(dp4925
g74
(dp4926
g82
I1
ssg83
g4920
sg76
(lp4927
Nasbasbasbag69
(g85
g71
NtRp4928
(dp4929
g74
(dp4930
sg83
g4887
sg76
(lp4931
g69
(g90
g71
NtRp4932
(dp4933
g74
(dp4934
sg83
g4928
sg76
(lp4935
g69
(g70
g71
NtRp4936
(dp4937
g74
(dp4938
g82
I1
ssg83
g4932
sg76
(lp4939
(lp4940
(S'plugin_wiki'
p4941
I00
S'http://web2py.com/examples/default/download'
p4942
tp4943
a(g4329
(S's\r\x00\x00\x00Other Plugins'
tRp4944
I00
g4674
tp4945
a(g4329
(S's\x0e\x00\x00\x00Layout Plugins'
tRp4946
I00
g4677
tp4947
aasbasbasbasbasbasbasbasbasbasbasbasbasbasbasbasbasbasbasbag69
(g85
g71
NtRp4948
(dp4949
g74
(dp4950
sg83
g3795
sg76
(lp4951
g69
(g90
g71
NtRp4952
(dp4953
g74
(dp4954
g94
g95
ssg83
g4948
sg76
(lp4955
S'meta'
p4956
asbag69
(g90
g71
NtRp4957
(dp4958
g74
(dp4959
g101
g102
ssg83
g4948
sg76
(lp4960
S':'
asbag69
(g90
g71
NtRp4961
(dp4962
g74
(dp4963
sg83
g4948
sg76
(lp4964
g69
(g70
g71
NtRp4965
(dp4966
g74
(dp4967
g82
I5
ssg83
g4961
sg76
(lp4968
g69
(g78
g71
NtRp4969
(dp4970
g74
(dp4971
g82
I4
ssg83
Nsg76
(lp4972
g69
(g85
g71
NtRp4973
(dp4974
g74
(dp4975
sg83
g4969
sg76
(lp4976
g69
(g90
g71
NtRp4977
(dp4978
g74
(dp4979
g94
g95
ssg83
g4973
sg76
(lp4980
S'author'
p4981
asbag69
(g90
g71
NtRp4982
(dp4983
g74
(dp4984
g101
g102
ssg83
g4973
sg76
(lp4985
S':'
asbag69
(g90
g71
NtRp4986
(dp4987
g74
(dp4988
sg83
g4973
sg76
(lp4989
g69
(g70
g71
NtRp4990
(dp4991
g74
(dp4992
g82
I4
ssg83
g4986
sg76
(lp4993
S'Your Name <you@example.com>'
p4994
asbasbasbag69
(g85
g71
NtRp4995
(dp4996
g74
(dp4997
sg83
g4969
sg76
(lp4998
g69
(g90
g71
NtRp4999
(dp5000
g74
(dp5001
g94
g95
ssg83
g4995
sg76
(lp5002
S'description'
p5003
asbag69
(g90
g71
NtRp5004
(dp5005
g74
(dp5006
g101
g102
ssg83
g4995
sg76
(lp5007
S':'
asbag69
(g90
g71
NtRp5008
(dp5009
g74
(dp5010
sg83
g4995
sg76
(lp5011
g69
(g70
g71
NtRp5012
(dp5013
g74
(dp5014
g82
I4
ssg83
g5008
sg76
(lp5015
S'a cool new app'
p5016
asbasbasbag69
(g85
g71
NtRp5017
(dp5018
g74
(dp5019
sg83
g4969
sg76
(lp5020
g69
(g90
g71
NtRp5021
(dp5022
g74
(dp5023
g94
g95
ssg83
g5017
sg76
(lp5024
S'generator'
p5025
asbag69
(g90
g71
NtRp5026
(dp5027
g74
(dp5028
g101
g102
ssg83
g5017
sg76
(lp5029
S':'
asbag69
(g90
g71
NtRp5030
(dp5031
g74
(dp5032
sg83
g5017
sg76
(lp5033
g69
(g70
g71
NtRp5034
(dp5035
g74
(dp5036
g82
I4
ssg83
g5030
sg76
(lp5037
S'Web2py Web Framework'
p5038
asbasbasbag69
(g85
g71
NtRp5039
(dp5040
g74
(dp5041
sg83
g4969
sg76
(lp5042
g69
(g90
g71
NtRp5043
(dp5044
g74
(dp5045
g94
g95
ssg83
g5039
sg76
(lp5046
S'keywords'
p5047
asbag69
(g90
g71
NtRp5048
(dp5049
g74
(dp5050
g101
g102
ssg83
g5039
sg76
(lp5051
S':'
asbag69
(g90
g71
NtRp5052
(dp5053
g74
(dp5054
sg83
g5039
sg76
(lp5055
g69
(g70
g71
NtRp5056
(dp5057
g74
(dp5058
g82
I4
ssg83
g5052
sg76
(lp5059
S'web2py, python, framework'
p5060
asbasbasbasbasbasbasbag69
(g85
g71
NtRp5061
(dp5062
g74
(dp5063
sg83
g3795
sg76
(lp5064
g69
(g90
g71
NtRp5065
(dp5066
g74
(dp5067
g94
g95
ssg83
g5061
sg76
(lp5068
S'models_to_run'
p5069
asbag69
(g90
g71
NtRp5070
(dp5071
g74
(dp5072
g101
g102
ssg83
g5061
sg76
(lp5073
S':'
asbag69
(g90
g71
NtRp5074
(dp5075
g74
(dp5076
sg83
g5061
sg76
(lp5077
g69
(g70
g71
NtRp5078
(dp5079
g74
(dp5080
g82
I5
ssg83
g5074
sg76
(lp5081
g69
(g78
g71
NtRp5082
(dp5083
g74
(dp5084
g82
I4
ssg83
Nsg76
(lp5085
g69
(g85
g71
NtRp5086
(dp5087
g74
(dp5088
sg83
g5082
sg76
(lp5089
g69
(g90
g71
NtRp5090
(dp5091
g74
(dp5092
sg83
g5086
sg76
(lp5093
g69
(g70
g71
NtRp5094
(dp5095
g74
(dp5096
g82
I4
ssg83
g5090
sg76
(lp5097
S'^\\w+\\.py$'
p5098
asbasbasbag69
(g85
g71
NtRp5099
(dp5100
g74
(dp5101
sg83
g5082
sg76
(lp5102
g69
(g90
g71
NtRp5103
(dp5104
g74
(dp5105
sg83
g5099
sg76
(lp5106
g69
(g70
g71
NtRp5107
(dp5108
g74
(dp5109
g82
I4
ssg83
g5103
sg76
(lp5110
S'^default/\\w+\\.py$'
p5111
asbasbasbag69
(g85
g71
NtRp5112
(dp5113
g74
(dp5114
sg83
g5082
sg76
(lp5115
g69
(g90
g71
NtRp5116
(dp5117
g74
(dp5118
sg83
g5112
sg76
(lp5119
g69
(g70
g71
NtRp5120
(dp5121
g74
(dp5122
g82
I4
ssg83
g5116
sg76
(lp5123
S'^default/user_homepage/\\w+\\.py$'
p5124
asbasbasbasbasbasbasbag69
(g85
g71
NtRp5125
(dp5126
g74
(dp5127
sg83
g3795
sg76
(lp5128
g69
(g90
g71
NtRp5129
(dp5130
g74
(dp5131
g94
g95
ssg83
g5125
sg76
(lp5132
S'postprocessing'
p5133
asbag69
(g90
g71
NtRp5134
(dp5135
g74
(dp5136
g101
g102
ssg83
g5125
sg76
(lp5137
S':'
asbag69
(g90
g71
NtRp5138
(dp5139
g74
(dp5140
sg83
g5125
sg76
(lp5141
g69
(g70
g71
NtRp5142
(dp5143
g74
(dp5144
g82
I5
ssg83
g5138
sg76
(lp5145
g69
(g78
g71
NtRp5146
(dp5147
g74
(dp5148
g82
I4
ssg83
Nsg76
(lp5149
sbasbasbasbag69
(g85
g71
NtRp5150
(dp5151
g74
(dp5152
sg83
g3795
sg76
(lp5153
g69
(g90
g71
NtRp5154
(dp5155
g74
(dp5156
g94
g95
ssg83
g5150
sg76
(lp5157
S'session_cookie_expires'
p5158
asbag69
(g90
g71
NtRp5159
(dp5160
g74
(dp5161
g101
g102
ssg83
g5150
sg76
(lp5162
S':'
asbag69
(g90
g71
NtRp5163
(dp5164
g74
(dp5165
sg83
g5150
sg76
(lp5166
g69
(g70
g71
NtRp5167
(dp5168
g74
(dp5169
g82
I5
ssg83
g5163
sg76
(lp5170
S'None'
p5171
asbasbasbag69
(g85
g71
NtRp5172
(dp5173
g74
(dp5174
sg83
g3795
sg76
(lp5175
g69
(g90
g71
NtRp5176
(dp5177
g74
(dp5178
g94
g95
ssg83
g5172
sg76
(lp5179
S'session_data_name'
p5180
asbag69
(g90
g71
NtRp5181
(dp5182
g74
(dp5183
g101
g102
ssg83
g5172
sg76
(lp5184
S':'
asbag69
(g90
g71
NtRp5185
(dp5186
g74
(dp5187
sg83
g5172
sg76
(lp5188
g69
(g70
g71
NtRp5189
(dp5190
g74
(dp5191
g82
I5
ssg83
g5185
sg76
(lp5192
S'session_data_assignment2'
p5193
asbasbasbag69
(g85
g71
NtRp5194
(dp5195
g74
(dp5196
sg83
g3795
sg76
(lp5197
g69
(g90
g71
NtRp5198
(dp5199
g74
(dp5200
g94
g95
ssg83
g5194
sg76
(lp5201
S'session_file'
p5202
asbag69
(g90
g71
NtRp5203
(dp5204
g74
(dp5205
g101
g102
ssg83
g5194
sg76
(lp5206
S':'
asbag69
(g90
g71
NtRp5207
(dp5208
g74
(dp5209
sg83
g5194
sg76
(lp5210
g69
(g70
g71
NtRp5211
(dp5212
g74
(dp5213
g82
I5
ssg83
g5207
sg76
(lp5214
S"<open file '/home/aditi/Desktop/web2py/applications/assignment2/sessions/127.0.0.1-df3317b1-fbdf-40a6-bfa1-0af1b15533cc', mode 'rb+' at 0xacd3d758>"
p5215
asbasbasbag69
(g85
g71
NtRp5216
(dp5217
g74
(dp5218
sg83
g3795
sg76
(lp5219
g69
(g90
g71
NtRp5220
(dp5221
g74
(dp5222
g94
g95
ssg83
g5216
sg76
(lp5223
S'session_filename'
p5224
asbag69
(g90
g71
NtRp5225
(dp5226
g74
(dp5227
g101
g102
ssg83
g5216
sg76
(lp5228
S':'
asbag69
(g90
g71
NtRp5229
(dp5230
g74
(dp5231
sg83
g5216
sg76
(lp5232
g69
(g70
g71
NtRp5233
(dp5234
g74
(dp5235
g82
I5
ssg83
g5229
sg76
(lp5236
S'/home/aditi/Desktop/web2py/applications/assignment2/sessions/127.0.0.1-df3317b1-fbdf-40a6-bfa1-0af1b15533cc'
p5237
asbasbasbag69
(g85
g71
NtRp5238
(dp5239
g74
(dp5240
sg83
g3795
sg76
(lp5241
g69
(g90
g71
NtRp5242
(dp5243
g74
(dp5244
g94
g95
ssg83
g5238
sg76
(lp5245
S'session_id'
p5246
asbag69
(g90
g71
NtRp5247
(dp5248
g74
(dp5249
g101
g102
ssg83
g5238
sg76
(lp5250
S':'
asbag69
(g90
g71
NtRp5251
(dp5252
g74
(dp5253
sg83
g5238
sg76
(lp5254
g69
(g70
g71
NtRp5255
(dp5256
g74
(dp5257
g82
I5
ssg83
g5251
sg76
(lp5258
g487
asbasbasbag69
(g85
g71
NtRp5259
(dp5260
g74
(dp5261
sg83
g3795
sg76
(lp5262
g69
(g90
g71
NtRp5263
(dp5264
g74
(dp5265
g94
g95
ssg83
g5259
sg76
(lp5266
S'session_id_name'
p5267
asbag69
(g90
g71
NtRp5268
(dp5269
g74
(dp5270
g101
g102
ssg83
g5259
sg76
(lp5271
S':'
asbag69
(g90
g71
NtRp5272
(dp5273
g74
(dp5274
sg83
g5259
sg76
(lp5275
g69
(g70
g71
NtRp5276
(dp5277
g74
(dp5278
g82
I5
ssg83
g5272
sg76
(lp5279
g3852
asbasbasbag69
(g85
g71
NtRp5280
(dp5281
g74
(dp5282
sg83
g3795
sg76
(lp5283
g69
(g90
g71
NtRp5284
(dp5285
g74
(dp5286
g94
g95
ssg83
g5280
sg76
(lp5287
S'session_locked'
p5288
asbag69
(g90
g71
NtRp5289
(dp5290
g74
(dp5291
g101
g102
ssg83
g5280
sg76
(lp5292
S':'
asbag69
(g90
g71
NtRp5293
(dp5294
g74
(dp5295
sg83
g5280
sg76
(lp5296
g69
(g70
g71
NtRp5297
(dp5298
g74
(dp5299
g82
I5
ssg83
g5293
sg76
(lp5300
g1794
asbasbasbag69
(g85
g71
NtRp5301
(dp5302
g74
(dp5303
sg83
g3795
sg76
(lp5304
g69
(g90
g71
NtRp5305
(dp5306
g74
(dp5307
g94
g95
ssg83
g5301
sg76
(lp5308
S'session_new'
p5309
asbag69
(g90
g71
NtRp5310
(dp5311
g74
(dp5312
g101
g102
ssg83
g5301
sg76
(lp5313
S':'
asbag69
(g90
g71
NtRp5314
(dp5315
g74
(dp5316
sg83
g5301
sg76
(lp5317
g69
(g70
g71
NtRp5318
(dp5319
g74
(dp5320
g82
I5
ssg83
g5314
sg76
(lp5321
g112
asbasbasbag69
(g85
g71
NtRp5322
(dp5323
g74
(dp5324
sg83
g3795
sg76
(lp5325
g69
(g90
g71
NtRp5326
(dp5327
g74
(dp5328
g94
g95
ssg83
g5322
sg76
(lp5329
S'session_storage_type'
p5330
asbag69
(g90
g71
NtRp5331
(dp5332
g74
(dp5333
g101
g102
ssg83
g5322
sg76
(lp5334
S':'
asbag69
(g90
g71
NtRp5335
(dp5336
g74
(dp5337
sg83
g5322
sg76
(lp5338
g69
(g70
g71
NtRp5339
(dp5340
g74
(dp5341
g82
I5
ssg83
g5335
sg76
(lp5342
g3237
asbasbasbag69
(g85
g71
NtRp5343
(dp5344
g74
(dp5345
sg83
g3795
sg76
(lp5346
g69
(g90
g71
NtRp5347
(dp5348
g74
(dp5349
g94
g95
ssg83
g5343
sg76
(lp5350
S'status'
p5351
asbag69
(g90
g71
NtRp5352
(dp5353
g74
(dp5354
g101
g102
ssg83
g5343
sg76
(lp5355
S':'
asbag69
(g90
g71
NtRp5356
(dp5357
g74
(dp5358
sg83
g5343
sg76
(lp5359
g69
(g70
g71
NtRp5360
(dp5361
g74
(dp5362
g82
I5
ssg83
g5356
sg76
(lp5363
S'200'
p5364
asbasbasbag69
(g85
g71
NtRp5365
(dp5366
g74
(dp5367
sg83
g3795
sg76
(lp5368
g69
(g90
g71
NtRp5369
(dp5370
g74
(dp5371
g94
g95
ssg83
g5365
sg76
(lp5372
S'subtitle'
p5373
asbag69
(g90
g71
NtRp5374
(dp5375
g74
(dp5376
g101
g102
ssg83
g5365
sg76
(lp5377
S':'
asbag69
(g90
g71
NtRp5378
(dp5379
g74
(dp5380
sg83
g5365
sg76
(lp5381
g69
(g70
g71
NtRp5382
(dp5383
g74
(dp5384
g82
I5
ssg83
g5378
sg76
(lp5385
g4329
(S's\r\x00\x00\x00customize me!'
tRp5386
asbasbasbag69
(g85
g71
NtRp5387
(dp5388
g74
(dp5389
sg83
g3795
sg76
(lp5390
g69
(g90
g71
NtRp5391
(dp5392
g74
(dp5393
g94
g95
ssg83
g5387
sg76
(lp5394
S'title'
p5395
asbag69
(g90
g71
NtRp5396
(dp5397
g74
(dp5398
g101
g102
ssg83
g5387
sg76
(lp5399
S':'
asbag69
(g90
g71
NtRp5400
(dp5401
g74
(dp5402
sg83
g5387
sg76
(lp5403
g69
(g70
g71
NtRp5404
(dp5405
g74
(dp5406
g82
I5
ssg83
g5400
sg76
(lp5407
S'Assignment2'
p5408
asbasbasbag69
(g85
g71
NtRp5409
(dp5410
g74
(dp5411
sg83
g3795
sg76
(lp5412
g69
(g90
g71
NtRp5413
(dp5414
g74
(dp5415
g94
g95
ssg83
g5409
sg76
(lp5416
S'view'
p5417
asbag69
(g90
g71
NtRp5418
(dp5419
g74
(dp5420
g101
g102
ssg83
g5409
sg76
(lp5421
S':'
asbag69
(g90
g71
NtRp5422
(dp5423
g74
(dp5424
sg83
g5409
sg76
(lp5425
g69
(g70
g71
NtRp5426
(dp5427
g74
(dp5428
g82
I5
ssg83
g5422
sg76
(lp5429
S'default/user_homepage.html'
p5430
asbasbasbasbasbsS'locals'
p5431
(dp5432
g4
S"'/home/aditi/Desktop/web2py/applications/assignment2/views/default/user_homepage.html'"
p5433
sg6
S'\'response.write(\\\'<!DOCTYPE html>\\\\n<!-- paulirish...."></script>\\\\n</body>\\\\n</html>\\\\n\\\\n\\\', escape=False)\''
p5434
sssS'traceback'
p5435
S'Traceback (most recent call last):\n  File "/home/aditi/Desktop/web2py/gluon/restricted.py", line 211, in restricted\n    ccode = compile2(code, layer)\n  File "/home/aditi/Desktop/web2py/gluon/restricted.py", line 194, in compile2\n    return compile(code.rstrip().replace(\'\\r\\n\', \'\\n\') + \'\\n\', layer, \'exec\')\n  File "/home/aditi/Desktop/web2py/applications/assignment2/views/default/user_homepage.html", line 95\n    response.write(n[j][\'heading\']</li>\n                                   ^\nSyntaxError: invalid syntax\n'
p5436
s.