(dp1
S'output'
p2
S"<type 'exceptions.NameError'> name 'total' is not defined"
p3
sS'layer'
p4
S'/home/aditi/Desktop/web2py/applications/assignment2/views/default/admin_homepage.html'
p5
sS'code'
p6
S'response.write(\'<!DOCTYPE html>\\n<!-- paulirish.com/2008/conditional-stylesheets-vs-css-hacks-answer-neither/ -->\\n<!--[if lt IE 7]><html class="ie ie6 ie-lte9 ie-lte8 ie-lte7 no-js" lang="\', escape=False)\nresponse.write(T.accepted_language or \'en\')\nresponse.write(\'"> <![endif]-->\\n<!--[if IE 7]><html class="ie ie7 ie-lte9 ie-lte8 ie-lte7 no-js" lang="\', escape=False)\nresponse.write(T.accepted_language or \'en\')\nresponse.write(\'"> <![endif]-->\\n<!--[if IE 8]><html class="ie ie8 ie-lte9 ie-lte8 no-js" lang="\', escape=False)\nresponse.write(T.accepted_language or \'en\')\nresponse.write(\'"> <![endif]-->\\n<!--[if IE 9]><html class="ie9 ie-lte9 no-js" lang="\', escape=False)\nresponse.write(T.accepted_language or \'en\')\nresponse.write(\'"> <![endif]-->\\n<!--[if (gt IE 9)|!(IE)]><!--> <html class="no-js" lang="\', escape=False)\nresponse.write(T.accepted_language or \'en\')\nresponse.write(\'"> <!--<![endif]-->\\n<head>\\n  <meta charset="utf-8" />\\n  <!-- www.phpied.com/conditional-comments-block-downloads/ -->\\n  <!-- Always force latest IE rendering engine\\n       (even in intranet) & Chrome Frame\\n       Remove this if you use the .htaccess -->\\n  <!--[if IE]>\\n      <meta http-equiv="X-UA-Compatible" content="IE=edge\', escape=False)\nresponse.write(not request.is_local and \',chrome=1\' or \'\')\nresponse.write(\'">\\n      <![endif]-->\\n\\n  <title>\', escape=False)\nresponse.write(response.title or request.application)\nresponse.write(\'</title>\\n\\n  <!-- http://dev.w3.org/html5/markup/meta.name.html -->\\n  <meta name="application-name" content="\', escape=False)\nresponse.write(request.application)\nresponse.write(\'" />\\n\\n  <!-- Speaking of Google, don\\\'t forget to set your site up:\\n       http://google.com/webmasters -->\\n  <meta name="google-site-verification" content="" />\\n\\n  <!--  Mobile Viewport Fix\\n        j.mp/mobileviewport & davidbcalhoun.com/2010/viewport-metatag\\n        device-width: Occupy full width of the screen in its current orientation\\n        initial-scale = 1.0 retains dimensions instead of zooming out if page height > device height\\n        user-scalable = yes allows the user to zoom in -->\\n  <meta name="viewport" content="width=device-width, initial-scale=1.0" />\\n\\n  <link rel="shortcut icon" href="\', escape=False)\nresponse.write(URL(\'static\',\'images/favicon.ico\'))\nresponse.write(\'" type="image/x-icon">\\n  <link rel="apple-touch-icon" href="\', escape=False)\nresponse.write(URL(\'static\',\'images/favicon.png\'))\nresponse.write(\'">\\n\\n  <!-- All JavaScript at the bottom, except for Modernizr which enables\\n       HTML5 elements & feature detects -->\\n  <script src="\', escape=False)\nresponse.write(URL(\'static\',\'js/modernizr.custom.js\'))\nresponse.write(\'"></script>\\n\\n  <!-- include stylesheets -->\\n  \', escape=False)\nresponse.files.append(URL(\'static\',\'css/web2py.css\'))\nresponse.files.append(URL(\'static\',\'css/bootstrap.min.css\'))\nresponse.files.append(URL(\'static\',\'css/bootstrap-responsive.min.css\'))\nresponse.files.append(URL(\'static\',\'css/web2py_bootstrap.css\'))\nresponse.write(\'\\n\\n  \', escape=False)\nresponse.write(\'<script type="text/javascript"><!--\\n    // These variables are used by the web2py_ajax_init function in web2py_ajax.js (which is loaded below).\\n    var w2p_ajax_confirm_message = "\', escape=False)\nresponse.write(T(\'Are you sure you want to delete this object?\'))\nresponse.write(\'";\\n    var w2p_ajax_date_format = "\', escape=False)\nresponse.write(T(\'%Y-%m-%d\'))\nresponse.write(\'";\\n    var w2p_ajax_datetime_format = "\', escape=False)\nresponse.write(T(\'%Y-%m-%d %H:%M:%S\'))\nresponse.write(\'";\\n    //--></script>\\n\', escape=False)\nresponse.files.insert(0,URL(\'static\',\'js/jquery.js\'))\nresponse.files.insert(1,URL(\'static\',\'css/calendar.css\'))\nresponse.files.insert(2,URL(\'static\',\'js/calendar.js\'))\nresponse.files.insert(3,URL(\'static\',\'js/web2py.js\'))\nresponse.include_meta()\nresponse.include_files()\nresponse.write(\'\\n\', escape=False)\nresponse.write(\'\\n\\n  \', escape=False)\n# using sidebars need to know what sidebar you want to use\nleft_sidebar_enabled = globals().get(\'left_sidebar_enabled\',False)\nright_sidebar_enabled = globals().get(\'right_sidebar_enabled\',False)\nmiddle_columns = {0:\'span12\',1:\'span9\',2:\'span6\'}[\n(left_sidebar_enabled and 1 or 0)+(right_sidebar_enabled and 1 or 0)]\nresponse.write(\'\\n\\n  <!-- uncomment here to load jquery-ui\\n       <link rel="stylesheet" href="http://ajax.googleapis.com/ajax/libs/jqueryui/1.8.16/themes/base/jquery-ui.css" type="text/css" media="all" />\\n       <script src="http://ajax.googleapis.com/ajax/libs/jqueryui/1.8.16/jquery-ui.min.js" type="text/javascript"></script>\\n       uncomment to load jquery-ui //-->\\n  <noscript><link href="\', escape=False)\nresponse.write(URL(\'static\', \'css/web2py_bootstrap_nojs.css\'))\nresponse.write(\'" rel="stylesheet" type="text/css" /></noscript>\\n  \', escape=False)\nresponse.write(\'\\n</head>\\n\\n<body>\\n  <!-- Navbar ================================================== -->\\n  <div class="navbar navbar-inverse navbar-fixed-top">\\n    <div class="flash">\', escape=False)\nresponse.write(response.flash or \'\')\nresponse.write(\'</div>\\n    <div class="navbar-inner">\\n      <div class="container">\\n        <!-- the next tag is necessary for bootstrap menus, do not remove -->\\n        <button type="button" class="btn btn-navbar" data-toggle="collapse" data-target=".nav-collapse">\\n          <span class="icon-bar"></span>\\n          <span class="icon-bar"></span>\\n          <span class="icon-bar"></span>\\n        </button>\\n\\t\', escape=False)\nresponse.write(response.logo or \'\')\nresponse.write(\'\\n        <ul id="navbar" class="nav pull-right">\', escape=False)\nresponse.write(\'auth\' in globals() and auth.navbar(mode="dropdown") or \'\')\nresponse.write(\'</ul>\\n        <div class="nav-collapse">\\n          \', escape=False)\nis_mobile=request.user_agent().is_mobile\nresponse.write(\'\\n          \', escape=False)\nif response.menu:\n    response.write(\'\\n          \', escape=False)\n    response.write(MENU(response.menu, _class=\'mobile-menu nav\' if is_mobile else \'nav\',mobile=is_mobile,li_class=\'dropdown\',ul_class=\'dropdown-menu\'))\n    response.write(\'\\n          \', escape=False)\n    pass\nresponse.write(\'\\n        </div><!--/.nav-collapse -->\\n      </div>\\n    </div>\\n  </div><!--/top navbar -->\\n\\n  <div class="container">\\n    <!-- Masthead ================================================== -->\\n    <header class="mastheader row" id="header">\\n        <div class="span12">\\n            <div class="page-header">\\n                <h1>\\n                    \', escape=False)\nresponse.write(response.title or request.application)\nresponse.write(\'\\n                    <small>\', escape=False)\nresponse.write(response.subtitle or \'\')\nresponse.write(\'</small>\\n                </h1>\\n            </div>\\n        </div>\\n    </header>\\n\\n    <section id="main" class="main row">\\n        \', escape=False)\nif left_sidebar_enabled:\n    response.write(\'\\n        <div class="span3 left-sidebar">\\n            \', escape=False)\n    response.write(\'\\n            <h3>Left Sidebar</h3>\\n            <p></p>\\n            \', escape=False)\n    response.write(\'\\n        </div>\\n        \', escape=False)\n    pass\nresponse.write(\'\\n\\n        <div class="\', escape=False)\nresponse.write(middle_columns)\nresponse.write(\'">\\n            \', escape=False)\nresponse.write(\'\\n            \', escape=False)\nresponse.write(\'\\n<h1>Welcome \', escape=False)\nresponse.write(f[0][\'first_name\'])\nresponse.write(\' \', escape=False)\nresponse.write(l[0][\'last_name\'])\nresponse.write(\'!</h1>\\n<h3>Add a new category</h3>\\n\', escape=False)\nresponse.write(form1)\nresponse.write(\'\\n<h2>Current news items:</h2>\\n\', escape=False)\nx=1\nresponse.write(\'\\n\', escape=False)\nfor i in range(len(c)):\n    response.write(\'\\n\\t<h3>\', escape=False)\n    response.write(c[i][\'name\'])\n    response.write(\'</h3>\\n\\t\', escape=False)\n    for j in range(total):\n        response.write(\'\\n\\t\\t\', escape=False)\n        if n[j][\'category\']==c[i][\'name\']:\n            response.write(\'\\n\\t\\t\\t\', escape=False)\n            print x+\'.\',\n            response.write(\'\\n\\t\\t\\t\', escape=False)\n            print n[j][\'heading\'],\n            response.write(\'\\n\\t\\t\\t\', escape=False)\n            response.write(form2)\n            response.write(\'\\n\\t\\t\\t\', escape=False)\n            x+=1\n            response.write(\'\\n\\t\\t\\t\', escape=False)\n            pass\n        response.write(\'\\n\\t\', escape=False)\n        pass\n    response.write(\'\\n\', escape=False)\n    pass\nresponse.write(\'\\n\', escape=False)\nresponse.write(\'\\n            \', escape=False)\nresponse.write(\'\\n        </div>\\n\\n        \', escape=False)\nif right_sidebar_enabled:\n    response.write(\'\\n        <div class="span3">\\n            \', escape=False)\n    response.write(\'\\n            <h3>Right Sidebar</h3>\\n            <p></p>\\n            \', escape=False)\n    response.write(\'\\n        </div>\\n        \', escape=False)\n    pass\nresponse.write(\'\\n    </section><!--/main-->\\n\\n    <!-- Footer ================================================== -->\\n    <div class="row">\\n        <footer class="footer span12" id="footer">\\n            <div class="footer-content">\\n                \', escape=False)\nresponse.write(\' <!-- this is default footer -->\\n                <div class="copyright pull-left">\', escape=False)\nresponse.write(T(\'Copyright\'))\nresponse.write(\' &#169; \', escape=False)\nresponse.write(request.now.year)\nresponse.write(\'</div>\\n                <div id="poweredBy" class="pull-right">\\n                    \', escape=False)\nresponse.write(T(\'Powered by\'))\nresponse.write(\'\\n                    <a href="http://www.web2py.com/">web2py</a>\\n                </div>\\n                \', escape=False)\nresponse.write(\'\\n            </div>\\n        </footer>\\n    </div>\\n\\n  </div> <!-- /container -->\\n\\n  <!-- The javascript =============================================\\n       (Placed at the end of the document so the pages load faster) -->\\n  <script src="\', escape=False)\nresponse.write(URL(\'static\',\'js/bootstrap.min.js\'))\nresponse.write(\'"></script>\\n  <script src="\', escape=False)\nresponse.write(URL(\'static\',\'js/web2py_bootstrap.js\'))\nresponse.write(\'"></script>\\n  <!--[if lt IE 7 ]>\\n      <script src="\', escape=False)\nresponse.write(URL(\'static\',\'js/dd_belatedpng.js\'))\nresponse.write(\'"></script>\\n      <script> DD_belatedPNG.fix(\\\'img, .png_bg\\\'); //fix any <img> or .png_bg background-images </script>\\n      <![endif]-->\\n  \\n  \', escape=False)\nif response.google_analytics_id:\n    response.write(\'\\n  <script src="\', escape=False)\n    response.write(URL(\'static\',\'js/analytics.js\'))\n    response.write(\'"></script>\\n  <script type="text/javascript">\\n  analytics.initialize({\\n    \\\'Google Analytics\\\':{trackingId:\\\'\', escape=False)\n    response.write(response.google_analytics_id)\n    response.write("\'} \\n  });</script>\\n  ", escape=False)\n    pass\nresponse.write(\'\\n  <script src="\', escape=False)\nresponse.write(URL(\'static\',\'js/share.js\',vars=dict(static=URL(\'static\',\'images\'))))\nresponse.write(\'"></script>\\n</body>\\n</html>\\n\\n\', escape=False)'
p7
sS'snapshot'
p8
(dp9
S'exception'
p10
(dp11
S'__hash__'
p12
S"<method-wrapper '__hash__' of exceptions.NameError object>"
p13
sS'__setattr__'
p14
S"<method-wrapper '__setattr__' of exceptions.NameError object>"
p15
sS'__reduce_ex__'
p16
S'<built-in method __reduce_ex__ of exceptions.NameError object>'
p17
sS'__getslice__'
p18
S"<method-wrapper '__getslice__' of exceptions.NameError object>"
p19
sS'__getitem__'
p20
S"<method-wrapper '__getitem__' of exceptions.NameError object>"
p21
sS'__setstate__'
p22
S'<built-in method __setstate__ of exceptions.NameError object>'
p23
sS'__reduce__'
p24
S'<built-in method __reduce__ of exceptions.NameError object>'
p25
sS'__str__'
p26
S"<method-wrapper '__str__' of exceptions.NameError object>"
p27
sS'__format__'
p28
S'<built-in method __format__ of exceptions.NameError object>'
p29
sS'__getattribute__'
p30
S"<method-wrapper '__getattribute__' of exceptions.NameError object>"
p31
sS'__class__'
p32
S"<type 'exceptions.NameError'>"
p33
sS'__unicode__'
p34
S'<built-in method __unicode__ of exceptions.NameError object>'
p35
sS'__delattr__'
p36
S"<method-wrapper '__delattr__' of exceptions.NameError object>"
p37
sS'__subclasshook__'
p38
S'<built-in method __subclasshook__ of type object>'
p39
sS'__repr__'
p40
S"<method-wrapper '__repr__' of exceptions.NameError object>"
p41
sS'args'
p42
S'("name \'total\' is not defined",)'
p43
sS'__dict__'
p44
S'{}'
p45
sS'__sizeof__'
p46
S'<built-in method __sizeof__ of exceptions.NameError object>'
p47
sS'__doc__'
p48
S"'Name not found globally.'"
p49
sS'__init__'
p50
S"<method-wrapper '__init__' of exceptions.NameError object>"
p51
sS'__new__'
p52
S'<built-in method __new__ of type object>'
p53
ssS'evalue'
p54
S"name 'total' is not defined"
p55
sS'request'
p56
ccopy_reg
_reconstructor
p57
(cgluon.html
BEAUTIFY
p58
c__builtin__
object
p59
NtRp60
(dp61
S'attributes'
p62
(dp63
sS'components'
p64
(lp65
g57
(cgluon.html
TABLE
p66
g59
NtRp67
(dp68
g62
(dp69
S'level'
p70
I5
ssS'parent'
p71
Nsg64
(lp72
g57
(cgluon.html
TR
p73
g59
NtRp74
(dp75
g62
(dp76
sg71
g67
sg64
(lp77
g57
(cgluon.html
TD
p78
g59
NtRp79
(dp80
g62
(dp81
S'_style'
p82
S'font-weight:bold;vertical-align:top'
p83
ssg71
g74
sg64
(lp84
S'ajax'
p85
asbag57
(g78
g59
NtRp86
(dp87
g62
(dp88
S'_valign'
p89
S'top'
p90
ssg71
g74
sg64
(lp91
S':'
asbag57
(g78
g59
NtRp92
(dp93
g62
(dp94
sg71
g74
sg64
(lp95
g57
(g58
g59
NtRp96
(dp97
g62
(dp98
g70
I5
ssg71
g92
sg64
(lp99
S'False'
p100
asbasbasbag57
(g73
g59
NtRp101
(dp102
g62
(dp103
sg71
g67
sg64
(lp104
g57
(g78
g59
NtRp105
(dp106
g62
(dp107
g82
g83
ssg71
g101
sg64
(lp108
S'application'
p109
asbag57
(g78
g59
NtRp110
(dp111
g62
(dp112
g89
g90
ssg71
g101
sg64
(lp113
S':'
asbag57
(g78
g59
NtRp114
(dp115
g62
(dp116
sg71
g101
sg64
(lp117
g57
(g58
g59
NtRp118
(dp119
g62
(dp120
g70
I5
ssg71
g114
sg64
(lp121
S'assignment2'
p122
asbasbasbag57
(g73
g59
NtRp123
(dp124
g62
(dp125
sg71
g67
sg64
(lp126
g57
(g78
g59
NtRp127
(dp128
g62
(dp129
g82
g83
ssg71
g123
sg64
(lp130
g42
asbag57
(g78
g59
NtRp131
(dp132
g62
(dp133
g89
g90
ssg71
g123
sg64
(lp134
S':'
asbag57
(g78
g59
NtRp135
(dp136
g62
(dp137
sg71
g123
sg64
(lp138
g57
(g58
g59
NtRp139
(dp140
g62
(dp141
g70
I5
ssg71
g135
sg64
(lp142
g57
(g66
g59
NtRp143
(dp144
g62
(dp145
g70
I4
ssg71
Nsg64
(lp146
sbasbasbasbag57
(g73
g59
NtRp147
(dp148
g62
(dp149
sg71
g67
sg64
(lp150
g57
(g78
g59
NtRp151
(dp152
g62
(dp153
g82
g83
ssg71
g147
sg64
(lp154
S'body'
p155
asbag57
(g78
g59
NtRp156
(dp157
g62
(dp158
g89
g90
ssg71
g147
sg64
(lp159
S':'
asbag57
(g78
g59
NtRp160
(dp161
g62
(dp162
sg71
g147
sg64
(lp163
g57
(g58
g59
NtRp164
(dp165
g62
(dp166
g70
I5
ssg71
g160
sg64
(lp167
S"<open file '<fdopen>', mode 'w+b' at 0xa5b7128>"
p168
asbasbasbag57
(g73
g59
NtRp169
(dp170
g62
(dp171
sg71
g67
sg64
(lp172
g57
(g78
g59
NtRp173
(dp174
g62
(dp175
g82
g83
ssg71
g169
sg64
(lp176
S'cid'
p177
asbag57
(g78
g59
NtRp178
(dp179
g62
(dp180
g89
g90
ssg71
g169
sg64
(lp181
S':'
asbag57
(g78
g59
NtRp182
(dp183
g62
(dp184
sg71
g169
sg64
(lp185
g57
(g58
g59
NtRp186
(dp187
g62
(dp188
g70
I5
ssg71
g182
sg64
(lp189
S'None'
p190
asbasbasbag57
(g73
g59
NtRp191
(dp192
g62
(dp193
sg71
g67
sg64
(lp194
g57
(g78
g59
NtRp195
(dp196
g62
(dp197
g82
g83
ssg71
g191
sg64
(lp198
S'client'
p199
asbag57
(g78
g59
NtRp200
(dp201
g62
(dp202
g89
g90
ssg71
g191
sg64
(lp203
S':'
asbag57
(g78
g59
NtRp204
(dp205
g62
(dp206
sg71
g191
sg64
(lp207
g57
(g58
g59
NtRp208
(dp209
g62
(dp210
g70
I5
ssg71
g204
sg64
(lp211
S'127.0.0.1'
p212
asbasbasbag57
(g73
g59
NtRp213
(dp214
g62
(dp215
sg71
g67
sg64
(lp216
g57
(g78
g59
NtRp217
(dp218
g62
(dp219
g82
g83
ssg71
g213
sg64
(lp220
S'controller'
p221
asbag57
(g78
g59
NtRp222
(dp223
g62
(dp224
g89
g90
ssg71
g213
sg64
(lp225
S':'
asbag57
(g78
g59
NtRp226
(dp227
g62
(dp228
sg71
g213
sg64
(lp229
g57
(g58
g59
NtRp230
(dp231
g62
(dp232
g70
I5
ssg71
g226
sg64
(lp233
S'default'
p234
asbasbasbag57
(g73
g59
NtRp235
(dp236
g62
(dp237
sg71
g67
sg64
(lp238
g57
(g78
g59
NtRp239
(dp240
g62
(dp241
g82
g83
ssg71
g235
sg64
(lp242
S'cookies'
p243
asbag57
(g78
g59
NtRp244
(dp245
g62
(dp246
g89
g90
ssg71
g235
sg64
(lp247
S':'
asbag57
(g78
g59
NtRp248
(dp249
g62
(dp250
sg71
g235
sg64
(lp251
g57
(g58
g59
NtRp252
(dp253
g62
(dp254
g70
I5
ssg71
g248
sg64
(lp255
g57
(g66
g59
NtRp256
(dp257
g62
(dp258
g70
I4
ssg71
Nsg64
(lp259
g57
(g73
g59
NtRp260
(dp261
g62
(dp262
sg71
g256
sg64
(lp263
g57
(g78
g59
NtRp264
(dp265
g62
(dp266
g82
g83
ssg71
g260
sg64
(lp267
S'session_id_admin'
p268
asbag57
(g78
g59
NtRp269
(dp270
g62
(dp271
g89
g90
ssg71
g260
sg64
(lp272
S':'
asbag57
(g78
g59
NtRp273
(dp274
g62
(dp275
sg71
g260
sg64
(lp276
g57
(g58
g59
NtRp277
(dp278
g62
(dp279
g70
I4
ssg71
g273
sg64
(lp280
S'127.0.0.1-a9fdde32-e293-4f29-99f5-1eb4b47181a8'
p281
ag57
(g66
g59
NtRp282
(dp283
g62
(dp284
g70
I3
ssg71
Nsg64
(lp285
g57
(g73
g59
NtRp286
(dp287
g62
(dp288
sg71
g282
sg64
(lp289
g57
(g78
g59
NtRp290
(dp291
g62
(dp292
g82
g83
ssg71
g286
sg64
(lp293
S'comment'
p294
asbag57
(g78
g59
NtRp295
(dp296
g62
(dp297
g89
g90
ssg71
g286
sg64
(lp298
S':'
asbag57
(g78
g59
NtRp299
(dp300
g62
(dp301
sg71
g286
sg64
(lp302
g57
(g58
g59
NtRp303
(dp304
g62
(dp305
g70
I3
ssg71
g299
sg64
(lp306
S''
asbasbasbag57
(g73
g59
NtRp307
(dp308
g62
(dp309
sg71
g282
sg64
(lp310
g57
(g78
g59
NtRp311
(dp312
g62
(dp313
g82
g83
ssg71
g307
sg64
(lp314
S'domain'
p315
asbag57
(g78
g59
NtRp316
(dp317
g62
(dp318
g89
g90
ssg71
g307
sg64
(lp319
S':'
asbag57
(g78
g59
NtRp320
(dp321
g62
(dp322
sg71
g307
sg64
(lp323
g57
(g58
g59
NtRp324
(dp325
g62
(dp326
g70
I3
ssg71
g320
sg64
(lp327
S''
asbasbasbag57
(g73
g59
NtRp328
(dp329
g62
(dp330
sg71
g282
sg64
(lp331
g57
(g78
g59
NtRp332
(dp333
g62
(dp334
g82
g83
ssg71
g328
sg64
(lp335
S'expires'
p336
asbag57
(g78
g59
NtRp337
(dp338
g62
(dp339
g89
g90
ssg71
g328
sg64
(lp340
S':'
asbag57
(g78
g59
NtRp341
(dp342
g62
(dp343
sg71
g328
sg64
(lp344
g57
(g58
g59
NtRp345
(dp346
g62
(dp347
g70
I3
ssg71
g341
sg64
(lp348
S''
asbasbasbag57
(g73
g59
NtRp349
(dp350
g62
(dp351
sg71
g282
sg64
(lp352
g57
(g78
g59
NtRp353
(dp354
g62
(dp355
g82
g83
ssg71
g349
sg64
(lp356
S'httponly'
p357
asbag57
(g78
g59
NtRp358
(dp359
g62
(dp360
g89
g90
ssg71
g349
sg64
(lp361
S':'
asbag57
(g78
g59
NtRp362
(dp363
g62
(dp364
sg71
g349
sg64
(lp365
g57
(g58
g59
NtRp366
(dp367
g62
(dp368
g70
I3
ssg71
g362
sg64
(lp369
S''
asbasbasbag57
(g73
g59
NtRp370
(dp371
g62
(dp372
sg71
g282
sg64
(lp373
g57
(g78
g59
NtRp374
(dp375
g62
(dp376
g82
g83
ssg71
g370
sg64
(lp377
S'max-age'
p378
asbag57
(g78
g59
NtRp379
(dp380
g62
(dp381
g89
g90
ssg71
g370
sg64
(lp382
S':'
asbag57
(g78
g59
NtRp383
(dp384
g62
(dp385
sg71
g370
sg64
(lp386
g57
(g58
g59
NtRp387
(dp388
g62
(dp389
g70
I3
ssg71
g383
sg64
(lp390
S''
asbasbasbag57
(g73
g59
NtRp391
(dp392
g62
(dp393
sg71
g282
sg64
(lp394
g57
(g78
g59
NtRp395
(dp396
g62
(dp397
g82
g83
ssg71
g391
sg64
(lp398
S'path'
p399
asbag57
(g78
g59
NtRp400
(dp401
g62
(dp402
g89
g90
ssg71
g391
sg64
(lp403
S':'
asbag57
(g78
g59
NtRp404
(dp405
g62
(dp406
sg71
g391
sg64
(lp407
g57
(g58
g59
NtRp408
(dp409
g62
(dp410
g70
I3
ssg71
g404
sg64
(lp411
S''
asbasbasbag57
(g73
g59
NtRp412
(dp413
g62
(dp414
sg71
g282
sg64
(lp415
g57
(g78
g59
NtRp416
(dp417
g62
(dp418
g82
g83
ssg71
g412
sg64
(lp419
S'secure'
p420
asbag57
(g78
g59
NtRp421
(dp422
g62
(dp423
g89
g90
ssg71
g412
sg64
(lp424
S':'
asbag57
(g78
g59
NtRp425
(dp426
g62
(dp427
sg71
g412
sg64
(lp428
g57
(g58
g59
NtRp429
(dp430
g62
(dp431
g70
I3
ssg71
g425
sg64
(lp432
S''
asbasbasbag57
(g73
g59
NtRp433
(dp434
g62
(dp435
sg71
g282
sg64
(lp436
g57
(g78
g59
NtRp437
(dp438
g62
(dp439
g82
g83
ssg71
g433
sg64
(lp440
S'version'
p441
asbag57
(g78
g59
NtRp442
(dp443
g62
(dp444
g89
g90
ssg71
g433
sg64
(lp445
S':'
asbag57
(g78
g59
NtRp446
(dp447
g62
(dp448
sg71
g433
sg64
(lp449
g57
(g58
g59
NtRp450
(dp451
g62
(dp452
g70
I3
ssg71
g446
sg64
(lp453
S''
asbasbasbasbasbasbasbag57
(g73
g59
NtRp454
(dp455
g62
(dp456
sg71
g256
sg64
(lp457
g57
(g78
g59
NtRp458
(dp459
g62
(dp460
g82
g83
ssg71
g454
sg64
(lp461
S'session_id_assignment2'
p462
asbag57
(g78
g59
NtRp463
(dp464
g62
(dp465
g89
g90
ssg71
g454
sg64
(lp466
S':'
asbag57
(g78
g59
NtRp467
(dp468
g62
(dp469
sg71
g454
sg64
(lp470
g57
(g58
g59
NtRp471
(dp472
g62
(dp473
g70
I4
ssg71
g467
sg64
(lp474
S'127.0.0.1-ab45b8d8-bc13-4a07-836b-8bcf4d5f4417'
p475
ag57
(g66
g59
NtRp476
(dp477
g62
(dp478
g70
I3
ssg71
Nsg64
(lp479
g57
(g73
g59
NtRp480
(dp481
g62
(dp482
sg71
g476
sg64
(lp483
g57
(g78
g59
NtRp484
(dp485
g62
(dp486
g82
g83
ssg71
g480
sg64
(lp487
g294
asbag57
(g78
g59
NtRp488
(dp489
g62
(dp490
g89
g90
ssg71
g480
sg64
(lp491
S':'
asbag57
(g78
g59
NtRp492
(dp493
g62
(dp494
sg71
g480
sg64
(lp495
g57
(g58
g59
NtRp496
(dp497
g62
(dp498
g70
I3
ssg71
g492
sg64
(lp499
S''
asbasbasbag57
(g73
g59
NtRp500
(dp501
g62
(dp502
sg71
g476
sg64
(lp503
g57
(g78
g59
NtRp504
(dp505
g62
(dp506
g82
g83
ssg71
g500
sg64
(lp507
g315
asbag57
(g78
g59
NtRp508
(dp509
g62
(dp510
g89
g90
ssg71
g500
sg64
(lp511
S':'
asbag57
(g78
g59
NtRp512
(dp513
g62
(dp514
sg71
g500
sg64
(lp515
g57
(g58
g59
NtRp516
(dp517
g62
(dp518
g70
I3
ssg71
g512
sg64
(lp519
S''
asbasbasbag57
(g73
g59
NtRp520
(dp521
g62
(dp522
sg71
g476
sg64
(lp523
g57
(g78
g59
NtRp524
(dp525
g62
(dp526
g82
g83
ssg71
g520
sg64
(lp527
g336
asbag57
(g78
g59
NtRp528
(dp529
g62
(dp530
g89
g90
ssg71
g520
sg64
(lp531
S':'
asbag57
(g78
g59
NtRp532
(dp533
g62
(dp534
sg71
g520
sg64
(lp535
g57
(g58
g59
NtRp536
(dp537
g62
(dp538
g70
I3
ssg71
g532
sg64
(lp539
S''
asbasbasbag57
(g73
g59
NtRp540
(dp541
g62
(dp542
sg71
g476
sg64
(lp543
g57
(g78
g59
NtRp544
(dp545
g62
(dp546
g82
g83
ssg71
g540
sg64
(lp547
g357
asbag57
(g78
g59
NtRp548
(dp549
g62
(dp550
g89
g90
ssg71
g540
sg64
(lp551
S':'
asbag57
(g78
g59
NtRp552
(dp553
g62
(dp554
sg71
g540
sg64
(lp555
g57
(g58
g59
NtRp556
(dp557
g62
(dp558
g70
I3
ssg71
g552
sg64
(lp559
S''
asbasbasbag57
(g73
g59
NtRp560
(dp561
g62
(dp562
sg71
g476
sg64
(lp563
g57
(g78
g59
NtRp564
(dp565
g62
(dp566
g82
g83
ssg71
g560
sg64
(lp567
g378
asbag57
(g78
g59
NtRp568
(dp569
g62
(dp570
g89
g90
ssg71
g560
sg64
(lp571
S':'
asbag57
(g78
g59
NtRp572
(dp573
g62
(dp574
sg71
g560
sg64
(lp575
g57
(g58
g59
NtRp576
(dp577
g62
(dp578
g70
I3
ssg71
g572
sg64
(lp579
S''
asbasbasbag57
(g73
g59
NtRp580
(dp581
g62
(dp582
sg71
g476
sg64
(lp583
g57
(g78
g59
NtRp584
(dp585
g62
(dp586
g82
g83
ssg71
g580
sg64
(lp587
g399
asbag57
(g78
g59
NtRp588
(dp589
g62
(dp590
g89
g90
ssg71
g580
sg64
(lp591
S':'
asbag57
(g78
g59
NtRp592
(dp593
g62
(dp594
sg71
g580
sg64
(lp595
g57
(g58
g59
NtRp596
(dp597
g62
(dp598
g70
I3
ssg71
g592
sg64
(lp599
S''
asbasbasbag57
(g73
g59
NtRp600
(dp601
g62
(dp602
sg71
g476
sg64
(lp603
g57
(g78
g59
NtRp604
(dp605
g62
(dp606
g82
g83
ssg71
g600
sg64
(lp607
g420
asbag57
(g78
g59
NtRp608
(dp609
g62
(dp610
g89
g90
ssg71
g600
sg64
(lp611
S':'
asbag57
(g78
g59
NtRp612
(dp613
g62
(dp614
sg71
g600
sg64
(lp615
g57
(g58
g59
NtRp616
(dp617
g62
(dp618
g70
I3
ssg71
g612
sg64
(lp619
S''
asbasbasbag57
(g73
g59
NtRp620
(dp621
g62
(dp622
sg71
g476
sg64
(lp623
g57
(g78
g59
NtRp624
(dp625
g62
(dp626
g82
g83
ssg71
g620
sg64
(lp627
g441
asbag57
(g78
g59
NtRp628
(dp629
g62
(dp630
g89
g90
ssg71
g620
sg64
(lp631
S':'
asbag57
(g78
g59
NtRp632
(dp633
g62
(dp634
sg71
g620
sg64
(lp635
g57
(g58
g59
NtRp636
(dp637
g62
(dp638
g70
I3
ssg71
g632
sg64
(lp639
S''
asbasbasbasbasbasbasbag57
(g73
g59
NtRp640
(dp641
g62
(dp642
sg71
g256
sg64
(lp643
g57
(g78
g59
NtRp644
(dp645
g62
(dp646
g82
g83
ssg71
g640
sg64
(lp647
S'session_id_welcome'
p648
asbag57
(g78
g59
NtRp649
(dp650
g62
(dp651
g89
g90
ssg71
g640
sg64
(lp652
S':'
asbag57
(g78
g59
NtRp653
(dp654
g62
(dp655
sg71
g640
sg64
(lp656
g57
(g58
g59
NtRp657
(dp658
g62
(dp659
g70
I4
ssg71
g653
sg64
(lp660
S'127.0.0.1-bf2add3e-2905-428b-9e1e-6d4c7a5a83c4'
p661
ag57
(g66
g59
NtRp662
(dp663
g62
(dp664
g70
I3
ssg71
Nsg64
(lp665
g57
(g73
g59
NtRp666
(dp667
g62
(dp668
sg71
g662
sg64
(lp669
g57
(g78
g59
NtRp670
(dp671
g62
(dp672
g82
g83
ssg71
g666
sg64
(lp673
g294
asbag57
(g78
g59
NtRp674
(dp675
g62
(dp676
g89
g90
ssg71
g666
sg64
(lp677
S':'
asbag57
(g78
g59
NtRp678
(dp679
g62
(dp680
sg71
g666
sg64
(lp681
g57
(g58
g59
NtRp682
(dp683
g62
(dp684
g70
I3
ssg71
g678
sg64
(lp685
S''
asbasbasbag57
(g73
g59
NtRp686
(dp687
g62
(dp688
sg71
g662
sg64
(lp689
g57
(g78
g59
NtRp690
(dp691
g62
(dp692
g82
g83
ssg71
g686
sg64
(lp693
g315
asbag57
(g78
g59
NtRp694
(dp695
g62
(dp696
g89
g90
ssg71
g686
sg64
(lp697
S':'
asbag57
(g78
g59
NtRp698
(dp699
g62
(dp700
sg71
g686
sg64
(lp701
g57
(g58
g59
NtRp702
(dp703
g62
(dp704
g70
I3
ssg71
g698
sg64
(lp705
S''
asbasbasbag57
(g73
g59
NtRp706
(dp707
g62
(dp708
sg71
g662
sg64
(lp709
g57
(g78
g59
NtRp710
(dp711
g62
(dp712
g82
g83
ssg71
g706
sg64
(lp713
g336
asbag57
(g78
g59
NtRp714
(dp715
g62
(dp716
g89
g90
ssg71
g706
sg64
(lp717
S':'
asbag57
(g78
g59
NtRp718
(dp719
g62
(dp720
sg71
g706
sg64
(lp721
g57
(g58
g59
NtRp722
(dp723
g62
(dp724
g70
I3
ssg71
g718
sg64
(lp725
S''
asbasbasbag57
(g73
g59
NtRp726
(dp727
g62
(dp728
sg71
g662
sg64
(lp729
g57
(g78
g59
NtRp730
(dp731
g62
(dp732
g82
g83
ssg71
g726
sg64
(lp733
g357
asbag57
(g78
g59
NtRp734
(dp735
g62
(dp736
g89
g90
ssg71
g726
sg64
(lp737
S':'
asbag57
(g78
g59
NtRp738
(dp739
g62
(dp740
sg71
g726
sg64
(lp741
g57
(g58
g59
NtRp742
(dp743
g62
(dp744
g70
I3
ssg71
g738
sg64
(lp745
S''
asbasbasbag57
(g73
g59
NtRp746
(dp747
g62
(dp748
sg71
g662
sg64
(lp749
g57
(g78
g59
NtRp750
(dp751
g62
(dp752
g82
g83
ssg71
g746
sg64
(lp753
g378
asbag57
(g78
g59
NtRp754
(dp755
g62
(dp756
g89
g90
ssg71
g746
sg64
(lp757
S':'
asbag57
(g78
g59
NtRp758
(dp759
g62
(dp760
sg71
g746
sg64
(lp761
g57
(g58
g59
NtRp762
(dp763
g62
(dp764
g70
I3
ssg71
g758
sg64
(lp765
S''
asbasbasbag57
(g73
g59
NtRp766
(dp767
g62
(dp768
sg71
g662
sg64
(lp769
g57
(g78
g59
NtRp770
(dp771
g62
(dp772
g82
g83
ssg71
g766
sg64
(lp773
g399
asbag57
(g78
g59
NtRp774
(dp775
g62
(dp776
g89
g90
ssg71
g766
sg64
(lp777
S':'
asbag57
(g78
g59
NtRp778
(dp779
g62
(dp780
sg71
g766
sg64
(lp781
g57
(g58
g59
NtRp782
(dp783
g62
(dp784
g70
I3
ssg71
g778
sg64
(lp785
S''
asbasbasbag57
(g73
g59
NtRp786
(dp787
g62
(dp788
sg71
g662
sg64
(lp789
g57
(g78
g59
NtRp790
(dp791
g62
(dp792
g82
g83
ssg71
g786
sg64
(lp793
g420
asbag57
(g78
g59
NtRp794
(dp795
g62
(dp796
g89
g90
ssg71
g786
sg64
(lp797
S':'
asbag57
(g78
g59
NtRp798
(dp799
g62
(dp800
sg71
g786
sg64
(lp801
g57
(g58
g59
NtRp802
(dp803
g62
(dp804
g70
I3
ssg71
g798
sg64
(lp805
S''
asbasbasbag57
(g73
g59
NtRp806
(dp807
g62
(dp808
sg71
g662
sg64
(lp809
g57
(g78
g59
NtRp810
(dp811
g62
(dp812
g82
g83
ssg71
g806
sg64
(lp813
g441
asbag57
(g78
g59
NtRp814
(dp815
g62
(dp816
g89
g90
ssg71
g806
sg64
(lp817
S':'
asbag57
(g78
g59
NtRp818
(dp819
g62
(dp820
sg71
g806
sg64
(lp821
g57
(g58
g59
NtRp822
(dp823
g62
(dp824
g70
I3
ssg71
g818
sg64
(lp825
S''
asbasbasbasbasbasbasbasbasbasbasbag57
(g73
g59
NtRp826
(dp827
g62
(dp828
sg71
g67
sg64
(lp829
g57
(g78
g59
NtRp830
(dp831
g62
(dp832
g82
g83
ssg71
g826
sg64
(lp833
S'env'
p834
asbag57
(g78
g59
NtRp835
(dp836
g62
(dp837
g89
g90
ssg71
g826
sg64
(lp838
S':'
asbag57
(g78
g59
NtRp839
(dp840
g62
(dp841
sg71
g826
sg64
(lp842
g57
(g58
g59
NtRp843
(dp844
g62
(dp845
g70
I5
ssg71
g839
sg64
(lp846
g57
(g66
g59
NtRp847
(dp848
g62
(dp849
g70
I4
ssg71
Nsg64
(lp850
g57
(g73
g59
NtRp851
(dp852
g62
(dp853
sg71
g847
sg64
(lp854
g57
(g78
g59
NtRp855
(dp856
g62
(dp857
g82
g83
ssg71
g851
sg64
(lp858
S'app_folders'
p859
asbag57
(g78
g59
NtRp860
(dp861
g62
(dp862
g89
g90
ssg71
g851
sg64
(lp863
S':'
asbag57
(g78
g59
NtRp864
(dp865
g62
(dp866
sg71
g851
sg64
(lp867
g57
(g58
g59
NtRp868
(dp869
g62
(dp870
g70
I4
ssg71
g864
sg64
(lp871
S"set(['/home/aditi/Desktop/web2py/applications/assignment2/', '/home/aditi/Desktop/web2py/applications/admin/', '/home/aditi/Desktop/web2py/applications/welcome/'])"
p872
asbasbasbag57
(g73
g59
NtRp873
(dp874
g62
(dp875
sg71
g847
sg64
(lp876
g57
(g78
g59
NtRp877
(dp878
g62
(dp879
g82
g83
ssg71
g873
sg64
(lp880
S'applications_parent'
p881
asbag57
(g78
g59
NtRp882
(dp883
g62
(dp884
g89
g90
ssg71
g873
sg64
(lp885
S':'
asbag57
(g78
g59
NtRp886
(dp887
g62
(dp888
sg71
g873
sg64
(lp889
g57
(g58
g59
NtRp890
(dp891
g62
(dp892
g70
I4
ssg71
g886
sg64
(lp893
S'/home/aditi/Desktop/web2py'
p894
asbasbasbag57
(g73
g59
NtRp895
(dp896
g62
(dp897
sg71
g847
sg64
(lp898
g57
(g78
g59
NtRp899
(dp900
g62
(dp901
g82
g83
ssg71
g895
sg64
(lp902
S'cmd_args'
p903
asbag57
(g78
g59
NtRp904
(dp905
g62
(dp906
g89
g90
ssg71
g895
sg64
(lp907
S':'
asbag57
(g78
g59
NtRp908
(dp909
g62
(dp910
sg71
g895
sg64
(lp911
g57
(g58
g59
NtRp912
(dp913
g62
(dp914
g70
I4
ssg71
g908
sg64
(lp915
g57
(g66
g59
NtRp916
(dp917
g62
(dp918
g70
I3
ssg71
Nsg64
(lp919
sbasbasbasbag57
(g73
g59
NtRp920
(dp921
g62
(dp922
sg71
g847
sg64
(lp923
g57
(g78
g59
NtRp924
(dp925
g62
(dp926
g82
g83
ssg71
g920
sg64
(lp927
S'cmd_options'
p928
asbag57
(g78
g59
NtRp929
(dp930
g62
(dp931
g89
g90
ssg71
g920
sg64
(lp932
S':'
asbag57
(g78
g59
NtRp933
(dp934
g62
(dp935
sg71
g920
sg64
(lp936
g57
(g58
g59
NtRp937
(dp938
g62
(dp939
g70
I4
ssg71
g933
sg64
(lp940
S"<Values at 0x9feea0c: {'verbose': False, 'ip': '127.0.0.1', 'with_scheduler': False, 'ips': [], 'shutdown_timeout': 5, 'taskbar': False, 'port': 8000, 'maxthreads': None, 'softcron': False, 'server_name': 'ubuntu', 'bpython': False, 'nogui': False, 'pid_filename': 'httpserver.pid', 'extcron': False, 'runcron': False, 'run_system_tests': False, 'test': None, 'folder': '/home/aditi/Desktop/web2py', 'config': '', 'import_models': False, 'winservice': '', 'shell': None, 'run': '', 'log_filename': 'httpserver.log', 'debuglevel': 30, 'args': [''], 'socket_timeout': 5, 'ssl_ca_certificate': None, 'scheduler': None, 'profiler_filename': None, 'ssl_private_key': '', 'scheduler_groups': None, 'password': '<ask>', 'request_queue_size': 5, 'ssl_certificate': '', 'cronjob': False, 'numthreads': None, 'quiet': False, 'interfaces': None, 'minthreads': None, 'timeout': 10, 'plain': False, 'nobanner': False}>"
p941
asbasbasbag57
(g73
g59
NtRp942
(dp943
g62
(dp944
sg71
g847
sg64
(lp945
g57
(g78
g59
NtRp946
(dp947
g62
(dp948
g82
g83
ssg71
g942
sg64
(lp949
S'content_length'
p950
asbag57
(g78
g59
NtRp951
(dp952
g62
(dp953
g89
g90
ssg71
g942
sg64
(lp954
S':'
asbag57
(g78
g59
NtRp955
(dp956
g62
(dp957
sg71
g942
sg64
(lp958
g57
(g58
g59
NtRp959
(dp960
g62
(dp961
g70
I4
ssg71
g955
sg64
(lp962
S'461'
p963
asbasbasbag57
(g73
g59
NtRp964
(dp965
g62
(dp966
sg71
g847
sg64
(lp967
g57
(g78
g59
NtRp968
(dp969
g62
(dp970
g82
g83
ssg71
g964
sg64
(lp971
S'content_type'
p972
asbag57
(g78
g59
NtRp973
(dp974
g62
(dp975
g89
g90
ssg71
g964
sg64
(lp976
S':'
asbag57
(g78
g59
NtRp977
(dp978
g62
(dp979
sg71
g964
sg64
(lp980
g57
(g58
g59
NtRp981
(dp982
g62
(dp983
g70
I4
ssg71
g977
sg64
(lp984
S'multipart/form-data; boundary=---------------------------159791442524162521810728064'
p985
asbasbasbag57
(g73
g59
NtRp986
(dp987
g62
(dp988
sg71
g847
sg64
(lp989
g57
(g78
g59
NtRp990
(dp991
g62
(dp992
g82
g83
ssg71
g986
sg64
(lp993
S'db_sessions'
p994
asbag57
(g78
g59
NtRp995
(dp996
g62
(dp997
g89
g90
ssg71
g986
sg64
(lp998
S':'
asbag57
(g78
g59
NtRp999
(dp1000
g62
(dp1001
sg71
g986
sg64
(lp1002
g57
(g58
g59
NtRp1003
(dp1004
g62
(dp1005
g70
I4
ssg71
g999
sg64
(lp1006
S'set([])'
p1007
asbasbasbag57
(g73
g59
NtRp1008
(dp1009
g62
(dp1010
sg71
g847
sg64
(lp1011
g57
(g78
g59
NtRp1012
(dp1013
g62
(dp1014
g82
g83
ssg71
g1008
sg64
(lp1015
S'debugging'
p1016
asbag57
(g78
g59
NtRp1017
(dp1018
g62
(dp1019
g89
g90
ssg71
g1008
sg64
(lp1020
S':'
asbag57
(g78
g59
NtRp1021
(dp1022
g62
(dp1023
sg71
g1008
sg64
(lp1024
g57
(g58
g59
NtRp1025
(dp1026
g62
(dp1027
g70
I4
ssg71
g1021
sg64
(lp1028
g100
asbasbasbag57
(g73
g59
NtRp1029
(dp1030
g62
(dp1031
sg71
g847
sg64
(lp1032
g57
(g78
g59
NtRp1033
(dp1034
g62
(dp1035
g82
g83
ssg71
g1029
sg64
(lp1036
S'gluon_parent'
p1037
asbag57
(g78
g59
NtRp1038
(dp1039
g62
(dp1040
g89
g90
ssg71
g1029
sg64
(lp1041
S':'
asbag57
(g78
g59
NtRp1042
(dp1043
g62
(dp1044
sg71
g1029
sg64
(lp1045
g57
(g58
g59
NtRp1046
(dp1047
g62
(dp1048
g70
I4
ssg71
g1042
sg64
(lp1049
S'/home/aditi/Desktop/web2py'
p1050
asbasbasbag57
(g73
g59
NtRp1051
(dp1052
g62
(dp1053
sg71
g847
sg64
(lp1054
g57
(g78
g59
NtRp1055
(dp1056
g62
(dp1057
g82
g83
ssg71
g1051
sg64
(lp1058
S'http_accept'
p1059
asbag57
(g78
g59
NtRp1060
(dp1061
g62
(dp1062
g89
g90
ssg71
g1051
sg64
(lp1063
S':'
asbag57
(g78
g59
NtRp1064
(dp1065
g62
(dp1066
sg71
g1051
sg64
(lp1067
g57
(g58
g59
NtRp1068
(dp1069
g62
(dp1070
g70
I4
ssg71
g1064
sg64
(lp1071
S'text/html,application/xhtml+xml,application/xml;q=0.9,*/*;q=0.8'
p1072
asbasbasbag57
(g73
g59
NtRp1073
(dp1074
g62
(dp1075
sg71
g847
sg64
(lp1076
g57
(g78
g59
NtRp1077
(dp1078
g62
(dp1079
g82
g83
ssg71
g1073
sg64
(lp1080
S'http_accept_encoding'
p1081
asbag57
(g78
g59
NtRp1082
(dp1083
g62
(dp1084
g89
g90
ssg71
g1073
sg64
(lp1085
S':'
asbag57
(g78
g59
NtRp1086
(dp1087
g62
(dp1088
sg71
g1073
sg64
(lp1089
g57
(g58
g59
NtRp1090
(dp1091
g62
(dp1092
g70
I4
ssg71
g1086
sg64
(lp1093
S'gzip, deflate'
p1094
asbasbasbag57
(g73
g59
NtRp1095
(dp1096
g62
(dp1097
sg71
g847
sg64
(lp1098
g57
(g78
g59
NtRp1099
(dp1100
g62
(dp1101
g82
g83
ssg71
g1095
sg64
(lp1102
S'http_accept_language'
p1103
asbag57
(g78
g59
NtRp1104
(dp1105
g62
(dp1106
g89
g90
ssg71
g1095
sg64
(lp1107
S':'
asbag57
(g78
g59
NtRp1108
(dp1109
g62
(dp1110
sg71
g1095
sg64
(lp1111
g57
(g58
g59
NtRp1112
(dp1113
g62
(dp1114
g70
I4
ssg71
g1108
sg64
(lp1115
S'en-US,en;q=0.5'
p1116
asbasbasbag57
(g73
g59
NtRp1117
(dp1118
g62
(dp1119
sg71
g847
sg64
(lp1120
g57
(g78
g59
NtRp1121
(dp1122
g62
(dp1123
g82
g83
ssg71
g1117
sg64
(lp1124
S'http_connection'
p1125
asbag57
(g78
g59
NtRp1126
(dp1127
g62
(dp1128
g89
g90
ssg71
g1117
sg64
(lp1129
S':'
asbag57
(g78
g59
NtRp1130
(dp1131
g62
(dp1132
sg71
g1117
sg64
(lp1133
g57
(g58
g59
NtRp1134
(dp1135
g62
(dp1136
g70
I4
ssg71
g1130
sg64
(lp1137
S'keep-alive'
p1138
asbasbasbag57
(g73
g59
NtRp1139
(dp1140
g62
(dp1141
sg71
g847
sg64
(lp1142
g57
(g78
g59
NtRp1143
(dp1144
g62
(dp1145
g82
g83
ssg71
g1139
sg64
(lp1146
S'http_content_length'
p1147
asbag57
(g78
g59
NtRp1148
(dp1149
g62
(dp1150
g89
g90
ssg71
g1139
sg64
(lp1151
S':'
asbag57
(g78
g59
NtRp1152
(dp1153
g62
(dp1154
sg71
g1139
sg64
(lp1155
g57
(g58
g59
NtRp1156
(dp1157
g62
(dp1158
g70
I4
ssg71
g1152
sg64
(lp1159
g963
asbasbasbag57
(g73
g59
NtRp1160
(dp1161
g62
(dp1162
sg71
g847
sg64
(lp1163
g57
(g78
g59
NtRp1164
(dp1165
g62
(dp1166
g82
g83
ssg71
g1160
sg64
(lp1167
S'http_content_type'
p1168
asbag57
(g78
g59
NtRp1169
(dp1170
g62
(dp1171
g89
g90
ssg71
g1160
sg64
(lp1172
S':'
asbag57
(g78
g59
NtRp1173
(dp1174
g62
(dp1175
sg71
g1160
sg64
(lp1176
g57
(g58
g59
NtRp1177
(dp1178
g62
(dp1179
g70
I4
ssg71
g1173
sg64
(lp1180
g985
asbasbasbag57
(g73
g59
NtRp1181
(dp1182
g62
(dp1183
sg71
g847
sg64
(lp1184
g57
(g78
g59
NtRp1185
(dp1186
g62
(dp1187
g82
g83
ssg71
g1181
sg64
(lp1188
S'http_cookie'
p1189
asbag57
(g78
g59
NtRp1190
(dp1191
g62
(dp1192
g89
g90
ssg71
g1181
sg64
(lp1193
S':'
asbag57
(g78
g59
NtRp1194
(dp1195
g62
(dp1196
sg71
g1181
sg64
(lp1197
g57
(g58
g59
NtRp1198
(dp1199
g62
(dp1200
g70
I4
ssg71
g1194
sg64
(lp1201
S'session_id_welcome=127.0.0.1-bf2add3e-2905-428b-9e1e-6d4c7a5a83c4; session_id_admin=127.0.0.1-a9fdde32-e293-4f29-99f5-1eb4b47181a8; session_id_assignment2=127.0.0.1-ab45b8d8-bc13-4a07-836b-8bcf4d5f4417'
p1202
asbasbasbag57
(g73
g59
NtRp1203
(dp1204
g62
(dp1205
sg71
g847
sg64
(lp1206
g57
(g78
g59
NtRp1207
(dp1208
g62
(dp1209
g82
g83
ssg71
g1203
sg64
(lp1210
S'http_host'
p1211
asbag57
(g78
g59
NtRp1212
(dp1213
g62
(dp1214
g89
g90
ssg71
g1203
sg64
(lp1215
S':'
asbag57
(g78
g59
NtRp1216
(dp1217
g62
(dp1218
sg71
g1203
sg64
(lp1219
g57
(g58
g59
NtRp1220
(dp1221
g62
(dp1222
g70
I4
ssg71
g1216
sg64
(lp1223
S'127.0.0.1:8000'
p1224
asbasbasbag57
(g73
g59
NtRp1225
(dp1226
g62
(dp1227
sg71
g847
sg64
(lp1228
g57
(g78
g59
NtRp1229
(dp1230
g62
(dp1231
g82
g83
ssg71
g1225
sg64
(lp1232
S'http_referer'
p1233
asbag57
(g78
g59
NtRp1234
(dp1235
g62
(dp1236
g89
g90
ssg71
g1225
sg64
(lp1237
S':'
asbag57
(g78
g59
NtRp1238
(dp1239
g62
(dp1240
sg71
g1225
sg64
(lp1241
g57
(g58
g59
NtRp1242
(dp1243
g62
(dp1244
g70
I4
ssg71
g1238
sg64
(lp1245
S'http://127.0.0.1:8000/assignment2/default/admin_homepage'
p1246
asbasbasbag57
(g73
g59
NtRp1247
(dp1248
g62
(dp1249
sg71
g847
sg64
(lp1250
g57
(g78
g59
NtRp1251
(dp1252
g62
(dp1253
g82
g83
ssg71
g1247
sg64
(lp1254
S'http_user_agent'
p1255
asbag57
(g78
g59
NtRp1256
(dp1257
g62
(dp1258
g89
g90
ssg71
g1247
sg64
(lp1259
S':'
asbag57
(g78
g59
NtRp1260
(dp1261
g62
(dp1262
sg71
g1247
sg64
(lp1263
g57
(g58
g59
NtRp1264
(dp1265
g62
(dp1266
g70
I4
ssg71
g1260
sg64
(lp1267
S'Mozilla/5.0 (X11; Ubuntu; Linux i686; rv:23.0) Gecko/20100101 Firefox/23.0'
p1268
asbasbasbag57
(g73
g59
NtRp1269
(dp1270
g62
(dp1271
sg71
g847
sg64
(lp1272
g57
(g78
g59
NtRp1273
(dp1274
g62
(dp1275
g82
g83
ssg71
g1269
sg64
(lp1276
S'is_jython'
p1277
asbag57
(g78
g59
NtRp1278
(dp1279
g62
(dp1280
g89
g90
ssg71
g1269
sg64
(lp1281
S':'
asbag57
(g78
g59
NtRp1282
(dp1283
g62
(dp1284
sg71
g1269
sg64
(lp1285
g57
(g58
g59
NtRp1286
(dp1287
g62
(dp1288
g70
I4
ssg71
g1282
sg64
(lp1289
g100
asbasbasbag57
(g73
g59
NtRp1290
(dp1291
g62
(dp1292
sg71
g847
sg64
(lp1293
g57
(g78
g59
NtRp1294
(dp1295
g62
(dp1296
g82
g83
ssg71
g1290
sg64
(lp1297
S'is_pypy'
p1298
asbag57
(g78
g59
NtRp1299
(dp1300
g62
(dp1301
g89
g90
ssg71
g1290
sg64
(lp1302
S':'
asbag57
(g78
g59
NtRp1303
(dp1304
g62
(dp1305
sg71
g1290
sg64
(lp1306
g57
(g58
g59
NtRp1307
(dp1308
g62
(dp1309
g70
I4
ssg71
g1303
sg64
(lp1310
g100
asbasbasbag57
(g73
g59
NtRp1311
(dp1312
g62
(dp1313
sg71
g847
sg64
(lp1314
g57
(g78
g59
NtRp1315
(dp1316
g62
(dp1317
g82
g83
ssg71
g1311
sg64
(lp1318
S'local_hosts'
p1319
asbag57
(g78
g59
NtRp1320
(dp1321
g62
(dp1322
g89
g90
ssg71
g1311
sg64
(lp1323
S':'
asbag57
(g78
g59
NtRp1324
(dp1325
g62
(dp1326
sg71
g1311
sg64
(lp1327
g57
(g58
g59
NtRp1328
(dp1329
g62
(dp1330
g70
I4
ssg71
g1324
sg64
(lp1331
g57
(g66
g59
NtRp1332
(dp1333
g62
(dp1334
g70
I3
ssg71
Nsg64
(lp1335
g57
(g73
g59
NtRp1336
(dp1337
g62
(dp1338
sg71
g1332
sg64
(lp1339
g57
(g78
g59
NtRp1340
(dp1341
g62
(dp1342
sg71
g1336
sg64
(lp1343
g57
(g58
g59
NtRp1344
(dp1345
g62
(dp1346
g70
I3
ssg71
g1340
sg64
(lp1347
S'ubuntu.ubuntu-domain'
p1348
asbasbasbag57
(g73
g59
NtRp1349
(dp1350
g62
(dp1351
sg71
g1332
sg64
(lp1352
g57
(g78
g59
NtRp1353
(dp1354
g62
(dp1355
sg71
g1349
sg64
(lp1356
g57
(g58
g59
NtRp1357
(dp1358
g62
(dp1359
g70
I3
ssg71
g1353
sg64
(lp1360
S'::ffff:127.0.0.1'
p1361
asbasbasbag57
(g73
g59
NtRp1362
(dp1363
g62
(dp1364
sg71
g1332
sg64
(lp1365
g57
(g78
g59
NtRp1366
(dp1367
g62
(dp1368
sg71
g1362
sg64
(lp1369
g57
(g58
g59
NtRp1370
(dp1371
g62
(dp1372
g70
I3
ssg71
g1366
sg64
(lp1373
S'::1'
p1374
asbasbasbag57
(g73
g59
NtRp1375
(dp1376
g62
(dp1377
sg71
g1332
sg64
(lp1378
g57
(g78
g59
NtRp1379
(dp1380
g62
(dp1381
sg71
g1375
sg64
(lp1382
g57
(g58
g59
NtRp1383
(dp1384
g62
(dp1385
g70
I3
ssg71
g1379
sg64
(lp1386
S'ubuntu'
p1387
asbasbasbag57
(g73
g59
NtRp1388
(dp1389
g62
(dp1390
sg71
g1332
sg64
(lp1391
g57
(g78
g59
NtRp1392
(dp1393
g62
(dp1394
sg71
g1388
sg64
(lp1395
g57
(g58
g59
NtRp1396
(dp1397
g62
(dp1398
g70
I3
ssg71
g1392
sg64
(lp1399
S'127.0.1.1'
p1400
asbasbasbag57
(g73
g59
NtRp1401
(dp1402
g62
(dp1403
sg71
g1332
sg64
(lp1404
g57
(g78
g59
NtRp1405
(dp1406
g62
(dp1407
sg71
g1401
sg64
(lp1408
g57
(g58
g59
NtRp1409
(dp1410
g62
(dp1411
g70
I3
ssg71
g1405
sg64
(lp1412
S'127.0.0.1'
p1413
asbasbasbasbasbasbasbag57
(g73
g59
NtRp1414
(dp1415
g62
(dp1416
sg71
g847
sg64
(lp1417
g57
(g78
g59
NtRp1418
(dp1419
g62
(dp1420
g82
g83
ssg71
g1414
sg64
(lp1421
S'path_info'
p1422
asbag57
(g78
g59
NtRp1423
(dp1424
g62
(dp1425
g89
g90
ssg71
g1414
sg64
(lp1426
S':'
asbag57
(g78
g59
NtRp1427
(dp1428
g62
(dp1429
sg71
g1414
sg64
(lp1430
g57
(g58
g59
NtRp1431
(dp1432
g62
(dp1433
g70
I4
ssg71
g1427
sg64
(lp1434
S'/assignment2/default/admin_homepage'
p1435
asbasbasbag57
(g73
g59
NtRp1436
(dp1437
g62
(dp1438
sg71
g847
sg64
(lp1439
g57
(g78
g59
NtRp1440
(dp1441
g62
(dp1442
g82
g83
ssg71
g1436
sg64
(lp1443
S'query_string'
p1444
asbag57
(g78
g59
NtRp1445
(dp1446
g62
(dp1447
g89
g90
ssg71
g1436
sg64
(lp1448
S':'
asbag57
(g78
g59
NtRp1449
(dp1450
g62
(dp1451
sg71
g1436
sg64
(lp1452
g57
(g58
g59
NtRp1453
(dp1454
g62
(dp1455
g70
I4
ssg71
g1449
sg64
(lp1456
S''
asbasbasbag57
(g73
g59
NtRp1457
(dp1458
g62
(dp1459
sg71
g847
sg64
(lp1460
g57
(g78
g59
NtRp1461
(dp1462
g62
(dp1463
g82
g83
ssg71
g1457
sg64
(lp1464
S'remote_addr'
p1465
asbag57
(g78
g59
NtRp1466
(dp1467
g62
(dp1468
g89
g90
ssg71
g1457
sg64
(lp1469
S':'
asbag57
(g78
g59
NtRp1470
(dp1471
g62
(dp1472
sg71
g1457
sg64
(lp1473
g57
(g58
g59
NtRp1474
(dp1475
g62
(dp1476
g70
I4
ssg71
g1470
sg64
(lp1477
g212
asbasbasbag57
(g73
g59
NtRp1478
(dp1479
g62
(dp1480
sg71
g847
sg64
(lp1481
g57
(g78
g59
NtRp1482
(dp1483
g62
(dp1484
g82
g83
ssg71
g1478
sg64
(lp1485
S'remote_port'
p1486
asbag57
(g78
g59
NtRp1487
(dp1488
g62
(dp1489
g89
g90
ssg71
g1478
sg64
(lp1490
S':'
asbag57
(g78
g59
NtRp1491
(dp1492
g62
(dp1493
sg71
g1478
sg64
(lp1494
g57
(g58
g59
NtRp1495
(dp1496
g62
(dp1497
g70
I4
ssg71
g1491
sg64
(lp1498
S'47814'
p1499
asbasbasbag57
(g73
g59
NtRp1500
(dp1501
g62
(dp1502
sg71
g847
sg64
(lp1503
g57
(g78
g59
NtRp1504
(dp1505
g62
(dp1506
g82
g83
ssg71
g1500
sg64
(lp1507
S'request_method'
p1508
asbag57
(g78
g59
NtRp1509
(dp1510
g62
(dp1511
g89
g90
ssg71
g1500
sg64
(lp1512
S':'
asbag57
(g78
g59
NtRp1513
(dp1514
g62
(dp1515
sg71
g1500
sg64
(lp1516
g57
(g58
g59
NtRp1517
(dp1518
g62
(dp1519
g70
I4
ssg71
g1513
sg64
(lp1520
S'POST'
p1521
asbasbasbag57
(g73
g59
NtRp1522
(dp1523
g62
(dp1524
sg71
g847
sg64
(lp1525
g57
(g78
g59
NtRp1526
(dp1527
g62
(dp1528
g82
g83
ssg71
g1522
sg64
(lp1529
S'request_uri'
p1530
asbag57
(g78
g59
NtRp1531
(dp1532
g62
(dp1533
g89
g90
ssg71
g1522
sg64
(lp1534
S':'
asbag57
(g78
g59
NtRp1535
(dp1536
g62
(dp1537
sg71
g1522
sg64
(lp1538
g57
(g58
g59
NtRp1539
(dp1540
g62
(dp1541
g70
I4
ssg71
g1535
sg64
(lp1542
g1435
asbasbasbag57
(g73
g59
NtRp1543
(dp1544
g62
(dp1545
sg71
g847
sg64
(lp1546
g57
(g78
g59
NtRp1547
(dp1548
g62
(dp1549
g82
g83
ssg71
g1543
sg64
(lp1550
S'script_name'
p1551
asbag57
(g78
g59
NtRp1552
(dp1553
g62
(dp1554
g89
g90
ssg71
g1543
sg64
(lp1555
S':'
asbag57
(g78
g59
NtRp1556
(dp1557
g62
(dp1558
sg71
g1543
sg64
(lp1559
g57
(g58
g59
NtRp1560
(dp1561
g62
(dp1562
g70
I4
ssg71
g1556
sg64
(lp1563
S''
asbasbasbag57
(g73
g59
NtRp1564
(dp1565
g62
(dp1566
sg71
g847
sg64
(lp1567
g57
(g78
g59
NtRp1568
(dp1569
g62
(dp1570
g82
g83
ssg71
g1564
sg64
(lp1571
S'server_name'
p1572
asbag57
(g78
g59
NtRp1573
(dp1574
g62
(dp1575
g89
g90
ssg71
g1564
sg64
(lp1576
S':'
asbag57
(g78
g59
NtRp1577
(dp1578
g62
(dp1579
sg71
g1564
sg64
(lp1580
g57
(g58
g59
NtRp1581
(dp1582
g62
(dp1583
g70
I4
ssg71
g1577
sg64
(lp1584
S'ubuntu'
p1585
asbasbasbag57
(g73
g59
NtRp1586
(dp1587
g62
(dp1588
sg71
g847
sg64
(lp1589
g57
(g78
g59
NtRp1590
(dp1591
g62
(dp1592
g82
g83
ssg71
g1586
sg64
(lp1593
S'server_port'
p1594
asbag57
(g78
g59
NtRp1595
(dp1596
g62
(dp1597
g89
g90
ssg71
g1586
sg64
(lp1598
S':'
asbag57
(g78
g59
NtRp1599
(dp1600
g62
(dp1601
sg71
g1586
sg64
(lp1602
g57
(g58
g59
NtRp1603
(dp1604
g62
(dp1605
g70
I4
ssg71
g1599
sg64
(lp1606
S'8000'
p1607
asbasbasbag57
(g73
g59
NtRp1608
(dp1609
g62
(dp1610
sg71
g847
sg64
(lp1611
g57
(g78
g59
NtRp1612
(dp1613
g62
(dp1614
g82
g83
ssg71
g1608
sg64
(lp1615
S'server_protocol'
p1616
asbag57
(g78
g59
NtRp1617
(dp1618
g62
(dp1619
g89
g90
ssg71
g1608
sg64
(lp1620
S':'
asbag57
(g78
g59
NtRp1621
(dp1622
g62
(dp1623
sg71
g1608
sg64
(lp1624
g57
(g58
g59
NtRp1625
(dp1626
g62
(dp1627
g70
I4
ssg71
g1621
sg64
(lp1628
S'HTTP/1.1'
p1629
asbasbasbag57
(g73
g59
NtRp1630
(dp1631
g62
(dp1632
sg71
g847
sg64
(lp1633
g57
(g78
g59
NtRp1634
(dp1635
g62
(dp1636
g82
g83
ssg71
g1630
sg64
(lp1637
S'server_software'
p1638
asbag57
(g78
g59
NtRp1639
(dp1640
g62
(dp1641
g89
g90
ssg71
g1630
sg64
(lp1642
S':'
asbag57
(g78
g59
NtRp1643
(dp1644
g62
(dp1645
sg71
g1630
sg64
(lp1646
g57
(g58
g59
NtRp1647
(dp1648
g62
(dp1649
g70
I4
ssg71
g1643
sg64
(lp1650
S'Rocket 1.2.6'
p1651
asbasbasbag57
(g73
g59
NtRp1652
(dp1653
g62
(dp1654
sg71
g847
sg64
(lp1655
g57
(g78
g59
NtRp1656
(dp1657
g62
(dp1658
g82
g83
ssg71
g1652
sg64
(lp1659
S'web2py_path'
p1660
asbag57
(g78
g59
NtRp1661
(dp1662
g62
(dp1663
g89
g90
ssg71
g1652
sg64
(lp1664
S':'
asbag57
(g78
g59
NtRp1665
(dp1666
g62
(dp1667
sg71
g1652
sg64
(lp1668
g57
(g58
g59
NtRp1669
(dp1670
g62
(dp1671
g70
I4
ssg71
g1665
sg64
(lp1672
g894
asbasbasbag57
(g73
g59
NtRp1673
(dp1674
g62
(dp1675
sg71
g847
sg64
(lp1676
g57
(g78
g59
NtRp1677
(dp1678
g62
(dp1679
g82
g83
ssg71
g1673
sg64
(lp1680
S'web2py_version'
p1681
asbag57
(g78
g59
NtRp1682
(dp1683
g62
(dp1684
g89
g90
ssg71
g1673
sg64
(lp1685
S':'
asbag57
(g78
g59
NtRp1686
(dp1687
g62
(dp1688
sg71
g1673
sg64
(lp1689
g57
(g58
g59
NtRp1690
(dp1691
g62
(dp1692
g70
I4
ssg71
g1686
sg64
(lp1693
g57
(g66
g59
NtRp1694
(dp1695
g62
(dp1696
g70
I3
ssg71
Nsg64
(lp1697
g57
(g73
g59
NtRp1698
(dp1699
g62
(dp1700
sg71
g1694
sg64
(lp1701
g57
(g78
g59
NtRp1702
(dp1703
g62
(dp1704
sg71
g1698
sg64
(lp1705
g57
(g58
g59
NtRp1706
(dp1707
g62
(dp1708
g70
I3
ssg71
g1702
sg64
(lp1709
S'2'
asbasbasbag57
(g73
g59
NtRp1710
(dp1711
g62
(dp1712
sg71
g1694
sg64
(lp1713
g57
(g78
g59
NtRp1714
(dp1715
g62
(dp1716
sg71
g1710
sg64
(lp1717
g57
(g58
g59
NtRp1718
(dp1719
g62
(dp1720
g70
I3
ssg71
g1714
sg64
(lp1721
S'3'
asbasbasbag57
(g73
g59
NtRp1722
(dp1723
g62
(dp1724
sg71
g1694
sg64
(lp1725
g57
(g78
g59
NtRp1726
(dp1727
g62
(dp1728
sg71
g1722
sg64
(lp1729
g57
(g58
g59
NtRp1730
(dp1731
g62
(dp1732
g70
I3
ssg71
g1726
sg64
(lp1733
S'2'
asbasbasbag57
(g73
g59
NtRp1734
(dp1735
g62
(dp1736
sg71
g1694
sg64
(lp1737
g57
(g78
g59
NtRp1738
(dp1739
g62
(dp1740
sg71
g1734
sg64
(lp1741
g57
(g58
g59
NtRp1742
(dp1743
g62
(dp1744
g70
I3
ssg71
g1738
sg64
(lp1745
S'datetime.datetime(2012, 12, 17, 15, 3, 30)'
p1746
asbasbasbag57
(g73
g59
NtRp1747
(dp1748
g62
(dp1749
sg71
g1694
sg64
(lp1750
g57
(g78
g59
NtRp1751
(dp1752
g62
(dp1753
sg71
g1747
sg64
(lp1754
g57
(g58
g59
NtRp1755
(dp1756
g62
(dp1757
g70
I3
ssg71
g1751
sg64
(lp1758
S'stable'
p1759
asbasbasbasbasbasbasbag57
(g73
g59
NtRp1760
(dp1761
g62
(dp1762
sg71
g847
sg64
(lp1763
g57
(g78
g59
NtRp1764
(dp1765
g62
(dp1766
g82
g83
ssg71
g1760
sg64
(lp1767
S'wsgi_errors'
p1768
asbag57
(g78
g59
NtRp1769
(dp1770
g62
(dp1771
g89
g90
ssg71
g1760
sg64
(lp1772
S':'
asbag57
(g78
g59
NtRp1773
(dp1774
g62
(dp1775
sg71
g1760
sg64
(lp1776
g57
(g58
g59
NtRp1777
(dp1778
g62
(dp1779
g70
I4
ssg71
g1773
sg64
(lp1780
S"<open file '<stderr>', mode 'w' at 0xb72be0d0>"
p1781
asbasbasbag57
(g73
g59
NtRp1782
(dp1783
g62
(dp1784
sg71
g847
sg64
(lp1785
g57
(g78
g59
NtRp1786
(dp1787
g62
(dp1788
g82
g83
ssg71
g1782
sg64
(lp1789
S'wsgi_file_wrapper'
p1790
asbag57
(g78
g59
NtRp1791
(dp1792
g62
(dp1793
g89
g90
ssg71
g1782
sg64
(lp1794
S':'
asbag57
(g78
g59
NtRp1795
(dp1796
g62
(dp1797
sg71
g1782
sg64
(lp1798
g57
(g58
g59
NtRp1799
(dp1800
g62
(dp1801
g70
I4
ssg71
g1795
sg64
(lp1802
S'<class wsgiref.util.FileWrapper at 0x9faa65c>'
p1803
asbasbasbag57
(g73
g59
NtRp1804
(dp1805
g62
(dp1806
sg71
g847
sg64
(lp1807
g57
(g78
g59
NtRp1808
(dp1809
g62
(dp1810
g82
g83
ssg71
g1804
sg64
(lp1811
S'wsgi_input'
p1812
asbag57
(g78
g59
NtRp1813
(dp1814
g62
(dp1815
g89
g90
ssg71
g1804
sg64
(lp1816
S':'
asbag57
(g78
g59
NtRp1817
(dp1818
g62
(dp1819
sg71
g1804
sg64
(lp1820
g57
(g58
g59
NtRp1821
(dp1822
g62
(dp1823
g70
I4
ssg71
g1817
sg64
(lp1824
S'<socket._fileobject object at 0xaccb45ac>'
p1825
asbasbasbag57
(g73
g59
NtRp1826
(dp1827
g62
(dp1828
sg71
g847
sg64
(lp1829
g57
(g78
g59
NtRp1830
(dp1831
g62
(dp1832
g82
g83
ssg71
g1826
sg64
(lp1833
S'wsgi_multiprocess'
p1834
asbag57
(g78
g59
NtRp1835
(dp1836
g62
(dp1837
g89
g90
ssg71
g1826
sg64
(lp1838
S':'
asbag57
(g78
g59
NtRp1839
(dp1840
g62
(dp1841
sg71
g1826
sg64
(lp1842
g57
(g58
g59
NtRp1843
(dp1844
g62
(dp1845
g70
I4
ssg71
g1839
sg64
(lp1846
g100
asbasbasbag57
(g73
g59
NtRp1847
(dp1848
g62
(dp1849
sg71
g847
sg64
(lp1850
g57
(g78
g59
NtRp1851
(dp1852
g62
(dp1853
g82
g83
ssg71
g1847
sg64
(lp1854
S'wsgi_multithread'
p1855
asbag57
(g78
g59
NtRp1856
(dp1857
g62
(dp1858
g89
g90
ssg71
g1847
sg64
(lp1859
S':'
asbag57
(g78
g59
NtRp1860
(dp1861
g62
(dp1862
sg71
g1847
sg64
(lp1863
g57
(g58
g59
NtRp1864
(dp1865
g62
(dp1866
g70
I4
ssg71
g1860
sg64
(lp1867
S'True'
p1868
asbasbasbag57
(g73
g59
NtRp1869
(dp1870
g62
(dp1871
sg71
g847
sg64
(lp1872
g57
(g78
g59
NtRp1873
(dp1874
g62
(dp1875
g82
g83
ssg71
g1869
sg64
(lp1876
S'wsgi_run_once'
p1877
asbag57
(g78
g59
NtRp1878
(dp1879
g62
(dp1880
g89
g90
ssg71
g1869
sg64
(lp1881
S':'
asbag57
(g78
g59
NtRp1882
(dp1883
g62
(dp1884
sg71
g1869
sg64
(lp1885
g57
(g58
g59
NtRp1886
(dp1887
g62
(dp1888
g70
I4
ssg71
g1882
sg64
(lp1889
g100
asbasbasbag57
(g73
g59
NtRp1890
(dp1891
g62
(dp1892
sg71
g847
sg64
(lp1893
g57
(g78
g59
NtRp1894
(dp1895
g62
(dp1896
g82
g83
ssg71
g1890
sg64
(lp1897
S'wsgi_url_scheme'
p1898
asbag57
(g78
g59
NtRp1899
(dp1900
g62
(dp1901
g89
g90
ssg71
g1890
sg64
(lp1902
S':'
asbag57
(g78
g59
NtRp1903
(dp1904
g62
(dp1905
sg71
g1890
sg64
(lp1906
g57
(g58
g59
NtRp1907
(dp1908
g62
(dp1909
g70
I4
ssg71
g1903
sg64
(lp1910
S'http'
p1911
asbasbasbag57
(g73
g59
NtRp1912
(dp1913
g62
(dp1914
sg71
g847
sg64
(lp1915
g57
(g78
g59
NtRp1916
(dp1917
g62
(dp1918
g82
g83
ssg71
g1912
sg64
(lp1919
S'wsgi_version'
p1920
asbag57
(g78
g59
NtRp1921
(dp1922
g62
(dp1923
g89
g90
ssg71
g1912
sg64
(lp1924
S':'
asbag57
(g78
g59
NtRp1925
(dp1926
g62
(dp1927
sg71
g1912
sg64
(lp1928
g57
(g58
g59
NtRp1929
(dp1930
g62
(dp1931
g70
I4
ssg71
g1925
sg64
(lp1932
g57
(g66
g59
NtRp1933
(dp1934
g62
(dp1935
g70
I3
ssg71
Nsg64
(lp1936
g57
(g73
g59
NtRp1937
(dp1938
g62
(dp1939
sg71
g1933
sg64
(lp1940
g57
(g78
g59
NtRp1941
(dp1942
g62
(dp1943
sg71
g1937
sg64
(lp1944
g57
(g58
g59
NtRp1945
(dp1946
g62
(dp1947
g70
I3
ssg71
g1941
sg64
(lp1948
S'1'
asbasbasbag57
(g73
g59
NtRp1949
(dp1950
g62
(dp1951
sg71
g1933
sg64
(lp1952
g57
(g78
g59
NtRp1953
(dp1954
g62
(dp1955
sg71
g1949
sg64
(lp1956
g57
(g58
g59
NtRp1957
(dp1958
g62
(dp1959
g70
I3
ssg71
g1953
sg64
(lp1960
S'0'
asbasbasbasbasbasbasbasbasbasbasbag57
(g73
g59
NtRp1961
(dp1962
g62
(dp1963
sg71
g67
sg64
(lp1964
g57
(g78
g59
NtRp1965
(dp1966
g62
(dp1967
g82
g83
ssg71
g1961
sg64
(lp1968
S'extension'
p1969
asbag57
(g78
g59
NtRp1970
(dp1971
g62
(dp1972
g89
g90
ssg71
g1961
sg64
(lp1973
S':'
asbag57
(g78
g59
NtRp1974
(dp1975
g62
(dp1976
sg71
g1961
sg64
(lp1977
g57
(g58
g59
NtRp1978
(dp1979
g62
(dp1980
g70
I5
ssg71
g1974
sg64
(lp1981
S'html'
p1982
asbasbasbag57
(g73
g59
NtRp1983
(dp1984
g62
(dp1985
sg71
g67
sg64
(lp1986
g57
(g78
g59
NtRp1987
(dp1988
g62
(dp1989
g82
g83
ssg71
g1983
sg64
(lp1990
S'folder'
p1991
asbag57
(g78
g59
NtRp1992
(dp1993
g62
(dp1994
g89
g90
ssg71
g1983
sg64
(lp1995
S':'
asbag57
(g78
g59
NtRp1996
(dp1997
g62
(dp1998
sg71
g1983
sg64
(lp1999
g57
(g58
g59
NtRp2000
(dp2001
g62
(dp2002
g70
I5
ssg71
g1996
sg64
(lp2003
S'/home/aditi/Desktop/web2py/applications/assignment2/'
p2004
asbasbasbag57
(g73
g59
NtRp2005
(dp2006
g62
(dp2007
sg71
g67
sg64
(lp2008
g57
(g78
g59
NtRp2009
(dp2010
g62
(dp2011
g82
g83
ssg71
g2005
sg64
(lp2012
S'function'
p2013
asbag57
(g78
g59
NtRp2014
(dp2015
g62
(dp2016
g89
g90
ssg71
g2005
sg64
(lp2017
S':'
asbag57
(g78
g59
NtRp2018
(dp2019
g62
(dp2020
sg71
g2005
sg64
(lp2021
g57
(g58
g59
NtRp2022
(dp2023
g62
(dp2024
g70
I5
ssg71
g2018
sg64
(lp2025
S'admin_homepage'
p2026
asbasbasbag57
(g73
g59
NtRp2027
(dp2028
g62
(dp2029
sg71
g67
sg64
(lp2030
g57
(g78
g59
NtRp2031
(dp2032
g62
(dp2033
g82
g83
ssg71
g2027
sg64
(lp2034
S'get_vars'
p2035
asbag57
(g78
g59
NtRp2036
(dp2037
g62
(dp2038
g89
g90
ssg71
g2027
sg64
(lp2039
S':'
asbag57
(g78
g59
NtRp2040
(dp2041
g62
(dp2042
sg71
g2027
sg64
(lp2043
g57
(g58
g59
NtRp2044
(dp2045
g62
(dp2046
g70
I5
ssg71
g2040
sg64
(lp2047
g57
(g66
g59
NtRp2048
(dp2049
g62
(dp2050
g70
I4
ssg71
Nsg64
(lp2051
sbasbasbasbag57
(g73
g59
NtRp2052
(dp2053
g62
(dp2054
sg71
g67
sg64
(lp2055
g57
(g78
g59
NtRp2056
(dp2057
g62
(dp2058
g82
g83
ssg71
g2052
sg64
(lp2059
S'global_settings'
p2060
asbag57
(g78
g59
NtRp2061
(dp2062
g62
(dp2063
g89
g90
ssg71
g2052
sg64
(lp2064
S':'
asbag57
(g78
g59
NtRp2065
(dp2066
g62
(dp2067
sg71
g2052
sg64
(lp2068
g57
(g58
g59
NtRp2069
(dp2070
g62
(dp2071
g70
I5
ssg71
g2065
sg64
(lp2072
g57
(g66
g59
NtRp2073
(dp2074
g62
(dp2075
g70
I4
ssg71
Nsg64
(lp2076
g57
(g73
g59
NtRp2077
(dp2078
g62
(dp2079
sg71
g2073
sg64
(lp2080
g57
(g78
g59
NtRp2081
(dp2082
g62
(dp2083
g82
g83
ssg71
g2077
sg64
(lp2084
g859
asbag57
(g78
g59
NtRp2085
(dp2086
g62
(dp2087
g89
g90
ssg71
g2077
sg64
(lp2088
S':'
asbag57
(g78
g59
NtRp2089
(dp2090
g62
(dp2091
sg71
g2077
sg64
(lp2092
g57
(g58
g59
NtRp2093
(dp2094
g62
(dp2095
g70
I4
ssg71
g2089
sg64
(lp2096
S"set(['/home/aditi/Desktop/web2py/applications/assignment2/', '/home/aditi/Desktop/web2py/applications/admin/', '/home/aditi/Desktop/web2py/applications/welcome/'])"
p2097
asbasbasbag57
(g73
g59
NtRp2098
(dp2099
g62
(dp2100
sg71
g2073
sg64
(lp2101
g57
(g78
g59
NtRp2102
(dp2103
g62
(dp2104
g82
g83
ssg71
g2098
sg64
(lp2105
g881
asbag57
(g78
g59
NtRp2106
(dp2107
g62
(dp2108
g89
g90
ssg71
g2098
sg64
(lp2109
S':'
asbag57
(g78
g59
NtRp2110
(dp2111
g62
(dp2112
sg71
g2098
sg64
(lp2113
g57
(g58
g59
NtRp2114
(dp2115
g62
(dp2116
g70
I4
ssg71
g2110
sg64
(lp2117
g894
asbasbasbag57
(g73
g59
NtRp2118
(dp2119
g62
(dp2120
sg71
g2073
sg64
(lp2121
g57
(g78
g59
NtRp2122
(dp2123
g62
(dp2124
g82
g83
ssg71
g2118
sg64
(lp2125
g903
asbag57
(g78
g59
NtRp2126
(dp2127
g62
(dp2128
g89
g90
ssg71
g2118
sg64
(lp2129
S':'
asbag57
(g78
g59
NtRp2130
(dp2131
g62
(dp2132
sg71
g2118
sg64
(lp2133
g57
(g58
g59
NtRp2134
(dp2135
g62
(dp2136
g70
I4
ssg71
g2130
sg64
(lp2137
g57
(g66
g59
NtRp2138
(dp2139
g62
(dp2140
g70
I3
ssg71
Nsg64
(lp2141
sbasbasbasbag57
(g73
g59
NtRp2142
(dp2143
g62
(dp2144
sg71
g2073
sg64
(lp2145
g57
(g78
g59
NtRp2146
(dp2147
g62
(dp2148
g82
g83
ssg71
g2142
sg64
(lp2149
g928
asbag57
(g78
g59
NtRp2150
(dp2151
g62
(dp2152
g89
g90
ssg71
g2142
sg64
(lp2153
S':'
asbag57
(g78
g59
NtRp2154
(dp2155
g62
(dp2156
sg71
g2142
sg64
(lp2157
g57
(g58
g59
NtRp2158
(dp2159
g62
(dp2160
g70
I4
ssg71
g2154
sg64
(lp2161
S"<Values at 0x9feea0c: {'verbose': False, 'ip': '127.0.0.1', 'with_scheduler': False, 'ips': [], 'shutdown_timeout': 5, 'taskbar': False, 'port': 8000, 'maxthreads': None, 'softcron': False, 'server_name': 'ubuntu', 'bpython': False, 'nogui': False, 'pid_filename': 'httpserver.pid', 'extcron': False, 'runcron': False, 'run_system_tests': False, 'test': None, 'folder': '/home/aditi/Desktop/web2py', 'config': '', 'import_models': False, 'winservice': '', 'shell': None, 'run': '', 'log_filename': 'httpserver.log', 'debuglevel': 30, 'args': [''], 'socket_timeout': 5, 'ssl_ca_certificate': None, 'scheduler': None, 'profiler_filename': None, 'ssl_private_key': '', 'scheduler_groups': None, 'password': '<ask>', 'request_queue_size': 5, 'ssl_certificate': '', 'cronjob': False, 'numthreads': None, 'quiet': False, 'interfaces': None, 'minthreads': None, 'timeout': 10, 'plain': False, 'nobanner': False}>"
p2162
asbasbasbag57
(g73
g59
NtRp2163
(dp2164
g62
(dp2165
sg71
g2073
sg64
(lp2166
g57
(g78
g59
NtRp2167
(dp2168
g62
(dp2169
g82
g83
ssg71
g2163
sg64
(lp2170
g994
asbag57
(g78
g59
NtRp2171
(dp2172
g62
(dp2173
g89
g90
ssg71
g2163
sg64
(lp2174
S':'
asbag57
(g78
g59
NtRp2175
(dp2176
g62
(dp2177
sg71
g2163
sg64
(lp2178
g57
(g58
g59
NtRp2179
(dp2180
g62
(dp2181
g70
I4
ssg71
g2175
sg64
(lp2182
S'set([])'
p2183
asbasbasbag57
(g73
g59
NtRp2184
(dp2185
g62
(dp2186
sg71
g2073
sg64
(lp2187
g57
(g78
g59
NtRp2188
(dp2189
g62
(dp2190
g82
g83
ssg71
g2184
sg64
(lp2191
g1016
asbag57
(g78
g59
NtRp2192
(dp2193
g62
(dp2194
g89
g90
ssg71
g2184
sg64
(lp2195
S':'
asbag57
(g78
g59
NtRp2196
(dp2197
g62
(dp2198
sg71
g2184
sg64
(lp2199
g57
(g58
g59
NtRp2200
(dp2201
g62
(dp2202
g70
I4
ssg71
g2196
sg64
(lp2203
g100
asbasbasbag57
(g73
g59
NtRp2204
(dp2205
g62
(dp2206
sg71
g2073
sg64
(lp2207
g57
(g78
g59
NtRp2208
(dp2209
g62
(dp2210
g82
g83
ssg71
g2204
sg64
(lp2211
g1037
asbag57
(g78
g59
NtRp2212
(dp2213
g62
(dp2214
g89
g90
ssg71
g2204
sg64
(lp2215
S':'
asbag57
(g78
g59
NtRp2216
(dp2217
g62
(dp2218
sg71
g2204
sg64
(lp2219
g57
(g58
g59
NtRp2220
(dp2221
g62
(dp2222
g70
I4
ssg71
g2216
sg64
(lp2223
g1050
asbasbasbag57
(g73
g59
NtRp2224
(dp2225
g62
(dp2226
sg71
g2073
sg64
(lp2227
g57
(g78
g59
NtRp2228
(dp2229
g62
(dp2230
g82
g83
ssg71
g2224
sg64
(lp2231
g1277
asbag57
(g78
g59
NtRp2232
(dp2233
g62
(dp2234
g89
g90
ssg71
g2224
sg64
(lp2235
S':'
asbag57
(g78
g59
NtRp2236
(dp2237
g62
(dp2238
sg71
g2224
sg64
(lp2239
g57
(g58
g59
NtRp2240
(dp2241
g62
(dp2242
g70
I4
ssg71
g2236
sg64
(lp2243
g100
asbasbasbag57
(g73
g59
NtRp2244
(dp2245
g62
(dp2246
sg71
g2073
sg64
(lp2247
g57
(g78
g59
NtRp2248
(dp2249
g62
(dp2250
g82
g83
ssg71
g2244
sg64
(lp2251
g1298
asbag57
(g78
g59
NtRp2252
(dp2253
g62
(dp2254
g89
g90
ssg71
g2244
sg64
(lp2255
S':'
asbag57
(g78
g59
NtRp2256
(dp2257
g62
(dp2258
sg71
g2244
sg64
(lp2259
g57
(g58
g59
NtRp2260
(dp2261
g62
(dp2262
g70
I4
ssg71
g2256
sg64
(lp2263
g100
asbasbasbag57
(g73
g59
NtRp2264
(dp2265
g62
(dp2266
sg71
g2073
sg64
(lp2267
g57
(g78
g59
NtRp2268
(dp2269
g62
(dp2270
g82
g83
ssg71
g2264
sg64
(lp2271
g1319
asbag57
(g78
g59
NtRp2272
(dp2273
g62
(dp2274
g89
g90
ssg71
g2264
sg64
(lp2275
S':'
asbag57
(g78
g59
NtRp2276
(dp2277
g62
(dp2278
sg71
g2264
sg64
(lp2279
g57
(g58
g59
NtRp2280
(dp2281
g62
(dp2282
g70
I4
ssg71
g2276
sg64
(lp2283
g57
(g66
g59
NtRp2284
(dp2285
g62
(dp2286
g70
I3
ssg71
Nsg64
(lp2287
g57
(g73
g59
NtRp2288
(dp2289
g62
(dp2290
sg71
g2284
sg64
(lp2291
g57
(g78
g59
NtRp2292
(dp2293
g62
(dp2294
sg71
g2288
sg64
(lp2295
g57
(g58
g59
NtRp2296
(dp2297
g62
(dp2298
g70
I3
ssg71
g2292
sg64
(lp2299
g1348
asbasbasbag57
(g73
g59
NtRp2300
(dp2301
g62
(dp2302
sg71
g2284
sg64
(lp2303
g57
(g78
g59
NtRp2304
(dp2305
g62
(dp2306
sg71
g2300
sg64
(lp2307
g57
(g58
g59
NtRp2308
(dp2309
g62
(dp2310
g70
I3
ssg71
g2304
sg64
(lp2311
g1361
asbasbasbag57
(g73
g59
NtRp2312
(dp2313
g62
(dp2314
sg71
g2284
sg64
(lp2315
g57
(g78
g59
NtRp2316
(dp2317
g62
(dp2318
sg71
g2312
sg64
(lp2319
g57
(g58
g59
NtRp2320
(dp2321
g62
(dp2322
g70
I3
ssg71
g2316
sg64
(lp2323
g1374
asbasbasbag57
(g73
g59
NtRp2324
(dp2325
g62
(dp2326
sg71
g2284
sg64
(lp2327
g57
(g78
g59
NtRp2328
(dp2329
g62
(dp2330
sg71
g2324
sg64
(lp2331
g57
(g58
g59
NtRp2332
(dp2333
g62
(dp2334
g70
I3
ssg71
g2328
sg64
(lp2335
g1387
asbasbasbag57
(g73
g59
NtRp2336
(dp2337
g62
(dp2338
sg71
g2284
sg64
(lp2339
g57
(g78
g59
NtRp2340
(dp2341
g62
(dp2342
sg71
g2336
sg64
(lp2343
g57
(g58
g59
NtRp2344
(dp2345
g62
(dp2346
g70
I3
ssg71
g2340
sg64
(lp2347
g1400
asbasbasbag57
(g73
g59
NtRp2348
(dp2349
g62
(dp2350
sg71
g2284
sg64
(lp2351
g57
(g78
g59
NtRp2352
(dp2353
g62
(dp2354
sg71
g2348
sg64
(lp2355
g57
(g58
g59
NtRp2356
(dp2357
g62
(dp2358
g70
I3
ssg71
g2352
sg64
(lp2359
g1413
asbasbasbasbasbasbasbag57
(g73
g59
NtRp2360
(dp2361
g62
(dp2362
sg71
g2073
sg64
(lp2363
g57
(g78
g59
NtRp2364
(dp2365
g62
(dp2366
g82
g83
ssg71
g2360
sg64
(lp2367
g1681
asbag57
(g78
g59
NtRp2368
(dp2369
g62
(dp2370
g89
g90
ssg71
g2360
sg64
(lp2371
S':'
asbag57
(g78
g59
NtRp2372
(dp2373
g62
(dp2374
sg71
g2360
sg64
(lp2375
g57
(g58
g59
NtRp2376
(dp2377
g62
(dp2378
g70
I4
ssg71
g2372
sg64
(lp2379
g57
(g66
g59
NtRp2380
(dp2381
g62
(dp2382
g70
I3
ssg71
Nsg64
(lp2383
g57
(g73
g59
NtRp2384
(dp2385
g62
(dp2386
sg71
g2380
sg64
(lp2387
g57
(g78
g59
NtRp2388
(dp2389
g62
(dp2390
sg71
g2384
sg64
(lp2391
g57
(g58
g59
NtRp2392
(dp2393
g62
(dp2394
g70
I3
ssg71
g2388
sg64
(lp2395
S'2'
asbasbasbag57
(g73
g59
NtRp2396
(dp2397
g62
(dp2398
sg71
g2380
sg64
(lp2399
g57
(g78
g59
NtRp2400
(dp2401
g62
(dp2402
sg71
g2396
sg64
(lp2403
g57
(g58
g59
NtRp2404
(dp2405
g62
(dp2406
g70
I3
ssg71
g2400
sg64
(lp2407
S'3'
asbasbasbag57
(g73
g59
NtRp2408
(dp2409
g62
(dp2410
sg71
g2380
sg64
(lp2411
g57
(g78
g59
NtRp2412
(dp2413
g62
(dp2414
sg71
g2408
sg64
(lp2415
g57
(g58
g59
NtRp2416
(dp2417
g62
(dp2418
g70
I3
ssg71
g2412
sg64
(lp2419
S'2'
asbasbasbag57
(g73
g59
NtRp2420
(dp2421
g62
(dp2422
sg71
g2380
sg64
(lp2423
g57
(g78
g59
NtRp2424
(dp2425
g62
(dp2426
sg71
g2420
sg64
(lp2427
g57
(g58
g59
NtRp2428
(dp2429
g62
(dp2430
g70
I3
ssg71
g2424
sg64
(lp2431
S'datetime.datetime(2012, 12, 17, 15, 3, 30)'
p2432
asbasbasbag57
(g73
g59
NtRp2433
(dp2434
g62
(dp2435
sg71
g2380
sg64
(lp2436
g57
(g78
g59
NtRp2437
(dp2438
g62
(dp2439
sg71
g2433
sg64
(lp2440
g57
(g58
g59
NtRp2441
(dp2442
g62
(dp2443
g70
I3
ssg71
g2437
sg64
(lp2444
g1759
asbasbasbasbasbasbasbasbasbasbasbag57
(g73
g59
NtRp2445
(dp2446
g62
(dp2447
sg71
g67
sg64
(lp2448
g57
(g78
g59
NtRp2449
(dp2450
g62
(dp2451
g82
g83
ssg71
g2445
sg64
(lp2452
S'is_https'
p2453
asbag57
(g78
g59
NtRp2454
(dp2455
g62
(dp2456
g89
g90
ssg71
g2445
sg64
(lp2457
S':'
asbag57
(g78
g59
NtRp2458
(dp2459
g62
(dp2460
sg71
g2445
sg64
(lp2461
g57
(g58
g59
NtRp2462
(dp2463
g62
(dp2464
g70
I5
ssg71
g2458
sg64
(lp2465
g100
asbasbasbag57
(g73
g59
NtRp2466
(dp2467
g62
(dp2468
sg71
g67
sg64
(lp2469
g57
(g78
g59
NtRp2470
(dp2471
g62
(dp2472
g82
g83
ssg71
g2466
sg64
(lp2473
S'is_local'
p2474
asbag57
(g78
g59
NtRp2475
(dp2476
g62
(dp2477
g89
g90
ssg71
g2466
sg64
(lp2478
S':'
asbag57
(g78
g59
NtRp2479
(dp2480
g62
(dp2481
sg71
g2466
sg64
(lp2482
g57
(g58
g59
NtRp2483
(dp2484
g62
(dp2485
g70
I5
ssg71
g2479
sg64
(lp2486
g1868
asbasbasbag57
(g73
g59
NtRp2487
(dp2488
g62
(dp2489
sg71
g67
sg64
(lp2490
g57
(g78
g59
NtRp2491
(dp2492
g62
(dp2493
g82
g83
ssg71
g2487
sg64
(lp2494
S'is_restful'
p2495
asbag57
(g78
g59
NtRp2496
(dp2497
g62
(dp2498
g89
g90
ssg71
g2487
sg64
(lp2499
S':'
asbag57
(g78
g59
NtRp2500
(dp2501
g62
(dp2502
sg71
g2487
sg64
(lp2503
g57
(g58
g59
NtRp2504
(dp2505
g62
(dp2506
g70
I5
ssg71
g2500
sg64
(lp2507
g100
asbasbasbag57
(g73
g59
NtRp2508
(dp2509
g62
(dp2510
sg71
g67
sg64
(lp2511
g57
(g78
g59
NtRp2512
(dp2513
g62
(dp2514
g82
g83
ssg71
g2508
sg64
(lp2515
S'now'
p2516
asbag57
(g78
g59
NtRp2517
(dp2518
g62
(dp2519
g89
g90
ssg71
g2508
sg64
(lp2520
S':'
asbag57
(g78
g59
NtRp2521
(dp2522
g62
(dp2523
sg71
g2508
sg64
(lp2524
g57
(g58
g59
NtRp2525
(dp2526
g62
(dp2527
g70
I5
ssg71
g2521
sg64
(lp2528
S'datetime.datetime(2013, 8, 26, 13, 54, 45, 923135)'
p2529
asbasbasbag57
(g73
g59
NtRp2530
(dp2531
g62
(dp2532
sg71
g67
sg64
(lp2533
g57
(g78
g59
NtRp2534
(dp2535
g62
(dp2536
g82
g83
ssg71
g2530
sg64
(lp2537
S'post_vars'
p2538
asbag57
(g78
g59
NtRp2539
(dp2540
g62
(dp2541
g89
g90
ssg71
g2530
sg64
(lp2542
S':'
asbag57
(g78
g59
NtRp2543
(dp2544
g62
(dp2545
sg71
g2530
sg64
(lp2546
g57
(g58
g59
NtRp2547
(dp2548
g62
(dp2549
g70
I5
ssg71
g2543
sg64
(lp2550
g57
(g66
g59
NtRp2551
(dp2552
g62
(dp2553
g70
I4
ssg71
Nsg64
(lp2554
g57
(g73
g59
NtRp2555
(dp2556
g62
(dp2557
sg71
g2551
sg64
(lp2558
g57
(g78
g59
NtRp2559
(dp2560
g62
(dp2561
g82
g83
ssg71
g2555
sg64
(lp2562
S'category'
p2563
asbag57
(g78
g59
NtRp2564
(dp2565
g62
(dp2566
g89
g90
ssg71
g2555
sg64
(lp2567
S':'
asbag57
(g78
g59
NtRp2568
(dp2569
g62
(dp2570
sg71
g2555
sg64
(lp2571
g57
(g58
g59
NtRp2572
(dp2573
g62
(dp2574
g70
I4
ssg71
g2568
sg64
(lp2575
S'computer science'
p2576
asbasbasbasbasbasbasbag57
(g73
g59
NtRp2577
(dp2578
g62
(dp2579
sg71
g67
sg64
(lp2580
g57
(g78
g59
NtRp2581
(dp2582
g62
(dp2583
g82
g83
ssg71
g2577
sg64
(lp2584
S'raw_args'
p2585
asbag57
(g78
g59
NtRp2586
(dp2587
g62
(dp2588
g89
g90
ssg71
g2577
sg64
(lp2589
S':'
asbag57
(g78
g59
NtRp2590
(dp2591
g62
(dp2592
sg71
g2577
sg64
(lp2593
g57
(g58
g59
NtRp2594
(dp2595
g62
(dp2596
g70
I5
ssg71
g2590
sg64
(lp2597
S''
asbasbasbag57
(g73
g59
NtRp2598
(dp2599
g62
(dp2600
sg71
g67
sg64
(lp2601
g57
(g78
g59
NtRp2602
(dp2603
g62
(dp2604
g82
g83
ssg71
g2598
sg64
(lp2605
S'raw_extension'
p2606
asbag57
(g78
g59
NtRp2607
(dp2608
g62
(dp2609
g89
g90
ssg71
g2598
sg64
(lp2610
S':'
asbag57
(g78
g59
NtRp2611
(dp2612
g62
(dp2613
sg71
g2598
sg64
(lp2614
g57
(g58
g59
NtRp2615
(dp2616
g62
(dp2617
g70
I5
ssg71
g2611
sg64
(lp2618
S'None'
p2619
asbasbasbag57
(g73
g59
NtRp2620
(dp2621
g62
(dp2622
sg71
g67
sg64
(lp2623
g57
(g78
g59
NtRp2624
(dp2625
g62
(dp2626
g82
g83
ssg71
g2620
sg64
(lp2627
S'url'
p2628
asbag57
(g78
g59
NtRp2629
(dp2630
g62
(dp2631
g89
g90
ssg71
g2620
sg64
(lp2632
S':'
asbag57
(g78
g59
NtRp2633
(dp2634
g62
(dp2635
sg71
g2620
sg64
(lp2636
g57
(g58
g59
NtRp2637
(dp2638
g62
(dp2639
g70
I5
ssg71
g2633
sg64
(lp2640
g1435
asbasbasbag57
(g73
g59
NtRp2641
(dp2642
g62
(dp2643
sg71
g67
sg64
(lp2644
g57
(g78
g59
NtRp2645
(dp2646
g62
(dp2647
g82
g83
ssg71
g2641
sg64
(lp2648
S'utcnow'
p2649
asbag57
(g78
g59
NtRp2650
(dp2651
g62
(dp2652
g89
g90
ssg71
g2641
sg64
(lp2653
S':'
asbag57
(g78
g59
NtRp2654
(dp2655
g62
(dp2656
sg71
g2641
sg64
(lp2657
g57
(g58
g59
NtRp2658
(dp2659
g62
(dp2660
g70
I5
ssg71
g2654
sg64
(lp2661
S'datetime.datetime(2013, 8, 26, 8, 24, 45, 923164)'
p2662
asbasbasbag57
(g73
g59
NtRp2663
(dp2664
g62
(dp2665
sg71
g67
sg64
(lp2666
g57
(g78
g59
NtRp2667
(dp2668
g62
(dp2669
g82
g83
ssg71
g2663
sg64
(lp2670
S'uuid'
p2671
asbag57
(g78
g59
NtRp2672
(dp2673
g62
(dp2674
g89
g90
ssg71
g2663
sg64
(lp2675
S':'
asbag57
(g78
g59
NtRp2676
(dp2677
g62
(dp2678
sg71
g2663
sg64
(lp2679
g57
(g58
g59
NtRp2680
(dp2681
g62
(dp2682
g70
I5
ssg71
g2676
sg64
(lp2683
S'assignment2/127.0.0.1.2013-08-26.13-54-45.a6ff3d3e-72bc-4897-a8f6-d8e0f569c932'
p2684
asbasbasbag57
(g73
g59
NtRp2685
(dp2686
g62
(dp2687
sg71
g67
sg64
(lp2688
g57
(g78
g59
NtRp2689
(dp2690
g62
(dp2691
g82
g83
ssg71
g2685
sg64
(lp2692
S'vars'
p2693
asbag57
(g78
g59
NtRp2694
(dp2695
g62
(dp2696
g89
g90
ssg71
g2685
sg64
(lp2697
S':'
asbag57
(g78
g59
NtRp2698
(dp2699
g62
(dp2700
sg71
g2685
sg64
(lp2701
g57
(g58
g59
NtRp2702
(dp2703
g62
(dp2704
g70
I5
ssg71
g2698
sg64
(lp2705
g57
(g66
g59
NtRp2706
(dp2707
g62
(dp2708
g70
I4
ssg71
Nsg64
(lp2709
g57
(g73
g59
NtRp2710
(dp2711
g62
(dp2712
sg71
g2706
sg64
(lp2713
g57
(g78
g59
NtRp2714
(dp2715
g62
(dp2716
g82
g83
ssg71
g2710
sg64
(lp2717
g2563
asbag57
(g78
g59
NtRp2718
(dp2719
g62
(dp2720
g89
g90
ssg71
g2710
sg64
(lp2721
S':'
asbag57
(g78
g59
NtRp2722
(dp2723
g62
(dp2724
sg71
g2710
sg64
(lp2725
g57
(g58
g59
NtRp2726
(dp2727
g62
(dp2728
g70
I4
ssg71
g2722
sg64
(lp2729
g2576
asbasbasbasbasbasbasbag57
(g73
g59
NtRp2730
(dp2731
g62
(dp2732
sg71
g67
sg64
(lp2733
g57
(g78
g59
NtRp2734
(dp2735
g62
(dp2736
g82
g83
ssg71
g2730
sg64
(lp2737
S'wsgi'
p2738
asbag57
(g78
g59
NtRp2739
(dp2740
g62
(dp2741
g89
g90
ssg71
g2730
sg64
(lp2742
S':'
asbag57
(g78
g59
NtRp2743
(dp2744
g62
(dp2745
sg71
g2730
sg64
(lp2746
g57
(g58
g59
NtRp2747
(dp2748
g62
(dp2749
g70
I5
ssg71
g2743
sg64
(lp2750
g57
(g66
g59
NtRp2751
(dp2752
g62
(dp2753
g70
I4
ssg71
Nsg64
(lp2754
g57
(g73
g59
NtRp2755
(dp2756
g62
(dp2757
sg71
g2751
sg64
(lp2758
g57
(g78
g59
NtRp2759
(dp2760
g62
(dp2761
g82
g83
ssg71
g2755
sg64
(lp2762
S'environ'
p2763
asbag57
(g78
g59
NtRp2764
(dp2765
g62
(dp2766
g89
g90
ssg71
g2755
sg64
(lp2767
S':'
asbag57
(g78
g59
NtRp2768
(dp2769
g62
(dp2770
sg71
g2755
sg64
(lp2771
g57
(g58
g59
NtRp2772
(dp2773
g62
(dp2774
g70
I4
ssg71
g2768
sg64
(lp2775
g57
(g66
g59
NtRp2776
(dp2777
g62
(dp2778
g70
I3
ssg71
Nsg64
(lp2779
g57
(g73
g59
NtRp2780
(dp2781
g62
(dp2782
sg71
g2776
sg64
(lp2783
g57
(g78
g59
NtRp2784
(dp2785
g62
(dp2786
g82
g83
ssg71
g2780
sg64
(lp2787
S'CONTENT_LENGTH'
p2788
asbag57
(g78
g59
NtRp2789
(dp2790
g62
(dp2791
g89
g90
ssg71
g2780
sg64
(lp2792
S':'
asbag57
(g78
g59
NtRp2793
(dp2794
g62
(dp2795
sg71
g2780
sg64
(lp2796
g57
(g58
g59
NtRp2797
(dp2798
g62
(dp2799
g70
I3
ssg71
g2793
sg64
(lp2800
g963
asbasbasbag57
(g73
g59
NtRp2801
(dp2802
g62
(dp2803
sg71
g2776
sg64
(lp2804
g57
(g78
g59
NtRp2805
(dp2806
g62
(dp2807
g82
g83
ssg71
g2801
sg64
(lp2808
S'CONTENT_TYPE'
p2809
asbag57
(g78
g59
NtRp2810
(dp2811
g62
(dp2812
g89
g90
ssg71
g2801
sg64
(lp2813
S':'
asbag57
(g78
g59
NtRp2814
(dp2815
g62
(dp2816
sg71
g2801
sg64
(lp2817
g57
(g58
g59
NtRp2818
(dp2819
g62
(dp2820
g70
I3
ssg71
g2814
sg64
(lp2821
g985
asbasbasbag57
(g73
g59
NtRp2822
(dp2823
g62
(dp2824
sg71
g2776
sg64
(lp2825
g57
(g78
g59
NtRp2826
(dp2827
g62
(dp2828
g82
g83
ssg71
g2822
sg64
(lp2829
S'HTTP_ACCEPT'
p2830
asbag57
(g78
g59
NtRp2831
(dp2832
g62
(dp2833
g89
g90
ssg71
g2822
sg64
(lp2834
S':'
asbag57
(g78
g59
NtRp2835
(dp2836
g62
(dp2837
sg71
g2822
sg64
(lp2838
g57
(g58
g59
NtRp2839
(dp2840
g62
(dp2841
g70
I3
ssg71
g2835
sg64
(lp2842
g1072
asbasbasbag57
(g73
g59
NtRp2843
(dp2844
g62
(dp2845
sg71
g2776
sg64
(lp2846
g57
(g78
g59
NtRp2847
(dp2848
g62
(dp2849
g82
g83
ssg71
g2843
sg64
(lp2850
S'HTTP_ACCEPT_ENCODING'
p2851
asbag57
(g78
g59
NtRp2852
(dp2853
g62
(dp2854
g89
g90
ssg71
g2843
sg64
(lp2855
S':'
asbag57
(g78
g59
NtRp2856
(dp2857
g62
(dp2858
sg71
g2843
sg64
(lp2859
g57
(g58
g59
NtRp2860
(dp2861
g62
(dp2862
g70
I3
ssg71
g2856
sg64
(lp2863
g1094
asbasbasbag57
(g73
g59
NtRp2864
(dp2865
g62
(dp2866
sg71
g2776
sg64
(lp2867
g57
(g78
g59
NtRp2868
(dp2869
g62
(dp2870
g82
g83
ssg71
g2864
sg64
(lp2871
S'HTTP_ACCEPT_LANGUAGE'
p2872
asbag57
(g78
g59
NtRp2873
(dp2874
g62
(dp2875
g89
g90
ssg71
g2864
sg64
(lp2876
S':'
asbag57
(g78
g59
NtRp2877
(dp2878
g62
(dp2879
sg71
g2864
sg64
(lp2880
g57
(g58
g59
NtRp2881
(dp2882
g62
(dp2883
g70
I3
ssg71
g2877
sg64
(lp2884
g1116
asbasbasbag57
(g73
g59
NtRp2885
(dp2886
g62
(dp2887
sg71
g2776
sg64
(lp2888
g57
(g78
g59
NtRp2889
(dp2890
g62
(dp2891
g82
g83
ssg71
g2885
sg64
(lp2892
S'HTTP_CONNECTION'
p2893
asbag57
(g78
g59
NtRp2894
(dp2895
g62
(dp2896
g89
g90
ssg71
g2885
sg64
(lp2897
S':'
asbag57
(g78
g59
NtRp2898
(dp2899
g62
(dp2900
sg71
g2885
sg64
(lp2901
g57
(g58
g59
NtRp2902
(dp2903
g62
(dp2904
g70
I3
ssg71
g2898
sg64
(lp2905
g1138
asbasbasbag57
(g73
g59
NtRp2906
(dp2907
g62
(dp2908
sg71
g2776
sg64
(lp2909
g57
(g78
g59
NtRp2910
(dp2911
g62
(dp2912
g82
g83
ssg71
g2906
sg64
(lp2913
S'HTTP_CONTENT_LENGTH'
p2914
asbag57
(g78
g59
NtRp2915
(dp2916
g62
(dp2917
g89
g90
ssg71
g2906
sg64
(lp2918
S':'
asbag57
(g78
g59
NtRp2919
(dp2920
g62
(dp2921
sg71
g2906
sg64
(lp2922
g57
(g58
g59
NtRp2923
(dp2924
g62
(dp2925
g70
I3
ssg71
g2919
sg64
(lp2926
g963
asbasbasbag57
(g73
g59
NtRp2927
(dp2928
g62
(dp2929
sg71
g2776
sg64
(lp2930
g57
(g78
g59
NtRp2931
(dp2932
g62
(dp2933
g82
g83
ssg71
g2927
sg64
(lp2934
S'HTTP_CONTENT_TYPE'
p2935
asbag57
(g78
g59
NtRp2936
(dp2937
g62
(dp2938
g89
g90
ssg71
g2927
sg64
(lp2939
S':'
asbag57
(g78
g59
NtRp2940
(dp2941
g62
(dp2942
sg71
g2927
sg64
(lp2943
g57
(g58
g59
NtRp2944
(dp2945
g62
(dp2946
g70
I3
ssg71
g2940
sg64
(lp2947
g985
asbasbasbag57
(g73
g59
NtRp2948
(dp2949
g62
(dp2950
sg71
g2776
sg64
(lp2951
g57
(g78
g59
NtRp2952
(dp2953
g62
(dp2954
g82
g83
ssg71
g2948
sg64
(lp2955
S'HTTP_COOKIE'
p2956
asbag57
(g78
g59
NtRp2957
(dp2958
g62
(dp2959
g89
g90
ssg71
g2948
sg64
(lp2960
S':'
asbag57
(g78
g59
NtRp2961
(dp2962
g62
(dp2963
sg71
g2948
sg64
(lp2964
g57
(g58
g59
NtRp2965
(dp2966
g62
(dp2967
g70
I3
ssg71
g2961
sg64
(lp2968
g1202
asbasbasbag57
(g73
g59
NtRp2969
(dp2970
g62
(dp2971
sg71
g2776
sg64
(lp2972
g57
(g78
g59
NtRp2973
(dp2974
g62
(dp2975
g82
g83
ssg71
g2969
sg64
(lp2976
S'HTTP_HOST'
p2977
asbag57
(g78
g59
NtRp2978
(dp2979
g62
(dp2980
g89
g90
ssg71
g2969
sg64
(lp2981
S':'
asbag57
(g78
g59
NtRp2982
(dp2983
g62
(dp2984
sg71
g2969
sg64
(lp2985
g57
(g58
g59
NtRp2986
(dp2987
g62
(dp2988
g70
I3
ssg71
g2982
sg64
(lp2989
g1224
asbasbasbag57
(g73
g59
NtRp2990
(dp2991
g62
(dp2992
sg71
g2776
sg64
(lp2993
g57
(g78
g59
NtRp2994
(dp2995
g62
(dp2996
g82
g83
ssg71
g2990
sg64
(lp2997
S'HTTP_REFERER'
p2998
asbag57
(g78
g59
NtRp2999
(dp3000
g62
(dp3001
g89
g90
ssg71
g2990
sg64
(lp3002
S':'
asbag57
(g78
g59
NtRp3003
(dp3004
g62
(dp3005
sg71
g2990
sg64
(lp3006
g57
(g58
g59
NtRp3007
(dp3008
g62
(dp3009
g70
I3
ssg71
g3003
sg64
(lp3010
g1246
asbasbasbag57
(g73
g59
NtRp3011
(dp3012
g62
(dp3013
sg71
g2776
sg64
(lp3014
g57
(g78
g59
NtRp3015
(dp3016
g62
(dp3017
g82
g83
ssg71
g3011
sg64
(lp3018
S'HTTP_USER_AGENT'
p3019
asbag57
(g78
g59
NtRp3020
(dp3021
g62
(dp3022
g89
g90
ssg71
g3011
sg64
(lp3023
S':'
asbag57
(g78
g59
NtRp3024
(dp3025
g62
(dp3026
sg71
g3011
sg64
(lp3027
g57
(g58
g59
NtRp3028
(dp3029
g62
(dp3030
g70
I3
ssg71
g3024
sg64
(lp3031
g1268
asbasbasbag57
(g73
g59
NtRp3032
(dp3033
g62
(dp3034
sg71
g2776
sg64
(lp3035
g57
(g78
g59
NtRp3036
(dp3037
g62
(dp3038
g82
g83
ssg71
g3032
sg64
(lp3039
S'PATH_INFO'
p3040
asbag57
(g78
g59
NtRp3041
(dp3042
g62
(dp3043
g89
g90
ssg71
g3032
sg64
(lp3044
S':'
asbag57
(g78
g59
NtRp3045
(dp3046
g62
(dp3047
sg71
g3032
sg64
(lp3048
g57
(g58
g59
NtRp3049
(dp3050
g62
(dp3051
g70
I3
ssg71
g3045
sg64
(lp3052
g1435
asbasbasbag57
(g73
g59
NtRp3053
(dp3054
g62
(dp3055
sg71
g2776
sg64
(lp3056
g57
(g78
g59
NtRp3057
(dp3058
g62
(dp3059
g82
g83
ssg71
g3053
sg64
(lp3060
S'QUERY_STRING'
p3061
asbag57
(g78
g59
NtRp3062
(dp3063
g62
(dp3064
g89
g90
ssg71
g3053
sg64
(lp3065
S':'
asbag57
(g78
g59
NtRp3066
(dp3067
g62
(dp3068
sg71
g3053
sg64
(lp3069
g57
(g58
g59
NtRp3070
(dp3071
g62
(dp3072
g70
I3
ssg71
g3066
sg64
(lp3073
S''
asbasbasbag57
(g73
g59
NtRp3074
(dp3075
g62
(dp3076
sg71
g2776
sg64
(lp3077
g57
(g78
g59
NtRp3078
(dp3079
g62
(dp3080
g82
g83
ssg71
g3074
sg64
(lp3081
S'REMOTE_ADDR'
p3082
asbag57
(g78
g59
NtRp3083
(dp3084
g62
(dp3085
g89
g90
ssg71
g3074
sg64
(lp3086
S':'
asbag57
(g78
g59
NtRp3087
(dp3088
g62
(dp3089
sg71
g3074
sg64
(lp3090
g57
(g58
g59
NtRp3091
(dp3092
g62
(dp3093
g70
I3
ssg71
g3087
sg64
(lp3094
g212
asbasbasbag57
(g73
g59
NtRp3095
(dp3096
g62
(dp3097
sg71
g2776
sg64
(lp3098
g57
(g78
g59
NtRp3099
(dp3100
g62
(dp3101
g82
g83
ssg71
g3095
sg64
(lp3102
S'REMOTE_PORT'
p3103
asbag57
(g78
g59
NtRp3104
(dp3105
g62
(dp3106
g89
g90
ssg71
g3095
sg64
(lp3107
S':'
asbag57
(g78
g59
NtRp3108
(dp3109
g62
(dp3110
sg71
g3095
sg64
(lp3111
g57
(g58
g59
NtRp3112
(dp3113
g62
(dp3114
g70
I3
ssg71
g3108
sg64
(lp3115
g1499
asbasbasbag57
(g73
g59
NtRp3116
(dp3117
g62
(dp3118
sg71
g2776
sg64
(lp3119
g57
(g78
g59
NtRp3120
(dp3121
g62
(dp3122
g82
g83
ssg71
g3116
sg64
(lp3123
S'REQUEST_METHOD'
p3124
asbag57
(g78
g59
NtRp3125
(dp3126
g62
(dp3127
g89
g90
ssg71
g3116
sg64
(lp3128
S':'
asbag57
(g78
g59
NtRp3129
(dp3130
g62
(dp3131
sg71
g3116
sg64
(lp3132
g57
(g58
g59
NtRp3133
(dp3134
g62
(dp3135
g70
I3
ssg71
g3129
sg64
(lp3136
g1521
asbasbasbag57
(g73
g59
NtRp3137
(dp3138
g62
(dp3139
sg71
g2776
sg64
(lp3140
g57
(g78
g59
NtRp3141
(dp3142
g62
(dp3143
g82
g83
ssg71
g3137
sg64
(lp3144
S'REQUEST_URI'
p3145
asbag57
(g78
g59
NtRp3146
(dp3147
g62
(dp3148
g89
g90
ssg71
g3137
sg64
(lp3149
S':'
asbag57
(g78
g59
NtRp3150
(dp3151
g62
(dp3152
sg71
g3137
sg64
(lp3153
g57
(g58
g59
NtRp3154
(dp3155
g62
(dp3156
g70
I3
ssg71
g3150
sg64
(lp3157
g1435
asbasbasbag57
(g73
g59
NtRp3158
(dp3159
g62
(dp3160
sg71
g2776
sg64
(lp3161
g57
(g78
g59
NtRp3162
(dp3163
g62
(dp3164
g82
g83
ssg71
g3158
sg64
(lp3165
S'SCRIPT_NAME'
p3166
asbag57
(g78
g59
NtRp3167
(dp3168
g62
(dp3169
g89
g90
ssg71
g3158
sg64
(lp3170
S':'
asbag57
(g78
g59
NtRp3171
(dp3172
g62
(dp3173
sg71
g3158
sg64
(lp3174
g57
(g58
g59
NtRp3175
(dp3176
g62
(dp3177
g70
I3
ssg71
g3171
sg64
(lp3178
S''
asbasbasbag57
(g73
g59
NtRp3179
(dp3180
g62
(dp3181
sg71
g2776
sg64
(lp3182
g57
(g78
g59
NtRp3183
(dp3184
g62
(dp3185
g82
g83
ssg71
g3179
sg64
(lp3186
S'SERVER_NAME'
p3187
asbag57
(g78
g59
NtRp3188
(dp3189
g62
(dp3190
g89
g90
ssg71
g3179
sg64
(lp3191
S':'
asbag57
(g78
g59
NtRp3192
(dp3193
g62
(dp3194
sg71
g3179
sg64
(lp3195
g57
(g58
g59
NtRp3196
(dp3197
g62
(dp3198
g70
I3
ssg71
g3192
sg64
(lp3199
g1585
asbasbasbag57
(g73
g59
NtRp3200
(dp3201
g62
(dp3202
sg71
g2776
sg64
(lp3203
g57
(g78
g59
NtRp3204
(dp3205
g62
(dp3206
g82
g83
ssg71
g3200
sg64
(lp3207
S'SERVER_PORT'
p3208
asbag57
(g78
g59
NtRp3209
(dp3210
g62
(dp3211
g89
g90
ssg71
g3200
sg64
(lp3212
S':'
asbag57
(g78
g59
NtRp3213
(dp3214
g62
(dp3215
sg71
g3200
sg64
(lp3216
g57
(g58
g59
NtRp3217
(dp3218
g62
(dp3219
g70
I3
ssg71
g3213
sg64
(lp3220
g1607
asbasbasbag57
(g73
g59
NtRp3221
(dp3222
g62
(dp3223
sg71
g2776
sg64
(lp3224
g57
(g78
g59
NtRp3225
(dp3226
g62
(dp3227
g82
g83
ssg71
g3221
sg64
(lp3228
S'SERVER_PROTOCOL'
p3229
asbag57
(g78
g59
NtRp3230
(dp3231
g62
(dp3232
g89
g90
ssg71
g3221
sg64
(lp3233
S':'
asbag57
(g78
g59
NtRp3234
(dp3235
g62
(dp3236
sg71
g3221
sg64
(lp3237
g57
(g58
g59
NtRp3238
(dp3239
g62
(dp3240
g70
I3
ssg71
g3234
sg64
(lp3241
g1629
asbasbasbag57
(g73
g59
NtRp3242
(dp3243
g62
(dp3244
sg71
g2776
sg64
(lp3245
g57
(g78
g59
NtRp3246
(dp3247
g62
(dp3248
g82
g83
ssg71
g3242
sg64
(lp3249
S'SERVER_SOFTWARE'
p3250
asbag57
(g78
g59
NtRp3251
(dp3252
g62
(dp3253
g89
g90
ssg71
g3242
sg64
(lp3254
S':'
asbag57
(g78
g59
NtRp3255
(dp3256
g62
(dp3257
sg71
g3242
sg64
(lp3258
g57
(g58
g59
NtRp3259
(dp3260
g62
(dp3261
g70
I3
ssg71
g3255
sg64
(lp3262
g1651
asbasbasbag57
(g73
g59
NtRp3263
(dp3264
g62
(dp3265
sg71
g2776
sg64
(lp3266
g57
(g78
g59
NtRp3267
(dp3268
g62
(dp3269
g82
g83
ssg71
g3263
sg64
(lp3270
S'wsgi.errors'
p3271
asbag57
(g78
g59
NtRp3272
(dp3273
g62
(dp3274
g89
g90
ssg71
g3263
sg64
(lp3275
S':'
asbag57
(g78
g59
NtRp3276
(dp3277
g62
(dp3278
sg71
g3263
sg64
(lp3279
g57
(g58
g59
NtRp3280
(dp3281
g62
(dp3282
g70
I3
ssg71
g3276
sg64
(lp3283
S"<open file '<stderr>', mode 'w' at 0xb72be0d0>"
p3284
asbasbasbag57
(g73
g59
NtRp3285
(dp3286
g62
(dp3287
sg71
g2776
sg64
(lp3288
g57
(g78
g59
NtRp3289
(dp3290
g62
(dp3291
g82
g83
ssg71
g3285
sg64
(lp3292
S'wsgi.file_wrapper'
p3293
asbag57
(g78
g59
NtRp3294
(dp3295
g62
(dp3296
g89
g90
ssg71
g3285
sg64
(lp3297
S':'
asbag57
(g78
g59
NtRp3298
(dp3299
g62
(dp3300
sg71
g3285
sg64
(lp3301
g57
(g58
g59
NtRp3302
(dp3303
g62
(dp3304
g70
I3
ssg71
g3298
sg64
(lp3305
S'<class wsgiref.util.FileWrapper at 0x9faa65c>'
p3306
asbasbasbag57
(g73
g59
NtRp3307
(dp3308
g62
(dp3309
sg71
g2776
sg64
(lp3310
g57
(g78
g59
NtRp3311
(dp3312
g62
(dp3313
g82
g83
ssg71
g3307
sg64
(lp3314
S'wsgi.input'
p3315
asbag57
(g78
g59
NtRp3316
(dp3317
g62
(dp3318
g89
g90
ssg71
g3307
sg64
(lp3319
S':'
asbag57
(g78
g59
NtRp3320
(dp3321
g62
(dp3322
sg71
g3307
sg64
(lp3323
g57
(g58
g59
NtRp3324
(dp3325
g62
(dp3326
g70
I3
ssg71
g3320
sg64
(lp3327
S"<open file '<fdopen>', mode 'w+b' at 0xa5b7128>"
p3328
asbasbasbag57
(g73
g59
NtRp3329
(dp3330
g62
(dp3331
sg71
g2776
sg64
(lp3332
g57
(g78
g59
NtRp3333
(dp3334
g62
(dp3335
g82
g83
ssg71
g3329
sg64
(lp3336
S'wsgi.multiprocess'
p3337
asbag57
(g78
g59
NtRp3338
(dp3339
g62
(dp3340
g89
g90
ssg71
g3329
sg64
(lp3341
S':'
asbag57
(g78
g59
NtRp3342
(dp3343
g62
(dp3344
sg71
g3329
sg64
(lp3345
g57
(g58
g59
NtRp3346
(dp3347
g62
(dp3348
g70
I3
ssg71
g3342
sg64
(lp3349
g100
asbasbasbag57
(g73
g59
NtRp3350
(dp3351
g62
(dp3352
sg71
g2776
sg64
(lp3353
g57
(g78
g59
NtRp3354
(dp3355
g62
(dp3356
g82
g83
ssg71
g3350
sg64
(lp3357
S'wsgi.multithread'
p3358
asbag57
(g78
g59
NtRp3359
(dp3360
g62
(dp3361
g89
g90
ssg71
g3350
sg64
(lp3362
S':'
asbag57
(g78
g59
NtRp3363
(dp3364
g62
(dp3365
sg71
g3350
sg64
(lp3366
g57
(g58
g59
NtRp3367
(dp3368
g62
(dp3369
g70
I3
ssg71
g3363
sg64
(lp3370
g1868
asbasbasbag57
(g73
g59
NtRp3371
(dp3372
g62
(dp3373
sg71
g2776
sg64
(lp3374
g57
(g78
g59
NtRp3375
(dp3376
g62
(dp3377
g82
g83
ssg71
g3371
sg64
(lp3378
S'wsgi.run_once'
p3379
asbag57
(g78
g59
NtRp3380
(dp3381
g62
(dp3382
g89
g90
ssg71
g3371
sg64
(lp3383
S':'
asbag57
(g78
g59
NtRp3384
(dp3385
g62
(dp3386
sg71
g3371
sg64
(lp3387
g57
(g58
g59
NtRp3388
(dp3389
g62
(dp3390
g70
I3
ssg71
g3384
sg64
(lp3391
g100
asbasbasbag57
(g73
g59
NtRp3392
(dp3393
g62
(dp3394
sg71
g2776
sg64
(lp3395
g57
(g78
g59
NtRp3396
(dp3397
g62
(dp3398
g82
g83
ssg71
g3392
sg64
(lp3399
S'wsgi.url_scheme'
p3400
asbag57
(g78
g59
NtRp3401
(dp3402
g62
(dp3403
g89
g90
ssg71
g3392
sg64
(lp3404
S':'
asbag57
(g78
g59
NtRp3405
(dp3406
g62
(dp3407
sg71
g3392
sg64
(lp3408
g57
(g58
g59
NtRp3409
(dp3410
g62
(dp3411
g70
I3
ssg71
g3405
sg64
(lp3412
g1911
asbasbasbag57
(g73
g59
NtRp3413
(dp3414
g62
(dp3415
sg71
g2776
sg64
(lp3416
g57
(g78
g59
NtRp3417
(dp3418
g62
(dp3419
g82
g83
ssg71
g3413
sg64
(lp3420
S'wsgi.version'
p3421
asbag57
(g78
g59
NtRp3422
(dp3423
g62
(dp3424
g89
g90
ssg71
g3413
sg64
(lp3425
S':'
asbag57
(g78
g59
NtRp3426
(dp3427
g62
(dp3428
sg71
g3413
sg64
(lp3429
g57
(g58
g59
NtRp3430
(dp3431
g62
(dp3432
g70
I3
ssg71
g3426
sg64
(lp3433
S'1'
asbasbasbasbasbasbasbasbasbasbasbasbasbsS'frames'
p3434
(lp3435
(dp3436
S'file'
p3437
S'/home/aditi/Desktop/web2py/gluon/restricted.py'
p3438
sS'dump'
p3439
(dp3440
S'environment'
p3441
S"{'A': <class 'gluon.html.A'>, 'Auth': <class 'gluon.tools.Auth'>, 'B': <class 'gluon.html.B'>, 'BEAUTIFY': <class 'gluon.html.BEAUTIFY'>, 'BODY': <class 'gluon.html.BODY'>, 'BR': <class 'gluon.html.BR'>, 'BUTTON': <class 'gluon.html.BUTTON'>, 'CAT': <class 'gluon.html.CAT'>, 'CENTER': <class 'gluon.html.CENTER'>, 'CLEANUP': <class 'gluon.validators.CLEANUP'>, ...}"
p3442
sS'ccode'
p3443
S'<code object <module> at 0xac9b92a8, file "/home...ment2/views/default/admin_homepage.html", line 1>'
p3444
ssS'lnum'
p3445
I212
sS'lines'
p3446
(dp3447
I207
S'    try:'
p3448
sI208
S'        if isinstance(code, types.CodeType):'
p3449
sI209
S'            ccode = code'
p3450
sI210
S'        else:'
p3451
sI211
S'            ccode = compile2(code, layer)'
p3452
sI212
S'        exec ccode in environment'
p3453
sI213
S'    except HTTP:'
p3454
sI214
S'        raise'
p3455
sI215
S'    except RestrictedError:'
p3456
sI216
S'        # do not encapsulate (obfuscate) the original RestrictedError'
p3457
ssS'call'
p3458
S'(code=\'response.write(\\\'<!DOCTYPE html>\\\\n<!-- paulirish...."></script>\\\\n</body>\\\\n</html>\\\\n\\\\n\\\', escape=False)\', environment={\'A\': <class \'gluon.html.A\'>, \'Auth\': <class \'gluon.tools.Auth\'>, \'B\': <class \'gluon.html.B\'>, \'BEAUTIFY\': <class \'gluon.html.BEAUTIFY\'>, \'BODY\': <class \'gluon.html.BODY\'>, \'BR\': <class \'gluon.html.BR\'>, \'BUTTON\': <class \'gluon.html.BUTTON\'>, \'CAT\': <class \'gluon.html.CAT\'>, \'CENTER\': <class \'gluon.html.CENTER\'>, \'CLEANUP\': <class \'gluon.validators.CLEANUP\'>, ...}, layer=\'/home/aditi/Desktop/web2py/applications/assignment2/views/default/admin_homepage.html\')'
p3459
sS'func'
p3460
S'restricted'
p3461
sa(dp3462
g3437
S'/home/aditi/Desktop/web2py/applications/assignment2/views/default/admin_homepage.html'
p3463
sg3439
(dp3464
sg3445
I93
sg3446
(dp3465
I96
S"            response.write('\\n\\t\\t\\t', escape=False)"
p3466
sI97
S"            print x+'.',"
p3467
sI98
S"            response.write('\\n\\t\\t\\t', escape=False)"
p3468
sI99
S"            print n[j]['heading'],"
p3469
sI100
S"            response.write('\\n\\t\\t\\t', escape=False)"
p3470
sI101
S'            response.write(form2)'
p3471
sI102
S"            response.write('\\n\\t\\t\\t', escape=False)"
p3472
sI103
S'            x+=1'
p3473
sI84
S"response.write('!</h1>\\n<h3>Add a new category</h3>\\n', escape=False)"
p3474
sI85
S'response.write(form1)'
p3475
sI86
S"response.write('\\n<h2>Current news items:</h2>\\n', escape=False)"
p3476
sI87
S'x=1'
p3477
sI88
S"response.write('\\n', escape=False)"
p3478
sI89
S'for i in range(len(c)):'
p3479
sI90
S"    response.write('\\n\\t<h3>', escape=False)"
p3480
sI91
S"    response.write(c[i]['name'])"
p3481
sI92
S"    response.write('</h3>\\n\\t', escape=False)"
p3482
sI93
S'    for j in range(total):'
p3483
sI94
S"        response.write('\\n\\t\\t', escape=False)"
p3484
sI95
S"        if n[j]['category']==c[i]['name']:"
p3485
ssg3458
S'()'
p3486
sg3460
S'<module>'
p3487
sasS'pyver'
p3488
S'Python 2.7.3: /usr/bin/python'
p3489
sS'session'
p3490
g57
(g58
g59
NtRp3491
(dp3492
g62
(dp3493
sg64
(lp3494
g57
(g66
g59
NtRp3495
(dp3496
g62
(dp3497
g70
I5
ssg71
Nsg64
(lp3498
g57
(g73
g59
NtRp3499
(dp3500
g62
(dp3501
sg71
g3495
sg64
(lp3502
g57
(g78
g59
NtRp3503
(dp3504
g62
(dp3505
g82
g83
ssg71
g3499
sg64
(lp3506
S'auth'
p3507
asbag57
(g78
g59
NtRp3508
(dp3509
g62
(dp3510
g89
g90
ssg71
g3499
sg64
(lp3511
S':'
asbag57
(g78
g59
NtRp3512
(dp3513
g62
(dp3514
sg71
g3499
sg64
(lp3515
g57
(g58
g59
NtRp3516
(dp3517
g62
(dp3518
g70
I5
ssg71
g3512
sg64
(lp3519
g57
(g66
g59
NtRp3520
(dp3521
g62
(dp3522
g70
I4
ssg71
Nsg64
(lp3523
g57
(g73
g59
NtRp3524
(dp3525
g62
(dp3526
sg71
g3520
sg64
(lp3527
g57
(g78
g59
NtRp3528
(dp3529
g62
(dp3530
g82
g83
ssg71
g3524
sg64
(lp3531
S'expiration'
p3532
asbag57
(g78
g59
NtRp3533
(dp3534
g62
(dp3535
g89
g90
ssg71
g3524
sg64
(lp3536
S':'
asbag57
(g78
g59
NtRp3537
(dp3538
g62
(dp3539
sg71
g3524
sg64
(lp3540
g57
(g58
g59
NtRp3541
(dp3542
g62
(dp3543
g70
I4
ssg71
g3537
sg64
(lp3544
S'3600'
p3545
asbasbasbag57
(g73
g59
NtRp3546
(dp3547
g62
(dp3548
sg71
g3520
sg64
(lp3549
g57
(g78
g59
NtRp3550
(dp3551
g62
(dp3552
g82
g83
ssg71
g3546
sg64
(lp3553
S'hmac_key'
p3554
asbag57
(g78
g59
NtRp3555
(dp3556
g62
(dp3557
g89
g90
ssg71
g3546
sg64
(lp3558
S':'
asbag57
(g78
g59
NtRp3559
(dp3560
g62
(dp3561
sg71
g3546
sg64
(lp3562
g57
(g58
g59
NtRp3563
(dp3564
g62
(dp3565
g70
I4
ssg71
g3559
sg64
(lp3566
S'537653de-0301-4aef-a8b3-7737df6f28b6'
p3567
asbasbasbag57
(g73
g59
NtRp3568
(dp3569
g62
(dp3570
sg71
g3520
sg64
(lp3571
g57
(g78
g59
NtRp3572
(dp3573
g62
(dp3574
g82
g83
ssg71
g3568
sg64
(lp3575
S'last_visit'
p3576
asbag57
(g78
g59
NtRp3577
(dp3578
g62
(dp3579
g89
g90
ssg71
g3568
sg64
(lp3580
S':'
asbag57
(g78
g59
NtRp3581
(dp3582
g62
(dp3583
sg71
g3568
sg64
(lp3584
g57
(g58
g59
NtRp3585
(dp3586
g62
(dp3587
g70
I4
ssg71
g3581
sg64
(lp3588
S'datetime.datetime(2013, 8, 26, 13, 52, 50, 68991)'
p3589
asbasbasbag57
(g73
g59
NtRp3590
(dp3591
g62
(dp3592
sg71
g3520
sg64
(lp3593
g57
(g78
g59
NtRp3594
(dp3595
g62
(dp3596
g82
g83
ssg71
g3590
sg64
(lp3597
S'remember'
p3598
asbag57
(g78
g59
NtRp3599
(dp3600
g62
(dp3601
g89
g90
ssg71
g3590
sg64
(lp3602
S':'
asbag57
(g78
g59
NtRp3603
(dp3604
g62
(dp3605
sg71
g3590
sg64
(lp3606
g57
(g58
g59
NtRp3607
(dp3608
g62
(dp3609
g70
I4
ssg71
g3603
sg64
(lp3610
g100
asbasbasbag57
(g73
g59
NtRp3611
(dp3612
g62
(dp3613
sg71
g3520
sg64
(lp3614
g57
(g78
g59
NtRp3615
(dp3616
g62
(dp3617
g82
g83
ssg71
g3611
sg64
(lp3618
S'user'
p3619
asbag57
(g78
g59
NtRp3620
(dp3621
g62
(dp3622
g89
g90
ssg71
g3611
sg64
(lp3623
S':'
asbag57
(g78
g59
NtRp3624
(dp3625
g62
(dp3626
sg71
g3611
sg64
(lp3627
g57
(g58
g59
NtRp3628
(dp3629
g62
(dp3630
g70
I4
ssg71
g3624
sg64
(lp3631
g57
(g66
g59
NtRp3632
(dp3633
g62
(dp3634
g70
I3
ssg71
Nsg64
(lp3635
g57
(g73
g59
NtRp3636
(dp3637
g62
(dp3638
sg71
g3632
sg64
(lp3639
g57
(g78
g59
NtRp3640
(dp3641
g62
(dp3642
g82
g83
ssg71
g3636
sg64
(lp3643
S'account_type'
p3644
asbag57
(g78
g59
NtRp3645
(dp3646
g62
(dp3647
g89
g90
ssg71
g3636
sg64
(lp3648
S':'
asbag57
(g78
g59
NtRp3649
(dp3650
g62
(dp3651
sg71
g3636
sg64
(lp3652
g57
(g58
g59
NtRp3653
(dp3654
g62
(dp3655
g70
I3
ssg71
g3649
sg64
(lp3656
S'admin'
p3657
asbasbasbag57
(g73
g59
NtRp3658
(dp3659
g62
(dp3660
sg71
g3632
sg64
(lp3661
g57
(g78
g59
NtRp3662
(dp3663
g62
(dp3664
g82
g83
ssg71
g3658
sg64
(lp3665
S'alt_email'
p3666
asbag57
(g78
g59
NtRp3667
(dp3668
g62
(dp3669
g89
g90
ssg71
g3658
sg64
(lp3670
S':'
asbag57
(g78
g59
NtRp3671
(dp3672
g62
(dp3673
sg71
g3658
sg64
(lp3674
g57
(g58
g59
NtRp3675
(dp3676
g62
(dp3677
g70
I3
ssg71
g3671
sg64
(lp3678
S'aditi.mavalankar@students.iiit.ac.in'
p3679
asbasbasbag57
(g73
g59
NtRp3680
(dp3681
g62
(dp3682
sg71
g3632
sg64
(lp3683
g57
(g78
g59
NtRp3684
(dp3685
g62
(dp3686
g82
g83
ssg71
g3680
sg64
(lp3687
S'dob'
p3688
asbag57
(g78
g59
NtRp3689
(dp3690
g62
(dp3691
g89
g90
ssg71
g3680
sg64
(lp3692
S':'
asbag57
(g78
g59
NtRp3693
(dp3694
g62
(dp3695
sg71
g3680
sg64
(lp3696
g57
(g58
g59
NtRp3697
(dp3698
g62
(dp3699
g70
I3
ssg71
g3693
sg64
(lp3700
S'datetime.date(1994, 5, 11)'
p3701
asbasbasbag57
(g73
g59
NtRp3702
(dp3703
g62
(dp3704
sg71
g3632
sg64
(lp3705
g57
(g78
g59
NtRp3706
(dp3707
g62
(dp3708
g82
g83
ssg71
g3702
sg64
(lp3709
S'email'
p3710
asbag57
(g78
g59
NtRp3711
(dp3712
g62
(dp3713
g89
g90
ssg71
g3702
sg64
(lp3714
S':'
asbag57
(g78
g59
NtRp3715
(dp3716
g62
(dp3717
sg71
g3702
sg64
(lp3718
g57
(g58
g59
NtRp3719
(dp3720
g62
(dp3721
g70
I3
ssg71
g3715
sg64
(lp3722
S'switch2aditi@gmail.com'
p3723
asbasbasbag57
(g73
g59
NtRp3724
(dp3725
g62
(dp3726
sg71
g3632
sg64
(lp3727
g57
(g78
g59
NtRp3728
(dp3729
g62
(dp3730
g82
g83
ssg71
g3724
sg64
(lp3731
S'first_name'
p3732
asbag57
(g78
g59
NtRp3733
(dp3734
g62
(dp3735
g89
g90
ssg71
g3724
sg64
(lp3736
S':'
asbag57
(g78
g59
NtRp3737
(dp3738
g62
(dp3739
sg71
g3724
sg64
(lp3740
g57
(g58
g59
NtRp3741
(dp3742
g62
(dp3743
g70
I3
ssg71
g3737
sg64
(lp3744
S'aditi'
p3745
asbasbasbag57
(g73
g59
NtRp3746
(dp3747
g62
(dp3748
sg71
g3632
sg64
(lp3749
g57
(g78
g59
NtRp3750
(dp3751
g62
(dp3752
g82
g83
ssg71
g3746
sg64
(lp3753
S'id'
p3754
asbag57
(g78
g59
NtRp3755
(dp3756
g62
(dp3757
g89
g90
ssg71
g3746
sg64
(lp3758
S':'
asbag57
(g78
g59
NtRp3759
(dp3760
g62
(dp3761
sg71
g3746
sg64
(lp3762
g57
(g58
g59
NtRp3763
(dp3764
g62
(dp3765
g70
I3
ssg71
g3759
sg64
(lp3766
S'2'
asbasbasbag57
(g73
g59
NtRp3767
(dp3768
g62
(dp3769
sg71
g3632
sg64
(lp3770
g57
(g78
g59
NtRp3771
(dp3772
g62
(dp3773
g82
g83
ssg71
g3767
sg64
(lp3774
S'last_name'
p3775
asbag57
(g78
g59
NtRp3776
(dp3777
g62
(dp3778
g89
g90
ssg71
g3767
sg64
(lp3779
S':'
asbag57
(g78
g59
NtRp3780
(dp3781
g62
(dp3782
sg71
g3767
sg64
(lp3783
g57
(g58
g59
NtRp3784
(dp3785
g62
(dp3786
g70
I3
ssg71
g3780
sg64
(lp3787
S'mavalankar'
p3788
asbasbasbag57
(g73
g59
NtRp3789
(dp3790
g62
(dp3791
sg71
g3632
sg64
(lp3792
g57
(g78
g59
NtRp3793
(dp3794
g62
(dp3795
g82
g83
ssg71
g3789
sg64
(lp3796
S'registration_id'
p3797
asbag57
(g78
g59
NtRp3798
(dp3799
g62
(dp3800
g89
g90
ssg71
g3789
sg64
(lp3801
S':'
asbag57
(g78
g59
NtRp3802
(dp3803
g62
(dp3804
sg71
g3789
sg64
(lp3805
g57
(g58
g59
NtRp3806
(dp3807
g62
(dp3808
g70
I3
ssg71
g3802
sg64
(lp3809
S''
asbasbasbag57
(g73
g59
NtRp3810
(dp3811
g62
(dp3812
sg71
g3632
sg64
(lp3813
g57
(g78
g59
NtRp3814
(dp3815
g62
(dp3816
g82
g83
ssg71
g3810
sg64
(lp3817
S'registration_key'
p3818
asbag57
(g78
g59
NtRp3819
(dp3820
g62
(dp3821
g89
g90
ssg71
g3810
sg64
(lp3822
S':'
asbag57
(g78
g59
NtRp3823
(dp3824
g62
(dp3825
sg71
g3810
sg64
(lp3826
g57
(g58
g59
NtRp3827
(dp3828
g62
(dp3829
g70
I3
ssg71
g3823
sg64
(lp3830
S''
asbasbasbag57
(g73
g59
NtRp3831
(dp3832
g62
(dp3833
sg71
g3632
sg64
(lp3834
g57
(g78
g59
NtRp3835
(dp3836
g62
(dp3837
g82
g83
ssg71
g3831
sg64
(lp3838
S'reset_password_key'
p3839
asbag57
(g78
g59
NtRp3840
(dp3841
g62
(dp3842
g89
g90
ssg71
g3831
sg64
(lp3843
S':'
asbag57
(g78
g59
NtRp3844
(dp3845
g62
(dp3846
sg71
g3831
sg64
(lp3847
g57
(g58
g59
NtRp3848
(dp3849
g62
(dp3850
g70
I3
ssg71
g3844
sg64
(lp3851
S''
asbasbasbag57
(g73
g59
NtRp3852
(dp3853
g62
(dp3854
sg71
g3632
sg64
(lp3855
g57
(g78
g59
NtRp3856
(dp3857
g62
(dp3858
g82
g83
ssg71
g3852
sg64
(lp3859
S'username'
p3860
asbag57
(g78
g59
NtRp3861
(dp3862
g62
(dp3863
g89
g90
ssg71
g3852
sg64
(lp3864
S':'
asbag57
(g78
g59
NtRp3865
(dp3866
g62
(dp3867
sg71
g3852
sg64
(lp3868
g57
(g58
g59
NtRp3869
(dp3870
g62
(dp3871
g70
I3
ssg71
g3865
sg64
(lp3872
S'aditi.m'
p3873
asbasbasbasbasbasbasbag57
(g73
g59
NtRp3874
(dp3875
g62
(dp3876
sg71
g3520
sg64
(lp3877
g57
(g78
g59
NtRp3878
(dp3879
g62
(dp3880
g82
g83
ssg71
g3874
sg64
(lp3881
S'user_groups'
p3882
asbag57
(g78
g59
NtRp3883
(dp3884
g62
(dp3885
g89
g90
ssg71
g3874
sg64
(lp3886
S':'
asbag57
(g78
g59
NtRp3887
(dp3888
g62
(dp3889
sg71
g3874
sg64
(lp3890
g57
(g58
g59
NtRp3891
(dp3892
g62
(dp3893
g70
I4
ssg71
g3887
sg64
(lp3894
g57
(g66
g59
NtRp3895
(dp3896
g62
(dp3897
g70
I3
ssg71
Nsg64
(lp3898
g57
(g73
g59
NtRp3899
(dp3900
g62
(dp3901
sg71
g3895
sg64
(lp3902
g57
(g78
g59
NtRp3903
(dp3904
g62
(dp3905
g82
g83
ssg71
g3899
sg64
(lp3906
S'2'
asbag57
(g78
g59
NtRp3907
(dp3908
g62
(dp3909
g89
g90
ssg71
g3899
sg64
(lp3910
S':'
asbag57
(g78
g59
NtRp3911
(dp3912
g62
(dp3913
sg71
g3899
sg64
(lp3914
g57
(g58
g59
NtRp3915
(dp3916
g62
(dp3917
g70
I3
ssg71
g3911
sg64
(lp3918
S'user_2'
p3919
asbasbasbasbasbasbasbasbasbasbasbag57
(g73
g59
NtRp3920
(dp3921
g62
(dp3922
sg71
g3495
sg64
(lp3923
g57
(g78
g59
NtRp3924
(dp3925
g62
(dp3926
g82
g83
ssg71
g3920
sg64
(lp3927
S'flash'
p3928
asbag57
(g78
g59
NtRp3929
(dp3930
g62
(dp3931
g89
g90
ssg71
g3920
sg64
(lp3932
S':'
asbag57
(g78
g59
NtRp3933
(dp3934
g62
(dp3935
sg71
g3920
sg64
(lp3936
g57
(g58
g59
NtRp3937
(dp3938
g62
(dp3939
g70
I5
ssg71
g3933
sg64
(lp3940
S'None'
p3941
asbasbasbasbasbsS'etype'
p3942
S"<type 'exceptions.NameError'>"
p3943
sS'date'
p3944
S'Mon Aug 26 13:54:45 2013'
p3945
sS'response'
p3946
g57
(g58
g59
NtRp3947
(dp3948
g62
(dp3949
sg64
(lp3950
g57
(g66
g59
NtRp3951
(dp3952
g62
(dp3953
g70
I5
ssg71
Nsg64
(lp3954
g57
(g73
g59
NtRp3955
(dp3956
g62
(dp3957
sg71
g3951
sg64
(lp3958
g57
(g78
g59
NtRp3959
(dp3960
g62
(dp3961
g82
g83
ssg71
g3955
sg64
(lp3962
g155
asbag57
(g78
g59
NtRp3963
(dp3964
g62
(dp3965
g89
g90
ssg71
g3955
sg64
(lp3966
S':'
asbag57
(g78
g59
NtRp3967
(dp3968
g62
(dp3969
sg71
g3955
sg64
(lp3970
g57
(g58
g59
NtRp3971
(dp3972
g62
(dp3973
g70
I5
ssg71
g3967
sg64
(lp3974
S'<cStringIO.StringO object at 0xac990a80>'
p3975
asbasbasbag57
(g73
g59
NtRp3976
(dp3977
g62
(dp3978
sg71
g3951
sg64
(lp3979
g57
(g78
g59
NtRp3980
(dp3981
g62
(dp3982
g82
g83
ssg71
g3976
sg64
(lp3983
g243
asbag57
(g78
g59
NtRp3984
(dp3985
g62
(dp3986
g89
g90
ssg71
g3976
sg64
(lp3987
S':'
asbag57
(g78
g59
NtRp3988
(dp3989
g62
(dp3990
sg71
g3976
sg64
(lp3991
g57
(g58
g59
NtRp3992
(dp3993
g62
(dp3994
g70
I5
ssg71
g3988
sg64
(lp3995
g57
(g66
g59
NtRp3996
(dp3997
g62
(dp3998
g70
I4
ssg71
Nsg64
(lp3999
g57
(g73
g59
NtRp4000
(dp4001
g62
(dp4002
sg71
g3996
sg64
(lp4003
g57
(g78
g59
NtRp4004
(dp4005
g62
(dp4006
g82
g83
ssg71
g4000
sg64
(lp4007
S'session_id_assignment2'
p4008
asbag57
(g78
g59
NtRp4009
(dp4010
g62
(dp4011
g89
g90
ssg71
g4000
sg64
(lp4012
S':'
asbag57
(g78
g59
NtRp4013
(dp4014
g62
(dp4015
sg71
g4000
sg64
(lp4016
g57
(g58
g59
NtRp4017
(dp4018
g62
(dp4019
g70
I4
ssg71
g4013
sg64
(lp4020
g475
ag57
(g66
g59
NtRp4021
(dp4022
g62
(dp4023
g70
I3
ssg71
Nsg64
(lp4024
g57
(g73
g59
NtRp4025
(dp4026
g62
(dp4027
sg71
g4021
sg64
(lp4028
g57
(g78
g59
NtRp4029
(dp4030
g62
(dp4031
g82
g83
ssg71
g4025
sg64
(lp4032
g294
asbag57
(g78
g59
NtRp4033
(dp4034
g62
(dp4035
g89
g90
ssg71
g4025
sg64
(lp4036
S':'
asbag57
(g78
g59
NtRp4037
(dp4038
g62
(dp4039
sg71
g4025
sg64
(lp4040
g57
(g58
g59
NtRp4041
(dp4042
g62
(dp4043
g70
I3
ssg71
g4037
sg64
(lp4044
S''
asbasbasbag57
(g73
g59
NtRp4045
(dp4046
g62
(dp4047
sg71
g4021
sg64
(lp4048
g57
(g78
g59
NtRp4049
(dp4050
g62
(dp4051
g82
g83
ssg71
g4045
sg64
(lp4052
g315
asbag57
(g78
g59
NtRp4053
(dp4054
g62
(dp4055
g89
g90
ssg71
g4045
sg64
(lp4056
S':'
asbag57
(g78
g59
NtRp4057
(dp4058
g62
(dp4059
sg71
g4045
sg64
(lp4060
g57
(g58
g59
NtRp4061
(dp4062
g62
(dp4063
g70
I3
ssg71
g4057
sg64
(lp4064
S''
asbasbasbag57
(g73
g59
NtRp4065
(dp4066
g62
(dp4067
sg71
g4021
sg64
(lp4068
g57
(g78
g59
NtRp4069
(dp4070
g62
(dp4071
g82
g83
ssg71
g4065
sg64
(lp4072
g336
asbag57
(g78
g59
NtRp4073
(dp4074
g62
(dp4075
g89
g90
ssg71
g4065
sg64
(lp4076
S':'
asbag57
(g78
g59
NtRp4077
(dp4078
g62
(dp4079
sg71
g4065
sg64
(lp4080
g57
(g58
g59
NtRp4081
(dp4082
g62
(dp4083
g70
I3
ssg71
g4077
sg64
(lp4084
S''
asbasbasbag57
(g73
g59
NtRp4085
(dp4086
g62
(dp4087
sg71
g4021
sg64
(lp4088
g57
(g78
g59
NtRp4089
(dp4090
g62
(dp4091
g82
g83
ssg71
g4085
sg64
(lp4092
g357
asbag57
(g78
g59
NtRp4093
(dp4094
g62
(dp4095
g89
g90
ssg71
g4085
sg64
(lp4096
S':'
asbag57
(g78
g59
NtRp4097
(dp4098
g62
(dp4099
sg71
g4085
sg64
(lp4100
g57
(g58
g59
NtRp4101
(dp4102
g62
(dp4103
g70
I3
ssg71
g4097
sg64
(lp4104
S''
asbasbasbag57
(g73
g59
NtRp4105
(dp4106
g62
(dp4107
sg71
g4021
sg64
(lp4108
g57
(g78
g59
NtRp4109
(dp4110
g62
(dp4111
g82
g83
ssg71
g4105
sg64
(lp4112
g378
asbag57
(g78
g59
NtRp4113
(dp4114
g62
(dp4115
g89
g90
ssg71
g4105
sg64
(lp4116
S':'
asbag57
(g78
g59
NtRp4117
(dp4118
g62
(dp4119
sg71
g4105
sg64
(lp4120
g57
(g58
g59
NtRp4121
(dp4122
g62
(dp4123
g70
I3
ssg71
g4117
sg64
(lp4124
S''
asbasbasbag57
(g73
g59
NtRp4125
(dp4126
g62
(dp4127
sg71
g4021
sg64
(lp4128
g57
(g78
g59
NtRp4129
(dp4130
g62
(dp4131
g82
g83
ssg71
g4125
sg64
(lp4132
g399
asbag57
(g78
g59
NtRp4133
(dp4134
g62
(dp4135
g89
g90
ssg71
g4125
sg64
(lp4136
S':'
asbag57
(g78
g59
NtRp4137
(dp4138
g62
(dp4139
sg71
g4125
sg64
(lp4140
g57
(g58
g59
NtRp4141
(dp4142
g62
(dp4143
g70
I3
ssg71
g4137
sg64
(lp4144
S'/'
asbasbasbag57
(g73
g59
NtRp4145
(dp4146
g62
(dp4147
sg71
g4021
sg64
(lp4148
g57
(g78
g59
NtRp4149
(dp4150
g62
(dp4151
g82
g83
ssg71
g4145
sg64
(lp4152
g420
asbag57
(g78
g59
NtRp4153
(dp4154
g62
(dp4155
g89
g90
ssg71
g4145
sg64
(lp4156
S':'
asbag57
(g78
g59
NtRp4157
(dp4158
g62
(dp4159
sg71
g4145
sg64
(lp4160
g57
(g58
g59
NtRp4161
(dp4162
g62
(dp4163
g70
I3
ssg71
g4157
sg64
(lp4164
S''
asbasbasbag57
(g73
g59
NtRp4165
(dp4166
g62
(dp4167
sg71
g4021
sg64
(lp4168
g57
(g78
g59
NtRp4169
(dp4170
g62
(dp4171
g82
g83
ssg71
g4165
sg64
(lp4172
g441
asbag57
(g78
g59
NtRp4173
(dp4174
g62
(dp4175
g89
g90
ssg71
g4165
sg64
(lp4176
S':'
asbag57
(g78
g59
NtRp4177
(dp4178
g62
(dp4179
sg71
g4165
sg64
(lp4180
g57
(g58
g59
NtRp4181
(dp4182
g62
(dp4183
g70
I3
ssg71
g4177
sg64
(lp4184
S''
asbasbasbasbasbasbasbasbasbasbasbag57
(g73
g59
NtRp4185
(dp4186
g62
(dp4187
sg71
g3951
sg64
(lp4188
g57
(g78
g59
NtRp4189
(dp4190
g62
(dp4191
g82
g83
ssg71
g4185
sg64
(lp4192
S'delimiters'
p4193
asbag57
(g78
g59
NtRp4194
(dp4195
g62
(dp4196
g89
g90
ssg71
g4185
sg64
(lp4197
S':'
asbag57
(g78
g59
NtRp4198
(dp4199
g62
(dp4200
sg71
g4185
sg64
(lp4201
g57
(g58
g59
NtRp4202
(dp4203
g62
(dp4204
g70
I5
ssg71
g4198
sg64
(lp4205
g57
(g66
g59
NtRp4206
(dp4207
g62
(dp4208
g70
I4
ssg71
Nsg64
(lp4209
g57
(g73
g59
NtRp4210
(dp4211
g62
(dp4212
sg71
g4206
sg64
(lp4213
g57
(g78
g59
NtRp4214
(dp4215
g62
(dp4216
sg71
g4210
sg64
(lp4217
g57
(g58
g59
NtRp4218
(dp4219
g62
(dp4220
g70
I4
ssg71
g4214
sg64
(lp4221
S'{{'
p4222
asbasbasbag57
(g73
g59
NtRp4223
(dp4224
g62
(dp4225
sg71
g4206
sg64
(lp4226
g57
(g78
g59
NtRp4227
(dp4228
g62
(dp4229
sg71
g4223
sg64
(lp4230
g57
(g58
g59
NtRp4231
(dp4232
g62
(dp4233
g70
I4
ssg71
g4227
sg64
(lp4234
S'}}'
p4235
asbasbasbasbasbasbasbag57
(g73
g59
NtRp4236
(dp4237
g62
(dp4238
sg71
g3951
sg64
(lp4239
g57
(g78
g59
NtRp4240
(dp4241
g62
(dp4242
g82
g83
ssg71
g4236
sg64
(lp4243
S'files'
p4244
asbag57
(g78
g59
NtRp4245
(dp4246
g62
(dp4247
g89
g90
ssg71
g4236
sg64
(lp4248
S':'
asbag57
(g78
g59
NtRp4249
(dp4250
g62
(dp4251
sg71
g4236
sg64
(lp4252
g57
(g58
g59
NtRp4253
(dp4254
g62
(dp4255
g70
I5
ssg71
g4249
sg64
(lp4256
g57
(g66
g59
NtRp4257
(dp4258
g62
(dp4259
g70
I4
ssg71
Nsg64
(lp4260
g57
(g73
g59
NtRp4261
(dp4262
g62
(dp4263
sg71
g4257
sg64
(lp4264
g57
(g78
g59
NtRp4265
(dp4266
g62
(dp4267
sg71
g4261
sg64
(lp4268
g57
(g58
g59
NtRp4269
(dp4270
g62
(dp4271
g70
I4
ssg71
g4265
sg64
(lp4272
S'/assignment2/static/js/jquery.js'
p4273
asbasbasbag57
(g73
g59
NtRp4274
(dp4275
g62
(dp4276
sg71
g4257
sg64
(lp4277
g57
(g78
g59
NtRp4278
(dp4279
g62
(dp4280
sg71
g4274
sg64
(lp4281
g57
(g58
g59
NtRp4282
(dp4283
g62
(dp4284
g70
I4
ssg71
g4278
sg64
(lp4285
S'/assignment2/static/css/calendar.css'
p4286
asbasbasbag57
(g73
g59
NtRp4287
(dp4288
g62
(dp4289
sg71
g4257
sg64
(lp4290
g57
(g78
g59
NtRp4291
(dp4292
g62
(dp4293
sg71
g4287
sg64
(lp4294
g57
(g58
g59
NtRp4295
(dp4296
g62
(dp4297
g70
I4
ssg71
g4291
sg64
(lp4298
S'/assignment2/static/js/calendar.js'
p4299
asbasbasbag57
(g73
g59
NtRp4300
(dp4301
g62
(dp4302
sg71
g4257
sg64
(lp4303
g57
(g78
g59
NtRp4304
(dp4305
g62
(dp4306
sg71
g4300
sg64
(lp4307
g57
(g58
g59
NtRp4308
(dp4309
g62
(dp4310
g70
I4
ssg71
g4304
sg64
(lp4311
S'/assignment2/static/js/web2py.js'
p4312
asbasbasbag57
(g73
g59
NtRp4313
(dp4314
g62
(dp4315
sg71
g4257
sg64
(lp4316
g57
(g78
g59
NtRp4317
(dp4318
g62
(dp4319
sg71
g4313
sg64
(lp4320
g57
(g58
g59
NtRp4321
(dp4322
g62
(dp4323
g70
I4
ssg71
g4317
sg64
(lp4324
S'/assignment2/static/css/web2py.css'
p4325
asbasbasbag57
(g73
g59
NtRp4326
(dp4327
g62
(dp4328
sg71
g4257
sg64
(lp4329
g57
(g78
g59
NtRp4330
(dp4331
g62
(dp4332
sg71
g4326
sg64
(lp4333
g57
(g58
g59
NtRp4334
(dp4335
g62
(dp4336
g70
I4
ssg71
g4330
sg64
(lp4337
S'/assignment2/static/css/bootstrap.min.css'
p4338
asbasbasbag57
(g73
g59
NtRp4339
(dp4340
g62
(dp4341
sg71
g4257
sg64
(lp4342
g57
(g78
g59
NtRp4343
(dp4344
g62
(dp4345
sg71
g4339
sg64
(lp4346
g57
(g58
g59
NtRp4347
(dp4348
g62
(dp4349
g70
I4
ssg71
g4343
sg64
(lp4350
S'/assignment2/static/css/bootstrap-responsive.min.css'
p4351
asbasbasbag57
(g73
g59
NtRp4352
(dp4353
g62
(dp4354
sg71
g4257
sg64
(lp4355
g57
(g78
g59
NtRp4356
(dp4357
g62
(dp4358
sg71
g4352
sg64
(lp4359
g57
(g58
g59
NtRp4360
(dp4361
g62
(dp4362
g70
I4
ssg71
g4356
sg64
(lp4363
S'/assignment2/static/css/web2py_bootstrap.css'
p4364
asbasbasbasbasbasbasbag57
(g73
g59
NtRp4365
(dp4366
g62
(dp4367
sg71
g3951
sg64
(lp4368
g57
(g78
g59
NtRp4369
(dp4370
g62
(dp4371
g82
g83
ssg71
g4365
sg64
(lp4372
S'flash'
p4373
asbag57
(g78
g59
NtRp4374
(dp4375
g62
(dp4376
g89
g90
ssg71
g4365
sg64
(lp4377
S':'
asbag57
(g78
g59
NtRp4378
(dp4379
g62
(dp4380
sg71
g4365
sg64
(lp4381
g57
(g58
g59
NtRp4382
(dp4383
g62
(dp4384
g70
I5
ssg71
g4378
sg64
(lp4385
S'New category successfully added.'
p4386
asbasbasbag57
(g73
g59
NtRp4387
(dp4388
g62
(dp4389
sg71
g3951
sg64
(lp4390
g57
(g78
g59
NtRp4391
(dp4392
g62
(dp4393
g82
g83
ssg71
g4387
sg64
(lp4394
S'generic_patterns'
p4395
asbag57
(g78
g59
NtRp4396
(dp4397
g62
(dp4398
g89
g90
ssg71
g4387
sg64
(lp4399
S':'
asbag57
(g78
g59
NtRp4400
(dp4401
g62
(dp4402
sg71
g4387
sg64
(lp4403
g57
(g58
g59
NtRp4404
(dp4405
g62
(dp4406
g70
I5
ssg71
g4400
sg64
(lp4407
g57
(g66
g59
NtRp4408
(dp4409
g62
(dp4410
g70
I4
ssg71
Nsg64
(lp4411
g57
(g73
g59
NtRp4412
(dp4413
g62
(dp4414
sg71
g4408
sg64
(lp4415
g57
(g78
g59
NtRp4416
(dp4417
g62
(dp4418
sg71
g4412
sg64
(lp4419
g57
(g58
g59
NtRp4420
(dp4421
g62
(dp4422
g70
I4
ssg71
g4416
sg64
(lp4423
S'*'
asbasbasbasbasbasbasbag57
(g73
g59
NtRp4424
(dp4425
g62
(dp4426
sg71
g3951
sg64
(lp4427
g57
(g78
g59
NtRp4428
(dp4429
g62
(dp4430
g82
g83
ssg71
g4424
sg64
(lp4431
S'google_analytics_id'
p4432
asbag57
(g78
g59
NtRp4433
(dp4434
g62
(dp4435
g89
g90
ssg71
g4424
sg64
(lp4436
S':'
asbag57
(g78
g59
NtRp4437
(dp4438
g62
(dp4439
sg71
g4424
sg64
(lp4440
g57
(g58
g59
NtRp4441
(dp4442
g62
(dp4443
g70
I5
ssg71
g4437
sg64
(lp4444
S'None'
p4445
asbasbasbag57
(g73
g59
NtRp4446
(dp4447
g62
(dp4448
sg71
g3951
sg64
(lp4449
g57
(g78
g59
NtRp4450
(dp4451
g62
(dp4452
g82
g83
ssg71
g4446
sg64
(lp4453
S'headers'
p4454
asbag57
(g78
g59
NtRp4455
(dp4456
g62
(dp4457
g89
g90
ssg71
g4446
sg64
(lp4458
S':'
asbag57
(g78
g59
NtRp4459
(dp4460
g62
(dp4461
sg71
g4446
sg64
(lp4462
g57
(g58
g59
NtRp4463
(dp4464
g62
(dp4465
g70
I5
ssg71
g4459
sg64
(lp4466
g57
(g66
g59
NtRp4467
(dp4468
g62
(dp4469
g70
I4
ssg71
Nsg64
(lp4470
g57
(g73
g59
NtRp4471
(dp4472
g62
(dp4473
sg71
g4467
sg64
(lp4474
g57
(g78
g59
NtRp4475
(dp4476
g62
(dp4477
g82
g83
ssg71
g4471
sg64
(lp4478
S'X-Powered-By'
p4479
asbag57
(g78
g59
NtRp4480
(dp4481
g62
(dp4482
g89
g90
ssg71
g4471
sg64
(lp4483
S':'
asbag57
(g78
g59
NtRp4484
(dp4485
g62
(dp4486
sg71
g4471
sg64
(lp4487
g57
(g58
g59
NtRp4488
(dp4489
g62
(dp4490
g70
I4
ssg71
g4484
sg64
(lp4491
S'web2py'
p4492
asbasbasbasbasbasbasbag57
(g73
g59
NtRp4493
(dp4494
g62
(dp4495
sg71
g3951
sg64
(lp4496
g57
(g78
g59
NtRp4497
(dp4498
g62
(dp4499
g82
g83
ssg71
g4493
sg64
(lp4500
S'logo'
p4501
asbag57
(g78
g59
NtRp4502
(dp4503
g62
(dp4504
g89
g90
ssg71
g4493
sg64
(lp4505
S':'
asbag57
(g78
g59
NtRp4506
(dp4507
g62
(dp4508
sg71
g4493
sg64
(lp4509
g57
(g58
g59
NtRp4510
(dp4511
g62
(dp4512
g70
I5
ssg71
g4506
sg64
(lp4513
g57
(cgluon.html
A
p4514
g59
NtRp4515
(dp4516
g62
(dp4517
S'_class'
p4518
S'brand'
p4519
sS'_href'
p4520
S'http://www.web2py.com/'
p4521
ssg71
Nsg64
(lp4522
g57
(cgluon.html
B
p4523
g59
NtRp4524
(dp4525
g62
(dp4526
sg71
g4515
sg64
(lp4527
S'web'
p4528
ag57
(cgluon.html
SPAN
p4529
g59
NtRp4530
(dp4531
g62
(dp4532
sg71
g4524
sg64
(lp4533
I2
asbaS'py'
p4534
asbacgluon.html
XML_unpickle
p4535
(S's\r\x00\x00\x00&trade;&nbsp;'
tRp4536
asbasbasbasbag57
(g73
g59
NtRp4537
(dp4538
g62
(dp4539
sg71
g3951
sg64
(lp4540
g57
(g78
g59
NtRp4541
(dp4542
g62
(dp4543
g82
g83
ssg71
g4537
sg64
(lp4544
S'menu'
p4545
asbag57
(g78
g59
NtRp4546
(dp4547
g62
(dp4548
g89
g90
ssg71
g4537
sg64
(lp4549
S':'
asbag57
(g78
g59
NtRp4550
(dp4551
g62
(dp4552
sg71
g4537
sg64
(lp4553
g57
(g58
g59
NtRp4554
(dp4555
g62
(dp4556
g70
I5
ssg71
g4550
sg64
(lp4557
g57
(g66
g59
NtRp4558
(dp4559
g62
(dp4560
g70
I4
ssg71
Nsg64
(lp4561
g57
(g73
g59
NtRp4562
(dp4563
g62
(dp4564
sg71
g4558
sg64
(lp4565
g57
(g78
g59
NtRp4566
(dp4567
g62
(dp4568
sg71
g4562
sg64
(lp4569
g57
(g58
g59
NtRp4570
(dp4571
g62
(dp4572
g70
I4
ssg71
g4566
sg64
(lp4573
g57
(g66
g59
NtRp4574
(dp4575
g62
(dp4576
g70
I3
ssg71
Nsg64
(lp4577
g57
(g73
g59
NtRp4578
(dp4579
g62
(dp4580
sg71
g4574
sg64
(lp4581
g57
(g78
g59
NtRp4582
(dp4583
g62
(dp4584
sg71
g4578
sg64
(lp4585
g57
(g58
g59
NtRp4586
(dp4587
g62
(dp4588
g70
I3
ssg71
g4582
sg64
(lp4589
cgluon.languages
lazyT_unpickle
p4590
(S's\x04\x00\x00\x00Home'
tRp4591
asbasbasbag57
(g73
g59
NtRp4592
(dp4593
g62
(dp4594
sg71
g4574
sg64
(lp4595
g57
(g78
g59
NtRp4596
(dp4597
g62
(dp4598
sg71
g4592
sg64
(lp4599
g57
(g58
g59
NtRp4600
(dp4601
g62
(dp4602
g70
I3
ssg71
g4596
sg64
(lp4603
g100
asbasbasbag57
(g73
g59
NtRp4604
(dp4605
g62
(dp4606
sg71
g4574
sg64
(lp4607
g57
(g78
g59
NtRp4608
(dp4609
g62
(dp4610
sg71
g4604
sg64
(lp4611
g57
(g58
g59
NtRp4612
(dp4613
g62
(dp4614
g70
I3
ssg71
g4608
sg64
(lp4615
S'/assignment2/default/index'
p4616
asbasbasbag57
(g73
g59
NtRp4617
(dp4618
g62
(dp4619
sg71
g4574
sg64
(lp4620
g57
(g78
g59
NtRp4621
(dp4622
g62
(dp4623
sg71
g4617
sg64
(lp4624
g57
(g58
g59
NtRp4625
(dp4626
g62
(dp4627
g70
I3
ssg71
g4621
sg64
(lp4628
g57
(g66
g59
NtRp4629
(dp4630
g62
(dp4631
g70
I2
ssg71
Nsg64
(lp4632
sbasbasbasbasbasbasbasbag57
(g73
g59
NtRp4633
(dp4634
g62
(dp4635
sg71
g4558
sg64
(lp4636
g57
(g78
g59
NtRp4637
(dp4638
g62
(dp4639
sg71
g4633
sg64
(lp4640
g57
(g58
g59
NtRp4641
(dp4642
g62
(dp4643
g70
I4
ssg71
g4637
sg64
(lp4644
g57
(g66
g59
NtRp4645
(dp4646
g62
(dp4647
g70
I3
ssg71
Nsg64
(lp4648
g57
(g73
g59
NtRp4649
(dp4650
g62
(dp4651
sg71
g4645
sg64
(lp4652
g57
(g78
g59
NtRp4653
(dp4654
g62
(dp4655
sg71
g4649
sg64
(lp4656
g57
(g58
g59
NtRp4657
(dp4658
g62
(dp4659
g70
I3
ssg71
g4653
sg64
(lp4660
g57
(g4529
g59
NtRp4661
(dp4662
g62
(dp4663
g4518
S'highlighted'
p4664
ssg71
g57
(g4514
g59
NtRp4665
(dp4666
g62
(dp4667
g4520
S'http://web2py.com'
p4668
ssg71
g57
(cgluon.html
LI
p4669
g59
NtRp4670
(dp4671
g62
(dp4672
g4518
S'dropdown'
p4673
ssg71
g57
(cgluon.html
UL
p4674
g59
NtRp4675
(dp4676
g62
(dp4677
S'mobile'
p4678
I00
sS'ul_class'
p4679
S'dropdown-menu'
p4680
sS'li_last'
p4681
S'web2py-menu-last'
p4682
sS'li_class'
p4683
g4673
sS'li_first'
p4684
S'web2py-menu-first'
p4685
sg4518
S'nav'
p4686
sS'li_active'
p4687
S'web2py-menu-active'
p4688
ssg71
Nsg64
(lp4689
g57
(g4669
g59
NtRp4690
(dp4691
g62
(dp4692
g4518
g4685
ssg71
g4675
sg64
(lp4693
g57
(g4514
g59
NtRp4694
(dp4695
g62
(dp4696
g4520
g4616
ssg71
g4690
sg64
(lp4697
g4591
asbasbag4670
asbsg64
(lp4698
g4665
ag57
(g4674
g59
NtRp4699
(dp4700
g62
(dp4701
g4518
g4680
ssg71
g4670
sg64
(lp4702
g57
(g4669
g59
NtRp4703
(dp4704
g62
(dp4705
sg71
g4699
sg64
(lp4706
g57
(g4514
g59
NtRp4707
(dp4708
g62
(dp4709
g4520
S'/admin/default/site'
p4710
ssg71
g4703
sg64
(lp4711
g4590
(S's\x08\x00\x00\x00My Sites'
tRp4712
asbasbag57
(g4669
g59
NtRp4713
(dp4714
g62
(dp4715
g4518
g4673
ssg71
g4699
sg64
(lp4716
g57
(g4514
g59
NtRp4717
(dp4718
g62
(dp4719
g4520
S'/admin/default/design/assignment2'
p4720
ssg71
g4713
sg64
(lp4721
g4590
(S's\x08\x00\x00\x00This App'
tRp4722
asbag57
(g4674
g59
NtRp4723
(dp4724
g62
(dp4725
g4518
g4680
ssg71
g4713
sg64
(lp4726
g57
(g4669
g59
NtRp4727
(dp4728
g62
(dp4729
sg71
g4723
sg64
(lp4730
g57
(g4514
g59
NtRp4731
(dp4732
g62
(dp4733
g4520
S'/admin/default/edit/assignment2/controllers/default.py'
p4734
ssg71
g4727
sg64
(lp4735
g4590
(S's\n\x00\x00\x00Controller'
tRp4736
asbasbag57
(g4669
g59
NtRp4737
(dp4738
g62
(dp4739
sg71
g4723
sg64
(lp4740
g57
(g4514
g59
NtRp4741
(dp4742
g62
(dp4743
g4520
S'/admin/default/edit/assignment2/views/default/admin_homepage.html'
p4744
ssg71
g4737
sg64
(lp4745
g4590
(S's\x04\x00\x00\x00View'
tRp4746
asbasbag57
(g4669
g59
NtRp4747
(dp4748
g62
(dp4749
sg71
g4723
sg64
(lp4750
g57
(g4514
g59
NtRp4751
(dp4752
g62
(dp4753
g4520
S'/admin/default/edit/assignment2/views/layout.html'
p4754
ssg71
g4747
sg64
(lp4755
g4590
(S's\x06\x00\x00\x00Layout'
tRp4756
asbasbag57
(g4669
g59
NtRp4757
(dp4758
g62
(dp4759
sg71
g4723
sg64
(lp4760
g57
(g4514
g59
NtRp4761
(dp4762
g62
(dp4763
g4520
S'/admin/default/edit/assignment2/static/css/web2py.css'
p4764
ssg71
g4757
sg64
(lp4765
g4590
(S's\n\x00\x00\x00Stylesheet'
tRp4766
asbasbag57
(g4669
g59
NtRp4767
(dp4768
g62
(dp4769
sg71
g4723
sg64
(lp4770
g57
(g4514
g59
NtRp4771
(dp4772
g62
(dp4773
g4520
S'/admin/default/edit/assignment2/models/db.py'
p4774
ssg71
g4767
sg64
(lp4775
g4590
(S's\x08\x00\x00\x00DB Model'
tRp4776
asbasbag57
(g4669
g59
NtRp4777
(dp4778
g62
(dp4779
sg71
g4723
sg64
(lp4780
g57
(g4514
g59
NtRp4781
(dp4782
g62
(dp4783
g4520
S'/admin/default/edit/assignment2/models/menu.py'
p4784
ssg71
g4777
sg64
(lp4785
g4590
(S's\n\x00\x00\x00Menu Model'
tRp4786
asbasbag57
(g4669
g59
NtRp4787
(dp4788
g62
(dp4789
sg71
g4723
sg64
(lp4790
g57
(g4514
g59
NtRp4791
(dp4792
g62
(dp4793
g4520
S'/assignment2/appadmin/index'
p4794
ssg71
g4787
sg64
(lp4795
g4590
(S's\x08\x00\x00\x00Database'
tRp4796
asbasbag57
(g4669
g59
NtRp4797
(dp4798
g62
(dp4799
sg71
g4723
sg64
(lp4800
g57
(g4514
g59
NtRp4801
(dp4802
g62
(dp4803
g4520
S'/admin/default/errors/assignment2'
p4804
ssg71
g4797
sg64
(lp4805
g4590
(S's\x06\x00\x00\x00Errors'
tRp4806
asbasbag57
(g4669
g59
NtRp4807
(dp4808
g62
(dp4809
sg71
g4723
sg64
(lp4810
g57
(g4514
g59
NtRp4811
(dp4812
g62
(dp4813
g4520
S'/admin/default/about/assignment2'
p4814
ssg71
g4807
sg64
(lp4815
g4590
(S's\x05\x00\x00\x00About'
tRp4816
asbasbasbasbag57
(g4669
g59
NtRp4817
(dp4818
g62
(dp4819
g4518
g4673
ssg71
g4699
sg64
(lp4820
g57
(g4514
g59
NtRp4821
(dp4822
g62
(dp4823
g4520
S'http://www.web2py.com'
p4824
ssg71
g4817
sg64
(lp4825
S'web2py.com'
p4826
asbag57
(g4674
g59
NtRp4827
(dp4828
g62
(dp4829
g4518
g4680
ssg71
g4817
sg64
(lp4830
g57
(g4669
g59
NtRp4831
(dp4832
g62
(dp4833
sg71
g4827
sg64
(lp4834
g57
(g4514
g59
NtRp4835
(dp4836
g62
(dp4837
g4520
S'http://www.web2py.com/examples/default/download'
p4838
ssg71
g4831
sg64
(lp4839
g4590
(S's\x08\x00\x00\x00Download'
tRp4840
asbasbag57
(g4669
g59
NtRp4841
(dp4842
g62
(dp4843
sg71
g4827
sg64
(lp4844
g57
(g4514
g59
NtRp4845
(dp4846
g62
(dp4847
g4520
S'http://www.web2py.com/examples/default/support'
p4848
ssg71
g4841
sg64
(lp4849
g4590
(S's\x07\x00\x00\x00Support'
tRp4850
asbasbag57
(g4669
g59
NtRp4851
(dp4852
g62
(dp4853
sg71
g4827
sg64
(lp4854
g57
(g4514
g59
NtRp4855
(dp4856
g62
(dp4857
g4520
S'http://web2py.com/demo_admin'
p4858
ssg71
g4851
sg64
(lp4859
g4590
(S's\x04\x00\x00\x00Demo'
tRp4860
asbasbag57
(g4669
g59
NtRp4861
(dp4862
g62
(dp4863
sg71
g4827
sg64
(lp4864
g57
(g4514
g59
NtRp4865
(dp4866
g62
(dp4867
g4520
S'http://web2py.com/examples/default/examples'
p4868
ssg71
g4861
sg64
(lp4869
g4590
(S's\x0e\x00\x00\x00Quick Examples'
tRp4870
asbasbag57
(g4669
g59
NtRp4871
(dp4872
g62
(dp4873
sg71
g4827
sg64
(lp4874
g57
(g4514
g59
NtRp4875
(dp4876
g62
(dp4877
g4520
S'http://web2py.com/AlterEgo'
p4878
ssg71
g4871
sg64
(lp4879
g4590
(S's\x03\x00\x00\x00FAQ'
tRp4880
asbasbag57
(g4669
g59
NtRp4881
(dp4882
g62
(dp4883
sg71
g4827
sg64
(lp4884
g57
(g4514
g59
NtRp4885
(dp4886
g62
(dp4887
g4520
S'http://www.web2py.com/examples/default/videos/'
p4888
ssg71
g4881
sg64
(lp4889
g4590
(S's\x06\x00\x00\x00Videos'
tRp4890
asbasbag57
(g4669
g59
NtRp4891
(dp4892
g62
(dp4893
sg71
g4827
sg64
(lp4894
g57
(g4514
g59
NtRp4895
(dp4896
g62
(dp4897
g4520
S'http://web2py.com/appliances'
p4898
ssg71
g4891
sg64
(lp4899
g4590
(S's\x11\x00\x00\x00Free Applications'
tRp4900
asbasbag57
(g4669
g59
NtRp4901
(dp4902
g62
(dp4903
sg71
g4827
sg64
(lp4904
g57
(g4514
g59
NtRp4905
(dp4906
g62
(dp4907
g4520
S'http://web2py.com/plugins'
p4908
ssg71
g4901
sg64
(lp4909
g4590
(S's\x07\x00\x00\x00Plugins'
tRp4910
asbasbag57
(g4669
g59
NtRp4911
(dp4912
g62
(dp4913
sg71
g4827
sg64
(lp4914
g57
(g4514
g59
NtRp4915
(dp4916
g62
(dp4917
g4520
S'http://web2py.com/layouts'
p4918
ssg71
g4911
sg64
(lp4919
g4590
(S's\x07\x00\x00\x00Layouts'
tRp4920
asbasbag57
(g4669
g59
NtRp4921
(dp4922
g62
(dp4923
sg71
g4827
sg64
(lp4924
g57
(g4514
g59
NtRp4925
(dp4926
g62
(dp4927
g4520
S'http://web2pyslices.com/'
p4928
ssg71
g4921
sg64
(lp4929
g4590
(S's\x07\x00\x00\x00Recipes'
tRp4930
asbasbag57
(g4669
g59
NtRp4931
(dp4932
g62
(dp4933
sg71
g4827
sg64
(lp4934
g57
(g4514
g59
NtRp4935
(dp4936
g62
(dp4937
g4520
S'http://web2py.com/semantic'
p4938
ssg71
g4931
sg64
(lp4939
g4590
(S's\x08\x00\x00\x00Semantic'
tRp4940
asbasbasbasbag57
(g4669
g59
NtRp4941
(dp4942
g62
(dp4943
g4518
g4673
ssg71
g4699
sg64
(lp4944
g57
(g4514
g59
NtRp4945
(dp4946
g62
(dp4947
g4520
S'http://www.web2py.com/book'
p4948
ssg71
g4941
sg64
(lp4949
g4590
(S's\r\x00\x00\x00Documentation'
tRp4950
asbag57
(g4674
g59
NtRp4951
(dp4952
g62
(dp4953
g4518
g4680
ssg71
g4941
sg64
(lp4954
g57
(g4669
g59
NtRp4955
(dp4956
g62
(dp4957
sg71
g4951
sg64
(lp4958
g57
(g4514
g59
NtRp4959
(dp4960
g62
(dp4961
g4520
S'http://www.web2py.com/book/default/chapter/00'
p4962
ssg71
g4955
sg64
(lp4963
g4590
(S's\x07\x00\x00\x00Preface'
tRp4964
asbasbag57
(g4669
g59
NtRp4965
(dp4966
g62
(dp4967
sg71
g4951
sg64
(lp4968
g57
(g4514
g59
NtRp4969
(dp4970
g62
(dp4971
g4520
S'http://www.web2py.com/book/default/chapter/01'
p4972
ssg71
g4965
sg64
(lp4973
g4590
(S's\x0c\x00\x00\x00Introduction'
tRp4974
asbasbag57
(g4669
g59
NtRp4975
(dp4976
g62
(dp4977
sg71
g4951
sg64
(lp4978
g57
(g4514
g59
NtRp4979
(dp4980
g62
(dp4981
g4520
S'http://www.web2py.com/book/default/chapter/02'
p4982
ssg71
g4975
sg64
(lp4983
g4590
(S's\x06\x00\x00\x00Python'
tRp4984
asbasbag57
(g4669
g59
NtRp4985
(dp4986
g62
(dp4987
sg71
g4951
sg64
(lp4988
g57
(g4514
g59
NtRp4989
(dp4990
g62
(dp4991
g4520
S'http://www.web2py.com/book/default/chapter/03'
p4992
ssg71
g4985
sg64
(lp4993
g4590
(S's\x08\x00\x00\x00Overview'
tRp4994
asbasbag57
(g4669
g59
NtRp4995
(dp4996
g62
(dp4997
sg71
g4951
sg64
(lp4998
g57
(g4514
g59
NtRp4999
(dp5000
g62
(dp5001
g4520
S'http://www.web2py.com/book/default/chapter/04'
p5002
ssg71
g4995
sg64
(lp5003
g4590
(S's\x08\x00\x00\x00The Core'
tRp5004
asbasbag57
(g4669
g59
NtRp5005
(dp5006
g62
(dp5007
sg71
g4951
sg64
(lp5008
g57
(g4514
g59
NtRp5009
(dp5010
g62
(dp5011
g4520
S'http://www.web2py.com/book/default/chapter/05'
p5012
ssg71
g5005
sg64
(lp5013
g4590
(S's\t\x00\x00\x00The Views'
tRp5014
asbasbag57
(g4669
g59
NtRp5015
(dp5016
g62
(dp5017
sg71
g4951
sg64
(lp5018
g57
(g4514
g59
NtRp5019
(dp5020
g62
(dp5021
g4520
S'http://www.web2py.com/book/default/chapter/06'
p5022
ssg71
g5015
sg64
(lp5023
g4590
(S's\x08\x00\x00\x00Database'
tRp5024
asbasbag57
(g4669
g59
NtRp5025
(dp5026
g62
(dp5027
sg71
g4951
sg64
(lp5028
g57
(g4514
g59
NtRp5029
(dp5030
g62
(dp5031
g4520
S'http://www.web2py.com/book/default/chapter/07'
p5032
ssg71
g5025
sg64
(lp5033
g4590
(S's\x14\x00\x00\x00Forms and Validators'
tRp5034
asbasbag57
(g4669
g59
NtRp5035
(dp5036
g62
(dp5037
sg71
g4951
sg64
(lp5038
g57
(g4514
g59
NtRp5039
(dp5040
g62
(dp5041
g4520
S'http://www.web2py.com/book/default/chapter/08'
p5042
ssg71
g5035
sg64
(lp5043
g4590
(S's\r\x00\x00\x00Email and SMS'
tRp5044
asbasbag57
(g4669
g59
NtRp5045
(dp5046
g62
(dp5047
sg71
g4951
sg64
(lp5048
g57
(g4514
g59
NtRp5049
(dp5050
g62
(dp5051
g4520
S'http://www.web2py.com/book/default/chapter/09'
p5052
ssg71
g5045
sg64
(lp5053
g4590
(S's\x0e\x00\x00\x00Access Control'
tRp5054
asbasbag57
(g4669
g59
NtRp5055
(dp5056
g62
(dp5057
sg71
g4951
sg64
(lp5058
g57
(g4514
g59
NtRp5059
(dp5060
g62
(dp5061
g4520
S'http://www.web2py.com/book/default/chapter/10'
p5062
ssg71
g5055
sg64
(lp5063
g4590
(S's\x08\x00\x00\x00Services'
tRp5064
asbasbag57
(g4669
g59
NtRp5065
(dp5066
g62
(dp5067
sg71
g4951
sg64
(lp5068
g57
(g4514
g59
NtRp5069
(dp5070
g62
(dp5071
g4520
S'http://www.web2py.com/book/default/chapter/11'
p5072
ssg71
g5065
sg64
(lp5073
g4590
(S's\x0c\x00\x00\x00Ajax Recipes'
tRp5074
asbasbag57
(g4669
g59
NtRp5075
(dp5076
g62
(dp5077
sg71
g4951
sg64
(lp5078
g57
(g4514
g59
NtRp5079
(dp5080
g62
(dp5081
g4520
S'http://www.web2py.com/book/default/chapter/12'
p5082
ssg71
g5075
sg64
(lp5083
g4590
(S's\x16\x00\x00\x00Components and Plugins'
tRp5084
asbasbag57
(g4669
g59
NtRp5085
(dp5086
g62
(dp5087
sg71
g4951
sg64
(lp5088
g57
(g4514
g59
NtRp5089
(dp5090
g62
(dp5091
g4520
S'http://www.web2py.com/book/default/chapter/13'
p5092
ssg71
g5085
sg64
(lp5093
g4590
(S's\x12\x00\x00\x00Deployment Recipes'
tRp5094
asbasbag57
(g4669
g59
NtRp5095
(dp5096
g62
(dp5097
sg71
g4951
sg64
(lp5098
g57
(g4514
g59
NtRp5099
(dp5100
g62
(dp5101
g4520
S'http://www.web2py.com/book/default/chapter/14'
p5102
ssg71
g5095
sg64
(lp5103
g4590
(S's\r\x00\x00\x00Other Recipes'
tRp5104
asbasbag57
(g4669
g59
NtRp5105
(dp5106
g62
(dp5107
sg71
g4951
sg64
(lp5108
g57
(g4514
g59
NtRp5109
(dp5110
g62
(dp5111
g4520
S'http://stores.lulu.com/web2py'
p5112
ssg71
g5105
sg64
(lp5113
g4590
(S's\r\x00\x00\x00Buy this book'
tRp5114
asbasbasbasbag57
(g4669
g59
NtRp5115
(dp5116
g62
(dp5117
g4518
g4673
ssg71
g4699
sg64
(lp5118
g57
(g4514
g59
NtRp5119
(dp5120
g62
(dp5121
S'_onclick'
p5122
S'javascript:void(0);return false;'
p5123
sg4520
S'#'
ssg71
g5115
sg64
(lp5124
g4590
(S's\t\x00\x00\x00Community'
tRp5125
asbag57
(g4674
g59
NtRp5126
(dp5127
g62
(dp5128
g4518
g4680
ssg71
g5115
sg64
(lp5129
g57
(g4669
g59
NtRp5130
(dp5131
g62
(dp5132
sg71
g5126
sg64
(lp5133
g57
(g4514
g59
NtRp5134
(dp5135
g62
(dp5136
g4520
S'http://www.web2py.com/examples/default/usergroups'
p5137
ssg71
g5130
sg64
(lp5138
g4590
(S's\x06\x00\x00\x00Groups'
tRp5139
asbasbag57
(g4669
g59
NtRp5140
(dp5141
g62
(dp5142
sg71
g5126
sg64
(lp5143
g57
(g4514
g59
NtRp5144
(dp5145
g62
(dp5146
g4520
S'http://twitter.com/web2py'
p5147
ssg71
g5140
sg64
(lp5148
g4590
(S's\x07\x00\x00\x00Twitter'
tRp5149
asbasbag57
(g4669
g59
NtRp5150
(dp5151
g62
(dp5152
sg71
g5126
sg64
(lp5153
g57
(g4514
g59
NtRp5154
(dp5155
g62
(dp5156
g4520
S'http://webchat.freenode.net/?channels=web2py'
p5157
ssg71
g5150
sg64
(lp5158
g4590
(S's\t\x00\x00\x00Live Chat'
tRp5159
asbasbasbasbag57
(g4669
g59
NtRp5160
(dp5161
g62
(dp5162
g4518
g4673
ssg71
g4699
sg64
(lp5163
g57
(g4514
g59
NtRp5164
(dp5165
g62
(dp5166
g5122
g5123
sg4520
S'#'
ssg71
g5160
sg64
(lp5167
g4590
(S's\x07\x00\x00\x00Plugins'
tRp5168
asbag57
(g4674
g59
NtRp5169
(dp5170
g62
(dp5171
g4518
g4680
ssg71
g5160
sg64
(lp5172
g57
(g4669
g59
NtRp5173
(dp5174
g62
(dp5175
sg71
g5169
sg64
(lp5176
g57
(g4514
g59
NtRp5177
(dp5178
g62
(dp5179
g4520
S'http://web2py.com/examples/default/download'
p5180
ssg71
g5173
sg64
(lp5181
S'plugin_wiki'
p5182
asbasbag57
(g4669
g59
NtRp5183
(dp5184
g62
(dp5185
sg71
g5169
sg64
(lp5186
g57
(g4514
g59
NtRp5187
(dp5188
g62
(dp5189
g4520
g4908
ssg71
g5183
sg64
(lp5190
g4590
(S's\r\x00\x00\x00Other Plugins'
tRp5191
asbasbag57
(g4669
g59
NtRp5192
(dp5193
g62
(dp5194
sg71
g5169
sg64
(lp5195
g57
(g4514
g59
NtRp5196
(dp5197
g62
(dp5198
g4520
g4918
ssg71
g5192
sg64
(lp5199
g4590
(S's\x0e\x00\x00\x00Layout Plugins'
tRp5200
asbasbasbasbasbasbsg64
(lp5201
g4661
asbsg64
(lp5202
g4492
asbasbasbasbag57
(g73
g59
NtRp5203
(dp5204
g62
(dp5205
sg71
g4645
sg64
(lp5206
g57
(g78
g59
NtRp5207
(dp5208
g62
(dp5209
sg71
g5203
sg64
(lp5210
g57
(g58
g59
NtRp5211
(dp5212
g62
(dp5213
g70
I3
ssg71
g5207
sg64
(lp5214
g100
asbasbasbag57
(g73
g59
NtRp5215
(dp5216
g62
(dp5217
sg71
g4645
sg64
(lp5218
g57
(g78
g59
NtRp5219
(dp5220
g62
(dp5221
sg71
g5215
sg64
(lp5222
g57
(g58
g59
NtRp5223
(dp5224
g62
(dp5225
g70
I3
ssg71
g5219
sg64
(lp5226
g4668
asbasbasbag57
(g73
g59
NtRp5227
(dp5228
g62
(dp5229
sg71
g4645
sg64
(lp5230
g57
(g78
g59
NtRp5231
(dp5232
g62
(dp5233
sg71
g5227
sg64
(lp5234
g57
(g58
g59
NtRp5235
(dp5236
g62
(dp5237
g70
I3
ssg71
g5231
sg64
(lp5238
g57
(g66
g59
NtRp5239
(dp5240
g62
(dp5241
g70
I2
ssg71
Nsg64
(lp5242
g57
(g73
g59
NtRp5243
(dp5244
g62
(dp5245
sg71
g5239
sg64
(lp5246
g57
(g78
g59
NtRp5247
(dp5248
g62
(dp5249
sg71
g5243
sg64
(lp5250
g57
(g58
g59
NtRp5251
(dp5252
g62
(dp5253
g70
I2
ssg71
g5247
sg64
(lp5254
g57
(g66
g59
NtRp5255
(dp5256
g62
(dp5257
g70
I1
ssg71
Nsg64
(lp5258
g57
(g73
g59
NtRp5259
(dp5260
g62
(dp5261
sg71
g5255
sg64
(lp5262
g57
(g78
g59
NtRp5263
(dp5264
g62
(dp5265
sg71
g5259
sg64
(lp5266
g57
(g58
g59
NtRp5267
(dp5268
g62
(dp5269
g70
I1
ssg71
g5263
sg64
(lp5270
g4712
asbasbasbag57
(g73
g59
NtRp5271
(dp5272
g62
(dp5273
sg71
g5255
sg64
(lp5274
g57
(g78
g59
NtRp5275
(dp5276
g62
(dp5277
sg71
g5271
sg64
(lp5278
g57
(g58
g59
NtRp5279
(dp5280
g62
(dp5281
g70
I1
ssg71
g5275
sg64
(lp5282
I00
asbasbasbag57
(g73
g59
NtRp5283
(dp5284
g62
(dp5285
sg71
g5255
sg64
(lp5286
g57
(g78
g59
NtRp5287
(dp5288
g62
(dp5289
sg71
g5283
sg64
(lp5290
g57
(g58
g59
NtRp5291
(dp5292
g62
(dp5293
g70
I1
ssg71
g5287
sg64
(lp5294
g4710
asbasbasbasbasbasbasbag57
(g73
g59
NtRp5295
(dp5296
g62
(dp5297
sg71
g5239
sg64
(lp5298
g57
(g78
g59
NtRp5299
(dp5300
g62
(dp5301
sg71
g5295
sg64
(lp5302
g57
(g58
g59
NtRp5303
(dp5304
g62
(dp5305
g70
I2
ssg71
g5299
sg64
(lp5306
g57
(g66
g59
NtRp5307
(dp5308
g62
(dp5309
g70
I1
ssg71
Nsg64
(lp5310
g57
(g73
g59
NtRp5311
(dp5312
g62
(dp5313
sg71
g5307
sg64
(lp5314
g57
(g78
g59
NtRp5315
(dp5316
g62
(dp5317
sg71
g5311
sg64
(lp5318
g57
(g58
g59
NtRp5319
(dp5320
g62
(dp5321
g70
I1
ssg71
g5315
sg64
(lp5322
g4722
asbasbasbag57
(g73
g59
NtRp5323
(dp5324
g62
(dp5325
sg71
g5307
sg64
(lp5326
g57
(g78
g59
NtRp5327
(dp5328
g62
(dp5329
sg71
g5323
sg64
(lp5330
g57
(g58
g59
NtRp5331
(dp5332
g62
(dp5333
g70
I1
ssg71
g5327
sg64
(lp5334
I00
asbasbasbag57
(g73
g59
NtRp5335
(dp5336
g62
(dp5337
sg71
g5307
sg64
(lp5338
g57
(g78
g59
NtRp5339
(dp5340
g62
(dp5341
sg71
g5335
sg64
(lp5342
g57
(g58
g59
NtRp5343
(dp5344
g62
(dp5345
g70
I1
ssg71
g5339
sg64
(lp5346
g4720
asbasbasbag57
(g73
g59
NtRp5347
(dp5348
g62
(dp5349
sg71
g5307
sg64
(lp5350
g57
(g78
g59
NtRp5351
(dp5352
g62
(dp5353
sg71
g5347
sg64
(lp5354
g57
(g58
g59
NtRp5355
(dp5356
g62
(dp5357
g70
I1
ssg71
g5351
sg64
(lp5358
(lp5359
(g4736
I00
g4734
tp5360
a(g4746
I00
g4744
tp5361
a(g4756
I00
g4754
tp5362
a(g4766
I00
g4764
tp5363
a(g4776
I00
g4774
tp5364
a(g4786
I00
g4784
tp5365
a(g4796
I00
g4794
tp5366
a(g4806
I00
g4804
tp5367
a(g4816
I00
g4814
tp5368
aasbasbasbasbasbasbasbag57
(g73
g59
NtRp5369
(dp5370
g62
(dp5371
sg71
g5239
sg64
(lp5372
g57
(g78
g59
NtRp5373
(dp5374
g62
(dp5375
sg71
g5369
sg64
(lp5376
g57
(g58
g59
NtRp5377
(dp5378
g62
(dp5379
g70
I2
ssg71
g5373
sg64
(lp5380
g57
(g66
g59
NtRp5381
(dp5382
g62
(dp5383
g70
I1
ssg71
Nsg64
(lp5384
g57
(g73
g59
NtRp5385
(dp5386
g62
(dp5387
sg71
g5381
sg64
(lp5388
g57
(g78
g59
NtRp5389
(dp5390
g62
(dp5391
sg71
g5385
sg64
(lp5392
g57
(g58
g59
NtRp5393
(dp5394
g62
(dp5395
g70
I1
ssg71
g5389
sg64
(lp5396
g4826
asbasbasbag57
(g73
g59
NtRp5397
(dp5398
g62
(dp5399
sg71
g5381
sg64
(lp5400
g57
(g78
g59
NtRp5401
(dp5402
g62
(dp5403
sg71
g5397
sg64
(lp5404
g57
(g58
g59
NtRp5405
(dp5406
g62
(dp5407
g70
I1
ssg71
g5401
sg64
(lp5408
I00
asbasbasbag57
(g73
g59
NtRp5409
(dp5410
g62
(dp5411
sg71
g5381
sg64
(lp5412
g57
(g78
g59
NtRp5413
(dp5414
g62
(dp5415
sg71
g5409
sg64
(lp5416
g57
(g58
g59
NtRp5417
(dp5418
g62
(dp5419
g70
I1
ssg71
g5413
sg64
(lp5420
g4824
asbasbasbag57
(g73
g59
NtRp5421
(dp5422
g62
(dp5423
sg71
g5381
sg64
(lp5424
g57
(g78
g59
NtRp5425
(dp5426
g62
(dp5427
sg71
g5421
sg64
(lp5428
g57
(g58
g59
NtRp5429
(dp5430
g62
(dp5431
g70
I1
ssg71
g5425
sg64
(lp5432
(lp5433
(g4840
I00
g4838
tp5434
a(g4850
I00
g4848
tp5435
a(g4860
I00
g4858
tp5436
a(g4870
I00
g4868
tp5437
a(g4880
I00
g4878
tp5438
a(g4890
I00
g4888
tp5439
a(g4900
I00
g4898
tp5440
a(g4910
I00
g4908
tp5441
a(g4920
I00
g4918
tp5442
a(g4930
I00
g4928
tp5443
a(g4940
I00
g4938
tp5444
aasbasbasbasbasbasbasbag57
(g73
g59
NtRp5445
(dp5446
g62
(dp5447
sg71
g5239
sg64
(lp5448
g57
(g78
g59
NtRp5449
(dp5450
g62
(dp5451
sg71
g5445
sg64
(lp5452
g57
(g58
g59
NtRp5453
(dp5454
g62
(dp5455
g70
I2
ssg71
g5449
sg64
(lp5456
g57
(g66
g59
NtRp5457
(dp5458
g62
(dp5459
g70
I1
ssg71
Nsg64
(lp5460
g57
(g73
g59
NtRp5461
(dp5462
g62
(dp5463
sg71
g5457
sg64
(lp5464
g57
(g78
g59
NtRp5465
(dp5466
g62
(dp5467
sg71
g5461
sg64
(lp5468
g57
(g58
g59
NtRp5469
(dp5470
g62
(dp5471
g70
I1
ssg71
g5465
sg64
(lp5472
g4950
asbasbasbag57
(g73
g59
NtRp5473
(dp5474
g62
(dp5475
sg71
g5457
sg64
(lp5476
g57
(g78
g59
NtRp5477
(dp5478
g62
(dp5479
sg71
g5473
sg64
(lp5480
g57
(g58
g59
NtRp5481
(dp5482
g62
(dp5483
g70
I1
ssg71
g5477
sg64
(lp5484
I00
asbasbasbag57
(g73
g59
NtRp5485
(dp5486
g62
(dp5487
sg71
g5457
sg64
(lp5488
g57
(g78
g59
NtRp5489
(dp5490
g62
(dp5491
sg71
g5485
sg64
(lp5492
g57
(g58
g59
NtRp5493
(dp5494
g62
(dp5495
g70
I1
ssg71
g5489
sg64
(lp5496
g4948
asbasbasbag57
(g73
g59
NtRp5497
(dp5498
g62
(dp5499
sg71
g5457
sg64
(lp5500
g57
(g78
g59
NtRp5501
(dp5502
g62
(dp5503
sg71
g5497
sg64
(lp5504
g57
(g58
g59
NtRp5505
(dp5506
g62
(dp5507
g70
I1
ssg71
g5501
sg64
(lp5508
(lp5509
(g4964
I00
g4962
tp5510
a(g4974
I00
g4972
tp5511
a(g4984
I00
g4982
tp5512
a(g4994
I00
g4992
tp5513
a(g5004
I00
g5002
tp5514
a(g5014
I00
g5012
tp5515
a(g5024
I00
g5022
tp5516
a(g5034
I00
g5032
tp5517
a(g5044
I00
g5042
tp5518
a(g5054
I00
g5052
tp5519
a(g5064
I00
g5062
tp5520
a(g5074
I00
g5072
tp5521
a(g5084
I00
g5082
tp5522
a(g5094
I00
g5092
tp5523
a(g5104
I00
g5102
tp5524
a(g5114
I00
g5112
tp5525
aasbasbasbasbasbasbasbag57
(g73
g59
NtRp5526
(dp5527
g62
(dp5528
sg71
g5239
sg64
(lp5529
g57
(g78
g59
NtRp5530
(dp5531
g62
(dp5532
sg71
g5526
sg64
(lp5533
g57
(g58
g59
NtRp5534
(dp5535
g62
(dp5536
g70
I2
ssg71
g5530
sg64
(lp5537
g57
(g66
g59
NtRp5538
(dp5539
g62
(dp5540
g70
I1
ssg71
Nsg64
(lp5541
g57
(g73
g59
NtRp5542
(dp5543
g62
(dp5544
sg71
g5538
sg64
(lp5545
g57
(g78
g59
NtRp5546
(dp5547
g62
(dp5548
sg71
g5542
sg64
(lp5549
g57
(g58
g59
NtRp5550
(dp5551
g62
(dp5552
g70
I1
ssg71
g5546
sg64
(lp5553
g5125
asbasbasbag57
(g73
g59
NtRp5554
(dp5555
g62
(dp5556
sg71
g5538
sg64
(lp5557
g57
(g78
g59
NtRp5558
(dp5559
g62
(dp5560
sg71
g5554
sg64
(lp5561
g57
(g58
g59
NtRp5562
(dp5563
g62
(dp5564
g70
I1
ssg71
g5558
sg64
(lp5565
I00
asbasbasbag57
(g73
g59
NtRp5566
(dp5567
g62
(dp5568
sg71
g5538
sg64
(lp5569
g57
(g78
g59
NtRp5570
(dp5571
g62
(dp5572
sg71
g5566
sg64
(lp5573
g57
(g58
g59
NtRp5574
(dp5575
g62
(dp5576
g70
I1
ssg71
g5570
sg64
(lp5577
Nasbasbasbag57
(g73
g59
NtRp5578
(dp5579
g62
(dp5580
sg71
g5538
sg64
(lp5581
g57
(g78
g59
NtRp5582
(dp5583
g62
(dp5584
sg71
g5578
sg64
(lp5585
g57
(g58
g59
NtRp5586
(dp5587
g62
(dp5588
g70
I1
ssg71
g5582
sg64
(lp5589
(lp5590
(g5139
I00
g5137
tp5591
a(g5149
I00
g5147
tp5592
a(g5159
I00
g5157
tp5593
aasbasbasbasbasbasbasbag57
(g73
g59
NtRp5594
(dp5595
g62
(dp5596
sg71
g5239
sg64
(lp5597
g57
(g78
g59
NtRp5598
(dp5599
g62
(dp5600
sg71
g5594
sg64
(lp5601
g57
(g58
g59
NtRp5602
(dp5603
g62
(dp5604
g70
I2
ssg71
g5598
sg64
(lp5605
g57
(g66
g59
NtRp5606
(dp5607
g62
(dp5608
g70
I1
ssg71
Nsg64
(lp5609
g57
(g73
g59
NtRp5610
(dp5611
g62
(dp5612
sg71
g5606
sg64
(lp5613
g57
(g78
g59
NtRp5614
(dp5615
g62
(dp5616
sg71
g5610
sg64
(lp5617
g57
(g58
g59
NtRp5618
(dp5619
g62
(dp5620
g70
I1
ssg71
g5614
sg64
(lp5621
g5168
asbasbasbag57
(g73
g59
NtRp5622
(dp5623
g62
(dp5624
sg71
g5606
sg64
(lp5625
g57
(g78
g59
NtRp5626
(dp5627
g62
(dp5628
sg71
g5622
sg64
(lp5629
g57
(g58
g59
NtRp5630
(dp5631
g62
(dp5632
g70
I1
ssg71
g5626
sg64
(lp5633
I00
asbasbasbag57
(g73
g59
NtRp5634
(dp5635
g62
(dp5636
sg71
g5606
sg64
(lp5637
g57
(g78
g59
NtRp5638
(dp5639
g62
(dp5640
sg71
g5634
sg64
(lp5641
g57
(g58
g59
NtRp5642
(dp5643
g62
(dp5644
g70
I1
ssg71
g5638
sg64
(lp5645
Nasbasbasbag57
(g73
g59
NtRp5646
(dp5647
g62
(dp5648
sg71
g5606
sg64
(lp5649
g57
(g78
g59
NtRp5650
(dp5651
g62
(dp5652
sg71
g5646
sg64
(lp5653
g57
(g58
g59
NtRp5654
(dp5655
g62
(dp5656
g70
I1
ssg71
g5650
sg64
(lp5657
(lp5658
(g5182
I00
g5180
tp5659
a(g5191
I00
g4908
tp5660
a(g5200
I00
g4918
tp5661
aasbasbasbasbasbasbasbasbasbasbasbasbasbasbasbasbasbasbasbag57
(g73
g59
NtRp5662
(dp5663
g62
(dp5664
sg71
g3951
sg64
(lp5665
g57
(g78
g59
NtRp5666
(dp5667
g62
(dp5668
g82
g83
ssg71
g5662
sg64
(lp5669
S'meta'
p5670
asbag57
(g78
g59
NtRp5671
(dp5672
g62
(dp5673
g89
g90
ssg71
g5662
sg64
(lp5674
S':'
asbag57
(g78
g59
NtRp5675
(dp5676
g62
(dp5677
sg71
g5662
sg64
(lp5678
g57
(g58
g59
NtRp5679
(dp5680
g62
(dp5681
g70
I5
ssg71
g5675
sg64
(lp5682
g57
(g66
g59
NtRp5683
(dp5684
g62
(dp5685
g70
I4
ssg71
Nsg64
(lp5686
g57
(g73
g59
NtRp5687
(dp5688
g62
(dp5689
sg71
g5683
sg64
(lp5690
g57
(g78
g59
NtRp5691
(dp5692
g62
(dp5693
g82
g83
ssg71
g5687
sg64
(lp5694
S'author'
p5695
asbag57
(g78
g59
NtRp5696
(dp5697
g62
(dp5698
g89
g90
ssg71
g5687
sg64
(lp5699
S':'
asbag57
(g78
g59
NtRp5700
(dp5701
g62
(dp5702
sg71
g5687
sg64
(lp5703
g57
(g58
g59
NtRp5704
(dp5705
g62
(dp5706
g70
I4
ssg71
g5700
sg64
(lp5707
S'Your Name <you@example.com>'
p5708
asbasbasbag57
(g73
g59
NtRp5709
(dp5710
g62
(dp5711
sg71
g5683
sg64
(lp5712
g57
(g78
g59
NtRp5713
(dp5714
g62
(dp5715
g82
g83
ssg71
g5709
sg64
(lp5716
S'description'
p5717
asbag57
(g78
g59
NtRp5718
(dp5719
g62
(dp5720
g89
g90
ssg71
g5709
sg64
(lp5721
S':'
asbag57
(g78
g59
NtRp5722
(dp5723
g62
(dp5724
sg71
g5709
sg64
(lp5725
g57
(g58
g59
NtRp5726
(dp5727
g62
(dp5728
g70
I4
ssg71
g5722
sg64
(lp5729
S'a cool new app'
p5730
asbasbasbag57
(g73
g59
NtRp5731
(dp5732
g62
(dp5733
sg71
g5683
sg64
(lp5734
g57
(g78
g59
NtRp5735
(dp5736
g62
(dp5737
g82
g83
ssg71
g5731
sg64
(lp5738
S'generator'
p5739
asbag57
(g78
g59
NtRp5740
(dp5741
g62
(dp5742
g89
g90
ssg71
g5731
sg64
(lp5743
S':'
asbag57
(g78
g59
NtRp5744
(dp5745
g62
(dp5746
sg71
g5731
sg64
(lp5747
g57
(g58
g59
NtRp5748
(dp5749
g62
(dp5750
g70
I4
ssg71
g5744
sg64
(lp5751
S'Web2py Web Framework'
p5752
asbasbasbag57
(g73
g59
NtRp5753
(dp5754
g62
(dp5755
sg71
g5683
sg64
(lp5756
g57
(g78
g59
NtRp5757
(dp5758
g62
(dp5759
g82
g83
ssg71
g5753
sg64
(lp5760
S'keywords'
p5761
asbag57
(g78
g59
NtRp5762
(dp5763
g62
(dp5764
g89
g90
ssg71
g5753
sg64
(lp5765
S':'
asbag57
(g78
g59
NtRp5766
(dp5767
g62
(dp5768
sg71
g5753
sg64
(lp5769
g57
(g58
g59
NtRp5770
(dp5771
g62
(dp5772
g70
I4
ssg71
g5766
sg64
(lp5773
S'web2py, python, framework'
p5774
asbasbasbasbasbasbasbag57
(g73
g59
NtRp5775
(dp5776
g62
(dp5777
sg71
g3951
sg64
(lp5778
g57
(g78
g59
NtRp5779
(dp5780
g62
(dp5781
g82
g83
ssg71
g5775
sg64
(lp5782
S'models_to_run'
p5783
asbag57
(g78
g59
NtRp5784
(dp5785
g62
(dp5786
g89
g90
ssg71
g5775
sg64
(lp5787
S':'
asbag57
(g78
g59
NtRp5788
(dp5789
g62
(dp5790
sg71
g5775
sg64
(lp5791
g57
(g58
g59
NtRp5792
(dp5793
g62
(dp5794
g70
I5
ssg71
g5788
sg64
(lp5795
g57
(g66
g59
NtRp5796
(dp5797
g62
(dp5798
g70
I4
ssg71
Nsg64
(lp5799
g57
(g73
g59
NtRp5800
(dp5801
g62
(dp5802
sg71
g5796
sg64
(lp5803
g57
(g78
g59
NtRp5804
(dp5805
g62
(dp5806
sg71
g5800
sg64
(lp5807
g57
(g58
g59
NtRp5808
(dp5809
g62
(dp5810
g70
I4
ssg71
g5804
sg64
(lp5811
S'^\\w+\\.py$'
p5812
asbasbasbag57
(g73
g59
NtRp5813
(dp5814
g62
(dp5815
sg71
g5796
sg64
(lp5816
g57
(g78
g59
NtRp5817
(dp5818
g62
(dp5819
sg71
g5813
sg64
(lp5820
g57
(g58
g59
NtRp5821
(dp5822
g62
(dp5823
g70
I4
ssg71
g5817
sg64
(lp5824
S'^default/\\w+\\.py$'
p5825
asbasbasbag57
(g73
g59
NtRp5826
(dp5827
g62
(dp5828
sg71
g5796
sg64
(lp5829
g57
(g78
g59
NtRp5830
(dp5831
g62
(dp5832
sg71
g5826
sg64
(lp5833
g57
(g58
g59
NtRp5834
(dp5835
g62
(dp5836
g70
I4
ssg71
g5830
sg64
(lp5837
S'^default/admin_homepage/\\w+\\.py$'
p5838
asbasbasbasbasbasbasbag57
(g73
g59
NtRp5839
(dp5840
g62
(dp5841
sg71
g3951
sg64
(lp5842
g57
(g78
g59
NtRp5843
(dp5844
g62
(dp5845
g82
g83
ssg71
g5839
sg64
(lp5846
S'postprocessing'
p5847
asbag57
(g78
g59
NtRp5848
(dp5849
g62
(dp5850
g89
g90
ssg71
g5839
sg64
(lp5851
S':'
asbag57
(g78
g59
NtRp5852
(dp5853
g62
(dp5854
sg71
g5839
sg64
(lp5855
g57
(g58
g59
NtRp5856
(dp5857
g62
(dp5858
g70
I5
ssg71
g5852
sg64
(lp5859
g57
(g66
g59
NtRp5860
(dp5861
g62
(dp5862
g70
I4
ssg71
Nsg64
(lp5863
sbasbasbasbag57
(g73
g59
NtRp5864
(dp5865
g62
(dp5866
sg71
g3951
sg64
(lp5867
g57
(g78
g59
NtRp5868
(dp5869
g62
(dp5870
g82
g83
ssg71
g5864
sg64
(lp5871
S'session_cookie_expires'
p5872
asbag57
(g78
g59
NtRp5873
(dp5874
g62
(dp5875
g89
g90
ssg71
g5864
sg64
(lp5876
S':'
asbag57
(g78
g59
NtRp5877
(dp5878
g62
(dp5879
sg71
g5864
sg64
(lp5880
g57
(g58
g59
NtRp5881
(dp5882
g62
(dp5883
g70
I5
ssg71
g5877
sg64
(lp5884
S'None'
p5885
asbasbasbag57
(g73
g59
NtRp5886
(dp5887
g62
(dp5888
sg71
g3951
sg64
(lp5889
g57
(g78
g59
NtRp5890
(dp5891
g62
(dp5892
g82
g83
ssg71
g5886
sg64
(lp5893
S'session_data_name'
p5894
asbag57
(g78
g59
NtRp5895
(dp5896
g62
(dp5897
g89
g90
ssg71
g5886
sg64
(lp5898
S':'
asbag57
(g78
g59
NtRp5899
(dp5900
g62
(dp5901
sg71
g5886
sg64
(lp5902
g57
(g58
g59
NtRp5903
(dp5904
g62
(dp5905
g70
I5
ssg71
g5899
sg64
(lp5906
S'session_data_assignment2'
p5907
asbasbasbag57
(g73
g59
NtRp5908
(dp5909
g62
(dp5910
sg71
g3951
sg64
(lp5911
g57
(g78
g59
NtRp5912
(dp5913
g62
(dp5914
g82
g83
ssg71
g5908
sg64
(lp5915
S'session_file'
p5916
asbag57
(g78
g59
NtRp5917
(dp5918
g62
(dp5919
g89
g90
ssg71
g5908
sg64
(lp5920
S':'
asbag57
(g78
g59
NtRp5921
(dp5922
g62
(dp5923
sg71
g5908
sg64
(lp5924
g57
(g58
g59
NtRp5925
(dp5926
g62
(dp5927
g70
I5
ssg71
g5921
sg64
(lp5928
S"<open file '/home/aditi/Desktop/web2py/applications/assignment2/sessions/127.0.0.1-ab45b8d8-bc13-4a07-836b-8bcf4d5f4417', mode 'rb+' at 0xa5b74f0>"
p5929
asbasbasbag57
(g73
g59
NtRp5930
(dp5931
g62
(dp5932
sg71
g3951
sg64
(lp5933
g57
(g78
g59
NtRp5934
(dp5935
g62
(dp5936
g82
g83
ssg71
g5930
sg64
(lp5937
S'session_filename'
p5938
asbag57
(g78
g59
NtRp5939
(dp5940
g62
(dp5941
g89
g90
ssg71
g5930
sg64
(lp5942
S':'
asbag57
(g78
g59
NtRp5943
(dp5944
g62
(dp5945
sg71
g5930
sg64
(lp5946
g57
(g58
g59
NtRp5947
(dp5948
g62
(dp5949
g70
I5
ssg71
g5943
sg64
(lp5950
S'/home/aditi/Desktop/web2py/applications/assignment2/sessions/127.0.0.1-ab45b8d8-bc13-4a07-836b-8bcf4d5f4417'
p5951
asbasbasbag57
(g73
g59
NtRp5952
(dp5953
g62
(dp5954
sg71
g3951
sg64
(lp5955
g57
(g78
g59
NtRp5956
(dp5957
g62
(dp5958
g82
g83
ssg71
g5952
sg64
(lp5959
S'session_id'
p5960
asbag57
(g78
g59
NtRp5961
(dp5962
g62
(dp5963
g89
g90
ssg71
g5952
sg64
(lp5964
S':'
asbag57
(g78
g59
NtRp5965
(dp5966
g62
(dp5967
sg71
g5952
sg64
(lp5968
g57
(g58
g59
NtRp5969
(dp5970
g62
(dp5971
g70
I5
ssg71
g5965
sg64
(lp5972
g475
asbasbasbag57
(g73
g59
NtRp5973
(dp5974
g62
(dp5975
sg71
g3951
sg64
(lp5976
g57
(g78
g59
NtRp5977
(dp5978
g62
(dp5979
g82
g83
ssg71
g5973
sg64
(lp5980
S'session_id_name'
p5981
asbag57
(g78
g59
NtRp5982
(dp5983
g62
(dp5984
g89
g90
ssg71
g5973
sg64
(lp5985
S':'
asbag57
(g78
g59
NtRp5986
(dp5987
g62
(dp5988
sg71
g5973
sg64
(lp5989
g57
(g58
g59
NtRp5990
(dp5991
g62
(dp5992
g70
I5
ssg71
g5986
sg64
(lp5993
g4008
asbasbasbag57
(g73
g59
NtRp5994
(dp5995
g62
(dp5996
sg71
g3951
sg64
(lp5997
g57
(g78
g59
NtRp5998
(dp5999
g62
(dp6000
g82
g83
ssg71
g5994
sg64
(lp6001
S'session_locked'
p6002
asbag57
(g78
g59
NtRp6003
(dp6004
g62
(dp6005
g89
g90
ssg71
g5994
sg64
(lp6006
S':'
asbag57
(g78
g59
NtRp6007
(dp6008
g62
(dp6009
sg71
g5994
sg64
(lp6010
g57
(g58
g59
NtRp6011
(dp6012
g62
(dp6013
g70
I5
ssg71
g6007
sg64
(lp6014
g1868
asbasbasbag57
(g73
g59
NtRp6015
(dp6016
g62
(dp6017
sg71
g3951
sg64
(lp6018
g57
(g78
g59
NtRp6019
(dp6020
g62
(dp6021
g82
g83
ssg71
g6015
sg64
(lp6022
S'session_new'
p6023
asbag57
(g78
g59
NtRp6024
(dp6025
g62
(dp6026
g89
g90
ssg71
g6015
sg64
(lp6027
S':'
asbag57
(g78
g59
NtRp6028
(dp6029
g62
(dp6030
sg71
g6015
sg64
(lp6031
g57
(g58
g59
NtRp6032
(dp6033
g62
(dp6034
g70
I5
ssg71
g6028
sg64
(lp6035
g100
asbasbasbag57
(g73
g59
NtRp6036
(dp6037
g62
(dp6038
sg71
g3951
sg64
(lp6039
g57
(g78
g59
NtRp6040
(dp6041
g62
(dp6042
g82
g83
ssg71
g6036
sg64
(lp6043
S'session_storage_type'
p6044
asbag57
(g78
g59
NtRp6045
(dp6046
g62
(dp6047
g89
g90
ssg71
g6036
sg64
(lp6048
S':'
asbag57
(g78
g59
NtRp6049
(dp6050
g62
(dp6051
sg71
g6036
sg64
(lp6052
g57
(g58
g59
NtRp6053
(dp6054
g62
(dp6055
g70
I5
ssg71
g6049
sg64
(lp6056
g3437
asbasbasbag57
(g73
g59
NtRp6057
(dp6058
g62
(dp6059
sg71
g3951
sg64
(lp6060
g57
(g78
g59
NtRp6061
(dp6062
g62
(dp6063
g82
g83
ssg71
g6057
sg64
(lp6064
S'status'
p6065
asbag57
(g78
g59
NtRp6066
(dp6067
g62
(dp6068
g89
g90
ssg71
g6057
sg64
(lp6069
S':'
asbag57
(g78
g59
NtRp6070
(dp6071
g62
(dp6072
sg71
g6057
sg64
(lp6073
g57
(g58
g59
NtRp6074
(dp6075
g62
(dp6076
g70
I5
ssg71
g6070
sg64
(lp6077
S'200'
p6078
asbasbasbag57
(g73
g59
NtRp6079
(dp6080
g62
(dp6081
sg71
g3951
sg64
(lp6082
g57
(g78
g59
NtRp6083
(dp6084
g62
(dp6085
g82
g83
ssg71
g6079
sg64
(lp6086
S'subtitle'
p6087
asbag57
(g78
g59
NtRp6088
(dp6089
g62
(dp6090
g89
g90
ssg71
g6079
sg64
(lp6091
S':'
asbag57
(g78
g59
NtRp6092
(dp6093
g62
(dp6094
sg71
g6079
sg64
(lp6095
g57
(g58
g59
NtRp6096
(dp6097
g62
(dp6098
g70
I5
ssg71
g6092
sg64
(lp6099
g4590
(S's\r\x00\x00\x00customize me!'
tRp6100
asbasbasbag57
(g73
g59
NtRp6101
(dp6102
g62
(dp6103
sg71
g3951
sg64
(lp6104
g57
(g78
g59
NtRp6105
(dp6106
g62
(dp6107
g82
g83
ssg71
g6101
sg64
(lp6108
S'title'
p6109
asbag57
(g78
g59
NtRp6110
(dp6111
g62
(dp6112
g89
g90
ssg71
g6101
sg64
(lp6113
S':'
asbag57
(g78
g59
NtRp6114
(dp6115
g62
(dp6116
sg71
g6101
sg64
(lp6117
g57
(g58
g59
NtRp6118
(dp6119
g62
(dp6120
g70
I5
ssg71
g6114
sg64
(lp6121
S'Assignment2'
p6122
asbasbasbag57
(g73
g59
NtRp6123
(dp6124
g62
(dp6125
sg71
g3951
sg64
(lp6126
g57
(g78
g59
NtRp6127
(dp6128
g62
(dp6129
g82
g83
ssg71
g6123
sg64
(lp6130
S'view'
p6131
asbag57
(g78
g59
NtRp6132
(dp6133
g62
(dp6134
g89
g90
ssg71
g6123
sg64
(lp6135
S':'
asbag57
(g78
g59
NtRp6136
(dp6137
g62
(dp6138
sg71
g6123
sg64
(lp6139
g57
(g58
g59
NtRp6140
(dp6141
g62
(dp6142
g70
I5
ssg71
g6136
sg64
(lp6143
S'default/admin_homepage.html'
p6144
asbasbasbasbasbsS'locals'
p6145
(dp6146
S'Service'
p6147
S"<class 'gluon.tools.Service'>"
p6148
sS'OBJECT'
p6149
S"<class 'gluon.html.OBJECT'>"
p6150
sS'SQLDB'
p6151
S"<class 'gluon.dal.DAL'>"
p6152
sg3490
S"<Storage {'_formkey[no_table/create]': 'b3d60087...: '', 'id': 2}>, 'user_groups': {2: 'user_2'}}>}>"
p6153
sS'LINK'
p6154
S"<class 'gluon.html.LINK'>"
p6155
sS'BR'
p6156
S"<class 'gluon.html.BR'>"
p6157
sS'local_import'
p6158
S'<function <lambda>>'
p6159
sS'OPTGROUP'
p6160
S"<class 'gluon.html.OPTGROUP'>"
p6161
sS'__package__'
p6162
S'None'
p6163
sS'PRE'
p6164
S"<class 'gluon.html.PRE'>"
p6165
sS'IS_INT_IN_RANGE'
p6166
S"<class 'gluon.validators.IS_INT_IN_RANGE'>"
p6167
sS'left_sidebar_enabled'
p6168
g100
sS'IS_LOWER'
p6169
S"<class 'gluon.validators.IS_LOWER'>"
p6170
sS'IS_STRONG'
p6171
S"<class 'gluon.validators.IS_STRONG'>"
p6172
sS'cache'
p6173
S'<gluon.cache.Cache object>'
p6174
sS'IS_IN_DB'
p6175
S"<class 'gluon.validators.IS_IN_DB'>"
p6176
sS'TAG'
p6177
S'<gluon.html.__TAG__ object>'
p6178
sS'SQLField'
p6179
S"<class 'gluon.dal.Field'>"
p6180
sS'mail'
p6181
S'<gluon.tools.Mail object>'
p6182
sS'BODY'
p6183
S"<class 'gluon.html.BODY'>"
p6184
sS'IS_DATE_IN_RANGE'
p6185
S"<class 'gluon.validators.IS_DATE_IN_RANGE'>"
p6186
sS'IFRAME'
p6187
S"<class 'gluon.html.IFRAME'>"
p6188
sS'URL'
p6189
S'<function URL>'
p6190
sS'__file__'
p6191
S"'/home/aditi/Desktop/web2py/applications/assignment2/views/default/admin_homepage.html'"
p6192
sS'db'
p6193
S'<DAL uri="sqlite://storage.sqlite">'
p6194
sS'auth'
p6195
S'<gluon.tools.Auth object>'
p6196
sS'P'
S"<class 'gluon.html.P'>"
p6197
sS'TFOOT'
p6198
S"<class 'gluon.html.TFOOT'>"
p6199
sS'XHTML'
p6200
S"<class 'gluon.html.XHTML'>"
p6201
sS'ON'
p6202
g1868
sS'OL'
p6203
S"<class 'gluon.html.OL'>"
p6204
sS'TEXTAREA'
p6205
S"<class 'gluon.html.TEXTAREA'>"
p6206
sS'MENU'
p6207
S"<class 'gluon.html.MENU'>"
p6208
sS'l'
S'<Rows (1)>'
p6209
sS'form2'
p6210
S'[]'
p6211
sS'form1'
p6212
S'<gluon.sqlhtml.SQLFORM object>'
p6213
sS'IS_IMAGE'
p6214
S"<class 'gluon.validators.IS_IMAGE'>"
p6215
sS'x'
S'1'
sS'EM'
p6216
S"<class 'gluon.html.EM'>"
p6217
sS'CODE'
p6218
S"<class 'gluon.html.CODE'>"
p6219
sS'HTTP'
p6220
S"<class 'gluon.http.HTTP'>"
p6221
sS'HR'
p6222
S"<class 'gluon.html.HR'>"
p6223
sS'IS_DATETIME'
p6224
S"<class 'gluon.validators.IS_DATETIME'>"
p6225
sS'STYLE'
p6226
S"<class 'gluon.html.STYLE'>"
p6227
sS'LABEL'
p6228
S"<class 'gluon.html.LABEL'>"
p6229
sS'CLEANUP'
p6230
S"<class 'gluon.validators.CLEANUP'>"
p6231
sS'plugins'
p6232
S'<gluon.tools.PluginManager object>'
p6233
sS'SELECT'
p6234
S"<class 'gluon.html.SELECT'>"
p6235
sS'use_janrain'
p6236
S'<function use_janrain>'
p6237
sS'CENTER'
p6238
S"<class 'gluon.html.CENTER'>"
p6239
sS'prettydate'
p6240
S'<function prettydate>'
p6241
sS'Crud'
p6242
S"<class 'gluon.tools.Crud'>"
p6243
sS'Auth'
p6244
S"<class 'gluon.tools.Auth'>"
p6245
sS'DEVELOPMENT_MENU'
p6246
g1868
sS'__builtins__'
p6247
S"{'ArithmeticError': <type 'exceptions.ArithmeticError'>, 'AssertionError': <type 'exceptions.AssertionError'>, 'AttributeError': <type 'exceptions.AttributeError'>, 'BaseException': <type 'exceptions.BaseException'>, 'BufferError': <type 'exceptions.BufferError'>, 'BytesWarning': <type 'exceptions.BytesWarning'>, 'DeprecationWarning': <type 'exceptions.DeprecationWarning'>, 'EOFError': <type 'exceptions.EOFError'>, 'Ellipsis': Ellipsis, 'EnvironmentError': <type 'exceptions.EnvironmentError'>, ...}"
p6248
sS'HTML'
p6249
S"<class 'gluon.html.HTML'>"
p6250
sS'SQLFORM'
p6251
S"<class 'gluon.sqlhtml.SQLFORM'>"
p6252
sS'LOAD'
p6253
S'<function LOAD>'
p6254
sS'redirect'
p6255
S'<function redirect>'
p6256
sS'FIELDSET'
p6257
S"<class 'gluon.html.FIELDSET'>"
p6258
sS'IS_EQUAL_TO'
p6259
S"<class 'gluon.validators.IS_EQUAL_TO'>"
p6260
sS'embed64'
p6261
S'<function embed64>'
p6262
sS'IS_LIST_OF'
p6263
S"<class 'gluon.validators.IS_LIST_OF'>"
p6264
sS'INPUT'
p6265
S"<class 'gluon.html.INPUT'>"
p6266
sS'EMBED'
p6267
S"<class 'gluon.html.EMBED'>"
p6268
sS'_'
S'<function _>'
p6269
sS'c'
S'<Rows (1)>'
p6270
sS'H2'
p6271
S"<class 'gluon.html.H2'>"
p6272
sS'H3'
p6273
S"<class 'gluon.html.H3'>"
p6274
sS'BUTTON'
p6275
S"<class 'gluon.html.BUTTON'>"
p6276
sS'H1'
p6277
S"<class 'gluon.html.H1'>"
p6278
sS'H6'
p6279
S"<class 'gluon.html.H6'>"
p6280
sS'H4'
p6281
S"<class 'gluon.html.H4'>"
p6282
sS'H5'
p6283
S"<class 'gluon.html.H5'>"
p6284
sS'UL'
p6285
S"<class 'gluon.html.UL'>"
p6286
sS'IS_UPPER'
p6287
S"<class 'gluon.validators.IS_UPPER'>"
p6288
sS'xmlescape'
p6289
S'<function xmlescape>'
p6290
sS'IS_TIME'
p6291
S"<class 'gluon.validators.IS_TIME'>"
p6292
sS'OPTION'
p6293
S"<class 'gluon.html.OPTION'>"
p6294
sS'TITLE'
p6295
S"<class 'gluon.html.TITLE'>"
p6296
sS'CRYPT'
p6297
S"<class 'gluon.validators.CRYPT'>"
p6298
sS'IS_EMPTY_OR'
p6299
S"<class 'gluon.validators.IS_EMPTY_OR'>"
p6300
sS'MARKMIN'
p6301
S"<class 'gluon.html.MARKMIN'>"
p6302
sS'__name__'
p6303
S"'__restricted__'"
p6304
sS'STRONG'
p6305
S"<class 'gluon.html.STRONG'>"
p6306
sS'COL'
p6307
S"<class 'gluon.html.COL'>"
p6308
sS'service'
p6309
S'<gluon.tools.Service object>'
p6310
sS'SCRIPT'
p6311
S"<class 'gluon.html.SCRIPT'>"
p6312
sS'is_mobile'
p6313
g100
sS'TABLE'
p6314
S"<class 'gluon.html.TABLE'>"
p6315
sS'IS_IPV4'
p6316
S"<class 'gluon.validators.IS_IPV4'>"
p6317
sS'IS_LENGTH'
p6318
S"<class 'gluon.validators.IS_LENGTH'>"
p6319
sS'XML'
p6320
S"<class 'gluon.html.XML'>"
p6321
sS'B'
S"<class 'gluon.html.B'>"
p6322
sS'IMG'
p6323
S"<class 'gluon.html.IMG'>"
p6324
sS'SQLTABLE'
p6325
S"<class 'gluon.sqlhtml.SQLTABLE'>"
p6326
sS'IS_MATCH'
p6327
S"<class 'gluon.validators.IS_MATCH'>"
p6328
sS'IS_ALPHANUMERIC'
p6329
S"<class 'gluon.validators.IS_ALPHANUMERIC'>"
p6330
sS'count'
p6331
S'0'
sS'SPAN'
p6332
S"<class 'gluon.html.SPAN'>"
p6333
sS'f'
S'<Rows (1)>'
p6334
sS'IS_SLUG'
p6335
S"<class 'gluon.validators.IS_SLUG'>"
p6336
sS'n'
S'<Rows (0)>'
p6337
sS'BEAUTIFY'
p6338
S"<class 'gluon.html.BEAUTIFY'>"
p6339
sS'META'
p6340
S"<class 'gluon.html.META'>"
p6341
sS'IS_DATE'
p6342
S"<class 'gluon.validators.IS_DATE'>"
p6343
sS'IS_EMAIL'
p6344
S"<class 'gluon.validators.IS_EMAIL'>"
p6345
sS'IS_NOT_EMPTY'
p6346
S"<class 'gluon.validators.IS_NOT_EMPTY'>"
p6347
sS'IS_FLOAT_IN_RANGE'
p6348
S"<class 'gluon.validators.IS_FLOAT_IN_RANGE'>"
p6349
sS'TBODY'
p6350
S"<class 'gluon.html.TBODY'>"
p6351
sS'CAT'
p6352
S"<class 'gluon.html.CAT'>"
p6353
sS'Field'
p6354
S"<class 'gluon.dal.Field'>"
p6355
sS'middle_columns'
p6356
S"'span12'"
p6357
sS'DIV'
p6358
S"<class 'gluon.html.DIV'>"
p6359
sS'LEGEND'
p6360
S"<class 'gluon.html.LEGEND'>"
p6361
sS'COLGROUP'
p6362
S"<class 'gluon.html.COLGROUP'>"
p6363
sS'DAL'
p6364
S"<class 'gluon.dal.DAL'>"
p6365
sS'TT'
p6366
S"<class 'gluon.html.TT'>"
p6367
sS'TR'
p6368
S"<class 'gluon.html.TR'>"
p6369
sS'LI'
p6370
S"<class 'gluon.html.LI'>"
p6371
sS'right_sidebar_enabled'
p6372
g100
sS'TH'
p6373
S"<class 'gluon.html.TH'>"
p6374
sS'TD'
p6375
S"<class 'gluon.html.TD'>"
p6376
sS'PluginManager'
p6377
S"<class 'gluon.tools.PluginManager'>"
p6378
sS'IS_URL'
p6379
S"<class 'gluon.validators.IS_URL'>"
p6380
sS'A'
S"<class 'gluon.html.A'>"
p6381
sS'HEAD'
p6382
S"<class 'gluon.html.HEAD'>"
p6383
sS'IS_DATETIME_IN_RANGE'
p6384
S"<class 'gluon.validators.IS_DATETIME_IN_RANGE'>"
p6385
sS'FORM'
p6386
S"<class 'gluon.html.FORM'>"
p6387
sS'I'
S"<class 'gluon.html.I'>"
p6388
sS'crud'
p6389
S'<gluon.tools.Crud object>'
p6390
sS'IS_NOT_IN_DB'
p6391
S"<class 'gluon.validators.IS_NOT_IN_DB'>"
p6392
sg3946
S"<Storage {'body': <cStringIO.StringO object at 0...c9b6a3c>, 'view': 'default/admin_homepage.html'}>"
p6393
sS'THEAD'
p6394
S"<class 'gluon.html.THEAD'>"
p6395
sS'a'
S'2'
sS'IS_NULL_OR'
p6396
S"<class 'gluon.validators.IS_EMPTY_OR'>"
p6397
sS'i'
S'0'
sg56
S"<Storage {'function': 'admin_homepage', 'body': ...41ddf7563307', '_formname': 'no_table/create'}>}>"
p6398
sS'IS_EXPR'
p6399
S"<class 'gluon.validators.IS_EXPR'>"
p6400
sS'T'
S'<gluon.languages.translator object>'
p6401
sS'IS_IN_SET'
p6402
S"<class 'gluon.validators.IS_IN_SET'>"
p6403
sS'IS_UPLOAD_FILENAME'
p6404
S"<class 'gluon.validators.IS_UPLOAD_FILENAME'>"
p6405
sS'IS_DECIMAL_IN_RANGE'
p6406
S"<class 'gluon.validators.IS_DECIMAL_IN_RANGE'>"
p6407
sssS'traceback'
p6408
S'Traceback (most recent call last):\n  File "/home/aditi/Desktop/web2py/gluon/restricted.py", line 212, in restricted\n    exec ccode in environment\n  File "/home/aditi/Desktop/web2py/applications/assignment2/views/default/admin_homepage.html", line 93, in <module>\nNameError: name \'total\' is not defined\n'
p6409
s.