(dp1
S'output'
p2
S"<type 'exceptions.TypeError'> list indices must be integers, not str"
p3
sS'layer'
p4
S'/home/aditi/Desktop/web2py/applications/assignment2/controllers/default.py'
p5
sS'code'
p6
S'# -*- coding: utf-8 -*-\n# this file is released under public domain and you can use without limitations\n\n#########################################################################\n## This is a samples controller\n## - index is the default action of any application\n## - user is required for authentication and authorization\n## - download is for downloading files uploaded in the db (does streaming)\n## - call exposes all registered services (none by default)\n#########################################################################\n\ntotal=0\n@auth.requires_login()\ndef index():\n    """\n    example action using the internationalization operator T and flash\n    rendered by views/default/index.html or views/generic.html\n\n    if you need a simple wiki simple replace the two lines below with:\n    return auth.wiki()\n    """\n    a=auth.user.id\n    b=db(db.auth_user.id==a).select(db.auth_user.username,db.auth_user.account_type)\n    if b[0][\'account_type\']==\'user\':\n        redirect(URL(r=request,f=\'user_homepage\'))\n    elif b[0][\'account_type\']==\'admin\':\n        redirect(URL(r=request,f=\'intermediate\'))\n    else:\n        response.flash="You may not be having an account"\n    return locals()\n\ndef user_homepage():\n    a=auth.user_id\n    f=db(db.auth_user.id==a).select(db.auth_user.first_name)\n    l=db(db.auth_user.id==a).select(db.auth_user.last_name)\n    d=db().select(db.category.name)\n    form=SQLFORM.factory(db.Field(\'category\',\'string\',requires=IS_IN_SET([d[\'name\']]),label=\'Enter category\'),\n                        Field(\'heading\',\'string\',label=\'Enter heading\'),\n                        Field(\'choice\',\'string\',requires=IS_IN_SET([\'article\',\'video\'])),\n                        Field(\'url\',\'string\',requires=IS_URL(),label=\'Enter URL\'))\n    if(form.accepts(request.vars,session)):\n        db.newsitem.insert(category=form.vars.category,heading=form.vars.heading,url=form.vars.url,points=100,likes=0,dislikes=0,rating=1)\n        total+=1\n        response.flash=\'News item successfully added\'\n    n=db().select(db.newsitem.ALL)\n    c=db().select(db.category.name)\n    return locals()\n\ndef intermediate():\n    form=SQLFORM.factory(db.Field(\'key\',\'password\',readable=False))\n    if(form.accepts(request.vars,session)):\n        if form.vars.key==\'ab%k20*(kd12$\':\n            redirect(URL(r=request,f=\'admin_homepage\'))\n        else:\n            response.flash="Wrong key entered."\n    return locals()\n\ndef admin_homepage():\n    a=auth.user.id\n    count=0\n    f=db(db.auth_user.id==a).select(db.auth_user.first_name)\n    l=db(db.auth_user.id==a).select(db.auth_user.last_name)\n    form1=SQLFORM.factory(db.Field(\'category\',\'string\',label=\'Enter category\'))\n    if(form1.accepts(request.vars,session)):\n        db.category.insert(name=form1.vars.category)\n        response.flash=\'New category successfully added.\'\n    n=db().select(db.newsitem.ALL)\n    c=db().select(db.category.name)\n    form2=[]\n    for i in range(len(c)):\n        for j in range(total):\n             if n[j][\'category\']==c[i][\'name\']:\n                  form2.append(SQLFORM.factory(submit_button="Delete post"))\n                  if form2[count].process(formname=\'form2[%d]\'%count).accepted:\n                      db(db.newsitem.heading==n[j][\'heading\'] & db.newsitem.url==n[j][\'url\']).delete()\n                      redirect(URL(r=request,f=\'admin_homepage\'))\n                  count+=1\n    return locals()\n\ndef user():\n    """\n    exposes:\n    http://..../[app]/default/user/login\n    http://..../[app]/default/user/logout\n    http://..../[app]/default/user/register\n    http://..../[app]/default/user/profile\n    http://..../[app]/default/user/retrieve_password\n    http://..../[app]/default/user/change_password\n    use @auth.requires_login()\n        @auth.requires_membership(\'group name\')\n        @auth.requires_permission(\'read\',\'table name\',record_id)\n    to decorate functions that need access control\n    """\n    return dict(form=auth())\n\n\ndef download():\n    """\n    allows downloading of uploaded files\n    http://..../[app]/default/download/[filename]\n    """\n    return response.download(request, db)\n\n\ndef call():\n    """\n    exposes services. for example:\n    http://..../[app]/default/call/jsonrpc\n    decorate with @services.jsonrpc the functions to expose\n    supports xml, json, xmlrpc, jsonrpc, amfrpc, rss, csv\n    """\n    return service()\n\n\n@auth.requires_signature()\ndef data():\n    """\n    http://..../[app]/default/data/tables\n    http://..../[app]/default/data/create/[table]\n    http://..../[app]/default/data/read/[table]/[id]\n    http://..../[app]/default/data/update/[table]/[id]\n    http://..../[app]/default/data/delete/[table]/[id]\n    http://..../[app]/default/data/select/[table]\n    http://..../[app]/default/data/search/[table]\n    but URLs must be signed, i.e. linked with\n      A(\'table\',_href=URL(\'data/tables\',user_signature=True))\n    or with the signed load operator\n      LOAD(\'default\',\'data.load\',args=\'tables\',ajax=True,user_signature=True)\n    """\n    return dict(form=crud())\n\nresponse._vars=response._caller(user_homepage)\n'
p7
sS'snapshot'
p8
(dp9
S'exception'
p10
(dp11
S'__hash__'
p12
S"<method-wrapper '__hash__' of exceptions.TypeError object>"
p13
sS'__setattr__'
p14
S"<method-wrapper '__setattr__' of exceptions.TypeError object>"
p15
sS'__reduce_ex__'
p16
S'<built-in method __reduce_ex__ of exceptions.TypeError object>'
p17
sS'__getslice__'
p18
S"<method-wrapper '__getslice__' of exceptions.TypeError object>"
p19
sS'__getitem__'
p20
S"<method-wrapper '__getitem__' of exceptions.TypeError object>"
p21
sS'__setstate__'
p22
S'<built-in method __setstate__ of exceptions.TypeError object>'
p23
sS'__reduce__'
p24
S'<built-in method __reduce__ of exceptions.TypeError object>'
p25
sS'__str__'
p26
S"<method-wrapper '__str__' of exceptions.TypeError object>"
p27
sS'__format__'
p28
S'<built-in method __format__ of exceptions.TypeError object>'
p29
sS'__getattribute__'
p30
S"<method-wrapper '__getattribute__' of exceptions.TypeError object>"
p31
sS'__class__'
p32
S"<type 'exceptions.TypeError'>"
p33
sS'__unicode__'
p34
S'<built-in method __unicode__ of exceptions.TypeError object>'
p35
sS'__delattr__'
p36
S"<method-wrapper '__delattr__' of exceptions.TypeError object>"
p37
sS'__subclasshook__'
p38
S'<built-in method __subclasshook__ of type object>'
p39
sS'__repr__'
p40
S"<method-wrapper '__repr__' of exceptions.TypeError object>"
p41
sS'args'
p42
S"('list indices must be integers, not str',)"
p43
sS'__dict__'
p44
S'{}'
p45
sS'__sizeof__'
p46
S'<built-in method __sizeof__ of exceptions.TypeError object>'
p47
sS'__doc__'
p48
S"'Inappropriate argument type.'"
p49
sS'__init__'
p50
S"<method-wrapper '__init__' of exceptions.TypeError object>"
p51
sS'__new__'
p52
S'<built-in method __new__ of type object>'
p53
ssS'evalue'
p54
S'list indices must be integers, not str'
p55
sS'request'
p56
ccopy_reg
_reconstructor
p57
(cgluon.html
BEAUTIFY
p58
c__builtin__
object
p59
NtRp60
(dp61
S'attributes'
p62
(dp63
sS'components'
p64
(lp65
g57
(cgluon.html
TABLE
p66
g59
NtRp67
(dp68
g62
(dp69
S'level'
p70
I5
ssS'parent'
p71
Nsg64
(lp72
g57
(cgluon.html
TR
p73
g59
NtRp74
(dp75
g62
(dp76
sg71
g67
sg64
(lp77
g57
(cgluon.html
TD
p78
g59
NtRp79
(dp80
g62
(dp81
S'_style'
p82
S'font-weight:bold;vertical-align:top'
p83
ssg71
g74
sg64
(lp84
S'ajax'
p85
asbag57
(g78
g59
NtRp86
(dp87
g62
(dp88
S'_valign'
p89
S'top'
p90
ssg71
g74
sg64
(lp91
S':'
asbag57
(g78
g59
NtRp92
(dp93
g62
(dp94
sg71
g74
sg64
(lp95
g57
(g58
g59
NtRp96
(dp97
g62
(dp98
g70
I5
ssg71
g92
sg64
(lp99
S'False'
p100
asbasbasbag57
(g73
g59
NtRp101
(dp102
g62
(dp103
sg71
g67
sg64
(lp104
g57
(g78
g59
NtRp105
(dp106
g62
(dp107
g82
g83
ssg71
g101
sg64
(lp108
S'application'
p109
asbag57
(g78
g59
NtRp110
(dp111
g62
(dp112
g89
g90
ssg71
g101
sg64
(lp113
S':'
asbag57
(g78
g59
NtRp114
(dp115
g62
(dp116
sg71
g101
sg64
(lp117
g57
(g58
g59
NtRp118
(dp119
g62
(dp120
g70
I5
ssg71
g114
sg64
(lp121
S'assignment2'
p122
asbasbasbag57
(g73
g59
NtRp123
(dp124
g62
(dp125
sg71
g67
sg64
(lp126
g57
(g78
g59
NtRp127
(dp128
g62
(dp129
g82
g83
ssg71
g123
sg64
(lp130
g42
asbag57
(g78
g59
NtRp131
(dp132
g62
(dp133
g89
g90
ssg71
g123
sg64
(lp134
S':'
asbag57
(g78
g59
NtRp135
(dp136
g62
(dp137
sg71
g123
sg64
(lp138
g57
(g58
g59
NtRp139
(dp140
g62
(dp141
g70
I5
ssg71
g135
sg64
(lp142
g57
(g66
g59
NtRp143
(dp144
g62
(dp145
g70
I4
ssg71
Nsg64
(lp146
sbasbasbasbag57
(g73
g59
NtRp147
(dp148
g62
(dp149
sg71
g67
sg64
(lp150
g57
(g78
g59
NtRp151
(dp152
g62
(dp153
g82
g83
ssg71
g147
sg64
(lp154
S'body'
p155
asbag57
(g78
g59
NtRp156
(dp157
g62
(dp158
g89
g90
ssg71
g147
sg64
(lp159
S':'
asbag57
(g78
g59
NtRp160
(dp161
g62
(dp162
sg71
g147
sg64
(lp163
g57
(g58
g59
NtRp164
(dp165
g62
(dp166
g70
I5
ssg71
g160
sg64
(lp167
S'<cStringIO.StringO object at 0xaa1ea20>'
p168
asbasbasbag57
(g73
g59
NtRp169
(dp170
g62
(dp171
sg71
g67
sg64
(lp172
g57
(g78
g59
NtRp173
(dp174
g62
(dp175
g82
g83
ssg71
g169
sg64
(lp176
S'cid'
p177
asbag57
(g78
g59
NtRp178
(dp179
g62
(dp180
g89
g90
ssg71
g169
sg64
(lp181
S':'
asbag57
(g78
g59
NtRp182
(dp183
g62
(dp184
sg71
g169
sg64
(lp185
g57
(g58
g59
NtRp186
(dp187
g62
(dp188
g70
I5
ssg71
g182
sg64
(lp189
S'None'
p190
asbasbasbag57
(g73
g59
NtRp191
(dp192
g62
(dp193
sg71
g67
sg64
(lp194
g57
(g78
g59
NtRp195
(dp196
g62
(dp197
g82
g83
ssg71
g191
sg64
(lp198
S'client'
p199
asbag57
(g78
g59
NtRp200
(dp201
g62
(dp202
g89
g90
ssg71
g191
sg64
(lp203
S':'
asbag57
(g78
g59
NtRp204
(dp205
g62
(dp206
sg71
g191
sg64
(lp207
g57
(g58
g59
NtRp208
(dp209
g62
(dp210
g70
I5
ssg71
g204
sg64
(lp211
S'127.0.0.1'
p212
asbasbasbag57
(g73
g59
NtRp213
(dp214
g62
(dp215
sg71
g67
sg64
(lp216
g57
(g78
g59
NtRp217
(dp218
g62
(dp219
g82
g83
ssg71
g213
sg64
(lp220
S'controller'
p221
asbag57
(g78
g59
NtRp222
(dp223
g62
(dp224
g89
g90
ssg71
g213
sg64
(lp225
S':'
asbag57
(g78
g59
NtRp226
(dp227
g62
(dp228
sg71
g213
sg64
(lp229
g57
(g58
g59
NtRp230
(dp231
g62
(dp232
g70
I5
ssg71
g226
sg64
(lp233
S'default'
p234
asbasbasbag57
(g73
g59
NtRp235
(dp236
g62
(dp237
sg71
g67
sg64
(lp238
g57
(g78
g59
NtRp239
(dp240
g62
(dp241
g82
g83
ssg71
g235
sg64
(lp242
S'cookies'
p243
asbag57
(g78
g59
NtRp244
(dp245
g62
(dp246
g89
g90
ssg71
g235
sg64
(lp247
S':'
asbag57
(g78
g59
NtRp248
(dp249
g62
(dp250
sg71
g235
sg64
(lp251
g57
(g58
g59
NtRp252
(dp253
g62
(dp254
g70
I5
ssg71
g248
sg64
(lp255
g57
(g66
g59
NtRp256
(dp257
g62
(dp258
g70
I4
ssg71
Nsg64
(lp259
g57
(g73
g59
NtRp260
(dp261
g62
(dp262
sg71
g256
sg64
(lp263
g57
(g78
g59
NtRp264
(dp265
g62
(dp266
g82
g83
ssg71
g260
sg64
(lp267
S'session_id_admin'
p268
asbag57
(g78
g59
NtRp269
(dp270
g62
(dp271
g89
g90
ssg71
g260
sg64
(lp272
S':'
asbag57
(g78
g59
NtRp273
(dp274
g62
(dp275
sg71
g260
sg64
(lp276
g57
(g58
g59
NtRp277
(dp278
g62
(dp279
g70
I4
ssg71
g273
sg64
(lp280
S'127.0.0.1-9c0e4d2d-c8df-42da-a1dd-3cd897b96f95'
p281
ag57
(g66
g59
NtRp282
(dp283
g62
(dp284
g70
I3
ssg71
Nsg64
(lp285
g57
(g73
g59
NtRp286
(dp287
g62
(dp288
sg71
g282
sg64
(lp289
g57
(g78
g59
NtRp290
(dp291
g62
(dp292
g82
g83
ssg71
g286
sg64
(lp293
S'comment'
p294
asbag57
(g78
g59
NtRp295
(dp296
g62
(dp297
g89
g90
ssg71
g286
sg64
(lp298
S':'
asbag57
(g78
g59
NtRp299
(dp300
g62
(dp301
sg71
g286
sg64
(lp302
g57
(g58
g59
NtRp303
(dp304
g62
(dp305
g70
I3
ssg71
g299
sg64
(lp306
S''
asbasbasbag57
(g73
g59
NtRp307
(dp308
g62
(dp309
sg71
g282
sg64
(lp310
g57
(g78
g59
NtRp311
(dp312
g62
(dp313
g82
g83
ssg71
g307
sg64
(lp314
S'domain'
p315
asbag57
(g78
g59
NtRp316
(dp317
g62
(dp318
g89
g90
ssg71
g307
sg64
(lp319
S':'
asbag57
(g78
g59
NtRp320
(dp321
g62
(dp322
sg71
g307
sg64
(lp323
g57
(g58
g59
NtRp324
(dp325
g62
(dp326
g70
I3
ssg71
g320
sg64
(lp327
S''
asbasbasbag57
(g73
g59
NtRp328
(dp329
g62
(dp330
sg71
g282
sg64
(lp331
g57
(g78
g59
NtRp332
(dp333
g62
(dp334
g82
g83
ssg71
g328
sg64
(lp335
S'expires'
p336
asbag57
(g78
g59
NtRp337
(dp338
g62
(dp339
g89
g90
ssg71
g328
sg64
(lp340
S':'
asbag57
(g78
g59
NtRp341
(dp342
g62
(dp343
sg71
g328
sg64
(lp344
g57
(g58
g59
NtRp345
(dp346
g62
(dp347
g70
I3
ssg71
g341
sg64
(lp348
S''
asbasbasbag57
(g73
g59
NtRp349
(dp350
g62
(dp351
sg71
g282
sg64
(lp352
g57
(g78
g59
NtRp353
(dp354
g62
(dp355
g82
g83
ssg71
g349
sg64
(lp356
S'httponly'
p357
asbag57
(g78
g59
NtRp358
(dp359
g62
(dp360
g89
g90
ssg71
g349
sg64
(lp361
S':'
asbag57
(g78
g59
NtRp362
(dp363
g62
(dp364
sg71
g349
sg64
(lp365
g57
(g58
g59
NtRp366
(dp367
g62
(dp368
g70
I3
ssg71
g362
sg64
(lp369
S''
asbasbasbag57
(g73
g59
NtRp370
(dp371
g62
(dp372
sg71
g282
sg64
(lp373
g57
(g78
g59
NtRp374
(dp375
g62
(dp376
g82
g83
ssg71
g370
sg64
(lp377
S'max-age'
p378
asbag57
(g78
g59
NtRp379
(dp380
g62
(dp381
g89
g90
ssg71
g370
sg64
(lp382
S':'
asbag57
(g78
g59
NtRp383
(dp384
g62
(dp385
sg71
g370
sg64
(lp386
g57
(g58
g59
NtRp387
(dp388
g62
(dp389
g70
I3
ssg71
g383
sg64
(lp390
S''
asbasbasbag57
(g73
g59
NtRp391
(dp392
g62
(dp393
sg71
g282
sg64
(lp394
g57
(g78
g59
NtRp395
(dp396
g62
(dp397
g82
g83
ssg71
g391
sg64
(lp398
S'path'
p399
asbag57
(g78
g59
NtRp400
(dp401
g62
(dp402
g89
g90
ssg71
g391
sg64
(lp403
S':'
asbag57
(g78
g59
NtRp404
(dp405
g62
(dp406
sg71
g391
sg64
(lp407
g57
(g58
g59
NtRp408
(dp409
g62
(dp410
g70
I3
ssg71
g404
sg64
(lp411
S''
asbasbasbag57
(g73
g59
NtRp412
(dp413
g62
(dp414
sg71
g282
sg64
(lp415
g57
(g78
g59
NtRp416
(dp417
g62
(dp418
g82
g83
ssg71
g412
sg64
(lp419
S'secure'
p420
asbag57
(g78
g59
NtRp421
(dp422
g62
(dp423
g89
g90
ssg71
g412
sg64
(lp424
S':'
asbag57
(g78
g59
NtRp425
(dp426
g62
(dp427
sg71
g412
sg64
(lp428
g57
(g58
g59
NtRp429
(dp430
g62
(dp431
g70
I3
ssg71
g425
sg64
(lp432
S''
asbasbasbag57
(g73
g59
NtRp433
(dp434
g62
(dp435
sg71
g282
sg64
(lp436
g57
(g78
g59
NtRp437
(dp438
g62
(dp439
g82
g83
ssg71
g433
sg64
(lp440
S'version'
p441
asbag57
(g78
g59
NtRp442
(dp443
g62
(dp444
g89
g90
ssg71
g433
sg64
(lp445
S':'
asbag57
(g78
g59
NtRp446
(dp447
g62
(dp448
sg71
g433
sg64
(lp449
g57
(g58
g59
NtRp450
(dp451
g62
(dp452
g70
I3
ssg71
g446
sg64
(lp453
S''
asbasbasbasbasbasbasbag57
(g73
g59
NtRp454
(dp455
g62
(dp456
sg71
g256
sg64
(lp457
g57
(g78
g59
NtRp458
(dp459
g62
(dp460
g82
g83
ssg71
g454
sg64
(lp461
S'session_id_assignment2'
p462
asbag57
(g78
g59
NtRp463
(dp464
g62
(dp465
g89
g90
ssg71
g454
sg64
(lp466
S':'
asbag57
(g78
g59
NtRp467
(dp468
g62
(dp469
sg71
g454
sg64
(lp470
g57
(g58
g59
NtRp471
(dp472
g62
(dp473
g70
I4
ssg71
g467
sg64
(lp474
S'127.0.0.1-df3317b1-fbdf-40a6-bfa1-0af1b15533cc'
p475
ag57
(g66
g59
NtRp476
(dp477
g62
(dp478
g70
I3
ssg71
Nsg64
(lp479
g57
(g73
g59
NtRp480
(dp481
g62
(dp482
sg71
g476
sg64
(lp483
g57
(g78
g59
NtRp484
(dp485
g62
(dp486
g82
g83
ssg71
g480
sg64
(lp487
g294
asbag57
(g78
g59
NtRp488
(dp489
g62
(dp490
g89
g90
ssg71
g480
sg64
(lp491
S':'
asbag57
(g78
g59
NtRp492
(dp493
g62
(dp494
sg71
g480
sg64
(lp495
g57
(g58
g59
NtRp496
(dp497
g62
(dp498
g70
I3
ssg71
g492
sg64
(lp499
S''
asbasbasbag57
(g73
g59
NtRp500
(dp501
g62
(dp502
sg71
g476
sg64
(lp503
g57
(g78
g59
NtRp504
(dp505
g62
(dp506
g82
g83
ssg71
g500
sg64
(lp507
g315
asbag57
(g78
g59
NtRp508
(dp509
g62
(dp510
g89
g90
ssg71
g500
sg64
(lp511
S':'
asbag57
(g78
g59
NtRp512
(dp513
g62
(dp514
sg71
g500
sg64
(lp515
g57
(g58
g59
NtRp516
(dp517
g62
(dp518
g70
I3
ssg71
g512
sg64
(lp519
S''
asbasbasbag57
(g73
g59
NtRp520
(dp521
g62
(dp522
sg71
g476
sg64
(lp523
g57
(g78
g59
NtRp524
(dp525
g62
(dp526
g82
g83
ssg71
g520
sg64
(lp527
g336
asbag57
(g78
g59
NtRp528
(dp529
g62
(dp530
g89
g90
ssg71
g520
sg64
(lp531
S':'
asbag57
(g78
g59
NtRp532
(dp533
g62
(dp534
sg71
g520
sg64
(lp535
g57
(g58
g59
NtRp536
(dp537
g62
(dp538
g70
I3
ssg71
g532
sg64
(lp539
S''
asbasbasbag57
(g73
g59
NtRp540
(dp541
g62
(dp542
sg71
g476
sg64
(lp543
g57
(g78
g59
NtRp544
(dp545
g62
(dp546
g82
g83
ssg71
g540
sg64
(lp547
g357
asbag57
(g78
g59
NtRp548
(dp549
g62
(dp550
g89
g90
ssg71
g540
sg64
(lp551
S':'
asbag57
(g78
g59
NtRp552
(dp553
g62
(dp554
sg71
g540
sg64
(lp555
g57
(g58
g59
NtRp556
(dp557
g62
(dp558
g70
I3
ssg71
g552
sg64
(lp559
S''
asbasbasbag57
(g73
g59
NtRp560
(dp561
g62
(dp562
sg71
g476
sg64
(lp563
g57
(g78
g59
NtRp564
(dp565
g62
(dp566
g82
g83
ssg71
g560
sg64
(lp567
g378
asbag57
(g78
g59
NtRp568
(dp569
g62
(dp570
g89
g90
ssg71
g560
sg64
(lp571
S':'
asbag57
(g78
g59
NtRp572
(dp573
g62
(dp574
sg71
g560
sg64
(lp575
g57
(g58
g59
NtRp576
(dp577
g62
(dp578
g70
I3
ssg71
g572
sg64
(lp579
S''
asbasbasbag57
(g73
g59
NtRp580
(dp581
g62
(dp582
sg71
g476
sg64
(lp583
g57
(g78
g59
NtRp584
(dp585
g62
(dp586
g82
g83
ssg71
g580
sg64
(lp587
g399
asbag57
(g78
g59
NtRp588
(dp589
g62
(dp590
g89
g90
ssg71
g580
sg64
(lp591
S':'
asbag57
(g78
g59
NtRp592
(dp593
g62
(dp594
sg71
g580
sg64
(lp595
g57
(g58
g59
NtRp596
(dp597
g62
(dp598
g70
I3
ssg71
g592
sg64
(lp599
S''
asbasbasbag57
(g73
g59
NtRp600
(dp601
g62
(dp602
sg71
g476
sg64
(lp603
g57
(g78
g59
NtRp604
(dp605
g62
(dp606
g82
g83
ssg71
g600
sg64
(lp607
g420
asbag57
(g78
g59
NtRp608
(dp609
g62
(dp610
g89
g90
ssg71
g600
sg64
(lp611
S':'
asbag57
(g78
g59
NtRp612
(dp613
g62
(dp614
sg71
g600
sg64
(lp615
g57
(g58
g59
NtRp616
(dp617
g62
(dp618
g70
I3
ssg71
g612
sg64
(lp619
S''
asbasbasbag57
(g73
g59
NtRp620
(dp621
g62
(dp622
sg71
g476
sg64
(lp623
g57
(g78
g59
NtRp624
(dp625
g62
(dp626
g82
g83
ssg71
g620
sg64
(lp627
g441
asbag57
(g78
g59
NtRp628
(dp629
g62
(dp630
g89
g90
ssg71
g620
sg64
(lp631
S':'
asbag57
(g78
g59
NtRp632
(dp633
g62
(dp634
sg71
g620
sg64
(lp635
g57
(g58
g59
NtRp636
(dp637
g62
(dp638
g70
I3
ssg71
g632
sg64
(lp639
S''
asbasbasbasbasbasbasbag57
(g73
g59
NtRp640
(dp641
g62
(dp642
sg71
g256
sg64
(lp643
g57
(g78
g59
NtRp644
(dp645
g62
(dp646
g82
g83
ssg71
g640
sg64
(lp647
S'session_id_welcome'
p648
asbag57
(g78
g59
NtRp649
(dp650
g62
(dp651
g89
g90
ssg71
g640
sg64
(lp652
S':'
asbag57
(g78
g59
NtRp653
(dp654
g62
(dp655
sg71
g640
sg64
(lp656
g57
(g58
g59
NtRp657
(dp658
g62
(dp659
g70
I4
ssg71
g653
sg64
(lp660
S'127.0.0.1-6aa11d39-ce3f-4f8c-b6ea-9cd6a4750daa'
p661
ag57
(g66
g59
NtRp662
(dp663
g62
(dp664
g70
I3
ssg71
Nsg64
(lp665
g57
(g73
g59
NtRp666
(dp667
g62
(dp668
sg71
g662
sg64
(lp669
g57
(g78
g59
NtRp670
(dp671
g62
(dp672
g82
g83
ssg71
g666
sg64
(lp673
g294
asbag57
(g78
g59
NtRp674
(dp675
g62
(dp676
g89
g90
ssg71
g666
sg64
(lp677
S':'
asbag57
(g78
g59
NtRp678
(dp679
g62
(dp680
sg71
g666
sg64
(lp681
g57
(g58
g59
NtRp682
(dp683
g62
(dp684
g70
I3
ssg71
g678
sg64
(lp685
S''
asbasbasbag57
(g73
g59
NtRp686
(dp687
g62
(dp688
sg71
g662
sg64
(lp689
g57
(g78
g59
NtRp690
(dp691
g62
(dp692
g82
g83
ssg71
g686
sg64
(lp693
g315
asbag57
(g78
g59
NtRp694
(dp695
g62
(dp696
g89
g90
ssg71
g686
sg64
(lp697
S':'
asbag57
(g78
g59
NtRp698
(dp699
g62
(dp700
sg71
g686
sg64
(lp701
g57
(g58
g59
NtRp702
(dp703
g62
(dp704
g70
I3
ssg71
g698
sg64
(lp705
S''
asbasbasbag57
(g73
g59
NtRp706
(dp707
g62
(dp708
sg71
g662
sg64
(lp709
g57
(g78
g59
NtRp710
(dp711
g62
(dp712
g82
g83
ssg71
g706
sg64
(lp713
g336
asbag57
(g78
g59
NtRp714
(dp715
g62
(dp716
g89
g90
ssg71
g706
sg64
(lp717
S':'
asbag57
(g78
g59
NtRp718
(dp719
g62
(dp720
sg71
g706
sg64
(lp721
g57
(g58
g59
NtRp722
(dp723
g62
(dp724
g70
I3
ssg71
g718
sg64
(lp725
S''
asbasbasbag57
(g73
g59
NtRp726
(dp727
g62
(dp728
sg71
g662
sg64
(lp729
g57
(g78
g59
NtRp730
(dp731
g62
(dp732
g82
g83
ssg71
g726
sg64
(lp733
g357
asbag57
(g78
g59
NtRp734
(dp735
g62
(dp736
g89
g90
ssg71
g726
sg64
(lp737
S':'
asbag57
(g78
g59
NtRp738
(dp739
g62
(dp740
sg71
g726
sg64
(lp741
g57
(g58
g59
NtRp742
(dp743
g62
(dp744
g70
I3
ssg71
g738
sg64
(lp745
S''
asbasbasbag57
(g73
g59
NtRp746
(dp747
g62
(dp748
sg71
g662
sg64
(lp749
g57
(g78
g59
NtRp750
(dp751
g62
(dp752
g82
g83
ssg71
g746
sg64
(lp753
g378
asbag57
(g78
g59
NtRp754
(dp755
g62
(dp756
g89
g90
ssg71
g746
sg64
(lp757
S':'
asbag57
(g78
g59
NtRp758
(dp759
g62
(dp760
sg71
g746
sg64
(lp761
g57
(g58
g59
NtRp762
(dp763
g62
(dp764
g70
I3
ssg71
g758
sg64
(lp765
S''
asbasbasbag57
(g73
g59
NtRp766
(dp767
g62
(dp768
sg71
g662
sg64
(lp769
g57
(g78
g59
NtRp770
(dp771
g62
(dp772
g82
g83
ssg71
g766
sg64
(lp773
g399
asbag57
(g78
g59
NtRp774
(dp775
g62
(dp776
g89
g90
ssg71
g766
sg64
(lp777
S':'
asbag57
(g78
g59
NtRp778
(dp779
g62
(dp780
sg71
g766
sg64
(lp781
g57
(g58
g59
NtRp782
(dp783
g62
(dp784
g70
I3
ssg71
g778
sg64
(lp785
S''
asbasbasbag57
(g73
g59
NtRp786
(dp787
g62
(dp788
sg71
g662
sg64
(lp789
g57
(g78
g59
NtRp790
(dp791
g62
(dp792
g82
g83
ssg71
g786
sg64
(lp793
g420
asbag57
(g78
g59
NtRp794
(dp795
g62
(dp796
g89
g90
ssg71
g786
sg64
(lp797
S':'
asbag57
(g78
g59
NtRp798
(dp799
g62
(dp800
sg71
g786
sg64
(lp801
g57
(g58
g59
NtRp802
(dp803
g62
(dp804
g70
I3
ssg71
g798
sg64
(lp805
S''
asbasbasbag57
(g73
g59
NtRp806
(dp807
g62
(dp808
sg71
g662
sg64
(lp809
g57
(g78
g59
NtRp810
(dp811
g62
(dp812
g82
g83
ssg71
g806
sg64
(lp813
g441
asbag57
(g78
g59
NtRp814
(dp815
g62
(dp816
g89
g90
ssg71
g806
sg64
(lp817
S':'
asbag57
(g78
g59
NtRp818
(dp819
g62
(dp820
sg71
g806
sg64
(lp821
g57
(g58
g59
NtRp822
(dp823
g62
(dp824
g70
I3
ssg71
g818
sg64
(lp825
S''
asbasbasbasbasbasbasbasbasbasbasbag57
(g73
g59
NtRp826
(dp827
g62
(dp828
sg71
g67
sg64
(lp829
g57
(g78
g59
NtRp830
(dp831
g62
(dp832
g82
g83
ssg71
g826
sg64
(lp833
S'env'
p834
asbag57
(g78
g59
NtRp835
(dp836
g62
(dp837
g89
g90
ssg71
g826
sg64
(lp838
S':'
asbag57
(g78
g59
NtRp839
(dp840
g62
(dp841
sg71
g826
sg64
(lp842
g57
(g58
g59
NtRp843
(dp844
g62
(dp845
g70
I5
ssg71
g839
sg64
(lp846
g57
(g66
g59
NtRp847
(dp848
g62
(dp849
g70
I4
ssg71
Nsg64
(lp850
g57
(g73
g59
NtRp851
(dp852
g62
(dp853
sg71
g847
sg64
(lp854
g57
(g78
g59
NtRp855
(dp856
g62
(dp857
g82
g83
ssg71
g851
sg64
(lp858
S'app_folders'
p859
asbag57
(g78
g59
NtRp860
(dp861
g62
(dp862
g89
g90
ssg71
g851
sg64
(lp863
S':'
asbag57
(g78
g59
NtRp864
(dp865
g62
(dp866
sg71
g851
sg64
(lp867
g57
(g58
g59
NtRp868
(dp869
g62
(dp870
g70
I4
ssg71
g864
sg64
(lp871
S"set(['/home/aditi/Desktop/web2py/applications/assignment2/', '/home/aditi/Desktop/web2py/applications/admin/', '/home/aditi/Desktop/web2py/applications/welcome/'])"
p872
asbasbasbag57
(g73
g59
NtRp873
(dp874
g62
(dp875
sg71
g847
sg64
(lp876
g57
(g78
g59
NtRp877
(dp878
g62
(dp879
g82
g83
ssg71
g873
sg64
(lp880
S'applications_parent'
p881
asbag57
(g78
g59
NtRp882
(dp883
g62
(dp884
g89
g90
ssg71
g873
sg64
(lp885
S':'
asbag57
(g78
g59
NtRp886
(dp887
g62
(dp888
sg71
g873
sg64
(lp889
g57
(g58
g59
NtRp890
(dp891
g62
(dp892
g70
I4
ssg71
g886
sg64
(lp893
S'/home/aditi/Desktop/web2py'
p894
asbasbasbag57
(g73
g59
NtRp895
(dp896
g62
(dp897
sg71
g847
sg64
(lp898
g57
(g78
g59
NtRp899
(dp900
g62
(dp901
g82
g83
ssg71
g895
sg64
(lp902
S'cmd_args'
p903
asbag57
(g78
g59
NtRp904
(dp905
g62
(dp906
g89
g90
ssg71
g895
sg64
(lp907
S':'
asbag57
(g78
g59
NtRp908
(dp909
g62
(dp910
sg71
g895
sg64
(lp911
g57
(g58
g59
NtRp912
(dp913
g62
(dp914
g70
I4
ssg71
g908
sg64
(lp915
g57
(g66
g59
NtRp916
(dp917
g62
(dp918
g70
I3
ssg71
Nsg64
(lp919
sbasbasbasbag57
(g73
g59
NtRp920
(dp921
g62
(dp922
sg71
g847
sg64
(lp923
g57
(g78
g59
NtRp924
(dp925
g62
(dp926
g82
g83
ssg71
g920
sg64
(lp927
S'cmd_options'
p928
asbag57
(g78
g59
NtRp929
(dp930
g62
(dp931
g89
g90
ssg71
g920
sg64
(lp932
S':'
asbag57
(g78
g59
NtRp933
(dp934
g62
(dp935
sg71
g920
sg64
(lp936
g57
(g58
g59
NtRp937
(dp938
g62
(dp939
g70
I4
ssg71
g933
sg64
(lp940
S"<Values at 0xa651a0c: {'verbose': False, 'ip': '127.0.0.1', 'with_scheduler': False, 'ips': [], 'shutdown_timeout': 5, 'taskbar': False, 'port': 8000, 'maxthreads': None, 'softcron': False, 'server_name': 'ubuntu', 'bpython': False, 'nogui': False, 'pid_filename': 'httpserver.pid', 'extcron': False, 'runcron': False, 'run_system_tests': False, 'test': None, 'folder': '/home/aditi/Desktop/web2py', 'config': '', 'import_models': False, 'winservice': '', 'shell': None, 'run': '', 'log_filename': 'httpserver.log', 'debuglevel': 30, 'args': [''], 'socket_timeout': 5, 'ssl_ca_certificate': None, 'scheduler': None, 'profiler_filename': None, 'ssl_private_key': '', 'scheduler_groups': None, 'password': '<ask>', 'request_queue_size': 5, 'ssl_certificate': '', 'cronjob': False, 'numthreads': None, 'quiet': False, 'interfaces': None, 'minthreads': None, 'timeout': 10, 'plain': False, 'nobanner': False}>"
p941
asbasbasbag57
(g73
g59
NtRp942
(dp943
g62
(dp944
sg71
g847
sg64
(lp945
g57
(g78
g59
NtRp946
(dp947
g62
(dp948
g82
g83
ssg71
g942
sg64
(lp949
S'db_sessions'
p950
asbag57
(g78
g59
NtRp951
(dp952
g62
(dp953
g89
g90
ssg71
g942
sg64
(lp954
S':'
asbag57
(g78
g59
NtRp955
(dp956
g62
(dp957
sg71
g942
sg64
(lp958
g57
(g58
g59
NtRp959
(dp960
g62
(dp961
g70
I4
ssg71
g955
sg64
(lp962
S'set([])'
p963
asbasbasbag57
(g73
g59
NtRp964
(dp965
g62
(dp966
sg71
g847
sg64
(lp967
g57
(g78
g59
NtRp968
(dp969
g62
(dp970
g82
g83
ssg71
g964
sg64
(lp971
S'debugging'
p972
asbag57
(g78
g59
NtRp973
(dp974
g62
(dp975
g89
g90
ssg71
g964
sg64
(lp976
S':'
asbag57
(g78
g59
NtRp977
(dp978
g62
(dp979
sg71
g964
sg64
(lp980
g57
(g58
g59
NtRp981
(dp982
g62
(dp983
g70
I4
ssg71
g977
sg64
(lp984
g100
asbasbasbag57
(g73
g59
NtRp985
(dp986
g62
(dp987
sg71
g847
sg64
(lp988
g57
(g78
g59
NtRp989
(dp990
g62
(dp991
g82
g83
ssg71
g985
sg64
(lp992
S'gluon_parent'
p993
asbag57
(g78
g59
NtRp994
(dp995
g62
(dp996
g89
g90
ssg71
g985
sg64
(lp997
S':'
asbag57
(g78
g59
NtRp998
(dp999
g62
(dp1000
sg71
g985
sg64
(lp1001
g57
(g58
g59
NtRp1002
(dp1003
g62
(dp1004
g70
I4
ssg71
g998
sg64
(lp1005
S'/home/aditi/Desktop/web2py'
p1006
asbasbasbag57
(g73
g59
NtRp1007
(dp1008
g62
(dp1009
sg71
g847
sg64
(lp1010
g57
(g78
g59
NtRp1011
(dp1012
g62
(dp1013
g82
g83
ssg71
g1007
sg64
(lp1014
S'http_accept'
p1015
asbag57
(g78
g59
NtRp1016
(dp1017
g62
(dp1018
g89
g90
ssg71
g1007
sg64
(lp1019
S':'
asbag57
(g78
g59
NtRp1020
(dp1021
g62
(dp1022
sg71
g1007
sg64
(lp1023
g57
(g58
g59
NtRp1024
(dp1025
g62
(dp1026
g70
I4
ssg71
g1020
sg64
(lp1027
S'text/html,application/xhtml+xml,application/xml;q=0.9,*/*;q=0.8'
p1028
asbasbasbag57
(g73
g59
NtRp1029
(dp1030
g62
(dp1031
sg71
g847
sg64
(lp1032
g57
(g78
g59
NtRp1033
(dp1034
g62
(dp1035
g82
g83
ssg71
g1029
sg64
(lp1036
S'http_accept_encoding'
p1037
asbag57
(g78
g59
NtRp1038
(dp1039
g62
(dp1040
g89
g90
ssg71
g1029
sg64
(lp1041
S':'
asbag57
(g78
g59
NtRp1042
(dp1043
g62
(dp1044
sg71
g1029
sg64
(lp1045
g57
(g58
g59
NtRp1046
(dp1047
g62
(dp1048
g70
I4
ssg71
g1042
sg64
(lp1049
S'gzip, deflate'
p1050
asbasbasbag57
(g73
g59
NtRp1051
(dp1052
g62
(dp1053
sg71
g847
sg64
(lp1054
g57
(g78
g59
NtRp1055
(dp1056
g62
(dp1057
g82
g83
ssg71
g1051
sg64
(lp1058
S'http_accept_language'
p1059
asbag57
(g78
g59
NtRp1060
(dp1061
g62
(dp1062
g89
g90
ssg71
g1051
sg64
(lp1063
S':'
asbag57
(g78
g59
NtRp1064
(dp1065
g62
(dp1066
sg71
g1051
sg64
(lp1067
g57
(g58
g59
NtRp1068
(dp1069
g62
(dp1070
g70
I4
ssg71
g1064
sg64
(lp1071
S'en-US,en;q=0.5'
p1072
asbasbasbag57
(g73
g59
NtRp1073
(dp1074
g62
(dp1075
sg71
g847
sg64
(lp1076
g57
(g78
g59
NtRp1077
(dp1078
g62
(dp1079
g82
g83
ssg71
g1073
sg64
(lp1080
S'http_connection'
p1081
asbag57
(g78
g59
NtRp1082
(dp1083
g62
(dp1084
g89
g90
ssg71
g1073
sg64
(lp1085
S':'
asbag57
(g78
g59
NtRp1086
(dp1087
g62
(dp1088
sg71
g1073
sg64
(lp1089
g57
(g58
g59
NtRp1090
(dp1091
g62
(dp1092
g70
I4
ssg71
g1086
sg64
(lp1093
S'keep-alive'
p1094
asbasbasbag57
(g73
g59
NtRp1095
(dp1096
g62
(dp1097
sg71
g847
sg64
(lp1098
g57
(g78
g59
NtRp1099
(dp1100
g62
(dp1101
g82
g83
ssg71
g1095
sg64
(lp1102
S'http_cookie'
p1103
asbag57
(g78
g59
NtRp1104
(dp1105
g62
(dp1106
g89
g90
ssg71
g1095
sg64
(lp1107
S':'
asbag57
(g78
g59
NtRp1108
(dp1109
g62
(dp1110
sg71
g1095
sg64
(lp1111
g57
(g58
g59
NtRp1112
(dp1113
g62
(dp1114
g70
I4
ssg71
g1108
sg64
(lp1115
S'session_id_welcome=127.0.0.1-6aa11d39-ce3f-4f8c-b6ea-9cd6a4750daa; session_id_admin=127.0.0.1-9c0e4d2d-c8df-42da-a1dd-3cd897b96f95; session_id_assignment2=127.0.0.1-df3317b1-fbdf-40a6-bfa1-0af1b15533cc'
p1116
asbasbasbag57
(g73
g59
NtRp1117
(dp1118
g62
(dp1119
sg71
g847
sg64
(lp1120
g57
(g78
g59
NtRp1121
(dp1122
g62
(dp1123
g82
g83
ssg71
g1117
sg64
(lp1124
S'http_host'
p1125
asbag57
(g78
g59
NtRp1126
(dp1127
g62
(dp1128
g89
g90
ssg71
g1117
sg64
(lp1129
S':'
asbag57
(g78
g59
NtRp1130
(dp1131
g62
(dp1132
sg71
g1117
sg64
(lp1133
g57
(g58
g59
NtRp1134
(dp1135
g62
(dp1136
g70
I4
ssg71
g1130
sg64
(lp1137
S'127.0.0.1:8000'
p1138
asbasbasbag57
(g73
g59
NtRp1139
(dp1140
g62
(dp1141
sg71
g847
sg64
(lp1142
g57
(g78
g59
NtRp1143
(dp1144
g62
(dp1145
g82
g83
ssg71
g1139
sg64
(lp1146
S'http_referer'
p1147
asbag57
(g78
g59
NtRp1148
(dp1149
g62
(dp1150
g89
g90
ssg71
g1139
sg64
(lp1151
S':'
asbag57
(g78
g59
NtRp1152
(dp1153
g62
(dp1154
sg71
g1139
sg64
(lp1155
g57
(g58
g59
NtRp1156
(dp1157
g62
(dp1158
g70
I4
ssg71
g1152
sg64
(lp1159
S'http://127.0.0.1:8000/assignment2/default/user/login?_next=/assignment2/default/index'
p1160
asbasbasbag57
(g73
g59
NtRp1161
(dp1162
g62
(dp1163
sg71
g847
sg64
(lp1164
g57
(g78
g59
NtRp1165
(dp1166
g62
(dp1167
g82
g83
ssg71
g1161
sg64
(lp1168
S'http_user_agent'
p1169
asbag57
(g78
g59
NtRp1170
(dp1171
g62
(dp1172
g89
g90
ssg71
g1161
sg64
(lp1173
S':'
asbag57
(g78
g59
NtRp1174
(dp1175
g62
(dp1176
sg71
g1161
sg64
(lp1177
g57
(g58
g59
NtRp1178
(dp1179
g62
(dp1180
g70
I4
ssg71
g1174
sg64
(lp1181
S'Mozilla/5.0 (X11; Ubuntu; Linux i686; rv:23.0) Gecko/20100101 Firefox/23.0'
p1182
asbasbasbag57
(g73
g59
NtRp1183
(dp1184
g62
(dp1185
sg71
g847
sg64
(lp1186
g57
(g78
g59
NtRp1187
(dp1188
g62
(dp1189
g82
g83
ssg71
g1183
sg64
(lp1190
S'is_jython'
p1191
asbag57
(g78
g59
NtRp1192
(dp1193
g62
(dp1194
g89
g90
ssg71
g1183
sg64
(lp1195
S':'
asbag57
(g78
g59
NtRp1196
(dp1197
g62
(dp1198
sg71
g1183
sg64
(lp1199
g57
(g58
g59
NtRp1200
(dp1201
g62
(dp1202
g70
I4
ssg71
g1196
sg64
(lp1203
g100
asbasbasbag57
(g73
g59
NtRp1204
(dp1205
g62
(dp1206
sg71
g847
sg64
(lp1207
g57
(g78
g59
NtRp1208
(dp1209
g62
(dp1210
g82
g83
ssg71
g1204
sg64
(lp1211
S'is_pypy'
p1212
asbag57
(g78
g59
NtRp1213
(dp1214
g62
(dp1215
g89
g90
ssg71
g1204
sg64
(lp1216
S':'
asbag57
(g78
g59
NtRp1217
(dp1218
g62
(dp1219
sg71
g1204
sg64
(lp1220
g57
(g58
g59
NtRp1221
(dp1222
g62
(dp1223
g70
I4
ssg71
g1217
sg64
(lp1224
g100
asbasbasbag57
(g73
g59
NtRp1225
(dp1226
g62
(dp1227
sg71
g847
sg64
(lp1228
g57
(g78
g59
NtRp1229
(dp1230
g62
(dp1231
g82
g83
ssg71
g1225
sg64
(lp1232
S'local_hosts'
p1233
asbag57
(g78
g59
NtRp1234
(dp1235
g62
(dp1236
g89
g90
ssg71
g1225
sg64
(lp1237
S':'
asbag57
(g78
g59
NtRp1238
(dp1239
g62
(dp1240
sg71
g1225
sg64
(lp1241
g57
(g58
g59
NtRp1242
(dp1243
g62
(dp1244
g70
I4
ssg71
g1238
sg64
(lp1245
g57
(g66
g59
NtRp1246
(dp1247
g62
(dp1248
g70
I3
ssg71
Nsg64
(lp1249
g57
(g73
g59
NtRp1250
(dp1251
g62
(dp1252
sg71
g1246
sg64
(lp1253
g57
(g78
g59
NtRp1254
(dp1255
g62
(dp1256
sg71
g1250
sg64
(lp1257
g57
(g58
g59
NtRp1258
(dp1259
g62
(dp1260
g70
I3
ssg71
g1254
sg64
(lp1261
S'ubuntu.ubuntu-domain'
p1262
asbasbasbag57
(g73
g59
NtRp1263
(dp1264
g62
(dp1265
sg71
g1246
sg64
(lp1266
g57
(g78
g59
NtRp1267
(dp1268
g62
(dp1269
sg71
g1263
sg64
(lp1270
g57
(g58
g59
NtRp1271
(dp1272
g62
(dp1273
g70
I3
ssg71
g1267
sg64
(lp1274
S'::ffff:127.0.0.1'
p1275
asbasbasbag57
(g73
g59
NtRp1276
(dp1277
g62
(dp1278
sg71
g1246
sg64
(lp1279
g57
(g78
g59
NtRp1280
(dp1281
g62
(dp1282
sg71
g1276
sg64
(lp1283
g57
(g58
g59
NtRp1284
(dp1285
g62
(dp1286
g70
I3
ssg71
g1280
sg64
(lp1287
S'::1'
p1288
asbasbasbag57
(g73
g59
NtRp1289
(dp1290
g62
(dp1291
sg71
g1246
sg64
(lp1292
g57
(g78
g59
NtRp1293
(dp1294
g62
(dp1295
sg71
g1289
sg64
(lp1296
g57
(g58
g59
NtRp1297
(dp1298
g62
(dp1299
g70
I3
ssg71
g1293
sg64
(lp1300
S'ubuntu'
p1301
asbasbasbag57
(g73
g59
NtRp1302
(dp1303
g62
(dp1304
sg71
g1246
sg64
(lp1305
g57
(g78
g59
NtRp1306
(dp1307
g62
(dp1308
sg71
g1302
sg64
(lp1309
g57
(g58
g59
NtRp1310
(dp1311
g62
(dp1312
g70
I3
ssg71
g1306
sg64
(lp1313
S'127.0.1.1'
p1314
asbasbasbag57
(g73
g59
NtRp1315
(dp1316
g62
(dp1317
sg71
g1246
sg64
(lp1318
g57
(g78
g59
NtRp1319
(dp1320
g62
(dp1321
sg71
g1315
sg64
(lp1322
g57
(g58
g59
NtRp1323
(dp1324
g62
(dp1325
g70
I3
ssg71
g1319
sg64
(lp1326
S'127.0.0.1'
p1327
asbasbasbasbasbasbasbag57
(g73
g59
NtRp1328
(dp1329
g62
(dp1330
sg71
g847
sg64
(lp1331
g57
(g78
g59
NtRp1332
(dp1333
g62
(dp1334
g82
g83
ssg71
g1328
sg64
(lp1335
S'path_info'
p1336
asbag57
(g78
g59
NtRp1337
(dp1338
g62
(dp1339
g89
g90
ssg71
g1328
sg64
(lp1340
S':'
asbag57
(g78
g59
NtRp1341
(dp1342
g62
(dp1343
sg71
g1328
sg64
(lp1344
g57
(g58
g59
NtRp1345
(dp1346
g62
(dp1347
g70
I4
ssg71
g1341
sg64
(lp1348
S'/assignment2/default/user_homepage'
p1349
asbasbasbag57
(g73
g59
NtRp1350
(dp1351
g62
(dp1352
sg71
g847
sg64
(lp1353
g57
(g78
g59
NtRp1354
(dp1355
g62
(dp1356
g82
g83
ssg71
g1350
sg64
(lp1357
S'query_string'
p1358
asbag57
(g78
g59
NtRp1359
(dp1360
g62
(dp1361
g89
g90
ssg71
g1350
sg64
(lp1362
S':'
asbag57
(g78
g59
NtRp1363
(dp1364
g62
(dp1365
sg71
g1350
sg64
(lp1366
g57
(g58
g59
NtRp1367
(dp1368
g62
(dp1369
g70
I4
ssg71
g1363
sg64
(lp1370
S''
asbasbasbag57
(g73
g59
NtRp1371
(dp1372
g62
(dp1373
sg71
g847
sg64
(lp1374
g57
(g78
g59
NtRp1375
(dp1376
g62
(dp1377
g82
g83
ssg71
g1371
sg64
(lp1378
S'remote_addr'
p1379
asbag57
(g78
g59
NtRp1380
(dp1381
g62
(dp1382
g89
g90
ssg71
g1371
sg64
(lp1383
S':'
asbag57
(g78
g59
NtRp1384
(dp1385
g62
(dp1386
sg71
g1371
sg64
(lp1387
g57
(g58
g59
NtRp1388
(dp1389
g62
(dp1390
g70
I4
ssg71
g1384
sg64
(lp1391
g212
asbasbasbag57
(g73
g59
NtRp1392
(dp1393
g62
(dp1394
sg71
g847
sg64
(lp1395
g57
(g78
g59
NtRp1396
(dp1397
g62
(dp1398
g82
g83
ssg71
g1392
sg64
(lp1399
S'remote_port'
p1400
asbag57
(g78
g59
NtRp1401
(dp1402
g62
(dp1403
g89
g90
ssg71
g1392
sg64
(lp1404
S':'
asbag57
(g78
g59
NtRp1405
(dp1406
g62
(dp1407
sg71
g1392
sg64
(lp1408
g57
(g58
g59
NtRp1409
(dp1410
g62
(dp1411
g70
I4
ssg71
g1405
sg64
(lp1412
S'60904'
p1413
asbasbasbag57
(g73
g59
NtRp1414
(dp1415
g62
(dp1416
sg71
g847
sg64
(lp1417
g57
(g78
g59
NtRp1418
(dp1419
g62
(dp1420
g82
g83
ssg71
g1414
sg64
(lp1421
S'request_method'
p1422
asbag57
(g78
g59
NtRp1423
(dp1424
g62
(dp1425
g89
g90
ssg71
g1414
sg64
(lp1426
S':'
asbag57
(g78
g59
NtRp1427
(dp1428
g62
(dp1429
sg71
g1414
sg64
(lp1430
g57
(g58
g59
NtRp1431
(dp1432
g62
(dp1433
g70
I4
ssg71
g1427
sg64
(lp1434
S'GET'
p1435
asbasbasbag57
(g73
g59
NtRp1436
(dp1437
g62
(dp1438
sg71
g847
sg64
(lp1439
g57
(g78
g59
NtRp1440
(dp1441
g62
(dp1442
g82
g83
ssg71
g1436
sg64
(lp1443
S'request_uri'
p1444
asbag57
(g78
g59
NtRp1445
(dp1446
g62
(dp1447
g89
g90
ssg71
g1436
sg64
(lp1448
S':'
asbag57
(g78
g59
NtRp1449
(dp1450
g62
(dp1451
sg71
g1436
sg64
(lp1452
g57
(g58
g59
NtRp1453
(dp1454
g62
(dp1455
g70
I4
ssg71
g1449
sg64
(lp1456
g1349
asbasbasbag57
(g73
g59
NtRp1457
(dp1458
g62
(dp1459
sg71
g847
sg64
(lp1460
g57
(g78
g59
NtRp1461
(dp1462
g62
(dp1463
g82
g83
ssg71
g1457
sg64
(lp1464
S'script_name'
p1465
asbag57
(g78
g59
NtRp1466
(dp1467
g62
(dp1468
g89
g90
ssg71
g1457
sg64
(lp1469
S':'
asbag57
(g78
g59
NtRp1470
(dp1471
g62
(dp1472
sg71
g1457
sg64
(lp1473
g57
(g58
g59
NtRp1474
(dp1475
g62
(dp1476
g70
I4
ssg71
g1470
sg64
(lp1477
S''
asbasbasbag57
(g73
g59
NtRp1478
(dp1479
g62
(dp1480
sg71
g847
sg64
(lp1481
g57
(g78
g59
NtRp1482
(dp1483
g62
(dp1484
g82
g83
ssg71
g1478
sg64
(lp1485
S'server_name'
p1486
asbag57
(g78
g59
NtRp1487
(dp1488
g62
(dp1489
g89
g90
ssg71
g1478
sg64
(lp1490
S':'
asbag57
(g78
g59
NtRp1491
(dp1492
g62
(dp1493
sg71
g1478
sg64
(lp1494
g57
(g58
g59
NtRp1495
(dp1496
g62
(dp1497
g70
I4
ssg71
g1491
sg64
(lp1498
S'ubuntu'
p1499
asbasbasbag57
(g73
g59
NtRp1500
(dp1501
g62
(dp1502
sg71
g847
sg64
(lp1503
g57
(g78
g59
NtRp1504
(dp1505
g62
(dp1506
g82
g83
ssg71
g1500
sg64
(lp1507
S'server_port'
p1508
asbag57
(g78
g59
NtRp1509
(dp1510
g62
(dp1511
g89
g90
ssg71
g1500
sg64
(lp1512
S':'
asbag57
(g78
g59
NtRp1513
(dp1514
g62
(dp1515
sg71
g1500
sg64
(lp1516
g57
(g58
g59
NtRp1517
(dp1518
g62
(dp1519
g70
I4
ssg71
g1513
sg64
(lp1520
S'8000'
p1521
asbasbasbag57
(g73
g59
NtRp1522
(dp1523
g62
(dp1524
sg71
g847
sg64
(lp1525
g57
(g78
g59
NtRp1526
(dp1527
g62
(dp1528
g82
g83
ssg71
g1522
sg64
(lp1529
S'server_protocol'
p1530
asbag57
(g78
g59
NtRp1531
(dp1532
g62
(dp1533
g89
g90
ssg71
g1522
sg64
(lp1534
S':'
asbag57
(g78
g59
NtRp1535
(dp1536
g62
(dp1537
sg71
g1522
sg64
(lp1538
g57
(g58
g59
NtRp1539
(dp1540
g62
(dp1541
g70
I4
ssg71
g1535
sg64
(lp1542
S'HTTP/1.1'
p1543
asbasbasbag57
(g73
g59
NtRp1544
(dp1545
g62
(dp1546
sg71
g847
sg64
(lp1547
g57
(g78
g59
NtRp1548
(dp1549
g62
(dp1550
g82
g83
ssg71
g1544
sg64
(lp1551
S'server_software'
p1552
asbag57
(g78
g59
NtRp1553
(dp1554
g62
(dp1555
g89
g90
ssg71
g1544
sg64
(lp1556
S':'
asbag57
(g78
g59
NtRp1557
(dp1558
g62
(dp1559
sg71
g1544
sg64
(lp1560
g57
(g58
g59
NtRp1561
(dp1562
g62
(dp1563
g70
I4
ssg71
g1557
sg64
(lp1564
S'Rocket 1.2.6'
p1565
asbasbasbag57
(g73
g59
NtRp1566
(dp1567
g62
(dp1568
sg71
g847
sg64
(lp1569
g57
(g78
g59
NtRp1570
(dp1571
g62
(dp1572
g82
g83
ssg71
g1566
sg64
(lp1573
S'web2py_path'
p1574
asbag57
(g78
g59
NtRp1575
(dp1576
g62
(dp1577
g89
g90
ssg71
g1566
sg64
(lp1578
S':'
asbag57
(g78
g59
NtRp1579
(dp1580
g62
(dp1581
sg71
g1566
sg64
(lp1582
g57
(g58
g59
NtRp1583
(dp1584
g62
(dp1585
g70
I4
ssg71
g1579
sg64
(lp1586
g894
asbasbasbag57
(g73
g59
NtRp1587
(dp1588
g62
(dp1589
sg71
g847
sg64
(lp1590
g57
(g78
g59
NtRp1591
(dp1592
g62
(dp1593
g82
g83
ssg71
g1587
sg64
(lp1594
S'web2py_version'
p1595
asbag57
(g78
g59
NtRp1596
(dp1597
g62
(dp1598
g89
g90
ssg71
g1587
sg64
(lp1599
S':'
asbag57
(g78
g59
NtRp1600
(dp1601
g62
(dp1602
sg71
g1587
sg64
(lp1603
g57
(g58
g59
NtRp1604
(dp1605
g62
(dp1606
g70
I4
ssg71
g1600
sg64
(lp1607
g57
(g66
g59
NtRp1608
(dp1609
g62
(dp1610
g70
I3
ssg71
Nsg64
(lp1611
g57
(g73
g59
NtRp1612
(dp1613
g62
(dp1614
sg71
g1608
sg64
(lp1615
g57
(g78
g59
NtRp1616
(dp1617
g62
(dp1618
sg71
g1612
sg64
(lp1619
g57
(g58
g59
NtRp1620
(dp1621
g62
(dp1622
g70
I3
ssg71
g1616
sg64
(lp1623
S'2'
asbasbasbag57
(g73
g59
NtRp1624
(dp1625
g62
(dp1626
sg71
g1608
sg64
(lp1627
g57
(g78
g59
NtRp1628
(dp1629
g62
(dp1630
sg71
g1624
sg64
(lp1631
g57
(g58
g59
NtRp1632
(dp1633
g62
(dp1634
g70
I3
ssg71
g1628
sg64
(lp1635
S'3'
asbasbasbag57
(g73
g59
NtRp1636
(dp1637
g62
(dp1638
sg71
g1608
sg64
(lp1639
g57
(g78
g59
NtRp1640
(dp1641
g62
(dp1642
sg71
g1636
sg64
(lp1643
g57
(g58
g59
NtRp1644
(dp1645
g62
(dp1646
g70
I3
ssg71
g1640
sg64
(lp1647
S'2'
asbasbasbag57
(g73
g59
NtRp1648
(dp1649
g62
(dp1650
sg71
g1608
sg64
(lp1651
g57
(g78
g59
NtRp1652
(dp1653
g62
(dp1654
sg71
g1648
sg64
(lp1655
g57
(g58
g59
NtRp1656
(dp1657
g62
(dp1658
g70
I3
ssg71
g1652
sg64
(lp1659
S'datetime.datetime(2012, 12, 17, 15, 3, 30)'
p1660
asbasbasbag57
(g73
g59
NtRp1661
(dp1662
g62
(dp1663
sg71
g1608
sg64
(lp1664
g57
(g78
g59
NtRp1665
(dp1666
g62
(dp1667
sg71
g1661
sg64
(lp1668
g57
(g58
g59
NtRp1669
(dp1670
g62
(dp1671
g70
I3
ssg71
g1665
sg64
(lp1672
S'stable'
p1673
asbasbasbasbasbasbasbag57
(g73
g59
NtRp1674
(dp1675
g62
(dp1676
sg71
g847
sg64
(lp1677
g57
(g78
g59
NtRp1678
(dp1679
g62
(dp1680
g82
g83
ssg71
g1674
sg64
(lp1681
S'wsgi_errors'
p1682
asbag57
(g78
g59
NtRp1683
(dp1684
g62
(dp1685
g89
g90
ssg71
g1674
sg64
(lp1686
S':'
asbag57
(g78
g59
NtRp1687
(dp1688
g62
(dp1689
sg71
g1674
sg64
(lp1690
g57
(g58
g59
NtRp1691
(dp1692
g62
(dp1693
g70
I4
ssg71
g1687
sg64
(lp1694
S"<open file '<stderr>', mode 'w' at 0xb72990d0>"
p1695
asbasbasbag57
(g73
g59
NtRp1696
(dp1697
g62
(dp1698
sg71
g847
sg64
(lp1699
g57
(g78
g59
NtRp1700
(dp1701
g62
(dp1702
g82
g83
ssg71
g1696
sg64
(lp1703
S'wsgi_file_wrapper'
p1704
asbag57
(g78
g59
NtRp1705
(dp1706
g62
(dp1707
g89
g90
ssg71
g1696
sg64
(lp1708
S':'
asbag57
(g78
g59
NtRp1709
(dp1710
g62
(dp1711
sg71
g1696
sg64
(lp1712
g57
(g58
g59
NtRp1713
(dp1714
g62
(dp1715
g70
I4
ssg71
g1709
sg64
(lp1716
S'<class wsgiref.util.FileWrapper at 0xa60d65c>'
p1717
asbasbasbag57
(g73
g59
NtRp1718
(dp1719
g62
(dp1720
sg71
g847
sg64
(lp1721
g57
(g78
g59
NtRp1722
(dp1723
g62
(dp1724
g82
g83
ssg71
g1718
sg64
(lp1725
S'wsgi_input'
p1726
asbag57
(g78
g59
NtRp1727
(dp1728
g62
(dp1729
g89
g90
ssg71
g1718
sg64
(lp1730
S':'
asbag57
(g78
g59
NtRp1731
(dp1732
g62
(dp1733
sg71
g1718
sg64
(lp1734
g57
(g58
g59
NtRp1735
(dp1736
g62
(dp1737
g70
I4
ssg71
g1731
sg64
(lp1738
S'<socket._fileobject object at 0xab4ab2c>'
p1739
asbasbasbag57
(g73
g59
NtRp1740
(dp1741
g62
(dp1742
sg71
g847
sg64
(lp1743
g57
(g78
g59
NtRp1744
(dp1745
g62
(dp1746
g82
g83
ssg71
g1740
sg64
(lp1747
S'wsgi_multiprocess'
p1748
asbag57
(g78
g59
NtRp1749
(dp1750
g62
(dp1751
g89
g90
ssg71
g1740
sg64
(lp1752
S':'
asbag57
(g78
g59
NtRp1753
(dp1754
g62
(dp1755
sg71
g1740
sg64
(lp1756
g57
(g58
g59
NtRp1757
(dp1758
g62
(dp1759
g70
I4
ssg71
g1753
sg64
(lp1760
g100
asbasbasbag57
(g73
g59
NtRp1761
(dp1762
g62
(dp1763
sg71
g847
sg64
(lp1764
g57
(g78
g59
NtRp1765
(dp1766
g62
(dp1767
g82
g83
ssg71
g1761
sg64
(lp1768
S'wsgi_multithread'
p1769
asbag57
(g78
g59
NtRp1770
(dp1771
g62
(dp1772
g89
g90
ssg71
g1761
sg64
(lp1773
S':'
asbag57
(g78
g59
NtRp1774
(dp1775
g62
(dp1776
sg71
g1761
sg64
(lp1777
g57
(g58
g59
NtRp1778
(dp1779
g62
(dp1780
g70
I4
ssg71
g1774
sg64
(lp1781
S'True'
p1782
asbasbasbag57
(g73
g59
NtRp1783
(dp1784
g62
(dp1785
sg71
g847
sg64
(lp1786
g57
(g78
g59
NtRp1787
(dp1788
g62
(dp1789
g82
g83
ssg71
g1783
sg64
(lp1790
S'wsgi_run_once'
p1791
asbag57
(g78
g59
NtRp1792
(dp1793
g62
(dp1794
g89
g90
ssg71
g1783
sg64
(lp1795
S':'
asbag57
(g78
g59
NtRp1796
(dp1797
g62
(dp1798
sg71
g1783
sg64
(lp1799
g57
(g58
g59
NtRp1800
(dp1801
g62
(dp1802
g70
I4
ssg71
g1796
sg64
(lp1803
g100
asbasbasbag57
(g73
g59
NtRp1804
(dp1805
g62
(dp1806
sg71
g847
sg64
(lp1807
g57
(g78
g59
NtRp1808
(dp1809
g62
(dp1810
g82
g83
ssg71
g1804
sg64
(lp1811
S'wsgi_url_scheme'
p1812
asbag57
(g78
g59
NtRp1813
(dp1814
g62
(dp1815
g89
g90
ssg71
g1804
sg64
(lp1816
S':'
asbag57
(g78
g59
NtRp1817
(dp1818
g62
(dp1819
sg71
g1804
sg64
(lp1820
g57
(g58
g59
NtRp1821
(dp1822
g62
(dp1823
g70
I4
ssg71
g1817
sg64
(lp1824
S'http'
p1825
asbasbasbag57
(g73
g59
NtRp1826
(dp1827
g62
(dp1828
sg71
g847
sg64
(lp1829
g57
(g78
g59
NtRp1830
(dp1831
g62
(dp1832
g82
g83
ssg71
g1826
sg64
(lp1833
S'wsgi_version'
p1834
asbag57
(g78
g59
NtRp1835
(dp1836
g62
(dp1837
g89
g90
ssg71
g1826
sg64
(lp1838
S':'
asbag57
(g78
g59
NtRp1839
(dp1840
g62
(dp1841
sg71
g1826
sg64
(lp1842
g57
(g58
g59
NtRp1843
(dp1844
g62
(dp1845
g70
I4
ssg71
g1839
sg64
(lp1846
g57
(g66
g59
NtRp1847
(dp1848
g62
(dp1849
g70
I3
ssg71
Nsg64
(lp1850
g57
(g73
g59
NtRp1851
(dp1852
g62
(dp1853
sg71
g1847
sg64
(lp1854
g57
(g78
g59
NtRp1855
(dp1856
g62
(dp1857
sg71
g1851
sg64
(lp1858
g57
(g58
g59
NtRp1859
(dp1860
g62
(dp1861
g70
I3
ssg71
g1855
sg64
(lp1862
S'1'
asbasbasbag57
(g73
g59
NtRp1863
(dp1864
g62
(dp1865
sg71
g1847
sg64
(lp1866
g57
(g78
g59
NtRp1867
(dp1868
g62
(dp1869
sg71
g1863
sg64
(lp1870
g57
(g58
g59
NtRp1871
(dp1872
g62
(dp1873
g70
I3
ssg71
g1867
sg64
(lp1874
S'0'
asbasbasbasbasbasbasbasbasbasbasbag57
(g73
g59
NtRp1875
(dp1876
g62
(dp1877
sg71
g67
sg64
(lp1878
g57
(g78
g59
NtRp1879
(dp1880
g62
(dp1881
g82
g83
ssg71
g1875
sg64
(lp1882
S'extension'
p1883
asbag57
(g78
g59
NtRp1884
(dp1885
g62
(dp1886
g89
g90
ssg71
g1875
sg64
(lp1887
S':'
asbag57
(g78
g59
NtRp1888
(dp1889
g62
(dp1890
sg71
g1875
sg64
(lp1891
g57
(g58
g59
NtRp1892
(dp1893
g62
(dp1894
g70
I5
ssg71
g1888
sg64
(lp1895
S'html'
p1896
asbasbasbag57
(g73
g59
NtRp1897
(dp1898
g62
(dp1899
sg71
g67
sg64
(lp1900
g57
(g78
g59
NtRp1901
(dp1902
g62
(dp1903
g82
g83
ssg71
g1897
sg64
(lp1904
S'folder'
p1905
asbag57
(g78
g59
NtRp1906
(dp1907
g62
(dp1908
g89
g90
ssg71
g1897
sg64
(lp1909
S':'
asbag57
(g78
g59
NtRp1910
(dp1911
g62
(dp1912
sg71
g1897
sg64
(lp1913
g57
(g58
g59
NtRp1914
(dp1915
g62
(dp1916
g70
I5
ssg71
g1910
sg64
(lp1917
S'/home/aditi/Desktop/web2py/applications/assignment2/'
p1918
asbasbasbag57
(g73
g59
NtRp1919
(dp1920
g62
(dp1921
sg71
g67
sg64
(lp1922
g57
(g78
g59
NtRp1923
(dp1924
g62
(dp1925
g82
g83
ssg71
g1919
sg64
(lp1926
S'function'
p1927
asbag57
(g78
g59
NtRp1928
(dp1929
g62
(dp1930
g89
g90
ssg71
g1919
sg64
(lp1931
S':'
asbag57
(g78
g59
NtRp1932
(dp1933
g62
(dp1934
sg71
g1919
sg64
(lp1935
g57
(g58
g59
NtRp1936
(dp1937
g62
(dp1938
g70
I5
ssg71
g1932
sg64
(lp1939
S'user_homepage'
p1940
asbasbasbag57
(g73
g59
NtRp1941
(dp1942
g62
(dp1943
sg71
g67
sg64
(lp1944
g57
(g78
g59
NtRp1945
(dp1946
g62
(dp1947
g82
g83
ssg71
g1941
sg64
(lp1948
S'get_vars'
p1949
asbag57
(g78
g59
NtRp1950
(dp1951
g62
(dp1952
g89
g90
ssg71
g1941
sg64
(lp1953
S':'
asbag57
(g78
g59
NtRp1954
(dp1955
g62
(dp1956
sg71
g1941
sg64
(lp1957
g57
(g58
g59
NtRp1958
(dp1959
g62
(dp1960
g70
I5
ssg71
g1954
sg64
(lp1961
g57
(g66
g59
NtRp1962
(dp1963
g62
(dp1964
g70
I4
ssg71
Nsg64
(lp1965
sbasbasbasbag57
(g73
g59
NtRp1966
(dp1967
g62
(dp1968
sg71
g67
sg64
(lp1969
g57
(g78
g59
NtRp1970
(dp1971
g62
(dp1972
g82
g83
ssg71
g1966
sg64
(lp1973
S'global_settings'
p1974
asbag57
(g78
g59
NtRp1975
(dp1976
g62
(dp1977
g89
g90
ssg71
g1966
sg64
(lp1978
S':'
asbag57
(g78
g59
NtRp1979
(dp1980
g62
(dp1981
sg71
g1966
sg64
(lp1982
g57
(g58
g59
NtRp1983
(dp1984
g62
(dp1985
g70
I5
ssg71
g1979
sg64
(lp1986
g57
(g66
g59
NtRp1987
(dp1988
g62
(dp1989
g70
I4
ssg71
Nsg64
(lp1990
g57
(g73
g59
NtRp1991
(dp1992
g62
(dp1993
sg71
g1987
sg64
(lp1994
g57
(g78
g59
NtRp1995
(dp1996
g62
(dp1997
g82
g83
ssg71
g1991
sg64
(lp1998
g859
asbag57
(g78
g59
NtRp1999
(dp2000
g62
(dp2001
g89
g90
ssg71
g1991
sg64
(lp2002
S':'
asbag57
(g78
g59
NtRp2003
(dp2004
g62
(dp2005
sg71
g1991
sg64
(lp2006
g57
(g58
g59
NtRp2007
(dp2008
g62
(dp2009
g70
I4
ssg71
g2003
sg64
(lp2010
S"set(['/home/aditi/Desktop/web2py/applications/assignment2/', '/home/aditi/Desktop/web2py/applications/admin/', '/home/aditi/Desktop/web2py/applications/welcome/'])"
p2011
asbasbasbag57
(g73
g59
NtRp2012
(dp2013
g62
(dp2014
sg71
g1987
sg64
(lp2015
g57
(g78
g59
NtRp2016
(dp2017
g62
(dp2018
g82
g83
ssg71
g2012
sg64
(lp2019
g881
asbag57
(g78
g59
NtRp2020
(dp2021
g62
(dp2022
g89
g90
ssg71
g2012
sg64
(lp2023
S':'
asbag57
(g78
g59
NtRp2024
(dp2025
g62
(dp2026
sg71
g2012
sg64
(lp2027
g57
(g58
g59
NtRp2028
(dp2029
g62
(dp2030
g70
I4
ssg71
g2024
sg64
(lp2031
g894
asbasbasbag57
(g73
g59
NtRp2032
(dp2033
g62
(dp2034
sg71
g1987
sg64
(lp2035
g57
(g78
g59
NtRp2036
(dp2037
g62
(dp2038
g82
g83
ssg71
g2032
sg64
(lp2039
g903
asbag57
(g78
g59
NtRp2040
(dp2041
g62
(dp2042
g89
g90
ssg71
g2032
sg64
(lp2043
S':'
asbag57
(g78
g59
NtRp2044
(dp2045
g62
(dp2046
sg71
g2032
sg64
(lp2047
g57
(g58
g59
NtRp2048
(dp2049
g62
(dp2050
g70
I4
ssg71
g2044
sg64
(lp2051
g57
(g66
g59
NtRp2052
(dp2053
g62
(dp2054
g70
I3
ssg71
Nsg64
(lp2055
sbasbasbasbag57
(g73
g59
NtRp2056
(dp2057
g62
(dp2058
sg71
g1987
sg64
(lp2059
g57
(g78
g59
NtRp2060
(dp2061
g62
(dp2062
g82
g83
ssg71
g2056
sg64
(lp2063
g928
asbag57
(g78
g59
NtRp2064
(dp2065
g62
(dp2066
g89
g90
ssg71
g2056
sg64
(lp2067
S':'
asbag57
(g78
g59
NtRp2068
(dp2069
g62
(dp2070
sg71
g2056
sg64
(lp2071
g57
(g58
g59
NtRp2072
(dp2073
g62
(dp2074
g70
I4
ssg71
g2068
sg64
(lp2075
S"<Values at 0xa651a0c: {'verbose': False, 'ip': '127.0.0.1', 'with_scheduler': False, 'ips': [], 'shutdown_timeout': 5, 'taskbar': False, 'port': 8000, 'maxthreads': None, 'softcron': False, 'server_name': 'ubuntu', 'bpython': False, 'nogui': False, 'pid_filename': 'httpserver.pid', 'extcron': False, 'runcron': False, 'run_system_tests': False, 'test': None, 'folder': '/home/aditi/Desktop/web2py', 'config': '', 'import_models': False, 'winservice': '', 'shell': None, 'run': '', 'log_filename': 'httpserver.log', 'debuglevel': 30, 'args': [''], 'socket_timeout': 5, 'ssl_ca_certificate': None, 'scheduler': None, 'profiler_filename': None, 'ssl_private_key': '', 'scheduler_groups': None, 'password': '<ask>', 'request_queue_size': 5, 'ssl_certificate': '', 'cronjob': False, 'numthreads': None, 'quiet': False, 'interfaces': None, 'minthreads': None, 'timeout': 10, 'plain': False, 'nobanner': False}>"
p2076
asbasbasbag57
(g73
g59
NtRp2077
(dp2078
g62
(dp2079
sg71
g1987
sg64
(lp2080
g57
(g78
g59
NtRp2081
(dp2082
g62
(dp2083
g82
g83
ssg71
g2077
sg64
(lp2084
g950
asbag57
(g78
g59
NtRp2085
(dp2086
g62
(dp2087
g89
g90
ssg71
g2077
sg64
(lp2088
S':'
asbag57
(g78
g59
NtRp2089
(dp2090
g62
(dp2091
sg71
g2077
sg64
(lp2092
g57
(g58
g59
NtRp2093
(dp2094
g62
(dp2095
g70
I4
ssg71
g2089
sg64
(lp2096
S'set([])'
p2097
asbasbasbag57
(g73
g59
NtRp2098
(dp2099
g62
(dp2100
sg71
g1987
sg64
(lp2101
g57
(g78
g59
NtRp2102
(dp2103
g62
(dp2104
g82
g83
ssg71
g2098
sg64
(lp2105
g972
asbag57
(g78
g59
NtRp2106
(dp2107
g62
(dp2108
g89
g90
ssg71
g2098
sg64
(lp2109
S':'
asbag57
(g78
g59
NtRp2110
(dp2111
g62
(dp2112
sg71
g2098
sg64
(lp2113
g57
(g58
g59
NtRp2114
(dp2115
g62
(dp2116
g70
I4
ssg71
g2110
sg64
(lp2117
g100
asbasbasbag57
(g73
g59
NtRp2118
(dp2119
g62
(dp2120
sg71
g1987
sg64
(lp2121
g57
(g78
g59
NtRp2122
(dp2123
g62
(dp2124
g82
g83
ssg71
g2118
sg64
(lp2125
g993
asbag57
(g78
g59
NtRp2126
(dp2127
g62
(dp2128
g89
g90
ssg71
g2118
sg64
(lp2129
S':'
asbag57
(g78
g59
NtRp2130
(dp2131
g62
(dp2132
sg71
g2118
sg64
(lp2133
g57
(g58
g59
NtRp2134
(dp2135
g62
(dp2136
g70
I4
ssg71
g2130
sg64
(lp2137
g1006
asbasbasbag57
(g73
g59
NtRp2138
(dp2139
g62
(dp2140
sg71
g1987
sg64
(lp2141
g57
(g78
g59
NtRp2142
(dp2143
g62
(dp2144
g82
g83
ssg71
g2138
sg64
(lp2145
g1191
asbag57
(g78
g59
NtRp2146
(dp2147
g62
(dp2148
g89
g90
ssg71
g2138
sg64
(lp2149
S':'
asbag57
(g78
g59
NtRp2150
(dp2151
g62
(dp2152
sg71
g2138
sg64
(lp2153
g57
(g58
g59
NtRp2154
(dp2155
g62
(dp2156
g70
I4
ssg71
g2150
sg64
(lp2157
g100
asbasbasbag57
(g73
g59
NtRp2158
(dp2159
g62
(dp2160
sg71
g1987
sg64
(lp2161
g57
(g78
g59
NtRp2162
(dp2163
g62
(dp2164
g82
g83
ssg71
g2158
sg64
(lp2165
g1212
asbag57
(g78
g59
NtRp2166
(dp2167
g62
(dp2168
g89
g90
ssg71
g2158
sg64
(lp2169
S':'
asbag57
(g78
g59
NtRp2170
(dp2171
g62
(dp2172
sg71
g2158
sg64
(lp2173
g57
(g58
g59
NtRp2174
(dp2175
g62
(dp2176
g70
I4
ssg71
g2170
sg64
(lp2177
g100
asbasbasbag57
(g73
g59
NtRp2178
(dp2179
g62
(dp2180
sg71
g1987
sg64
(lp2181
g57
(g78
g59
NtRp2182
(dp2183
g62
(dp2184
g82
g83
ssg71
g2178
sg64
(lp2185
g1233
asbag57
(g78
g59
NtRp2186
(dp2187
g62
(dp2188
g89
g90
ssg71
g2178
sg64
(lp2189
S':'
asbag57
(g78
g59
NtRp2190
(dp2191
g62
(dp2192
sg71
g2178
sg64
(lp2193
g57
(g58
g59
NtRp2194
(dp2195
g62
(dp2196
g70
I4
ssg71
g2190
sg64
(lp2197
g57
(g66
g59
NtRp2198
(dp2199
g62
(dp2200
g70
I3
ssg71
Nsg64
(lp2201
g57
(g73
g59
NtRp2202
(dp2203
g62
(dp2204
sg71
g2198
sg64
(lp2205
g57
(g78
g59
NtRp2206
(dp2207
g62
(dp2208
sg71
g2202
sg64
(lp2209
g57
(g58
g59
NtRp2210
(dp2211
g62
(dp2212
g70
I3
ssg71
g2206
sg64
(lp2213
g1262
asbasbasbag57
(g73
g59
NtRp2214
(dp2215
g62
(dp2216
sg71
g2198
sg64
(lp2217
g57
(g78
g59
NtRp2218
(dp2219
g62
(dp2220
sg71
g2214
sg64
(lp2221
g57
(g58
g59
NtRp2222
(dp2223
g62
(dp2224
g70
I3
ssg71
g2218
sg64
(lp2225
g1275
asbasbasbag57
(g73
g59
NtRp2226
(dp2227
g62
(dp2228
sg71
g2198
sg64
(lp2229
g57
(g78
g59
NtRp2230
(dp2231
g62
(dp2232
sg71
g2226
sg64
(lp2233
g57
(g58
g59
NtRp2234
(dp2235
g62
(dp2236
g70
I3
ssg71
g2230
sg64
(lp2237
g1288
asbasbasbag57
(g73
g59
NtRp2238
(dp2239
g62
(dp2240
sg71
g2198
sg64
(lp2241
g57
(g78
g59
NtRp2242
(dp2243
g62
(dp2244
sg71
g2238
sg64
(lp2245
g57
(g58
g59
NtRp2246
(dp2247
g62
(dp2248
g70
I3
ssg71
g2242
sg64
(lp2249
g1301
asbasbasbag57
(g73
g59
NtRp2250
(dp2251
g62
(dp2252
sg71
g2198
sg64
(lp2253
g57
(g78
g59
NtRp2254
(dp2255
g62
(dp2256
sg71
g2250
sg64
(lp2257
g57
(g58
g59
NtRp2258
(dp2259
g62
(dp2260
g70
I3
ssg71
g2254
sg64
(lp2261
g1314
asbasbasbag57
(g73
g59
NtRp2262
(dp2263
g62
(dp2264
sg71
g2198
sg64
(lp2265
g57
(g78
g59
NtRp2266
(dp2267
g62
(dp2268
sg71
g2262
sg64
(lp2269
g57
(g58
g59
NtRp2270
(dp2271
g62
(dp2272
g70
I3
ssg71
g2266
sg64
(lp2273
g1327
asbasbasbasbasbasbasbag57
(g73
g59
NtRp2274
(dp2275
g62
(dp2276
sg71
g1987
sg64
(lp2277
g57
(g78
g59
NtRp2278
(dp2279
g62
(dp2280
g82
g83
ssg71
g2274
sg64
(lp2281
g1595
asbag57
(g78
g59
NtRp2282
(dp2283
g62
(dp2284
g89
g90
ssg71
g2274
sg64
(lp2285
S':'
asbag57
(g78
g59
NtRp2286
(dp2287
g62
(dp2288
sg71
g2274
sg64
(lp2289
g57
(g58
g59
NtRp2290
(dp2291
g62
(dp2292
g70
I4
ssg71
g2286
sg64
(lp2293
g57
(g66
g59
NtRp2294
(dp2295
g62
(dp2296
g70
I3
ssg71
Nsg64
(lp2297
g57
(g73
g59
NtRp2298
(dp2299
g62
(dp2300
sg71
g2294
sg64
(lp2301
g57
(g78
g59
NtRp2302
(dp2303
g62
(dp2304
sg71
g2298
sg64
(lp2305
g57
(g58
g59
NtRp2306
(dp2307
g62
(dp2308
g70
I3
ssg71
g2302
sg64
(lp2309
S'2'
asbasbasbag57
(g73
g59
NtRp2310
(dp2311
g62
(dp2312
sg71
g2294
sg64
(lp2313
g57
(g78
g59
NtRp2314
(dp2315
g62
(dp2316
sg71
g2310
sg64
(lp2317
g57
(g58
g59
NtRp2318
(dp2319
g62
(dp2320
g70
I3
ssg71
g2314
sg64
(lp2321
S'3'
asbasbasbag57
(g73
g59
NtRp2322
(dp2323
g62
(dp2324
sg71
g2294
sg64
(lp2325
g57
(g78
g59
NtRp2326
(dp2327
g62
(dp2328
sg71
g2322
sg64
(lp2329
g57
(g58
g59
NtRp2330
(dp2331
g62
(dp2332
g70
I3
ssg71
g2326
sg64
(lp2333
S'2'
asbasbasbag57
(g73
g59
NtRp2334
(dp2335
g62
(dp2336
sg71
g2294
sg64
(lp2337
g57
(g78
g59
NtRp2338
(dp2339
g62
(dp2340
sg71
g2334
sg64
(lp2341
g57
(g58
g59
NtRp2342
(dp2343
g62
(dp2344
g70
I3
ssg71
g2338
sg64
(lp2345
S'datetime.datetime(2012, 12, 17, 15, 3, 30)'
p2346
asbasbasbag57
(g73
g59
NtRp2347
(dp2348
g62
(dp2349
sg71
g2294
sg64
(lp2350
g57
(g78
g59
NtRp2351
(dp2352
g62
(dp2353
sg71
g2347
sg64
(lp2354
g57
(g58
g59
NtRp2355
(dp2356
g62
(dp2357
g70
I3
ssg71
g2351
sg64
(lp2358
g1673
asbasbasbasbasbasbasbasbasbasbasbag57
(g73
g59
NtRp2359
(dp2360
g62
(dp2361
sg71
g67
sg64
(lp2362
g57
(g78
g59
NtRp2363
(dp2364
g62
(dp2365
g82
g83
ssg71
g2359
sg64
(lp2366
S'is_https'
p2367
asbag57
(g78
g59
NtRp2368
(dp2369
g62
(dp2370
g89
g90
ssg71
g2359
sg64
(lp2371
S':'
asbag57
(g78
g59
NtRp2372
(dp2373
g62
(dp2374
sg71
g2359
sg64
(lp2375
g57
(g58
g59
NtRp2376
(dp2377
g62
(dp2378
g70
I5
ssg71
g2372
sg64
(lp2379
g100
asbasbasbag57
(g73
g59
NtRp2380
(dp2381
g62
(dp2382
sg71
g67
sg64
(lp2383
g57
(g78
g59
NtRp2384
(dp2385
g62
(dp2386
g82
g83
ssg71
g2380
sg64
(lp2387
S'is_local'
p2388
asbag57
(g78
g59
NtRp2389
(dp2390
g62
(dp2391
g89
g90
ssg71
g2380
sg64
(lp2392
S':'
asbag57
(g78
g59
NtRp2393
(dp2394
g62
(dp2395
sg71
g2380
sg64
(lp2396
g57
(g58
g59
NtRp2397
(dp2398
g62
(dp2399
g70
I5
ssg71
g2393
sg64
(lp2400
g1782
asbasbasbag57
(g73
g59
NtRp2401
(dp2402
g62
(dp2403
sg71
g67
sg64
(lp2404
g57
(g78
g59
NtRp2405
(dp2406
g62
(dp2407
g82
g83
ssg71
g2401
sg64
(lp2408
S'is_restful'
p2409
asbag57
(g78
g59
NtRp2410
(dp2411
g62
(dp2412
g89
g90
ssg71
g2401
sg64
(lp2413
S':'
asbag57
(g78
g59
NtRp2414
(dp2415
g62
(dp2416
sg71
g2401
sg64
(lp2417
g57
(g58
g59
NtRp2418
(dp2419
g62
(dp2420
g70
I5
ssg71
g2414
sg64
(lp2421
g100
asbasbasbag57
(g73
g59
NtRp2422
(dp2423
g62
(dp2424
sg71
g67
sg64
(lp2425
g57
(g78
g59
NtRp2426
(dp2427
g62
(dp2428
g82
g83
ssg71
g2422
sg64
(lp2429
S'now'
p2430
asbag57
(g78
g59
NtRp2431
(dp2432
g62
(dp2433
g89
g90
ssg71
g2422
sg64
(lp2434
S':'
asbag57
(g78
g59
NtRp2435
(dp2436
g62
(dp2437
sg71
g2422
sg64
(lp2438
g57
(g58
g59
NtRp2439
(dp2440
g62
(dp2441
g70
I5
ssg71
g2435
sg64
(lp2442
S'datetime.datetime(2013, 8, 26, 17, 43, 46, 637968)'
p2443
asbasbasbag57
(g73
g59
NtRp2444
(dp2445
g62
(dp2446
sg71
g67
sg64
(lp2447
g57
(g78
g59
NtRp2448
(dp2449
g62
(dp2450
g82
g83
ssg71
g2444
sg64
(lp2451
S'post_vars'
p2452
asbag57
(g78
g59
NtRp2453
(dp2454
g62
(dp2455
g89
g90
ssg71
g2444
sg64
(lp2456
S':'
asbag57
(g78
g59
NtRp2457
(dp2458
g62
(dp2459
sg71
g2444
sg64
(lp2460
g57
(g58
g59
NtRp2461
(dp2462
g62
(dp2463
g70
I5
ssg71
g2457
sg64
(lp2464
g57
(g66
g59
NtRp2465
(dp2466
g62
(dp2467
g70
I4
ssg71
Nsg64
(lp2468
sbasbasbasbag57
(g73
g59
NtRp2469
(dp2470
g62
(dp2471
sg71
g67
sg64
(lp2472
g57
(g78
g59
NtRp2473
(dp2474
g62
(dp2475
g82
g83
ssg71
g2469
sg64
(lp2476
S'raw_args'
p2477
asbag57
(g78
g59
NtRp2478
(dp2479
g62
(dp2480
g89
g90
ssg71
g2469
sg64
(lp2481
S':'
asbag57
(g78
g59
NtRp2482
(dp2483
g62
(dp2484
sg71
g2469
sg64
(lp2485
g57
(g58
g59
NtRp2486
(dp2487
g62
(dp2488
g70
I5
ssg71
g2482
sg64
(lp2489
S''
asbasbasbag57
(g73
g59
NtRp2490
(dp2491
g62
(dp2492
sg71
g67
sg64
(lp2493
g57
(g78
g59
NtRp2494
(dp2495
g62
(dp2496
g82
g83
ssg71
g2490
sg64
(lp2497
S'raw_extension'
p2498
asbag57
(g78
g59
NtRp2499
(dp2500
g62
(dp2501
g89
g90
ssg71
g2490
sg64
(lp2502
S':'
asbag57
(g78
g59
NtRp2503
(dp2504
g62
(dp2505
sg71
g2490
sg64
(lp2506
g57
(g58
g59
NtRp2507
(dp2508
g62
(dp2509
g70
I5
ssg71
g2503
sg64
(lp2510
S'None'
p2511
asbasbasbag57
(g73
g59
NtRp2512
(dp2513
g62
(dp2514
sg71
g67
sg64
(lp2515
g57
(g78
g59
NtRp2516
(dp2517
g62
(dp2518
g82
g83
ssg71
g2512
sg64
(lp2519
S'url'
p2520
asbag57
(g78
g59
NtRp2521
(dp2522
g62
(dp2523
g89
g90
ssg71
g2512
sg64
(lp2524
S':'
asbag57
(g78
g59
NtRp2525
(dp2526
g62
(dp2527
sg71
g2512
sg64
(lp2528
g57
(g58
g59
NtRp2529
(dp2530
g62
(dp2531
g70
I5
ssg71
g2525
sg64
(lp2532
g1349
asbasbasbag57
(g73
g59
NtRp2533
(dp2534
g62
(dp2535
sg71
g67
sg64
(lp2536
g57
(g78
g59
NtRp2537
(dp2538
g62
(dp2539
g82
g83
ssg71
g2533
sg64
(lp2540
S'utcnow'
p2541
asbag57
(g78
g59
NtRp2542
(dp2543
g62
(dp2544
g89
g90
ssg71
g2533
sg64
(lp2545
S':'
asbag57
(g78
g59
NtRp2546
(dp2547
g62
(dp2548
sg71
g2533
sg64
(lp2549
g57
(g58
g59
NtRp2550
(dp2551
g62
(dp2552
g70
I5
ssg71
g2546
sg64
(lp2553
S'datetime.datetime(2013, 8, 26, 12, 13, 46, 637992)'
p2554
asbasbasbag57
(g73
g59
NtRp2555
(dp2556
g62
(dp2557
sg71
g67
sg64
(lp2558
g57
(g78
g59
NtRp2559
(dp2560
g62
(dp2561
g82
g83
ssg71
g2555
sg64
(lp2562
S'uuid'
p2563
asbag57
(g78
g59
NtRp2564
(dp2565
g62
(dp2566
g89
g90
ssg71
g2555
sg64
(lp2567
S':'
asbag57
(g78
g59
NtRp2568
(dp2569
g62
(dp2570
sg71
g2555
sg64
(lp2571
g57
(g58
g59
NtRp2572
(dp2573
g62
(dp2574
g70
I5
ssg71
g2568
sg64
(lp2575
S'assignment2/127.0.0.1.2013-08-26.17-43-46.3ae2b6d1-f1ba-4a95-a1b8-b3b07f6930cb'
p2576
asbasbasbag57
(g73
g59
NtRp2577
(dp2578
g62
(dp2579
sg71
g67
sg64
(lp2580
g57
(g78
g59
NtRp2581
(dp2582
g62
(dp2583
g82
g83
ssg71
g2577
sg64
(lp2584
S'vars'
p2585
asbag57
(g78
g59
NtRp2586
(dp2587
g62
(dp2588
g89
g90
ssg71
g2577
sg64
(lp2589
S':'
asbag57
(g78
g59
NtRp2590
(dp2591
g62
(dp2592
sg71
g2577
sg64
(lp2593
g57
(g58
g59
NtRp2594
(dp2595
g62
(dp2596
g70
I5
ssg71
g2590
sg64
(lp2597
g57
(g66
g59
NtRp2598
(dp2599
g62
(dp2600
g70
I4
ssg71
Nsg64
(lp2601
sbasbasbasbag57
(g73
g59
NtRp2602
(dp2603
g62
(dp2604
sg71
g67
sg64
(lp2605
g57
(g78
g59
NtRp2606
(dp2607
g62
(dp2608
g82
g83
ssg71
g2602
sg64
(lp2609
S'wsgi'
p2610
asbag57
(g78
g59
NtRp2611
(dp2612
g62
(dp2613
g89
g90
ssg71
g2602
sg64
(lp2614
S':'
asbag57
(g78
g59
NtRp2615
(dp2616
g62
(dp2617
sg71
g2602
sg64
(lp2618
g57
(g58
g59
NtRp2619
(dp2620
g62
(dp2621
g70
I5
ssg71
g2615
sg64
(lp2622
g57
(g66
g59
NtRp2623
(dp2624
g62
(dp2625
g70
I4
ssg71
Nsg64
(lp2626
g57
(g73
g59
NtRp2627
(dp2628
g62
(dp2629
sg71
g2623
sg64
(lp2630
g57
(g78
g59
NtRp2631
(dp2632
g62
(dp2633
g82
g83
ssg71
g2627
sg64
(lp2634
S'environ'
p2635
asbag57
(g78
g59
NtRp2636
(dp2637
g62
(dp2638
g89
g90
ssg71
g2627
sg64
(lp2639
S':'
asbag57
(g78
g59
NtRp2640
(dp2641
g62
(dp2642
sg71
g2627
sg64
(lp2643
g57
(g58
g59
NtRp2644
(dp2645
g62
(dp2646
g70
I4
ssg71
g2640
sg64
(lp2647
g57
(g66
g59
NtRp2648
(dp2649
g62
(dp2650
g70
I3
ssg71
Nsg64
(lp2651
g57
(g73
g59
NtRp2652
(dp2653
g62
(dp2654
sg71
g2648
sg64
(lp2655
g57
(g78
g59
NtRp2656
(dp2657
g62
(dp2658
g82
g83
ssg71
g2652
sg64
(lp2659
S'HTTP_ACCEPT'
p2660
asbag57
(g78
g59
NtRp2661
(dp2662
g62
(dp2663
g89
g90
ssg71
g2652
sg64
(lp2664
S':'
asbag57
(g78
g59
NtRp2665
(dp2666
g62
(dp2667
sg71
g2652
sg64
(lp2668
g57
(g58
g59
NtRp2669
(dp2670
g62
(dp2671
g70
I3
ssg71
g2665
sg64
(lp2672
g1028
asbasbasbag57
(g73
g59
NtRp2673
(dp2674
g62
(dp2675
sg71
g2648
sg64
(lp2676
g57
(g78
g59
NtRp2677
(dp2678
g62
(dp2679
g82
g83
ssg71
g2673
sg64
(lp2680
S'HTTP_ACCEPT_ENCODING'
p2681
asbag57
(g78
g59
NtRp2682
(dp2683
g62
(dp2684
g89
g90
ssg71
g2673
sg64
(lp2685
S':'
asbag57
(g78
g59
NtRp2686
(dp2687
g62
(dp2688
sg71
g2673
sg64
(lp2689
g57
(g58
g59
NtRp2690
(dp2691
g62
(dp2692
g70
I3
ssg71
g2686
sg64
(lp2693
g1050
asbasbasbag57
(g73
g59
NtRp2694
(dp2695
g62
(dp2696
sg71
g2648
sg64
(lp2697
g57
(g78
g59
NtRp2698
(dp2699
g62
(dp2700
g82
g83
ssg71
g2694
sg64
(lp2701
S'HTTP_ACCEPT_LANGUAGE'
p2702
asbag57
(g78
g59
NtRp2703
(dp2704
g62
(dp2705
g89
g90
ssg71
g2694
sg64
(lp2706
S':'
asbag57
(g78
g59
NtRp2707
(dp2708
g62
(dp2709
sg71
g2694
sg64
(lp2710
g57
(g58
g59
NtRp2711
(dp2712
g62
(dp2713
g70
I3
ssg71
g2707
sg64
(lp2714
g1072
asbasbasbag57
(g73
g59
NtRp2715
(dp2716
g62
(dp2717
sg71
g2648
sg64
(lp2718
g57
(g78
g59
NtRp2719
(dp2720
g62
(dp2721
g82
g83
ssg71
g2715
sg64
(lp2722
S'HTTP_CONNECTION'
p2723
asbag57
(g78
g59
NtRp2724
(dp2725
g62
(dp2726
g89
g90
ssg71
g2715
sg64
(lp2727
S':'
asbag57
(g78
g59
NtRp2728
(dp2729
g62
(dp2730
sg71
g2715
sg64
(lp2731
g57
(g58
g59
NtRp2732
(dp2733
g62
(dp2734
g70
I3
ssg71
g2728
sg64
(lp2735
g1094
asbasbasbag57
(g73
g59
NtRp2736
(dp2737
g62
(dp2738
sg71
g2648
sg64
(lp2739
g57
(g78
g59
NtRp2740
(dp2741
g62
(dp2742
g82
g83
ssg71
g2736
sg64
(lp2743
S'HTTP_COOKIE'
p2744
asbag57
(g78
g59
NtRp2745
(dp2746
g62
(dp2747
g89
g90
ssg71
g2736
sg64
(lp2748
S':'
asbag57
(g78
g59
NtRp2749
(dp2750
g62
(dp2751
sg71
g2736
sg64
(lp2752
g57
(g58
g59
NtRp2753
(dp2754
g62
(dp2755
g70
I3
ssg71
g2749
sg64
(lp2756
g1116
asbasbasbag57
(g73
g59
NtRp2757
(dp2758
g62
(dp2759
sg71
g2648
sg64
(lp2760
g57
(g78
g59
NtRp2761
(dp2762
g62
(dp2763
g82
g83
ssg71
g2757
sg64
(lp2764
S'HTTP_HOST'
p2765
asbag57
(g78
g59
NtRp2766
(dp2767
g62
(dp2768
g89
g90
ssg71
g2757
sg64
(lp2769
S':'
asbag57
(g78
g59
NtRp2770
(dp2771
g62
(dp2772
sg71
g2757
sg64
(lp2773
g57
(g58
g59
NtRp2774
(dp2775
g62
(dp2776
g70
I3
ssg71
g2770
sg64
(lp2777
g1138
asbasbasbag57
(g73
g59
NtRp2778
(dp2779
g62
(dp2780
sg71
g2648
sg64
(lp2781
g57
(g78
g59
NtRp2782
(dp2783
g62
(dp2784
g82
g83
ssg71
g2778
sg64
(lp2785
S'HTTP_REFERER'
p2786
asbag57
(g78
g59
NtRp2787
(dp2788
g62
(dp2789
g89
g90
ssg71
g2778
sg64
(lp2790
S':'
asbag57
(g78
g59
NtRp2791
(dp2792
g62
(dp2793
sg71
g2778
sg64
(lp2794
g57
(g58
g59
NtRp2795
(dp2796
g62
(dp2797
g70
I3
ssg71
g2791
sg64
(lp2798
g1160
asbasbasbag57
(g73
g59
NtRp2799
(dp2800
g62
(dp2801
sg71
g2648
sg64
(lp2802
g57
(g78
g59
NtRp2803
(dp2804
g62
(dp2805
g82
g83
ssg71
g2799
sg64
(lp2806
S'HTTP_USER_AGENT'
p2807
asbag57
(g78
g59
NtRp2808
(dp2809
g62
(dp2810
g89
g90
ssg71
g2799
sg64
(lp2811
S':'
asbag57
(g78
g59
NtRp2812
(dp2813
g62
(dp2814
sg71
g2799
sg64
(lp2815
g57
(g58
g59
NtRp2816
(dp2817
g62
(dp2818
g70
I3
ssg71
g2812
sg64
(lp2819
g1182
asbasbasbag57
(g73
g59
NtRp2820
(dp2821
g62
(dp2822
sg71
g2648
sg64
(lp2823
g57
(g78
g59
NtRp2824
(dp2825
g62
(dp2826
g82
g83
ssg71
g2820
sg64
(lp2827
S'PATH_INFO'
p2828
asbag57
(g78
g59
NtRp2829
(dp2830
g62
(dp2831
g89
g90
ssg71
g2820
sg64
(lp2832
S':'
asbag57
(g78
g59
NtRp2833
(dp2834
g62
(dp2835
sg71
g2820
sg64
(lp2836
g57
(g58
g59
NtRp2837
(dp2838
g62
(dp2839
g70
I3
ssg71
g2833
sg64
(lp2840
g1349
asbasbasbag57
(g73
g59
NtRp2841
(dp2842
g62
(dp2843
sg71
g2648
sg64
(lp2844
g57
(g78
g59
NtRp2845
(dp2846
g62
(dp2847
g82
g83
ssg71
g2841
sg64
(lp2848
S'QUERY_STRING'
p2849
asbag57
(g78
g59
NtRp2850
(dp2851
g62
(dp2852
g89
g90
ssg71
g2841
sg64
(lp2853
S':'
asbag57
(g78
g59
NtRp2854
(dp2855
g62
(dp2856
sg71
g2841
sg64
(lp2857
g57
(g58
g59
NtRp2858
(dp2859
g62
(dp2860
g70
I3
ssg71
g2854
sg64
(lp2861
S''
asbasbasbag57
(g73
g59
NtRp2862
(dp2863
g62
(dp2864
sg71
g2648
sg64
(lp2865
g57
(g78
g59
NtRp2866
(dp2867
g62
(dp2868
g82
g83
ssg71
g2862
sg64
(lp2869
S'REMOTE_ADDR'
p2870
asbag57
(g78
g59
NtRp2871
(dp2872
g62
(dp2873
g89
g90
ssg71
g2862
sg64
(lp2874
S':'
asbag57
(g78
g59
NtRp2875
(dp2876
g62
(dp2877
sg71
g2862
sg64
(lp2878
g57
(g58
g59
NtRp2879
(dp2880
g62
(dp2881
g70
I3
ssg71
g2875
sg64
(lp2882
g212
asbasbasbag57
(g73
g59
NtRp2883
(dp2884
g62
(dp2885
sg71
g2648
sg64
(lp2886
g57
(g78
g59
NtRp2887
(dp2888
g62
(dp2889
g82
g83
ssg71
g2883
sg64
(lp2890
S'REMOTE_PORT'
p2891
asbag57
(g78
g59
NtRp2892
(dp2893
g62
(dp2894
g89
g90
ssg71
g2883
sg64
(lp2895
S':'
asbag57
(g78
g59
NtRp2896
(dp2897
g62
(dp2898
sg71
g2883
sg64
(lp2899
g57
(g58
g59
NtRp2900
(dp2901
g62
(dp2902
g70
I3
ssg71
g2896
sg64
(lp2903
g1413
asbasbasbag57
(g73
g59
NtRp2904
(dp2905
g62
(dp2906
sg71
g2648
sg64
(lp2907
g57
(g78
g59
NtRp2908
(dp2909
g62
(dp2910
g82
g83
ssg71
g2904
sg64
(lp2911
S'REQUEST_METHOD'
p2912
asbag57
(g78
g59
NtRp2913
(dp2914
g62
(dp2915
g89
g90
ssg71
g2904
sg64
(lp2916
S':'
asbag57
(g78
g59
NtRp2917
(dp2918
g62
(dp2919
sg71
g2904
sg64
(lp2920
g57
(g58
g59
NtRp2921
(dp2922
g62
(dp2923
g70
I3
ssg71
g2917
sg64
(lp2924
g1435
asbasbasbag57
(g73
g59
NtRp2925
(dp2926
g62
(dp2927
sg71
g2648
sg64
(lp2928
g57
(g78
g59
NtRp2929
(dp2930
g62
(dp2931
g82
g83
ssg71
g2925
sg64
(lp2932
S'REQUEST_URI'
p2933
asbag57
(g78
g59
NtRp2934
(dp2935
g62
(dp2936
g89
g90
ssg71
g2925
sg64
(lp2937
S':'
asbag57
(g78
g59
NtRp2938
(dp2939
g62
(dp2940
sg71
g2925
sg64
(lp2941
g57
(g58
g59
NtRp2942
(dp2943
g62
(dp2944
g70
I3
ssg71
g2938
sg64
(lp2945
g1349
asbasbasbag57
(g73
g59
NtRp2946
(dp2947
g62
(dp2948
sg71
g2648
sg64
(lp2949
g57
(g78
g59
NtRp2950
(dp2951
g62
(dp2952
g82
g83
ssg71
g2946
sg64
(lp2953
S'SCRIPT_NAME'
p2954
asbag57
(g78
g59
NtRp2955
(dp2956
g62
(dp2957
g89
g90
ssg71
g2946
sg64
(lp2958
S':'
asbag57
(g78
g59
NtRp2959
(dp2960
g62
(dp2961
sg71
g2946
sg64
(lp2962
g57
(g58
g59
NtRp2963
(dp2964
g62
(dp2965
g70
I3
ssg71
g2959
sg64
(lp2966
S''
asbasbasbag57
(g73
g59
NtRp2967
(dp2968
g62
(dp2969
sg71
g2648
sg64
(lp2970
g57
(g78
g59
NtRp2971
(dp2972
g62
(dp2973
g82
g83
ssg71
g2967
sg64
(lp2974
S'SERVER_NAME'
p2975
asbag57
(g78
g59
NtRp2976
(dp2977
g62
(dp2978
g89
g90
ssg71
g2967
sg64
(lp2979
S':'
asbag57
(g78
g59
NtRp2980
(dp2981
g62
(dp2982
sg71
g2967
sg64
(lp2983
g57
(g58
g59
NtRp2984
(dp2985
g62
(dp2986
g70
I3
ssg71
g2980
sg64
(lp2987
g1499
asbasbasbag57
(g73
g59
NtRp2988
(dp2989
g62
(dp2990
sg71
g2648
sg64
(lp2991
g57
(g78
g59
NtRp2992
(dp2993
g62
(dp2994
g82
g83
ssg71
g2988
sg64
(lp2995
S'SERVER_PORT'
p2996
asbag57
(g78
g59
NtRp2997
(dp2998
g62
(dp2999
g89
g90
ssg71
g2988
sg64
(lp3000
S':'
asbag57
(g78
g59
NtRp3001
(dp3002
g62
(dp3003
sg71
g2988
sg64
(lp3004
g57
(g58
g59
NtRp3005
(dp3006
g62
(dp3007
g70
I3
ssg71
g3001
sg64
(lp3008
g1521
asbasbasbag57
(g73
g59
NtRp3009
(dp3010
g62
(dp3011
sg71
g2648
sg64
(lp3012
g57
(g78
g59
NtRp3013
(dp3014
g62
(dp3015
g82
g83
ssg71
g3009
sg64
(lp3016
S'SERVER_PROTOCOL'
p3017
asbag57
(g78
g59
NtRp3018
(dp3019
g62
(dp3020
g89
g90
ssg71
g3009
sg64
(lp3021
S':'
asbag57
(g78
g59
NtRp3022
(dp3023
g62
(dp3024
sg71
g3009
sg64
(lp3025
g57
(g58
g59
NtRp3026
(dp3027
g62
(dp3028
g70
I3
ssg71
g3022
sg64
(lp3029
g1543
asbasbasbag57
(g73
g59
NtRp3030
(dp3031
g62
(dp3032
sg71
g2648
sg64
(lp3033
g57
(g78
g59
NtRp3034
(dp3035
g62
(dp3036
g82
g83
ssg71
g3030
sg64
(lp3037
S'SERVER_SOFTWARE'
p3038
asbag57
(g78
g59
NtRp3039
(dp3040
g62
(dp3041
g89
g90
ssg71
g3030
sg64
(lp3042
S':'
asbag57
(g78
g59
NtRp3043
(dp3044
g62
(dp3045
sg71
g3030
sg64
(lp3046
g57
(g58
g59
NtRp3047
(dp3048
g62
(dp3049
g70
I3
ssg71
g3043
sg64
(lp3050
g1565
asbasbasbag57
(g73
g59
NtRp3051
(dp3052
g62
(dp3053
sg71
g2648
sg64
(lp3054
g57
(g78
g59
NtRp3055
(dp3056
g62
(dp3057
g82
g83
ssg71
g3051
sg64
(lp3058
S'wsgi.errors'
p3059
asbag57
(g78
g59
NtRp3060
(dp3061
g62
(dp3062
g89
g90
ssg71
g3051
sg64
(lp3063
S':'
asbag57
(g78
g59
NtRp3064
(dp3065
g62
(dp3066
sg71
g3051
sg64
(lp3067
g57
(g58
g59
NtRp3068
(dp3069
g62
(dp3070
g70
I3
ssg71
g3064
sg64
(lp3071
S"<open file '<stderr>', mode 'w' at 0xb72990d0>"
p3072
asbasbasbag57
(g73
g59
NtRp3073
(dp3074
g62
(dp3075
sg71
g2648
sg64
(lp3076
g57
(g78
g59
NtRp3077
(dp3078
g62
(dp3079
g82
g83
ssg71
g3073
sg64
(lp3080
S'wsgi.file_wrapper'
p3081
asbag57
(g78
g59
NtRp3082
(dp3083
g62
(dp3084
g89
g90
ssg71
g3073
sg64
(lp3085
S':'
asbag57
(g78
g59
NtRp3086
(dp3087
g62
(dp3088
sg71
g3073
sg64
(lp3089
g57
(g58
g59
NtRp3090
(dp3091
g62
(dp3092
g70
I3
ssg71
g3086
sg64
(lp3093
S'<class wsgiref.util.FileWrapper at 0xa60d65c>'
p3094
asbasbasbag57
(g73
g59
NtRp3095
(dp3096
g62
(dp3097
sg71
g2648
sg64
(lp3098
g57
(g78
g59
NtRp3099
(dp3100
g62
(dp3101
g82
g83
ssg71
g3095
sg64
(lp3102
S'wsgi.input'
p3103
asbag57
(g78
g59
NtRp3104
(dp3105
g62
(dp3106
g89
g90
ssg71
g3095
sg64
(lp3107
S':'
asbag57
(g78
g59
NtRp3108
(dp3109
g62
(dp3110
sg71
g3095
sg64
(lp3111
g57
(g58
g59
NtRp3112
(dp3113
g62
(dp3114
g70
I3
ssg71
g3108
sg64
(lp3115
S'<cStringIO.StringO object at 0xaa1ea20>'
p3116
asbasbasbag57
(g73
g59
NtRp3117
(dp3118
g62
(dp3119
sg71
g2648
sg64
(lp3120
g57
(g78
g59
NtRp3121
(dp3122
g62
(dp3123
g82
g83
ssg71
g3117
sg64
(lp3124
S'wsgi.multiprocess'
p3125
asbag57
(g78
g59
NtRp3126
(dp3127
g62
(dp3128
g89
g90
ssg71
g3117
sg64
(lp3129
S':'
asbag57
(g78
g59
NtRp3130
(dp3131
g62
(dp3132
sg71
g3117
sg64
(lp3133
g57
(g58
g59
NtRp3134
(dp3135
g62
(dp3136
g70
I3
ssg71
g3130
sg64
(lp3137
g100
asbasbasbag57
(g73
g59
NtRp3138
(dp3139
g62
(dp3140
sg71
g2648
sg64
(lp3141
g57
(g78
g59
NtRp3142
(dp3143
g62
(dp3144
g82
g83
ssg71
g3138
sg64
(lp3145
S'wsgi.multithread'
p3146
asbag57
(g78
g59
NtRp3147
(dp3148
g62
(dp3149
g89
g90
ssg71
g3138
sg64
(lp3150
S':'
asbag57
(g78
g59
NtRp3151
(dp3152
g62
(dp3153
sg71
g3138
sg64
(lp3154
g57
(g58
g59
NtRp3155
(dp3156
g62
(dp3157
g70
I3
ssg71
g3151
sg64
(lp3158
g1782
asbasbasbag57
(g73
g59
NtRp3159
(dp3160
g62
(dp3161
sg71
g2648
sg64
(lp3162
g57
(g78
g59
NtRp3163
(dp3164
g62
(dp3165
g82
g83
ssg71
g3159
sg64
(lp3166
S'wsgi.run_once'
p3167
asbag57
(g78
g59
NtRp3168
(dp3169
g62
(dp3170
g89
g90
ssg71
g3159
sg64
(lp3171
S':'
asbag57
(g78
g59
NtRp3172
(dp3173
g62
(dp3174
sg71
g3159
sg64
(lp3175
g57
(g58
g59
NtRp3176
(dp3177
g62
(dp3178
g70
I3
ssg71
g3172
sg64
(lp3179
g100
asbasbasbag57
(g73
g59
NtRp3180
(dp3181
g62
(dp3182
sg71
g2648
sg64
(lp3183
g57
(g78
g59
NtRp3184
(dp3185
g62
(dp3186
g82
g83
ssg71
g3180
sg64
(lp3187
S'wsgi.url_scheme'
p3188
asbag57
(g78
g59
NtRp3189
(dp3190
g62
(dp3191
g89
g90
ssg71
g3180
sg64
(lp3192
S':'
asbag57
(g78
g59
NtRp3193
(dp3194
g62
(dp3195
sg71
g3180
sg64
(lp3196
g57
(g58
g59
NtRp3197
(dp3198
g62
(dp3199
g70
I3
ssg71
g3193
sg64
(lp3200
g1825
asbasbasbag57
(g73
g59
NtRp3201
(dp3202
g62
(dp3203
sg71
g2648
sg64
(lp3204
g57
(g78
g59
NtRp3205
(dp3206
g62
(dp3207
g82
g83
ssg71
g3201
sg64
(lp3208
S'wsgi.version'
p3209
asbag57
(g78
g59
NtRp3210
(dp3211
g62
(dp3212
g89
g90
ssg71
g3201
sg64
(lp3213
S':'
asbag57
(g78
g59
NtRp3214
(dp3215
g62
(dp3216
sg71
g3201
sg64
(lp3217
g57
(g58
g59
NtRp3218
(dp3219
g62
(dp3220
g70
I3
ssg71
g3214
sg64
(lp3221
S'1'
asbasbasbasbasbasbasbasbasbasbasbasbasbsS'frames'
p3222
(lp3223
(dp3224
S'file'
p3225
S'/home/aditi/Desktop/web2py/gluon/restricted.py'
p3226
sS'dump'
p3227
(dp3228
S'environment'
p3229
S"{'A': <class 'gluon.html.A'>, 'Auth': <class 'gluon.tools.Auth'>, 'B': <class 'gluon.html.B'>, 'BEAUTIFY': <class 'gluon.html.BEAUTIFY'>, 'BODY': <class 'gluon.html.BODY'>, 'BR': <class 'gluon.html.BR'>, 'BUTTON': <class 'gluon.html.BUTTON'>, 'CAT': <class 'gluon.html.CAT'>, 'CENTER': <class 'gluon.html.CENTER'>, 'CLEANUP': <class 'gluon.validators.CLEANUP'>, ...}"
p3230
sS'ccode'
p3231
S'<code object <module> at 0xad016c80, file "/home...ons/assignment2/controllers/default.py", line 12>'
p3232
ssS'lnum'
p3233
I212
sS'lines'
p3234
(dp3235
I207
S'    try:'
p3236
sI208
S'        if isinstance(code, types.CodeType):'
p3237
sI209
S'            ccode = code'
p3238
sI210
S'        else:'
p3239
sI211
S'            ccode = compile2(code, layer)'
p3240
sI212
S'        exec ccode in environment'
p3241
sI213
S'    except HTTP:'
p3242
sI214
S'        raise'
p3243
sI215
S'    except RestrictedError:'
p3244
sI216
S'        # do not encapsulate (obfuscate) the original RestrictedError'
p3245
ssS'call'
p3246
S"(code='# -*- coding: utf-8 -*-\\n# this file is released ...\\n\\nresponse._vars=response._caller(user_homepage)\\n', environment={'A': <class 'gluon.html.A'>, 'Auth': <class 'gluon.tools.Auth'>, 'B': <class 'gluon.html.B'>, 'BEAUTIFY': <class 'gluon.html.BEAUTIFY'>, 'BODY': <class 'gluon.html.BODY'>, 'BR': <class 'gluon.html.BR'>, 'BUTTON': <class 'gluon.html.BUTTON'>, 'CAT': <class 'gluon.html.CAT'>, 'CENTER': <class 'gluon.html.CENTER'>, 'CLEANUP': <class 'gluon.validators.CLEANUP'>, ...}, layer='/home/aditi/Desktop/web2py/applications/assignment2/controllers/default.py')"
p3247
sS'func'
p3248
S'restricted'
p3249
sa(dp3250
g3225
S'/home/aditi/Desktop/web2py/applications/assignment2/controllers/default.py'
p3251
sg3227
(dp3252
sg3233
I132
sg3234
(dp3253
I128
S"      LOAD('default','data.load',args='tables',ajax=True,user_signature=True)"
p3254
sI129
S'    """'
p3255
sI130
S'    return dict(form=crud())'
p3256
sI121
S'    http://..../[app]/default/data/update/[table]/[id]'
p3257
sI122
S'    http://..../[app]/default/data/delete/[table]/[id]'
p3258
sI123
S'    http://..../[app]/default/data/select/[table]'
p3259
sI124
S'    http://..../[app]/default/data/search/[table]'
p3260
sI125
S'    but URLs must be signed, i.e. linked with'
p3261
sI126
S"      A('table',_href=URL('data/tables',user_signature=True))"
p3262
sI127
S'    or with the signed load operator'
p3263
ssg3246
S'()'
p3264
sg3248
S'<module>'
p3265
sa(dp3266
g3225
S'/home/aditi/Desktop/web2py/gluon/globals.py'
p3267
sg3227
(dp3268
S'self'
p3269
S'undefined'
p3270
sS'f'
S'<function user_homepage>'
p3271
ssg3233
I193
sg3234
(dp3272
I192
S'        self._vars = None'
p3273
sI193
S'        self._caller = lambda f: f()'
p3274
sI194
S'        self._view_environment = None'
p3275
sI195
S'        self._custom_commit = None'
p3276
sI196
S'        self._custom_rollback = None'
p3277
sI197
S''
sI188
S'        self.menu = []             # used by the default view layout'
p3278
sI189
S'        self.files = []            # used by web2py_ajax.html'
p3279
sI190
S'        self.generic_patterns = []  # patterns to allow generic views'
p3280
sI191
S"        self.delimiters = ('{{', '}}')"
p3281
ssg3246
S'(f=<function user_homepage>)'
p3282
sg3248
S'<lambda>'
p3283
sa(dp3284
g3225
S'/home/aditi/Desktop/web2py/applications/assignment2/controllers/default.py'
p3285
sg3227
(dp3286
S'd'
S'<Rows (1)>'
p3287
sS'form'
p3288
g3270
sS'global Field'
p3289
S"<class 'gluon.dal.Field'>"
p3290
sS'db.Field'
p3291
S"<class 'gluon.dal.Field'>"
p3292
sS'global SQLFORM'
p3293
S"<class 'gluon.sqlhtml.SQLFORM'>"
p3294
sS'label'
p3295
g3270
sS'SQLFORM.factory'
p3296
S'<function factory>'
p3297
sS'global IS_URL'
p3298
S"<class 'gluon.validators.IS_URL'>"
p3299
sS'global db'
p3300
S'<DAL uri="sqlite://storage.sqlite">'
p3301
sS'requires'
p3302
g3270
sS'global IS_IN_SET'
p3303
S"<class 'gluon.validators.IS_IN_SET'>"
p3304
ssg3233
I37
sg3234
(dp3305
I32
S'def user_homepage():'
p3306
sI33
S'    a=auth.user_id'
p3307
sI34
S'    f=db(db.auth_user.id==a).select(db.auth_user.first_name)'
p3308
sI35
S'    l=db(db.auth_user.id==a).select(db.auth_user.last_name)'
p3309
sI36
S'    d=db().select(db.category.name)'
p3310
sI37
S"    form=SQLFORM.factory(db.Field('category','string',requires=IS_IN_SET([d['name']]),label='Enter category'),"
p3311
sI38
S"                        Field('heading','string',label='Enter heading'),"
p3312
sI39
S"                        Field('choice','string',requires=IS_IN_SET(['article','video'])),"
p3313
sI40
S"                        Field('url','string',requires=IS_URL(),label='Enter URL'))"
p3314
sI41
S'    if(form.accepts(request.vars,session)):'
p3315
ssg3246
S'()'
p3316
sg3248
S'user_homepage'
p3317
sa(dp3318
g3225
S'/home/aditi/Desktop/web2py/gluon/dal.py'
p3319
sg3227
(dp3320
S'i'
S"'name'"
p3321
sS'self'
p3322
S'<Rows (1)>'
p3323
sS'self.records'
p3324
S"[<Row {'category': {'name': 'computer science'}}>]"
p3325
sS'row'
p3326
g3270
ssg3233
I9170
sg3234
(dp3327
I9165
S''
sI9166
S'    def __getslice__(self, a, b):'
p3328
sI9167
S'        return Rows(self.db,self.records[a:b],self.colnames)'
p3329
sI9168
S''
sI9169
S'    def __getitem__(self, i):'
p3330
sI9170
S'        row = self.records[i]'
p3331
sI9171
S'        keys = row.keys()'
p3332
sI9172
S"        if self.compact and len(keys) == 1 and keys[0] != '_extra':"
p3333
sI9173
S'            return row[row.keys()[0]]'
p3334
sI9174
S'        return row'
p3335
ssg3246
S"(self=<Rows (1)>, i='name')"
p3336
sg3248
g20
sasS'pyver'
p3337
S'Python 2.7.3: /usr/bin/python'
p3338
sS'session'
p3339
g57
(g58
g59
NtRp3340
(dp3341
g62
(dp3342
sg64
(lp3343
g57
(g66
g59
NtRp3344
(dp3345
g62
(dp3346
g70
I5
ssg71
Nsg64
(lp3347
g57
(g73
g59
NtRp3348
(dp3349
g62
(dp3350
sg71
g3344
sg64
(lp3351
g57
(g78
g59
NtRp3352
(dp3353
g62
(dp3354
g82
g83
ssg71
g3348
sg64
(lp3355
S'auth'
p3356
asbag57
(g78
g59
NtRp3357
(dp3358
g62
(dp3359
g89
g90
ssg71
g3348
sg64
(lp3360
S':'
asbag57
(g78
g59
NtRp3361
(dp3362
g62
(dp3363
sg71
g3348
sg64
(lp3364
g57
(g58
g59
NtRp3365
(dp3366
g62
(dp3367
g70
I5
ssg71
g3361
sg64
(lp3368
g57
(g66
g59
NtRp3369
(dp3370
g62
(dp3371
g70
I4
ssg71
Nsg64
(lp3372
g57
(g73
g59
NtRp3373
(dp3374
g62
(dp3375
sg71
g3369
sg64
(lp3376
g57
(g78
g59
NtRp3377
(dp3378
g62
(dp3379
g82
g83
ssg71
g3373
sg64
(lp3380
S'expiration'
p3381
asbag57
(g78
g59
NtRp3382
(dp3383
g62
(dp3384
g89
g90
ssg71
g3373
sg64
(lp3385
S':'
asbag57
(g78
g59
NtRp3386
(dp3387
g62
(dp3388
sg71
g3373
sg64
(lp3389
g57
(g58
g59
NtRp3390
(dp3391
g62
(dp3392
g70
I4
ssg71
g3386
sg64
(lp3393
S'3600'
p3394
asbasbasbag57
(g73
g59
NtRp3395
(dp3396
g62
(dp3397
sg71
g3369
sg64
(lp3398
g57
(g78
g59
NtRp3399
(dp3400
g62
(dp3401
g82
g83
ssg71
g3395
sg64
(lp3402
S'hmac_key'
p3403
asbag57
(g78
g59
NtRp3404
(dp3405
g62
(dp3406
g89
g90
ssg71
g3395
sg64
(lp3407
S':'
asbag57
(g78
g59
NtRp3408
(dp3409
g62
(dp3410
sg71
g3395
sg64
(lp3411
g57
(g58
g59
NtRp3412
(dp3413
g62
(dp3414
g70
I4
ssg71
g3408
sg64
(lp3415
S'd1823e26-4257-47e9-b0ad-9b464ec5bcde'
p3416
asbasbasbag57
(g73
g59
NtRp3417
(dp3418
g62
(dp3419
sg71
g3369
sg64
(lp3420
g57
(g78
g59
NtRp3421
(dp3422
g62
(dp3423
g82
g83
ssg71
g3417
sg64
(lp3424
S'last_visit'
p3425
asbag57
(g78
g59
NtRp3426
(dp3427
g62
(dp3428
g89
g90
ssg71
g3417
sg64
(lp3429
S':'
asbag57
(g78
g59
NtRp3430
(dp3431
g62
(dp3432
sg71
g3417
sg64
(lp3433
g57
(g58
g59
NtRp3434
(dp3435
g62
(dp3436
g70
I4
ssg71
g3430
sg64
(lp3437
S'datetime.datetime(2013, 8, 26, 17, 43, 46, 162282)'
p3438
asbasbasbag57
(g73
g59
NtRp3439
(dp3440
g62
(dp3441
sg71
g3369
sg64
(lp3442
g57
(g78
g59
NtRp3443
(dp3444
g62
(dp3445
g82
g83
ssg71
g3439
sg64
(lp3446
S'remember'
p3447
asbag57
(g78
g59
NtRp3448
(dp3449
g62
(dp3450
g89
g90
ssg71
g3439
sg64
(lp3451
S':'
asbag57
(g78
g59
NtRp3452
(dp3453
g62
(dp3454
sg71
g3439
sg64
(lp3455
g57
(g58
g59
NtRp3456
(dp3457
g62
(dp3458
g70
I4
ssg71
g3452
sg64
(lp3459
g100
asbasbasbag57
(g73
g59
NtRp3460
(dp3461
g62
(dp3462
sg71
g3369
sg64
(lp3463
g57
(g78
g59
NtRp3464
(dp3465
g62
(dp3466
g82
g83
ssg71
g3460
sg64
(lp3467
S'user'
p3468
asbag57
(g78
g59
NtRp3469
(dp3470
g62
(dp3471
g89
g90
ssg71
g3460
sg64
(lp3472
S':'
asbag57
(g78
g59
NtRp3473
(dp3474
g62
(dp3475
sg71
g3460
sg64
(lp3476
g57
(g58
g59
NtRp3477
(dp3478
g62
(dp3479
g70
I4
ssg71
g3473
sg64
(lp3480
g57
(g66
g59
NtRp3481
(dp3482
g62
(dp3483
g70
I3
ssg71
Nsg64
(lp3484
g57
(g73
g59
NtRp3485
(dp3486
g62
(dp3487
sg71
g3481
sg64
(lp3488
g57
(g78
g59
NtRp3489
(dp3490
g62
(dp3491
g82
g83
ssg71
g3485
sg64
(lp3492
S'account_type'
p3493
asbag57
(g78
g59
NtRp3494
(dp3495
g62
(dp3496
g89
g90
ssg71
g3485
sg64
(lp3497
S':'
asbag57
(g78
g59
NtRp3498
(dp3499
g62
(dp3500
sg71
g3485
sg64
(lp3501
g57
(g58
g59
NtRp3502
(dp3503
g62
(dp3504
g70
I3
ssg71
g3498
sg64
(lp3505
S'user'
p3506
asbasbasbag57
(g73
g59
NtRp3507
(dp3508
g62
(dp3509
sg71
g3481
sg64
(lp3510
g57
(g78
g59
NtRp3511
(dp3512
g62
(dp3513
g82
g83
ssg71
g3507
sg64
(lp3514
S'alt_email'
p3515
asbag57
(g78
g59
NtRp3516
(dp3517
g62
(dp3518
g89
g90
ssg71
g3507
sg64
(lp3519
S':'
asbag57
(g78
g59
NtRp3520
(dp3521
g62
(dp3522
sg71
g3507
sg64
(lp3523
g57
(g58
g59
NtRp3524
(dp3525
g62
(dp3526
g70
I3
ssg71
g3520
sg64
(lp3527
S'switch2aditi@gmail.com'
p3528
asbasbasbag57
(g73
g59
NtRp3529
(dp3530
g62
(dp3531
sg71
g3481
sg64
(lp3532
g57
(g78
g59
NtRp3533
(dp3534
g62
(dp3535
g82
g83
ssg71
g3529
sg64
(lp3536
S'dob'
p3537
asbag57
(g78
g59
NtRp3538
(dp3539
g62
(dp3540
g89
g90
ssg71
g3529
sg64
(lp3541
S':'
asbag57
(g78
g59
NtRp3542
(dp3543
g62
(dp3544
sg71
g3529
sg64
(lp3545
g57
(g58
g59
NtRp3546
(dp3547
g62
(dp3548
g70
I3
ssg71
g3542
sg64
(lp3549
S'datetime.date(1994, 5, 11)'
p3550
asbasbasbag57
(g73
g59
NtRp3551
(dp3552
g62
(dp3553
sg71
g3481
sg64
(lp3554
g57
(g78
g59
NtRp3555
(dp3556
g62
(dp3557
g82
g83
ssg71
g3551
sg64
(lp3558
S'email'
p3559
asbag57
(g78
g59
NtRp3560
(dp3561
g62
(dp3562
g89
g90
ssg71
g3551
sg64
(lp3563
S':'
asbag57
(g78
g59
NtRp3564
(dp3565
g62
(dp3566
sg71
g3551
sg64
(lp3567
g57
(g58
g59
NtRp3568
(dp3569
g62
(dp3570
g70
I3
ssg71
g3564
sg64
(lp3571
S'aditi.mavalankar@students.iiit.ac.in'
p3572
asbasbasbag57
(g73
g59
NtRp3573
(dp3574
g62
(dp3575
sg71
g3481
sg64
(lp3576
g57
(g78
g59
NtRp3577
(dp3578
g62
(dp3579
g82
g83
ssg71
g3573
sg64
(lp3580
S'first_name'
p3581
asbag57
(g78
g59
NtRp3582
(dp3583
g62
(dp3584
g89
g90
ssg71
g3573
sg64
(lp3585
S':'
asbag57
(g78
g59
NtRp3586
(dp3587
g62
(dp3588
sg71
g3573
sg64
(lp3589
g57
(g58
g59
NtRp3590
(dp3591
g62
(dp3592
g70
I3
ssg71
g3586
sg64
(lp3593
S'aditi'
p3594
asbasbasbag57
(g73
g59
NtRp3595
(dp3596
g62
(dp3597
sg71
g3481
sg64
(lp3598
g57
(g78
g59
NtRp3599
(dp3600
g62
(dp3601
g82
g83
ssg71
g3595
sg64
(lp3602
S'id'
p3603
asbag57
(g78
g59
NtRp3604
(dp3605
g62
(dp3606
g89
g90
ssg71
g3595
sg64
(lp3607
S':'
asbag57
(g78
g59
NtRp3608
(dp3609
g62
(dp3610
sg71
g3595
sg64
(lp3611
g57
(g58
g59
NtRp3612
(dp3613
g62
(dp3614
g70
I3
ssg71
g3608
sg64
(lp3615
S'1'
asbasbasbag57
(g73
g59
NtRp3616
(dp3617
g62
(dp3618
sg71
g3481
sg64
(lp3619
g57
(g78
g59
NtRp3620
(dp3621
g62
(dp3622
g82
g83
ssg71
g3616
sg64
(lp3623
S'last_name'
p3624
asbag57
(g78
g59
NtRp3625
(dp3626
g62
(dp3627
g89
g90
ssg71
g3616
sg64
(lp3628
S':'
asbag57
(g78
g59
NtRp3629
(dp3630
g62
(dp3631
sg71
g3616
sg64
(lp3632
g57
(g58
g59
NtRp3633
(dp3634
g62
(dp3635
g70
I3
ssg71
g3629
sg64
(lp3636
S'mavalankar'
p3637
asbasbasbag57
(g73
g59
NtRp3638
(dp3639
g62
(dp3640
sg71
g3481
sg64
(lp3641
g57
(g78
g59
NtRp3642
(dp3643
g62
(dp3644
g82
g83
ssg71
g3638
sg64
(lp3645
S'registration_id'
p3646
asbag57
(g78
g59
NtRp3647
(dp3648
g62
(dp3649
g89
g90
ssg71
g3638
sg64
(lp3650
S':'
asbag57
(g78
g59
NtRp3651
(dp3652
g62
(dp3653
sg71
g3638
sg64
(lp3654
g57
(g58
g59
NtRp3655
(dp3656
g62
(dp3657
g70
I3
ssg71
g3651
sg64
(lp3658
S''
asbasbasbag57
(g73
g59
NtRp3659
(dp3660
g62
(dp3661
sg71
g3481
sg64
(lp3662
g57
(g78
g59
NtRp3663
(dp3664
g62
(dp3665
g82
g83
ssg71
g3659
sg64
(lp3666
S'registration_key'
p3667
asbag57
(g78
g59
NtRp3668
(dp3669
g62
(dp3670
g89
g90
ssg71
g3659
sg64
(lp3671
S':'
asbag57
(g78
g59
NtRp3672
(dp3673
g62
(dp3674
sg71
g3659
sg64
(lp3675
g57
(g58
g59
NtRp3676
(dp3677
g62
(dp3678
g70
I3
ssg71
g3672
sg64
(lp3679
S''
asbasbasbag57
(g73
g59
NtRp3680
(dp3681
g62
(dp3682
sg71
g3481
sg64
(lp3683
g57
(g78
g59
NtRp3684
(dp3685
g62
(dp3686
g82
g83
ssg71
g3680
sg64
(lp3687
S'reset_password_key'
p3688
asbag57
(g78
g59
NtRp3689
(dp3690
g62
(dp3691
g89
g90
ssg71
g3680
sg64
(lp3692
S':'
asbag57
(g78
g59
NtRp3693
(dp3694
g62
(dp3695
sg71
g3680
sg64
(lp3696
g57
(g58
g59
NtRp3697
(dp3698
g62
(dp3699
g70
I3
ssg71
g3693
sg64
(lp3700
S''
asbasbasbag57
(g73
g59
NtRp3701
(dp3702
g62
(dp3703
sg71
g3481
sg64
(lp3704
g57
(g78
g59
NtRp3705
(dp3706
g62
(dp3707
g82
g83
ssg71
g3701
sg64
(lp3708
S'username'
p3709
asbag57
(g78
g59
NtRp3710
(dp3711
g62
(dp3712
g89
g90
ssg71
g3701
sg64
(lp3713
S':'
asbag57
(g78
g59
NtRp3714
(dp3715
g62
(dp3716
sg71
g3701
sg64
(lp3717
g57
(g58
g59
NtRp3718
(dp3719
g62
(dp3720
g70
I3
ssg71
g3714
sg64
(lp3721
S'aditi.mavalankar'
p3722
asbasbasbasbasbasbasbag57
(g73
g59
NtRp3723
(dp3724
g62
(dp3725
sg71
g3369
sg64
(lp3726
g57
(g78
g59
NtRp3727
(dp3728
g62
(dp3729
g82
g83
ssg71
g3723
sg64
(lp3730
S'user_groups'
p3731
asbag57
(g78
g59
NtRp3732
(dp3733
g62
(dp3734
g89
g90
ssg71
g3723
sg64
(lp3735
S':'
asbag57
(g78
g59
NtRp3736
(dp3737
g62
(dp3738
sg71
g3723
sg64
(lp3739
g57
(g58
g59
NtRp3740
(dp3741
g62
(dp3742
g70
I4
ssg71
g3736
sg64
(lp3743
g57
(g66
g59
NtRp3744
(dp3745
g62
(dp3746
g70
I3
ssg71
Nsg64
(lp3747
g57
(g73
g59
NtRp3748
(dp3749
g62
(dp3750
sg71
g3744
sg64
(lp3751
g57
(g78
g59
NtRp3752
(dp3753
g62
(dp3754
g82
g83
ssg71
g3748
sg64
(lp3755
S'1'
asbag57
(g78
g59
NtRp3756
(dp3757
g62
(dp3758
g89
g90
ssg71
g3748
sg64
(lp3759
S':'
asbag57
(g78
g59
NtRp3760
(dp3761
g62
(dp3762
sg71
g3748
sg64
(lp3763
g57
(g58
g59
NtRp3764
(dp3765
g62
(dp3766
g70
I3
ssg71
g3760
sg64
(lp3767
S'user_1'
p3768
asbasbasbasbasbasbasbasbasbasbasbag57
(g73
g59
NtRp3769
(dp3770
g62
(dp3771
sg71
g3344
sg64
(lp3772
g57
(g78
g59
NtRp3773
(dp3774
g62
(dp3775
g82
g83
ssg71
g3769
sg64
(lp3776
S'flash'
p3777
asbag57
(g78
g59
NtRp3778
(dp3779
g62
(dp3780
g89
g90
ssg71
g3769
sg64
(lp3781
S':'
asbag57
(g78
g59
NtRp3782
(dp3783
g62
(dp3784
sg71
g3769
sg64
(lp3785
g57
(g58
g59
NtRp3786
(dp3787
g62
(dp3788
g70
I5
ssg71
g3782
sg64
(lp3789
S'None'
p3790
asbasbasbasbasbsS'etype'
p3791
S"<type 'exceptions.TypeError'>"
p3792
sS'date'
p3793
S'Mon Aug 26 17:43:46 2013'
p3794
sS'response'
p3795
g57
(g58
g59
NtRp3796
(dp3797
g62
(dp3798
sg64
(lp3799
g57
(g66
g59
NtRp3800
(dp3801
g62
(dp3802
g70
I5
ssg71
Nsg64
(lp3803
g57
(g73
g59
NtRp3804
(dp3805
g62
(dp3806
sg71
g3800
sg64
(lp3807
g57
(g78
g59
NtRp3808
(dp3809
g62
(dp3810
g82
g83
ssg71
g3804
sg64
(lp3811
g155
asbag57
(g78
g59
NtRp3812
(dp3813
g62
(dp3814
g89
g90
ssg71
g3804
sg64
(lp3815
S':'
asbag57
(g78
g59
NtRp3816
(dp3817
g62
(dp3818
sg71
g3804
sg64
(lp3819
g57
(g58
g59
NtRp3820
(dp3821
g62
(dp3822
g70
I5
ssg71
g3816
sg64
(lp3823
S'<cStringIO.StringO object at 0xad09b460>'
p3824
asbasbasbag57
(g73
g59
NtRp3825
(dp3826
g62
(dp3827
sg71
g3800
sg64
(lp3828
g57
(g78
g59
NtRp3829
(dp3830
g62
(dp3831
g82
g83
ssg71
g3825
sg64
(lp3832
g243
asbag57
(g78
g59
NtRp3833
(dp3834
g62
(dp3835
g89
g90
ssg71
g3825
sg64
(lp3836
S':'
asbag57
(g78
g59
NtRp3837
(dp3838
g62
(dp3839
sg71
g3825
sg64
(lp3840
g57
(g58
g59
NtRp3841
(dp3842
g62
(dp3843
g70
I5
ssg71
g3837
sg64
(lp3844
g57
(g66
g59
NtRp3845
(dp3846
g62
(dp3847
g70
I4
ssg71
Nsg64
(lp3848
g57
(g73
g59
NtRp3849
(dp3850
g62
(dp3851
sg71
g3845
sg64
(lp3852
g57
(g78
g59
NtRp3853
(dp3854
g62
(dp3855
g82
g83
ssg71
g3849
sg64
(lp3856
S'session_id_assignment2'
p3857
asbag57
(g78
g59
NtRp3858
(dp3859
g62
(dp3860
g89
g90
ssg71
g3849
sg64
(lp3861
S':'
asbag57
(g78
g59
NtRp3862
(dp3863
g62
(dp3864
sg71
g3849
sg64
(lp3865
g57
(g58
g59
NtRp3866
(dp3867
g62
(dp3868
g70
I4
ssg71
g3862
sg64
(lp3869
g475
ag57
(g66
g59
NtRp3870
(dp3871
g62
(dp3872
g70
I3
ssg71
Nsg64
(lp3873
g57
(g73
g59
NtRp3874
(dp3875
g62
(dp3876
sg71
g3870
sg64
(lp3877
g57
(g78
g59
NtRp3878
(dp3879
g62
(dp3880
g82
g83
ssg71
g3874
sg64
(lp3881
g294
asbag57
(g78
g59
NtRp3882
(dp3883
g62
(dp3884
g89
g90
ssg71
g3874
sg64
(lp3885
S':'
asbag57
(g78
g59
NtRp3886
(dp3887
g62
(dp3888
sg71
g3874
sg64
(lp3889
g57
(g58
g59
NtRp3890
(dp3891
g62
(dp3892
g70
I3
ssg71
g3886
sg64
(lp3893
S''
asbasbasbag57
(g73
g59
NtRp3894
(dp3895
g62
(dp3896
sg71
g3870
sg64
(lp3897
g57
(g78
g59
NtRp3898
(dp3899
g62
(dp3900
g82
g83
ssg71
g3894
sg64
(lp3901
g315
asbag57
(g78
g59
NtRp3902
(dp3903
g62
(dp3904
g89
g90
ssg71
g3894
sg64
(lp3905
S':'
asbag57
(g78
g59
NtRp3906
(dp3907
g62
(dp3908
sg71
g3894
sg64
(lp3909
g57
(g58
g59
NtRp3910
(dp3911
g62
(dp3912
g70
I3
ssg71
g3906
sg64
(lp3913
S''
asbasbasbag57
(g73
g59
NtRp3914
(dp3915
g62
(dp3916
sg71
g3870
sg64
(lp3917
g57
(g78
g59
NtRp3918
(dp3919
g62
(dp3920
g82
g83
ssg71
g3914
sg64
(lp3921
g336
asbag57
(g78
g59
NtRp3922
(dp3923
g62
(dp3924
g89
g90
ssg71
g3914
sg64
(lp3925
S':'
asbag57
(g78
g59
NtRp3926
(dp3927
g62
(dp3928
sg71
g3914
sg64
(lp3929
g57
(g58
g59
NtRp3930
(dp3931
g62
(dp3932
g70
I3
ssg71
g3926
sg64
(lp3933
S''
asbasbasbag57
(g73
g59
NtRp3934
(dp3935
g62
(dp3936
sg71
g3870
sg64
(lp3937
g57
(g78
g59
NtRp3938
(dp3939
g62
(dp3940
g82
g83
ssg71
g3934
sg64
(lp3941
g357
asbag57
(g78
g59
NtRp3942
(dp3943
g62
(dp3944
g89
g90
ssg71
g3934
sg64
(lp3945
S':'
asbag57
(g78
g59
NtRp3946
(dp3947
g62
(dp3948
sg71
g3934
sg64
(lp3949
g57
(g58
g59
NtRp3950
(dp3951
g62
(dp3952
g70
I3
ssg71
g3946
sg64
(lp3953
S''
asbasbasbag57
(g73
g59
NtRp3954
(dp3955
g62
(dp3956
sg71
g3870
sg64
(lp3957
g57
(g78
g59
NtRp3958
(dp3959
g62
(dp3960
g82
g83
ssg71
g3954
sg64
(lp3961
g378
asbag57
(g78
g59
NtRp3962
(dp3963
g62
(dp3964
g89
g90
ssg71
g3954
sg64
(lp3965
S':'
asbag57
(g78
g59
NtRp3966
(dp3967
g62
(dp3968
sg71
g3954
sg64
(lp3969
g57
(g58
g59
NtRp3970
(dp3971
g62
(dp3972
g70
I3
ssg71
g3966
sg64
(lp3973
S''
asbasbasbag57
(g73
g59
NtRp3974
(dp3975
g62
(dp3976
sg71
g3870
sg64
(lp3977
g57
(g78
g59
NtRp3978
(dp3979
g62
(dp3980
g82
g83
ssg71
g3974
sg64
(lp3981
g399
asbag57
(g78
g59
NtRp3982
(dp3983
g62
(dp3984
g89
g90
ssg71
g3974
sg64
(lp3985
S':'
asbag57
(g78
g59
NtRp3986
(dp3987
g62
(dp3988
sg71
g3974
sg64
(lp3989
g57
(g58
g59
NtRp3990
(dp3991
g62
(dp3992
g70
I3
ssg71
g3986
sg64
(lp3993
S'/'
asbasbasbag57
(g73
g59
NtRp3994
(dp3995
g62
(dp3996
sg71
g3870
sg64
(lp3997
g57
(g78
g59
NtRp3998
(dp3999
g62
(dp4000
g82
g83
ssg71
g3994
sg64
(lp4001
g420
asbag57
(g78
g59
NtRp4002
(dp4003
g62
(dp4004
g89
g90
ssg71
g3994
sg64
(lp4005
S':'
asbag57
(g78
g59
NtRp4006
(dp4007
g62
(dp4008
sg71
g3994
sg64
(lp4009
g57
(g58
g59
NtRp4010
(dp4011
g62
(dp4012
g70
I3
ssg71
g4006
sg64
(lp4013
S''
asbasbasbag57
(g73
g59
NtRp4014
(dp4015
g62
(dp4016
sg71
g3870
sg64
(lp4017
g57
(g78
g59
NtRp4018
(dp4019
g62
(dp4020
g82
g83
ssg71
g4014
sg64
(lp4021
g441
asbag57
(g78
g59
NtRp4022
(dp4023
g62
(dp4024
g89
g90
ssg71
g4014
sg64
(lp4025
S':'
asbag57
(g78
g59
NtRp4026
(dp4027
g62
(dp4028
sg71
g4014
sg64
(lp4029
g57
(g58
g59
NtRp4030
(dp4031
g62
(dp4032
g70
I3
ssg71
g4026
sg64
(lp4033
S''
asbasbasbasbasbasbasbasbasbasbasbag57
(g73
g59
NtRp4034
(dp4035
g62
(dp4036
sg71
g3800
sg64
(lp4037
g57
(g78
g59
NtRp4038
(dp4039
g62
(dp4040
g82
g83
ssg71
g4034
sg64
(lp4041
S'delimiters'
p4042
asbag57
(g78
g59
NtRp4043
(dp4044
g62
(dp4045
g89
g90
ssg71
g4034
sg64
(lp4046
S':'
asbag57
(g78
g59
NtRp4047
(dp4048
g62
(dp4049
sg71
g4034
sg64
(lp4050
g57
(g58
g59
NtRp4051
(dp4052
g62
(dp4053
g70
I5
ssg71
g4047
sg64
(lp4054
g57
(g66
g59
NtRp4055
(dp4056
g62
(dp4057
g70
I4
ssg71
Nsg64
(lp4058
g57
(g73
g59
NtRp4059
(dp4060
g62
(dp4061
sg71
g4055
sg64
(lp4062
g57
(g78
g59
NtRp4063
(dp4064
g62
(dp4065
sg71
g4059
sg64
(lp4066
g57
(g58
g59
NtRp4067
(dp4068
g62
(dp4069
g70
I4
ssg71
g4063
sg64
(lp4070
S'{{'
p4071
asbasbasbag57
(g73
g59
NtRp4072
(dp4073
g62
(dp4074
sg71
g4055
sg64
(lp4075
g57
(g78
g59
NtRp4076
(dp4077
g62
(dp4078
sg71
g4072
sg64
(lp4079
g57
(g58
g59
NtRp4080
(dp4081
g62
(dp4082
g70
I4
ssg71
g4076
sg64
(lp4083
S'}}'
p4084
asbasbasbasbasbasbasbag57
(g73
g59
NtRp4085
(dp4086
g62
(dp4087
sg71
g3800
sg64
(lp4088
g57
(g78
g59
NtRp4089
(dp4090
g62
(dp4091
g82
g83
ssg71
g4085
sg64
(lp4092
S'files'
p4093
asbag57
(g78
g59
NtRp4094
(dp4095
g62
(dp4096
g89
g90
ssg71
g4085
sg64
(lp4097
S':'
asbag57
(g78
g59
NtRp4098
(dp4099
g62
(dp4100
sg71
g4085
sg64
(lp4101
g57
(g58
g59
NtRp4102
(dp4103
g62
(dp4104
g70
I5
ssg71
g4098
sg64
(lp4105
g57
(g66
g59
NtRp4106
(dp4107
g62
(dp4108
g70
I4
ssg71
Nsg64
(lp4109
sbasbasbasbag57
(g73
g59
NtRp4110
(dp4111
g62
(dp4112
sg71
g3800
sg64
(lp4113
g57
(g78
g59
NtRp4114
(dp4115
g62
(dp4116
g82
g83
ssg71
g4110
sg64
(lp4117
S'flash'
p4118
asbag57
(g78
g59
NtRp4119
(dp4120
g62
(dp4121
g89
g90
ssg71
g4110
sg64
(lp4122
S':'
asbag57
(g78
g59
NtRp4123
(dp4124
g62
(dp4125
sg71
g4110
sg64
(lp4126
g57
(g58
g59
NtRp4127
(dp4128
g62
(dp4129
g70
I5
ssg71
g4123
sg64
(lp4130
S''
asbasbasbag57
(g73
g59
NtRp4131
(dp4132
g62
(dp4133
sg71
g3800
sg64
(lp4134
g57
(g78
g59
NtRp4135
(dp4136
g62
(dp4137
g82
g83
ssg71
g4131
sg64
(lp4138
S'generic_patterns'
p4139
asbag57
(g78
g59
NtRp4140
(dp4141
g62
(dp4142
g89
g90
ssg71
g4131
sg64
(lp4143
S':'
asbag57
(g78
g59
NtRp4144
(dp4145
g62
(dp4146
sg71
g4131
sg64
(lp4147
g57
(g58
g59
NtRp4148
(dp4149
g62
(dp4150
g70
I5
ssg71
g4144
sg64
(lp4151
g57
(g66
g59
NtRp4152
(dp4153
g62
(dp4154
g70
I4
ssg71
Nsg64
(lp4155
g57
(g73
g59
NtRp4156
(dp4157
g62
(dp4158
sg71
g4152
sg64
(lp4159
g57
(g78
g59
NtRp4160
(dp4161
g62
(dp4162
sg71
g4156
sg64
(lp4163
g57
(g58
g59
NtRp4164
(dp4165
g62
(dp4166
g70
I4
ssg71
g4160
sg64
(lp4167
S'*'
asbasbasbasbasbasbasbag57
(g73
g59
NtRp4168
(dp4169
g62
(dp4170
sg71
g3800
sg64
(lp4171
g57
(g78
g59
NtRp4172
(dp4173
g62
(dp4174
g82
g83
ssg71
g4168
sg64
(lp4175
S'google_analytics_id'
p4176
asbag57
(g78
g59
NtRp4177
(dp4178
g62
(dp4179
g89
g90
ssg71
g4168
sg64
(lp4180
S':'
asbag57
(g78
g59
NtRp4181
(dp4182
g62
(dp4183
sg71
g4168
sg64
(lp4184
g57
(g58
g59
NtRp4185
(dp4186
g62
(dp4187
g70
I5
ssg71
g4181
sg64
(lp4188
S'None'
p4189
asbasbasbag57
(g73
g59
NtRp4190
(dp4191
g62
(dp4192
sg71
g3800
sg64
(lp4193
g57
(g78
g59
NtRp4194
(dp4195
g62
(dp4196
g82
g83
ssg71
g4190
sg64
(lp4197
S'headers'
p4198
asbag57
(g78
g59
NtRp4199
(dp4200
g62
(dp4201
g89
g90
ssg71
g4190
sg64
(lp4202
S':'
asbag57
(g78
g59
NtRp4203
(dp4204
g62
(dp4205
sg71
g4190
sg64
(lp4206
g57
(g58
g59
NtRp4207
(dp4208
g62
(dp4209
g70
I5
ssg71
g4203
sg64
(lp4210
g57
(g66
g59
NtRp4211
(dp4212
g62
(dp4213
g70
I4
ssg71
Nsg64
(lp4214
g57
(g73
g59
NtRp4215
(dp4216
g62
(dp4217
sg71
g4211
sg64
(lp4218
g57
(g78
g59
NtRp4219
(dp4220
g62
(dp4221
g82
g83
ssg71
g4215
sg64
(lp4222
S'X-Powered-By'
p4223
asbag57
(g78
g59
NtRp4224
(dp4225
g62
(dp4226
g89
g90
ssg71
g4215
sg64
(lp4227
S':'
asbag57
(g78
g59
NtRp4228
(dp4229
g62
(dp4230
sg71
g4215
sg64
(lp4231
g57
(g58
g59
NtRp4232
(dp4233
g62
(dp4234
g70
I4
ssg71
g4228
sg64
(lp4235
S'web2py'
p4236
asbasbasbasbasbasbasbag57
(g73
g59
NtRp4237
(dp4238
g62
(dp4239
sg71
g3800
sg64
(lp4240
g57
(g78
g59
NtRp4241
(dp4242
g62
(dp4243
g82
g83
ssg71
g4237
sg64
(lp4244
S'logo'
p4245
asbag57
(g78
g59
NtRp4246
(dp4247
g62
(dp4248
g89
g90
ssg71
g4237
sg64
(lp4249
S':'
asbag57
(g78
g59
NtRp4250
(dp4251
g62
(dp4252
sg71
g4237
sg64
(lp4253
g57
(g58
g59
NtRp4254
(dp4255
g62
(dp4256
g70
I5
ssg71
g4250
sg64
(lp4257
g57
(cgluon.html
A
p4258
g59
NtRp4259
(dp4260
g62
(dp4261
S'_class'
p4262
S'brand'
p4263
sS'_href'
p4264
S'http://www.web2py.com/'
p4265
ssg71
Nsg64
(lp4266
g57
(cgluon.html
B
p4267
g59
NtRp4268
(dp4269
g62
(dp4270
sg71
g4259
sg64
(lp4271
S'web'
p4272
ag57
(cgluon.html
SPAN
p4273
g59
NtRp4274
(dp4275
g62
(dp4276
sg71
g4268
sg64
(lp4277
I2
asbaS'py'
p4278
asbacgluon.html
XML_unpickle
p4279
(S's\r\x00\x00\x00&trade;&nbsp;'
tRp4280
asbasbasbasbag57
(g73
g59
NtRp4281
(dp4282
g62
(dp4283
sg71
g3800
sg64
(lp4284
g57
(g78
g59
NtRp4285
(dp4286
g62
(dp4287
g82
g83
ssg71
g4281
sg64
(lp4288
S'menu'
p4289
asbag57
(g78
g59
NtRp4290
(dp4291
g62
(dp4292
g89
g90
ssg71
g4281
sg64
(lp4293
S':'
asbag57
(g78
g59
NtRp4294
(dp4295
g62
(dp4296
sg71
g4281
sg64
(lp4297
g57
(g58
g59
NtRp4298
(dp4299
g62
(dp4300
g70
I5
ssg71
g4294
sg64
(lp4301
g57
(g66
g59
NtRp4302
(dp4303
g62
(dp4304
g70
I4
ssg71
Nsg64
(lp4305
g57
(g73
g59
NtRp4306
(dp4307
g62
(dp4308
sg71
g4302
sg64
(lp4309
g57
(g78
g59
NtRp4310
(dp4311
g62
(dp4312
sg71
g4306
sg64
(lp4313
g57
(g58
g59
NtRp4314
(dp4315
g62
(dp4316
g70
I4
ssg71
g4310
sg64
(lp4317
g57
(g66
g59
NtRp4318
(dp4319
g62
(dp4320
g70
I3
ssg71
Nsg64
(lp4321
g57
(g73
g59
NtRp4322
(dp4323
g62
(dp4324
sg71
g4318
sg64
(lp4325
g57
(g78
g59
NtRp4326
(dp4327
g62
(dp4328
sg71
g4322
sg64
(lp4329
g57
(g58
g59
NtRp4330
(dp4331
g62
(dp4332
g70
I3
ssg71
g4326
sg64
(lp4333
cgluon.languages
lazyT_unpickle
p4334
(S's\x04\x00\x00\x00Home'
tRp4335
asbasbasbag57
(g73
g59
NtRp4336
(dp4337
g62
(dp4338
sg71
g4318
sg64
(lp4339
g57
(g78
g59
NtRp4340
(dp4341
g62
(dp4342
sg71
g4336
sg64
(lp4343
g57
(g58
g59
NtRp4344
(dp4345
g62
(dp4346
g70
I3
ssg71
g4340
sg64
(lp4347
g100
asbasbasbag57
(g73
g59
NtRp4348
(dp4349
g62
(dp4350
sg71
g4318
sg64
(lp4351
g57
(g78
g59
NtRp4352
(dp4353
g62
(dp4354
sg71
g4348
sg64
(lp4355
g57
(g58
g59
NtRp4356
(dp4357
g62
(dp4358
g70
I3
ssg71
g4352
sg64
(lp4359
S'/assignment2/default/index'
p4360
asbasbasbag57
(g73
g59
NtRp4361
(dp4362
g62
(dp4363
sg71
g4318
sg64
(lp4364
g57
(g78
g59
NtRp4365
(dp4366
g62
(dp4367
sg71
g4361
sg64
(lp4368
g57
(g58
g59
NtRp4369
(dp4370
g62
(dp4371
g70
I3
ssg71
g4365
sg64
(lp4372
g57
(g66
g59
NtRp4373
(dp4374
g62
(dp4375
g70
I2
ssg71
Nsg64
(lp4376
sbasbasbasbasbasbasbasbag57
(g73
g59
NtRp4377
(dp4378
g62
(dp4379
sg71
g4302
sg64
(lp4380
g57
(g78
g59
NtRp4381
(dp4382
g62
(dp4383
sg71
g4377
sg64
(lp4384
g57
(g58
g59
NtRp4385
(dp4386
g62
(dp4387
g70
I4
ssg71
g4381
sg64
(lp4388
g57
(g66
g59
NtRp4389
(dp4390
g62
(dp4391
g70
I3
ssg71
Nsg64
(lp4392
g57
(g73
g59
NtRp4393
(dp4394
g62
(dp4395
sg71
g4389
sg64
(lp4396
g57
(g78
g59
NtRp4397
(dp4398
g62
(dp4399
sg71
g4393
sg64
(lp4400
g57
(g58
g59
NtRp4401
(dp4402
g62
(dp4403
g70
I3
ssg71
g4397
sg64
(lp4404
g57
(g4273
g59
NtRp4405
(dp4406
g62
(dp4407
g4262
S'highlighted'
p4408
ssg71
Nsg64
(lp4409
g4236
asbasbasbasbag57
(g73
g59
NtRp4410
(dp4411
g62
(dp4412
sg71
g4389
sg64
(lp4413
g57
(g78
g59
NtRp4414
(dp4415
g62
(dp4416
sg71
g4410
sg64
(lp4417
g57
(g58
g59
NtRp4418
(dp4419
g62
(dp4420
g70
I3
ssg71
g4414
sg64
(lp4421
g100
asbasbasbag57
(g73
g59
NtRp4422
(dp4423
g62
(dp4424
sg71
g4389
sg64
(lp4425
g57
(g78
g59
NtRp4426
(dp4427
g62
(dp4428
sg71
g4422
sg64
(lp4429
g57
(g58
g59
NtRp4430
(dp4431
g62
(dp4432
g70
I3
ssg71
g4426
sg64
(lp4433
S'http://web2py.com'
p4434
asbasbasbag57
(g73
g59
NtRp4435
(dp4436
g62
(dp4437
sg71
g4389
sg64
(lp4438
g57
(g78
g59
NtRp4439
(dp4440
g62
(dp4441
sg71
g4435
sg64
(lp4442
g57
(g58
g59
NtRp4443
(dp4444
g62
(dp4445
g70
I3
ssg71
g4439
sg64
(lp4446
g57
(g66
g59
NtRp4447
(dp4448
g62
(dp4449
g70
I2
ssg71
Nsg64
(lp4450
g57
(g73
g59
NtRp4451
(dp4452
g62
(dp4453
sg71
g4447
sg64
(lp4454
g57
(g78
g59
NtRp4455
(dp4456
g62
(dp4457
sg71
g4451
sg64
(lp4458
g57
(g58
g59
NtRp4459
(dp4460
g62
(dp4461
g70
I2
ssg71
g4455
sg64
(lp4462
g57
(g66
g59
NtRp4463
(dp4464
g62
(dp4465
g70
I1
ssg71
Nsg64
(lp4466
g57
(g73
g59
NtRp4467
(dp4468
g62
(dp4469
sg71
g4463
sg64
(lp4470
g57
(g78
g59
NtRp4471
(dp4472
g62
(dp4473
sg71
g4467
sg64
(lp4474
g57
(g58
g59
NtRp4475
(dp4476
g62
(dp4477
g70
I1
ssg71
g4471
sg64
(lp4478
g4334
(S's\x08\x00\x00\x00My Sites'
tRp4479
asbasbasbag57
(g73
g59
NtRp4480
(dp4481
g62
(dp4482
sg71
g4463
sg64
(lp4483
g57
(g78
g59
NtRp4484
(dp4485
g62
(dp4486
sg71
g4480
sg64
(lp4487
g57
(g58
g59
NtRp4488
(dp4489
g62
(dp4490
g70
I1
ssg71
g4484
sg64
(lp4491
I00
asbasbasbag57
(g73
g59
NtRp4492
(dp4493
g62
(dp4494
sg71
g4463
sg64
(lp4495
g57
(g78
g59
NtRp4496
(dp4497
g62
(dp4498
sg71
g4492
sg64
(lp4499
g57
(g58
g59
NtRp4500
(dp4501
g62
(dp4502
g70
I1
ssg71
g4496
sg64
(lp4503
S'/admin/default/site'
p4504
asbasbasbasbasbasbasbag57
(g73
g59
NtRp4505
(dp4506
g62
(dp4507
sg71
g4447
sg64
(lp4508
g57
(g78
g59
NtRp4509
(dp4510
g62
(dp4511
sg71
g4505
sg64
(lp4512
g57
(g58
g59
NtRp4513
(dp4514
g62
(dp4515
g70
I2
ssg71
g4509
sg64
(lp4516
g57
(g66
g59
NtRp4517
(dp4518
g62
(dp4519
g70
I1
ssg71
Nsg64
(lp4520
g57
(g73
g59
NtRp4521
(dp4522
g62
(dp4523
sg71
g4517
sg64
(lp4524
g57
(g78
g59
NtRp4525
(dp4526
g62
(dp4527
sg71
g4521
sg64
(lp4528
g57
(g58
g59
NtRp4529
(dp4530
g62
(dp4531
g70
I1
ssg71
g4525
sg64
(lp4532
g4334
(S's\x08\x00\x00\x00This App'
tRp4533
asbasbasbag57
(g73
g59
NtRp4534
(dp4535
g62
(dp4536
sg71
g4517
sg64
(lp4537
g57
(g78
g59
NtRp4538
(dp4539
g62
(dp4540
sg71
g4534
sg64
(lp4541
g57
(g58
g59
NtRp4542
(dp4543
g62
(dp4544
g70
I1
ssg71
g4538
sg64
(lp4545
I00
asbasbasbag57
(g73
g59
NtRp4546
(dp4547
g62
(dp4548
sg71
g4517
sg64
(lp4549
g57
(g78
g59
NtRp4550
(dp4551
g62
(dp4552
sg71
g4546
sg64
(lp4553
g57
(g58
g59
NtRp4554
(dp4555
g62
(dp4556
g70
I1
ssg71
g4550
sg64
(lp4557
S'/admin/default/design/assignment2'
p4558
asbasbasbag57
(g73
g59
NtRp4559
(dp4560
g62
(dp4561
sg71
g4517
sg64
(lp4562
g57
(g78
g59
NtRp4563
(dp4564
g62
(dp4565
sg71
g4559
sg64
(lp4566
g57
(g58
g59
NtRp4567
(dp4568
g62
(dp4569
g70
I1
ssg71
g4563
sg64
(lp4570
(lp4571
(g4334
(S's\n\x00\x00\x00Controller'
tRp4572
I00
S'/admin/default/edit/assignment2/controllers/default.py'
tp4573
a(g4334
(S's\x04\x00\x00\x00View'
tRp4574
I00
S'/admin/default/edit/assignment2/views/default/user_homepage.html'
tp4575
a(g4334
(S's\x06\x00\x00\x00Layout'
tRp4576
I00
S'/admin/default/edit/assignment2/views/layout.html'
tp4577
a(g4334
(S's\n\x00\x00\x00Stylesheet'
tRp4578
I00
S'/admin/default/edit/assignment2/static/css/web2py.css'
tp4579
a(g4334
(S's\x08\x00\x00\x00DB Model'
tRp4580
I00
S'/admin/default/edit/assignment2/models/db.py'
tp4581
a(g4334
(S's\n\x00\x00\x00Menu Model'
tRp4582
I00
S'/admin/default/edit/assignment2/models/menu.py'
tp4583
a(g4334
(S's\x08\x00\x00\x00Database'
tRp4584
I00
S'/assignment2/appadmin/index'
tp4585
a(g4334
(S's\x06\x00\x00\x00Errors'
tRp4586
I00
S'/admin/default/errors/assignment2'
tp4587
a(g4334
(S's\x05\x00\x00\x00About'
tRp4588
I00
S'/admin/default/about/assignment2'
tp4589
aasbasbasbasbasbasbasbag57
(g73
g59
NtRp4590
(dp4591
g62
(dp4592
sg71
g4447
sg64
(lp4593
g57
(g78
g59
NtRp4594
(dp4595
g62
(dp4596
sg71
g4590
sg64
(lp4597
g57
(g58
g59
NtRp4598
(dp4599
g62
(dp4600
g70
I2
ssg71
g4594
sg64
(lp4601
g57
(g66
g59
NtRp4602
(dp4603
g62
(dp4604
g70
I1
ssg71
Nsg64
(lp4605
g57
(g73
g59
NtRp4606
(dp4607
g62
(dp4608
sg71
g4602
sg64
(lp4609
g57
(g78
g59
NtRp4610
(dp4611
g62
(dp4612
sg71
g4606
sg64
(lp4613
g57
(g58
g59
NtRp4614
(dp4615
g62
(dp4616
g70
I1
ssg71
g4610
sg64
(lp4617
S'web2py.com'
p4618
asbasbasbag57
(g73
g59
NtRp4619
(dp4620
g62
(dp4621
sg71
g4602
sg64
(lp4622
g57
(g78
g59
NtRp4623
(dp4624
g62
(dp4625
sg71
g4619
sg64
(lp4626
g57
(g58
g59
NtRp4627
(dp4628
g62
(dp4629
g70
I1
ssg71
g4623
sg64
(lp4630
I00
asbasbasbag57
(g73
g59
NtRp4631
(dp4632
g62
(dp4633
sg71
g4602
sg64
(lp4634
g57
(g78
g59
NtRp4635
(dp4636
g62
(dp4637
sg71
g4631
sg64
(lp4638
g57
(g58
g59
NtRp4639
(dp4640
g62
(dp4641
g70
I1
ssg71
g4635
sg64
(lp4642
S'http://www.web2py.com'
p4643
asbasbasbag57
(g73
g59
NtRp4644
(dp4645
g62
(dp4646
sg71
g4602
sg64
(lp4647
g57
(g78
g59
NtRp4648
(dp4649
g62
(dp4650
sg71
g4644
sg64
(lp4651
g57
(g58
g59
NtRp4652
(dp4653
g62
(dp4654
g70
I1
ssg71
g4648
sg64
(lp4655
(lp4656
(g4334
(S's\x08\x00\x00\x00Download'
tRp4657
I00
S'http://www.web2py.com/examples/default/download'
p4658
tp4659
a(g4334
(S's\x07\x00\x00\x00Support'
tRp4660
I00
S'http://www.web2py.com/examples/default/support'
p4661
tp4662
a(g4334
(S's\x04\x00\x00\x00Demo'
tRp4663
I00
S'http://web2py.com/demo_admin'
p4664
tp4665
a(g4334
(S's\x0e\x00\x00\x00Quick Examples'
tRp4666
I00
S'http://web2py.com/examples/default/examples'
p4667
tp4668
a(g4334
(S's\x03\x00\x00\x00FAQ'
tRp4669
I00
S'http://web2py.com/AlterEgo'
p4670
tp4671
a(g4334
(S's\x06\x00\x00\x00Videos'
tRp4672
I00
S'http://www.web2py.com/examples/default/videos/'
p4673
tp4674
a(g4334
(S's\x11\x00\x00\x00Free Applications'
tRp4675
I00
S'http://web2py.com/appliances'
p4676
tp4677
a(g4334
(S's\x07\x00\x00\x00Plugins'
tRp4678
I00
S'http://web2py.com/plugins'
p4679
tp4680
a(g4334
(S's\x07\x00\x00\x00Layouts'
tRp4681
I00
S'http://web2py.com/layouts'
p4682
tp4683
a(g4334
(S's\x07\x00\x00\x00Recipes'
tRp4684
I00
S'http://web2pyslices.com/'
p4685
tp4686
a(g4334
(S's\x08\x00\x00\x00Semantic'
tRp4687
I00
S'http://web2py.com/semantic'
p4688
tp4689
aasbasbasbasbasbasbasbag57
(g73
g59
NtRp4690
(dp4691
g62
(dp4692
sg71
g4447
sg64
(lp4693
g57
(g78
g59
NtRp4694
(dp4695
g62
(dp4696
sg71
g4690
sg64
(lp4697
g57
(g58
g59
NtRp4698
(dp4699
g62
(dp4700
g70
I2
ssg71
g4694
sg64
(lp4701
g57
(g66
g59
NtRp4702
(dp4703
g62
(dp4704
g70
I1
ssg71
Nsg64
(lp4705
g57
(g73
g59
NtRp4706
(dp4707
g62
(dp4708
sg71
g4702
sg64
(lp4709
g57
(g78
g59
NtRp4710
(dp4711
g62
(dp4712
sg71
g4706
sg64
(lp4713
g57
(g58
g59
NtRp4714
(dp4715
g62
(dp4716
g70
I1
ssg71
g4710
sg64
(lp4717
g4334
(S's\r\x00\x00\x00Documentation'
tRp4718
asbasbasbag57
(g73
g59
NtRp4719
(dp4720
g62
(dp4721
sg71
g4702
sg64
(lp4722
g57
(g78
g59
NtRp4723
(dp4724
g62
(dp4725
sg71
g4719
sg64
(lp4726
g57
(g58
g59
NtRp4727
(dp4728
g62
(dp4729
g70
I1
ssg71
g4723
sg64
(lp4730
I00
asbasbasbag57
(g73
g59
NtRp4731
(dp4732
g62
(dp4733
sg71
g4702
sg64
(lp4734
g57
(g78
g59
NtRp4735
(dp4736
g62
(dp4737
sg71
g4731
sg64
(lp4738
g57
(g58
g59
NtRp4739
(dp4740
g62
(dp4741
g70
I1
ssg71
g4735
sg64
(lp4742
S'http://www.web2py.com/book'
p4743
asbasbasbag57
(g73
g59
NtRp4744
(dp4745
g62
(dp4746
sg71
g4702
sg64
(lp4747
g57
(g78
g59
NtRp4748
(dp4749
g62
(dp4750
sg71
g4744
sg64
(lp4751
g57
(g58
g59
NtRp4752
(dp4753
g62
(dp4754
g70
I1
ssg71
g4748
sg64
(lp4755
(lp4756
(g4334
(S's\x07\x00\x00\x00Preface'
tRp4757
I00
S'http://www.web2py.com/book/default/chapter/00'
p4758
tp4759
a(g4334
(S's\x0c\x00\x00\x00Introduction'
tRp4760
I00
S'http://www.web2py.com/book/default/chapter/01'
p4761
tp4762
a(g4334
(S's\x06\x00\x00\x00Python'
tRp4763
I00
S'http://www.web2py.com/book/default/chapter/02'
p4764
tp4765
a(g4334
(S's\x08\x00\x00\x00Overview'
tRp4766
I00
S'http://www.web2py.com/book/default/chapter/03'
p4767
tp4768
a(g4334
(S's\x08\x00\x00\x00The Core'
tRp4769
I00
S'http://www.web2py.com/book/default/chapter/04'
p4770
tp4771
a(g4334
(S's\t\x00\x00\x00The Views'
tRp4772
I00
S'http://www.web2py.com/book/default/chapter/05'
p4773
tp4774
a(g4334
(S's\x08\x00\x00\x00Database'
tRp4775
I00
S'http://www.web2py.com/book/default/chapter/06'
p4776
tp4777
a(g4334
(S's\x14\x00\x00\x00Forms and Validators'
tRp4778
I00
S'http://www.web2py.com/book/default/chapter/07'
p4779
tp4780
a(g4334
(S's\r\x00\x00\x00Email and SMS'
tRp4781
I00
S'http://www.web2py.com/book/default/chapter/08'
p4782
tp4783
a(g4334
(S's\x0e\x00\x00\x00Access Control'
tRp4784
I00
S'http://www.web2py.com/book/default/chapter/09'
p4785
tp4786
a(g4334
(S's\x08\x00\x00\x00Services'
tRp4787
I00
S'http://www.web2py.com/book/default/chapter/10'
p4788
tp4789
a(g4334
(S's\x0c\x00\x00\x00Ajax Recipes'
tRp4790
I00
S'http://www.web2py.com/book/default/chapter/11'
p4791
tp4792
a(g4334
(S's\x16\x00\x00\x00Components and Plugins'
tRp4793
I00
S'http://www.web2py.com/book/default/chapter/12'
p4794
tp4795
a(g4334
(S's\x12\x00\x00\x00Deployment Recipes'
tRp4796
I00
S'http://www.web2py.com/book/default/chapter/13'
p4797
tp4798
a(g4334
(S's\r\x00\x00\x00Other Recipes'
tRp4799
I00
S'http://www.web2py.com/book/default/chapter/14'
p4800
tp4801
a(g4334
(S's\r\x00\x00\x00Buy this book'
tRp4802
I00
S'http://stores.lulu.com/web2py'
p4803
tp4804
aasbasbasbasbasbasbasbag57
(g73
g59
NtRp4805
(dp4806
g62
(dp4807
sg71
g4447
sg64
(lp4808
g57
(g78
g59
NtRp4809
(dp4810
g62
(dp4811
sg71
g4805
sg64
(lp4812
g57
(g58
g59
NtRp4813
(dp4814
g62
(dp4815
g70
I2
ssg71
g4809
sg64
(lp4816
g57
(g66
g59
NtRp4817
(dp4818
g62
(dp4819
g70
I1
ssg71
Nsg64
(lp4820
g57
(g73
g59
NtRp4821
(dp4822
g62
(dp4823
sg71
g4817
sg64
(lp4824
g57
(g78
g59
NtRp4825
(dp4826
g62
(dp4827
sg71
g4821
sg64
(lp4828
g57
(g58
g59
NtRp4829
(dp4830
g62
(dp4831
g70
I1
ssg71
g4825
sg64
(lp4832
g4334
(S's\t\x00\x00\x00Community'
tRp4833
asbasbasbag57
(g73
g59
NtRp4834
(dp4835
g62
(dp4836
sg71
g4817
sg64
(lp4837
g57
(g78
g59
NtRp4838
(dp4839
g62
(dp4840
sg71
g4834
sg64
(lp4841
g57
(g58
g59
NtRp4842
(dp4843
g62
(dp4844
g70
I1
ssg71
g4838
sg64
(lp4845
I00
asbasbasbag57
(g73
g59
NtRp4846
(dp4847
g62
(dp4848
sg71
g4817
sg64
(lp4849
g57
(g78
g59
NtRp4850
(dp4851
g62
(dp4852
sg71
g4846
sg64
(lp4853
g57
(g58
g59
NtRp4854
(dp4855
g62
(dp4856
g70
I1
ssg71
g4850
sg64
(lp4857
Nasbasbasbag57
(g73
g59
NtRp4858
(dp4859
g62
(dp4860
sg71
g4817
sg64
(lp4861
g57
(g78
g59
NtRp4862
(dp4863
g62
(dp4864
sg71
g4858
sg64
(lp4865
g57
(g58
g59
NtRp4866
(dp4867
g62
(dp4868
g70
I1
ssg71
g4862
sg64
(lp4869
(lp4870
(g4334
(S's\x06\x00\x00\x00Groups'
tRp4871
I00
S'http://www.web2py.com/examples/default/usergroups'
p4872
tp4873
a(g4334
(S's\x07\x00\x00\x00Twitter'
tRp4874
I00
S'http://twitter.com/web2py'
p4875
tp4876
a(g4334
(S's\t\x00\x00\x00Live Chat'
tRp4877
I00
S'http://webchat.freenode.net/?channels=web2py'
p4878
tp4879
aasbasbasbasbasbasbasbag57
(g73
g59
NtRp4880
(dp4881
g62
(dp4882
sg71
g4447
sg64
(lp4883
g57
(g78
g59
NtRp4884
(dp4885
g62
(dp4886
sg71
g4880
sg64
(lp4887
g57
(g58
g59
NtRp4888
(dp4889
g62
(dp4890
g70
I2
ssg71
g4884
sg64
(lp4891
g57
(g66
g59
NtRp4892
(dp4893
g62
(dp4894
g70
I1
ssg71
Nsg64
(lp4895
g57
(g73
g59
NtRp4896
(dp4897
g62
(dp4898
sg71
g4892
sg64
(lp4899
g57
(g78
g59
NtRp4900
(dp4901
g62
(dp4902
sg71
g4896
sg64
(lp4903
g57
(g58
g59
NtRp4904
(dp4905
g62
(dp4906
g70
I1
ssg71
g4900
sg64
(lp4907
g4334
(S's\x07\x00\x00\x00Plugins'
tRp4908
asbasbasbag57
(g73
g59
NtRp4909
(dp4910
g62
(dp4911
sg71
g4892
sg64
(lp4912
g57
(g78
g59
NtRp4913
(dp4914
g62
(dp4915
sg71
g4909
sg64
(lp4916
g57
(g58
g59
NtRp4917
(dp4918
g62
(dp4919
g70
I1
ssg71
g4913
sg64
(lp4920
I00
asbasbasbag57
(g73
g59
NtRp4921
(dp4922
g62
(dp4923
sg71
g4892
sg64
(lp4924
g57
(g78
g59
NtRp4925
(dp4926
g62
(dp4927
sg71
g4921
sg64
(lp4928
g57
(g58
g59
NtRp4929
(dp4930
g62
(dp4931
g70
I1
ssg71
g4925
sg64
(lp4932
Nasbasbasbag57
(g73
g59
NtRp4933
(dp4934
g62
(dp4935
sg71
g4892
sg64
(lp4936
g57
(g78
g59
NtRp4937
(dp4938
g62
(dp4939
sg71
g4933
sg64
(lp4940
g57
(g58
g59
NtRp4941
(dp4942
g62
(dp4943
g70
I1
ssg71
g4937
sg64
(lp4944
(lp4945
(S'plugin_wiki'
p4946
I00
S'http://web2py.com/examples/default/download'
p4947
tp4948
a(g4334
(S's\r\x00\x00\x00Other Plugins'
tRp4949
I00
g4679
tp4950
a(g4334
(S's\x0e\x00\x00\x00Layout Plugins'
tRp4951
I00
g4682
tp4952
aasbasbasbasbasbasbasbasbasbasbasbasbasbasbasbasbasbasbasbag57
(g73
g59
NtRp4953
(dp4954
g62
(dp4955
sg71
g3800
sg64
(lp4956
g57
(g78
g59
NtRp4957
(dp4958
g62
(dp4959
g82
g83
ssg71
g4953
sg64
(lp4960
S'meta'
p4961
asbag57
(g78
g59
NtRp4962
(dp4963
g62
(dp4964
g89
g90
ssg71
g4953
sg64
(lp4965
S':'
asbag57
(g78
g59
NtRp4966
(dp4967
g62
(dp4968
sg71
g4953
sg64
(lp4969
g57
(g58
g59
NtRp4970
(dp4971
g62
(dp4972
g70
I5
ssg71
g4966
sg64
(lp4973
g57
(g66
g59
NtRp4974
(dp4975
g62
(dp4976
g70
I4
ssg71
Nsg64
(lp4977
g57
(g73
g59
NtRp4978
(dp4979
g62
(dp4980
sg71
g4974
sg64
(lp4981
g57
(g78
g59
NtRp4982
(dp4983
g62
(dp4984
g82
g83
ssg71
g4978
sg64
(lp4985
S'author'
p4986
asbag57
(g78
g59
NtRp4987
(dp4988
g62
(dp4989
g89
g90
ssg71
g4978
sg64
(lp4990
S':'
asbag57
(g78
g59
NtRp4991
(dp4992
g62
(dp4993
sg71
g4978
sg64
(lp4994
g57
(g58
g59
NtRp4995
(dp4996
g62
(dp4997
g70
I4
ssg71
g4991
sg64
(lp4998
S'Your Name <you@example.com>'
p4999
asbasbasbag57
(g73
g59
NtRp5000
(dp5001
g62
(dp5002
sg71
g4974
sg64
(lp5003
g57
(g78
g59
NtRp5004
(dp5005
g62
(dp5006
g82
g83
ssg71
g5000
sg64
(lp5007
S'description'
p5008
asbag57
(g78
g59
NtRp5009
(dp5010
g62
(dp5011
g89
g90
ssg71
g5000
sg64
(lp5012
S':'
asbag57
(g78
g59
NtRp5013
(dp5014
g62
(dp5015
sg71
g5000
sg64
(lp5016
g57
(g58
g59
NtRp5017
(dp5018
g62
(dp5019
g70
I4
ssg71
g5013
sg64
(lp5020
S'a cool new app'
p5021
asbasbasbag57
(g73
g59
NtRp5022
(dp5023
g62
(dp5024
sg71
g4974
sg64
(lp5025
g57
(g78
g59
NtRp5026
(dp5027
g62
(dp5028
g82
g83
ssg71
g5022
sg64
(lp5029
S'generator'
p5030
asbag57
(g78
g59
NtRp5031
(dp5032
g62
(dp5033
g89
g90
ssg71
g5022
sg64
(lp5034
S':'
asbag57
(g78
g59
NtRp5035
(dp5036
g62
(dp5037
sg71
g5022
sg64
(lp5038
g57
(g58
g59
NtRp5039
(dp5040
g62
(dp5041
g70
I4
ssg71
g5035
sg64
(lp5042
S'Web2py Web Framework'
p5043
asbasbasbag57
(g73
g59
NtRp5044
(dp5045
g62
(dp5046
sg71
g4974
sg64
(lp5047
g57
(g78
g59
NtRp5048
(dp5049
g62
(dp5050
g82
g83
ssg71
g5044
sg64
(lp5051
S'keywords'
p5052
asbag57
(g78
g59
NtRp5053
(dp5054
g62
(dp5055
g89
g90
ssg71
g5044
sg64
(lp5056
S':'
asbag57
(g78
g59
NtRp5057
(dp5058
g62
(dp5059
sg71
g5044
sg64
(lp5060
g57
(g58
g59
NtRp5061
(dp5062
g62
(dp5063
g70
I4
ssg71
g5057
sg64
(lp5064
S'web2py, python, framework'
p5065
asbasbasbasbasbasbasbag57
(g73
g59
NtRp5066
(dp5067
g62
(dp5068
sg71
g3800
sg64
(lp5069
g57
(g78
g59
NtRp5070
(dp5071
g62
(dp5072
g82
g83
ssg71
g5066
sg64
(lp5073
S'models_to_run'
p5074
asbag57
(g78
g59
NtRp5075
(dp5076
g62
(dp5077
g89
g90
ssg71
g5066
sg64
(lp5078
S':'
asbag57
(g78
g59
NtRp5079
(dp5080
g62
(dp5081
sg71
g5066
sg64
(lp5082
g57
(g58
g59
NtRp5083
(dp5084
g62
(dp5085
g70
I5
ssg71
g5079
sg64
(lp5086
g57
(g66
g59
NtRp5087
(dp5088
g62
(dp5089
g70
I4
ssg71
Nsg64
(lp5090
g57
(g73
g59
NtRp5091
(dp5092
g62
(dp5093
sg71
g5087
sg64
(lp5094
g57
(g78
g59
NtRp5095
(dp5096
g62
(dp5097
sg71
g5091
sg64
(lp5098
g57
(g58
g59
NtRp5099
(dp5100
g62
(dp5101
g70
I4
ssg71
g5095
sg64
(lp5102
S'^\\w+\\.py$'
p5103
asbasbasbag57
(g73
g59
NtRp5104
(dp5105
g62
(dp5106
sg71
g5087
sg64
(lp5107
g57
(g78
g59
NtRp5108
(dp5109
g62
(dp5110
sg71
g5104
sg64
(lp5111
g57
(g58
g59
NtRp5112
(dp5113
g62
(dp5114
g70
I4
ssg71
g5108
sg64
(lp5115
S'^default/\\w+\\.py$'
p5116
asbasbasbag57
(g73
g59
NtRp5117
(dp5118
g62
(dp5119
sg71
g5087
sg64
(lp5120
g57
(g78
g59
NtRp5121
(dp5122
g62
(dp5123
sg71
g5117
sg64
(lp5124
g57
(g58
g59
NtRp5125
(dp5126
g62
(dp5127
g70
I4
ssg71
g5121
sg64
(lp5128
S'^default/user_homepage/\\w+\\.py$'
p5129
asbasbasbasbasbasbasbag57
(g73
g59
NtRp5130
(dp5131
g62
(dp5132
sg71
g3800
sg64
(lp5133
g57
(g78
g59
NtRp5134
(dp5135
g62
(dp5136
g82
g83
ssg71
g5130
sg64
(lp5137
S'postprocessing'
p5138
asbag57
(g78
g59
NtRp5139
(dp5140
g62
(dp5141
g89
g90
ssg71
g5130
sg64
(lp5142
S':'
asbag57
(g78
g59
NtRp5143
(dp5144
g62
(dp5145
sg71
g5130
sg64
(lp5146
g57
(g58
g59
NtRp5147
(dp5148
g62
(dp5149
g70
I5
ssg71
g5143
sg64
(lp5150
g57
(g66
g59
NtRp5151
(dp5152
g62
(dp5153
g70
I4
ssg71
Nsg64
(lp5154
sbasbasbasbag57
(g73
g59
NtRp5155
(dp5156
g62
(dp5157
sg71
g3800
sg64
(lp5158
g57
(g78
g59
NtRp5159
(dp5160
g62
(dp5161
g82
g83
ssg71
g5155
sg64
(lp5162
S'session_cookie_expires'
p5163
asbag57
(g78
g59
NtRp5164
(dp5165
g62
(dp5166
g89
g90
ssg71
g5155
sg64
(lp5167
S':'
asbag57
(g78
g59
NtRp5168
(dp5169
g62
(dp5170
sg71
g5155
sg64
(lp5171
g57
(g58
g59
NtRp5172
(dp5173
g62
(dp5174
g70
I5
ssg71
g5168
sg64
(lp5175
S'None'
p5176
asbasbasbag57
(g73
g59
NtRp5177
(dp5178
g62
(dp5179
sg71
g3800
sg64
(lp5180
g57
(g78
g59
NtRp5181
(dp5182
g62
(dp5183
g82
g83
ssg71
g5177
sg64
(lp5184
S'session_data_name'
p5185
asbag57
(g78
g59
NtRp5186
(dp5187
g62
(dp5188
g89
g90
ssg71
g5177
sg64
(lp5189
S':'
asbag57
(g78
g59
NtRp5190
(dp5191
g62
(dp5192
sg71
g5177
sg64
(lp5193
g57
(g58
g59
NtRp5194
(dp5195
g62
(dp5196
g70
I5
ssg71
g5190
sg64
(lp5197
S'session_data_assignment2'
p5198
asbasbasbag57
(g73
g59
NtRp5199
(dp5200
g62
(dp5201
sg71
g3800
sg64
(lp5202
g57
(g78
g59
NtRp5203
(dp5204
g62
(dp5205
g82
g83
ssg71
g5199
sg64
(lp5206
S'session_file'
p5207
asbag57
(g78
g59
NtRp5208
(dp5209
g62
(dp5210
g89
g90
ssg71
g5199
sg64
(lp5211
S':'
asbag57
(g78
g59
NtRp5212
(dp5213
g62
(dp5214
sg71
g5199
sg64
(lp5215
g57
(g58
g59
NtRp5216
(dp5217
g62
(dp5218
g70
I5
ssg71
g5212
sg64
(lp5219
S"<open file '/home/aditi/Desktop/web2py/applications/assignment2/sessions/127.0.0.1-df3317b1-fbdf-40a6-bfa1-0af1b15533cc', mode 'rb+' at 0xad032e90>"
p5220
asbasbasbag57
(g73
g59
NtRp5221
(dp5222
g62
(dp5223
sg71
g3800
sg64
(lp5224
g57
(g78
g59
NtRp5225
(dp5226
g62
(dp5227
g82
g83
ssg71
g5221
sg64
(lp5228
S'session_filename'
p5229
asbag57
(g78
g59
NtRp5230
(dp5231
g62
(dp5232
g89
g90
ssg71
g5221
sg64
(lp5233
S':'
asbag57
(g78
g59
NtRp5234
(dp5235
g62
(dp5236
sg71
g5221
sg64
(lp5237
g57
(g58
g59
NtRp5238
(dp5239
g62
(dp5240
g70
I5
ssg71
g5234
sg64
(lp5241
S'/home/aditi/Desktop/web2py/applications/assignment2/sessions/127.0.0.1-df3317b1-fbdf-40a6-bfa1-0af1b15533cc'
p5242
asbasbasbag57
(g73
g59
NtRp5243
(dp5244
g62
(dp5245
sg71
g3800
sg64
(lp5246
g57
(g78
g59
NtRp5247
(dp5248
g62
(dp5249
g82
g83
ssg71
g5243
sg64
(lp5250
S'session_id'
p5251
asbag57
(g78
g59
NtRp5252
(dp5253
g62
(dp5254
g89
g90
ssg71
g5243
sg64
(lp5255
S':'
asbag57
(g78
g59
NtRp5256
(dp5257
g62
(dp5258
sg71
g5243
sg64
(lp5259
g57
(g58
g59
NtRp5260
(dp5261
g62
(dp5262
g70
I5
ssg71
g5256
sg64
(lp5263
g475
asbasbasbag57
(g73
g59
NtRp5264
(dp5265
g62
(dp5266
sg71
g3800
sg64
(lp5267
g57
(g78
g59
NtRp5268
(dp5269
g62
(dp5270
g82
g83
ssg71
g5264
sg64
(lp5271
S'session_id_name'
p5272
asbag57
(g78
g59
NtRp5273
(dp5274
g62
(dp5275
g89
g90
ssg71
g5264
sg64
(lp5276
S':'
asbag57
(g78
g59
NtRp5277
(dp5278
g62
(dp5279
sg71
g5264
sg64
(lp5280
g57
(g58
g59
NtRp5281
(dp5282
g62
(dp5283
g70
I5
ssg71
g5277
sg64
(lp5284
g3857
asbasbasbag57
(g73
g59
NtRp5285
(dp5286
g62
(dp5287
sg71
g3800
sg64
(lp5288
g57
(g78
g59
NtRp5289
(dp5290
g62
(dp5291
g82
g83
ssg71
g5285
sg64
(lp5292
S'session_locked'
p5293
asbag57
(g78
g59
NtRp5294
(dp5295
g62
(dp5296
g89
g90
ssg71
g5285
sg64
(lp5297
S':'
asbag57
(g78
g59
NtRp5298
(dp5299
g62
(dp5300
sg71
g5285
sg64
(lp5301
g57
(g58
g59
NtRp5302
(dp5303
g62
(dp5304
g70
I5
ssg71
g5298
sg64
(lp5305
g1782
asbasbasbag57
(g73
g59
NtRp5306
(dp5307
g62
(dp5308
sg71
g3800
sg64
(lp5309
g57
(g78
g59
NtRp5310
(dp5311
g62
(dp5312
g82
g83
ssg71
g5306
sg64
(lp5313
S'session_new'
p5314
asbag57
(g78
g59
NtRp5315
(dp5316
g62
(dp5317
g89
g90
ssg71
g5306
sg64
(lp5318
S':'
asbag57
(g78
g59
NtRp5319
(dp5320
g62
(dp5321
sg71
g5306
sg64
(lp5322
g57
(g58
g59
NtRp5323
(dp5324
g62
(dp5325
g70
I5
ssg71
g5319
sg64
(lp5326
g100
asbasbasbag57
(g73
g59
NtRp5327
(dp5328
g62
(dp5329
sg71
g3800
sg64
(lp5330
g57
(g78
g59
NtRp5331
(dp5332
g62
(dp5333
g82
g83
ssg71
g5327
sg64
(lp5334
S'session_storage_type'
p5335
asbag57
(g78
g59
NtRp5336
(dp5337
g62
(dp5338
g89
g90
ssg71
g5327
sg64
(lp5339
S':'
asbag57
(g78
g59
NtRp5340
(dp5341
g62
(dp5342
sg71
g5327
sg64
(lp5343
g57
(g58
g59
NtRp5344
(dp5345
g62
(dp5346
g70
I5
ssg71
g5340
sg64
(lp5347
g3225
asbasbasbag57
(g73
g59
NtRp5348
(dp5349
g62
(dp5350
sg71
g3800
sg64
(lp5351
g57
(g78
g59
NtRp5352
(dp5353
g62
(dp5354
g82
g83
ssg71
g5348
sg64
(lp5355
S'status'
p5356
asbag57
(g78
g59
NtRp5357
(dp5358
g62
(dp5359
g89
g90
ssg71
g5348
sg64
(lp5360
S':'
asbag57
(g78
g59
NtRp5361
(dp5362
g62
(dp5363
sg71
g5348
sg64
(lp5364
g57
(g58
g59
NtRp5365
(dp5366
g62
(dp5367
g70
I5
ssg71
g5361
sg64
(lp5368
S'200'
p5369
asbasbasbag57
(g73
g59
NtRp5370
(dp5371
g62
(dp5372
sg71
g3800
sg64
(lp5373
g57
(g78
g59
NtRp5374
(dp5375
g62
(dp5376
g82
g83
ssg71
g5370
sg64
(lp5377
S'subtitle'
p5378
asbag57
(g78
g59
NtRp5379
(dp5380
g62
(dp5381
g89
g90
ssg71
g5370
sg64
(lp5382
S':'
asbag57
(g78
g59
NtRp5383
(dp5384
g62
(dp5385
sg71
g5370
sg64
(lp5386
g57
(g58
g59
NtRp5387
(dp5388
g62
(dp5389
g70
I5
ssg71
g5383
sg64
(lp5390
g4334
(S's\r\x00\x00\x00customize me!'
tRp5391
asbasbasbag57
(g73
g59
NtRp5392
(dp5393
g62
(dp5394
sg71
g3800
sg64
(lp5395
g57
(g78
g59
NtRp5396
(dp5397
g62
(dp5398
g82
g83
ssg71
g5392
sg64
(lp5399
S'title'
p5400
asbag57
(g78
g59
NtRp5401
(dp5402
g62
(dp5403
g89
g90
ssg71
g5392
sg64
(lp5404
S':'
asbag57
(g78
g59
NtRp5405
(dp5406
g62
(dp5407
sg71
g5392
sg64
(lp5408
g57
(g58
g59
NtRp5409
(dp5410
g62
(dp5411
g70
I5
ssg71
g5405
sg64
(lp5412
S'Assignment2'
p5413
asbasbasbag57
(g73
g59
NtRp5414
(dp5415
g62
(dp5416
sg71
g3800
sg64
(lp5417
g57
(g78
g59
NtRp5418
(dp5419
g62
(dp5420
g82
g83
ssg71
g5414
sg64
(lp5421
S'view'
p5422
asbag57
(g78
g59
NtRp5423
(dp5424
g62
(dp5425
g89
g90
ssg71
g5414
sg64
(lp5426
S':'
asbag57
(g78
g59
NtRp5427
(dp5428
g62
(dp5429
sg71
g5414
sg64
(lp5430
g57
(g58
g59
NtRp5431
(dp5432
g62
(dp5433
g70
I5
ssg71
g5427
sg64
(lp5434
S'default/user_homepage.html'
p5435
asbasbasbasbasbsS'locals'
p5436
(dp5437
S'i'
S"'name'"
p5438
sS'self'
p5439
S'<Rows (1)>'
p5440
sssS'traceback'
p5441
S'Traceback (most recent call last):\n  File "/home/aditi/Desktop/web2py/gluon/restricted.py", line 212, in restricted\n    exec ccode in environment\n  File "/home/aditi/Desktop/web2py/applications/assignment2/controllers/default.py", line 132, in <module>\n  File "/home/aditi/Desktop/web2py/gluon/globals.py", line 193, in <lambda>\n    self._caller = lambda f: f()\n  File "/home/aditi/Desktop/web2py/applications/assignment2/controllers/default.py", line 37, in user_homepage\n    form=SQLFORM.factory(db.Field(\'category\',\'string\',requires=IS_IN_SET([d[\'name\']]),label=\'Enter category\'),\n  File "/home/aditi/Desktop/web2py/gluon/dal.py", line 9170, in __getitem__\n    row = self.records[i]\nTypeError: list indices must be integers, not str\n'
p5442
s.