(dp1
S'output'
p2
S"<type 'exceptions.RuntimeError'> Syntax Not Supported"
p3
sS'layer'
p4
S'/home/aditi/Desktop/web2py/applications/assignment2/controllers/default.py'
p5
sS'code'
p6
S'# -*- coding: utf-8 -*-\n# this file is released under public domain and you can use without limitations\n\n#########################################################################\n## This is a samples controller\n## - index is the default action of any application\n## - user is required for authentication and authorization\n## - download is for downloading files uploaded in the db (does streaming)\n## - call exposes all registered services (none by default)\n#########################################################################\n\n\n@auth.requires_login()\ndef index():\n    """\n    example action using the internationalization operator T and flash\n    rendered by views/default/index.html or views/generic.html\n\n    if you need a simple wiki simple replace the two lines below with:\n    return auth.wiki()\n    """\n    a=auth.user.id\n    b=db(db.auth_user.id==a).select(db.auth_user.username,db.auth_user.account_type)\n    if b[0][\'account_type\']==\'user\':\n        redirect(URL(r=request,f=\'user_homepage\'))\n    elif b[0][\'account_type\']==\'admin\':\n        redirect(URL(r=request,f=\'intermediate\'))\n    else:\n        response.flash="You may not be having an account"\n    return locals()\n\ndef user_homepage():\n    a=auth.user.id\n    f=db(db.auth_user.id==a).select(db.auth_user.first_name)\n    l=db(db.auth_user.id==a).select(db.auth_user.last_name)\n    c=db().select(db.category.name)\n    temp=[]\n    for i in range(len(c)):\n        temp.append(c[i][\'name\'])\n    form=SQLFORM.factory(db.Field(\'category\',\'string\',requires=IS_IN_SET(temp),required=True,label=\'Enter category\'),\n                        Field(\'heading\',\'string\',label=\'Enter heading\',required=True),\n                        Field(\'choice\',\'string\',requires=IS_IN_SET([\'article\',\'video\']),required=True),\n                        Field(\'url\',\'string\',requires=IS_URL(),label=\'Enter URL\',required=True))\n    if(form.accepts(request.vars,session)):\n        db.newsitem.insert(userid=a,category=form.vars.category,heading=form.vars.heading,url=form.vars.url,points=100,likes=0,dislikes=0,rating=1)\n        response.flash=\'News item successfully added\'\n        redirect(URL(r=request,f=\'user_homepage\'))\n    n=db().select(db.newsitem.ALL)\n    count=0\n    deleteform=[]\n    editform=[]\n    for i in range(len(n)):\n        if n[i][\'userid\']==a:\n            p=n[i][\'id\']\n            deleteform.append(SQLFORM.factory(submit_button="Delete post"))\n            editform.append(SQLFORM.factory(submit_button="Edit post"))\n            if deleteform[count].process(formname=\'deleteform[%d]\'%count).accepted:\n                db(db.newsitem.id==p).delete()\n                redirect(URL(r=request,f=\'user_homepage\'))\n                count+=1\n            if editform[count].process(formname=\'editform[%d]\'%count).accepted:\n                redirect(URL(r=request,f=\'changedetails?id=%d\'%p))\n                count+=1\n    return locals()\n\ndef changedetails():\n    p=request.vars.id\n    x=db(db.newsitem.id==p).select(db.newsitem.ALL)\n    c=db().select(db.category.ALL)\n    temp=[]\n    for i in range(len(c)):\n        temp.append(c[i][\'name\'])\n    form=SQLFORM.factory(db.Field(\'category\',\'string\',requires=IS_IN_SET(temp),required=True,default=x[0][\'category\']),\n                        Field(\'heading\',\'string\',required=True,default=x[0][\'heading\']),\n                        Field(\'choice\',\'string\',requires=IS_IN_SET([\'article\',\'video\']),required=True,default=x[0][\'choice\']),\n                        Field(\'URL\',\'string\',requires=IS_URL(),required=True,default=x[0][\'url\']))\n    if(form.accepts(request.vars,session)):\n        db.newsitem.update(category=form.vars.category,heading=form.vars.heading,choice=form.vars.choice,url=form.vars.url)\n        redirect(URL(r=request,f=\'user_homepage\'))\n        response.flash="Your news item has been updated successfully!"\n    return locals()\n\ndef intermediate():\n    form=SQLFORM.factory(db.Field(\'key\',\'password\',readable=False,required=True))\n    if(form.accepts(request.vars,session)):\n        if form.vars.key==\'ab%k20*(kd12$\':\n            redirect(URL(r=request,f=\'admin_homepage\'))\n        else:\n            response.flash="Wrong key entered."\n    return locals()\n\ndef admin_homepage():\n    a=auth.user.id\n    count=0\n    f=db(db.auth_user.id==a).select(db.auth_user.first_name)\n    l=db(db.auth_user.id==a).select(db.auth_user.last_name)\n    form1=SQLFORM.factory(db.Field(\'category\',\'string\',label=\'Enter category\',required=True))\n    if(form1.accepts(request.vars,session)):\n        db.category.insert(name=form1.vars.category)\n        response.flash=\'New category successfully added.\'\n    n=db().select(db.newsitem.ALL)\n    c=db().select(db.category.name)\n    form2=[]\n    for i in range(len(c)):\n        for j in range(len(n)):\n             p=n[j][\'id\']\n             if n[j][\'category\']==c[i][\'name\']:\n                  form2.append(SQLFORM.factory(submit_button="Delete post"))\n                  if form2[count].process(formname=\'form2[%d]\'%count).accepted:\n                      db(db.newsitem.id==p).delete()\n                      redirect(URL(r=request,f=\'admin_homepage\'))\n                  count+=1\n    return locals()\n\ndef user():\n    """\n    exposes:\n    http://..../[app]/default/user/login\n    http://..../[app]/default/user/logout\n    http://..../[app]/default/user/register\n    http://..../[app]/default/user/profile\n    http://..../[app]/default/user/retrieve_password\n    http://..../[app]/default/user/change_password\n    use @auth.requires_login()\n        @auth.requires_membership(\'group name\')\n        @auth.requires_permission(\'read\',\'table name\',record_id)\n    to decorate functions that need access control\n    """\n    return dict(form=auth())\n\n\ndef download():\n    """\n    allows downloading of uploaded files\n    http://..../[app]/default/download/[filename]\n    """\n    return response.download(request, db)\n\n\ndef call():\n    """\n    exposes services. for example:\n    http://..../[app]/default/call/jsonrpc\n    decorate with @services.jsonrpc the functions to expose\n    supports xml, json, xmlrpc, jsonrpc, amfrpc, rss, csv\n    """\n    return service()\n\n\n@auth.requires_signature()\ndef data():\n    """\n    http://..../[app]/default/data/tables\n    http://..../[app]/default/data/create/[table]\n    http://..../[app]/default/data/read/[table]/[id]\n    http://..../[app]/default/data/update/[table]/[id]\n    http://..../[app]/default/data/delete/[table]/[id]\n    http://..../[app]/default/data/select/[table]\n    http://..../[app]/default/data/search/[table]\n    but URLs must be signed, i.e. linked with\n      A(\'table\',_href=URL(\'data/tables\',user_signature=True))\n    or with the signed load operator\n      LOAD(\'default\',\'data.load\',args=\'tables\',ajax=True,user_signature=True)\n    """\n    return dict(form=crud())\n\nresponse._vars=response._caller(changedetails)\n'
p7
sS'snapshot'
p8
(dp9
S'exception'
p10
(dp11
S'__hash__'
p12
S"<method-wrapper '__hash__' of exceptions.RuntimeError object>"
p13
sS'__setattr__'
p14
S"<method-wrapper '__setattr__' of exceptions.RuntimeError object>"
p15
sS'__reduce_ex__'
p16
S'<built-in method __reduce_ex__ of exceptions.RuntimeError object>'
p17
sS'__getslice__'
p18
S"<method-wrapper '__getslice__' of exceptions.RuntimeError object>"
p19
sS'__getitem__'
p20
S"<method-wrapper '__getitem__' of exceptions.RuntimeError object>"
p21
sS'__setstate__'
p22
S'<built-in method __setstate__ of exceptions.RuntimeError object>'
p23
sS'__reduce__'
p24
S'<built-in method __reduce__ of exceptions.RuntimeError object>'
p25
sS'__str__'
p26
S"<method-wrapper '__str__' of exceptions.RuntimeError object>"
p27
sS'__format__'
p28
S'<built-in method __format__ of exceptions.RuntimeError object>'
p29
sS'__getattribute__'
p30
S"<method-wrapper '__getattribute__' of exceptions.RuntimeError object>"
p31
sS'__class__'
p32
S"<type 'exceptions.RuntimeError'>"
p33
sS'__unicode__'
p34
S'<built-in method __unicode__ of exceptions.RuntimeError object>'
p35
sS'__delattr__'
p36
S"<method-wrapper '__delattr__' of exceptions.RuntimeError object>"
p37
sS'__subclasshook__'
p38
S'<built-in method __subclasshook__ of type object>'
p39
sS'__repr__'
p40
S"<method-wrapper '__repr__' of exceptions.RuntimeError object>"
p41
sS'args'
p42
S"('Syntax Not Supported',)"
p43
sS'__dict__'
p44
S'{}'
p45
sS'__sizeof__'
p46
S'<built-in method __sizeof__ of exceptions.RuntimeError object>'
p47
sS'__doc__'
p48
S"'Unspecified run-time error.'"
p49
sS'__init__'
p50
S"<method-wrapper '__init__' of exceptions.RuntimeError object>"
p51
sS'__new__'
p52
S'<built-in method __new__ of type object>'
p53
ssS'evalue'
p54
S'Syntax Not Supported'
p55
sS'request'
p56
ccopy_reg
_reconstructor
p57
(cgluon.html
BEAUTIFY
p58
c__builtin__
object
p59
NtRp60
(dp61
S'attributes'
p62
(dp63
sS'components'
p64
(lp65
g57
(cgluon.html
TABLE
p66
g59
NtRp67
(dp68
g62
(dp69
S'level'
p70
I5
ssS'parent'
p71
Nsg64
(lp72
g57
(cgluon.html
TR
p73
g59
NtRp74
(dp75
g62
(dp76
sg71
g67
sg64
(lp77
g57
(cgluon.html
TD
p78
g59
NtRp79
(dp80
g62
(dp81
S'_style'
p82
S'font-weight:bold;vertical-align:top'
p83
ssg71
g74
sg64
(lp84
S'ajax'
p85
asbag57
(g78
g59
NtRp86
(dp87
g62
(dp88
S'_valign'
p89
S'top'
p90
ssg71
g74
sg64
(lp91
S':'
asbag57
(g78
g59
NtRp92
(dp93
g62
(dp94
sg71
g74
sg64
(lp95
g57
(g58
g59
NtRp96
(dp97
g62
(dp98
g70
I5
ssg71
g92
sg64
(lp99
S'False'
p100
asbasbasbag57
(g73
g59
NtRp101
(dp102
g62
(dp103
sg71
g67
sg64
(lp104
g57
(g78
g59
NtRp105
(dp106
g62
(dp107
g82
g83
ssg71
g101
sg64
(lp108
S'application'
p109
asbag57
(g78
g59
NtRp110
(dp111
g62
(dp112
g89
g90
ssg71
g101
sg64
(lp113
S':'
asbag57
(g78
g59
NtRp114
(dp115
g62
(dp116
sg71
g101
sg64
(lp117
g57
(g58
g59
NtRp118
(dp119
g62
(dp120
g70
I5
ssg71
g114
sg64
(lp121
S'assignment2'
p122
asbasbasbag57
(g73
g59
NtRp123
(dp124
g62
(dp125
sg71
g67
sg64
(lp126
g57
(g78
g59
NtRp127
(dp128
g62
(dp129
g82
g83
ssg71
g123
sg64
(lp130
g42
asbag57
(g78
g59
NtRp131
(dp132
g62
(dp133
g89
g90
ssg71
g123
sg64
(lp134
S':'
asbag57
(g78
g59
NtRp135
(dp136
g62
(dp137
sg71
g123
sg64
(lp138
g57
(g58
g59
NtRp139
(dp140
g62
(dp141
g70
I5
ssg71
g135
sg64
(lp142
g57
(g66
g59
NtRp143
(dp144
g62
(dp145
g70
I4
ssg71
Nsg64
(lp146
sbasbasbasbag57
(g73
g59
NtRp147
(dp148
g62
(dp149
sg71
g67
sg64
(lp150
g57
(g78
g59
NtRp151
(dp152
g62
(dp153
g82
g83
ssg71
g147
sg64
(lp154
S'body'
p155
asbag57
(g78
g59
NtRp156
(dp157
g62
(dp158
g89
g90
ssg71
g147
sg64
(lp159
S':'
asbag57
(g78
g59
NtRp160
(dp161
g62
(dp162
sg71
g147
sg64
(lp163
g57
(g58
g59
NtRp164
(dp165
g62
(dp166
g70
I5
ssg71
g160
sg64
(lp167
S"<open file '<fdopen>', mode 'w+b' at 0xac797a18>"
p168
asbasbasbag57
(g73
g59
NtRp169
(dp170
g62
(dp171
sg71
g67
sg64
(lp172
g57
(g78
g59
NtRp173
(dp174
g62
(dp175
g82
g83
ssg71
g169
sg64
(lp176
S'cid'
p177
asbag57
(g78
g59
NtRp178
(dp179
g62
(dp180
g89
g90
ssg71
g169
sg64
(lp181
S':'
asbag57
(g78
g59
NtRp182
(dp183
g62
(dp184
sg71
g169
sg64
(lp185
g57
(g58
g59
NtRp186
(dp187
g62
(dp188
g70
I5
ssg71
g182
sg64
(lp189
S'None'
p190
asbasbasbag57
(g73
g59
NtRp191
(dp192
g62
(dp193
sg71
g67
sg64
(lp194
g57
(g78
g59
NtRp195
(dp196
g62
(dp197
g82
g83
ssg71
g191
sg64
(lp198
S'client'
p199
asbag57
(g78
g59
NtRp200
(dp201
g62
(dp202
g89
g90
ssg71
g191
sg64
(lp203
S':'
asbag57
(g78
g59
NtRp204
(dp205
g62
(dp206
sg71
g191
sg64
(lp207
g57
(g58
g59
NtRp208
(dp209
g62
(dp210
g70
I5
ssg71
g204
sg64
(lp211
S'127.0.0.1'
p212
asbasbasbag57
(g73
g59
NtRp213
(dp214
g62
(dp215
sg71
g67
sg64
(lp216
g57
(g78
g59
NtRp217
(dp218
g62
(dp219
g82
g83
ssg71
g213
sg64
(lp220
S'controller'
p221
asbag57
(g78
g59
NtRp222
(dp223
g62
(dp224
g89
g90
ssg71
g213
sg64
(lp225
S':'
asbag57
(g78
g59
NtRp226
(dp227
g62
(dp228
sg71
g213
sg64
(lp229
g57
(g58
g59
NtRp230
(dp231
g62
(dp232
g70
I5
ssg71
g226
sg64
(lp233
S'default'
p234
asbasbasbag57
(g73
g59
NtRp235
(dp236
g62
(dp237
sg71
g67
sg64
(lp238
g57
(g78
g59
NtRp239
(dp240
g62
(dp241
g82
g83
ssg71
g235
sg64
(lp242
S'cookies'
p243
asbag57
(g78
g59
NtRp244
(dp245
g62
(dp246
g89
g90
ssg71
g235
sg64
(lp247
S':'
asbag57
(g78
g59
NtRp248
(dp249
g62
(dp250
sg71
g235
sg64
(lp251
g57
(g58
g59
NtRp252
(dp253
g62
(dp254
g70
I5
ssg71
g248
sg64
(lp255
g57
(g66
g59
NtRp256
(dp257
g62
(dp258
g70
I4
ssg71
Nsg64
(lp259
g57
(g73
g59
NtRp260
(dp261
g62
(dp262
sg71
g256
sg64
(lp263
g57
(g78
g59
NtRp264
(dp265
g62
(dp266
g82
g83
ssg71
g260
sg64
(lp267
S'session_id_admin'
p268
asbag57
(g78
g59
NtRp269
(dp270
g62
(dp271
g89
g90
ssg71
g260
sg64
(lp272
S':'
asbag57
(g78
g59
NtRp273
(dp274
g62
(dp275
sg71
g260
sg64
(lp276
g57
(g58
g59
NtRp277
(dp278
g62
(dp279
g70
I4
ssg71
g273
sg64
(lp280
S'127.0.0.1-8963b168-effa-4dc0-8b35-fdcdb207fa30'
p281
ag57
(g66
g59
NtRp282
(dp283
g62
(dp284
g70
I3
ssg71
Nsg64
(lp285
g57
(g73
g59
NtRp286
(dp287
g62
(dp288
sg71
g282
sg64
(lp289
g57
(g78
g59
NtRp290
(dp291
g62
(dp292
g82
g83
ssg71
g286
sg64
(lp293
S'comment'
p294
asbag57
(g78
g59
NtRp295
(dp296
g62
(dp297
g89
g90
ssg71
g286
sg64
(lp298
S':'
asbag57
(g78
g59
NtRp299
(dp300
g62
(dp301
sg71
g286
sg64
(lp302
g57
(g58
g59
NtRp303
(dp304
g62
(dp305
g70
I3
ssg71
g299
sg64
(lp306
S''
asbasbasbag57
(g73
g59
NtRp307
(dp308
g62
(dp309
sg71
g282
sg64
(lp310
g57
(g78
g59
NtRp311
(dp312
g62
(dp313
g82
g83
ssg71
g307
sg64
(lp314
S'domain'
p315
asbag57
(g78
g59
NtRp316
(dp317
g62
(dp318
g89
g90
ssg71
g307
sg64
(lp319
S':'
asbag57
(g78
g59
NtRp320
(dp321
g62
(dp322
sg71
g307
sg64
(lp323
g57
(g58
g59
NtRp324
(dp325
g62
(dp326
g70
I3
ssg71
g320
sg64
(lp327
S''
asbasbasbag57
(g73
g59
NtRp328
(dp329
g62
(dp330
sg71
g282
sg64
(lp331
g57
(g78
g59
NtRp332
(dp333
g62
(dp334
g82
g83
ssg71
g328
sg64
(lp335
S'expires'
p336
asbag57
(g78
g59
NtRp337
(dp338
g62
(dp339
g89
g90
ssg71
g328
sg64
(lp340
S':'
asbag57
(g78
g59
NtRp341
(dp342
g62
(dp343
sg71
g328
sg64
(lp344
g57
(g58
g59
NtRp345
(dp346
g62
(dp347
g70
I3
ssg71
g341
sg64
(lp348
S''
asbasbasbag57
(g73
g59
NtRp349
(dp350
g62
(dp351
sg71
g282
sg64
(lp352
g57
(g78
g59
NtRp353
(dp354
g62
(dp355
g82
g83
ssg71
g349
sg64
(lp356
S'httponly'
p357
asbag57
(g78
g59
NtRp358
(dp359
g62
(dp360
g89
g90
ssg71
g349
sg64
(lp361
S':'
asbag57
(g78
g59
NtRp362
(dp363
g62
(dp364
sg71
g349
sg64
(lp365
g57
(g58
g59
NtRp366
(dp367
g62
(dp368
g70
I3
ssg71
g362
sg64
(lp369
S''
asbasbasbag57
(g73
g59
NtRp370
(dp371
g62
(dp372
sg71
g282
sg64
(lp373
g57
(g78
g59
NtRp374
(dp375
g62
(dp376
g82
g83
ssg71
g370
sg64
(lp377
S'max-age'
p378
asbag57
(g78
g59
NtRp379
(dp380
g62
(dp381
g89
g90
ssg71
g370
sg64
(lp382
S':'
asbag57
(g78
g59
NtRp383
(dp384
g62
(dp385
sg71
g370
sg64
(lp386
g57
(g58
g59
NtRp387
(dp388
g62
(dp389
g70
I3
ssg71
g383
sg64
(lp390
S''
asbasbasbag57
(g73
g59
NtRp391
(dp392
g62
(dp393
sg71
g282
sg64
(lp394
g57
(g78
g59
NtRp395
(dp396
g62
(dp397
g82
g83
ssg71
g391
sg64
(lp398
S'path'
p399
asbag57
(g78
g59
NtRp400
(dp401
g62
(dp402
g89
g90
ssg71
g391
sg64
(lp403
S':'
asbag57
(g78
g59
NtRp404
(dp405
g62
(dp406
sg71
g391
sg64
(lp407
g57
(g58
g59
NtRp408
(dp409
g62
(dp410
g70
I3
ssg71
g404
sg64
(lp411
S''
asbasbasbag57
(g73
g59
NtRp412
(dp413
g62
(dp414
sg71
g282
sg64
(lp415
g57
(g78
g59
NtRp416
(dp417
g62
(dp418
g82
g83
ssg71
g412
sg64
(lp419
S'secure'
p420
asbag57
(g78
g59
NtRp421
(dp422
g62
(dp423
g89
g90
ssg71
g412
sg64
(lp424
S':'
asbag57
(g78
g59
NtRp425
(dp426
g62
(dp427
sg71
g412
sg64
(lp428
g57
(g58
g59
NtRp429
(dp430
g62
(dp431
g70
I3
ssg71
g425
sg64
(lp432
S''
asbasbasbag57
(g73
g59
NtRp433
(dp434
g62
(dp435
sg71
g282
sg64
(lp436
g57
(g78
g59
NtRp437
(dp438
g62
(dp439
g82
g83
ssg71
g433
sg64
(lp440
S'version'
p441
asbag57
(g78
g59
NtRp442
(dp443
g62
(dp444
g89
g90
ssg71
g433
sg64
(lp445
S':'
asbag57
(g78
g59
NtRp446
(dp447
g62
(dp448
sg71
g433
sg64
(lp449
g57
(g58
g59
NtRp450
(dp451
g62
(dp452
g70
I3
ssg71
g446
sg64
(lp453
S''
asbasbasbasbasbasbasbag57
(g73
g59
NtRp454
(dp455
g62
(dp456
sg71
g256
sg64
(lp457
g57
(g78
g59
NtRp458
(dp459
g62
(dp460
g82
g83
ssg71
g454
sg64
(lp461
S'session_id_assignment2'
p462
asbag57
(g78
g59
NtRp463
(dp464
g62
(dp465
g89
g90
ssg71
g454
sg64
(lp466
S':'
asbag57
(g78
g59
NtRp467
(dp468
g62
(dp469
sg71
g454
sg64
(lp470
g57
(g58
g59
NtRp471
(dp472
g62
(dp473
g70
I4
ssg71
g467
sg64
(lp474
S'127.0.0.1-f901c239-914d-4817-baae-ae5793bf884f'
p475
ag57
(g66
g59
NtRp476
(dp477
g62
(dp478
g70
I3
ssg71
Nsg64
(lp479
g57
(g73
g59
NtRp480
(dp481
g62
(dp482
sg71
g476
sg64
(lp483
g57
(g78
g59
NtRp484
(dp485
g62
(dp486
g82
g83
ssg71
g480
sg64
(lp487
g294
asbag57
(g78
g59
NtRp488
(dp489
g62
(dp490
g89
g90
ssg71
g480
sg64
(lp491
S':'
asbag57
(g78
g59
NtRp492
(dp493
g62
(dp494
sg71
g480
sg64
(lp495
g57
(g58
g59
NtRp496
(dp497
g62
(dp498
g70
I3
ssg71
g492
sg64
(lp499
S''
asbasbasbag57
(g73
g59
NtRp500
(dp501
g62
(dp502
sg71
g476
sg64
(lp503
g57
(g78
g59
NtRp504
(dp505
g62
(dp506
g82
g83
ssg71
g500
sg64
(lp507
g315
asbag57
(g78
g59
NtRp508
(dp509
g62
(dp510
g89
g90
ssg71
g500
sg64
(lp511
S':'
asbag57
(g78
g59
NtRp512
(dp513
g62
(dp514
sg71
g500
sg64
(lp515
g57
(g58
g59
NtRp516
(dp517
g62
(dp518
g70
I3
ssg71
g512
sg64
(lp519
S''
asbasbasbag57
(g73
g59
NtRp520
(dp521
g62
(dp522
sg71
g476
sg64
(lp523
g57
(g78
g59
NtRp524
(dp525
g62
(dp526
g82
g83
ssg71
g520
sg64
(lp527
g336
asbag57
(g78
g59
NtRp528
(dp529
g62
(dp530
g89
g90
ssg71
g520
sg64
(lp531
S':'
asbag57
(g78
g59
NtRp532
(dp533
g62
(dp534
sg71
g520
sg64
(lp535
g57
(g58
g59
NtRp536
(dp537
g62
(dp538
g70
I3
ssg71
g532
sg64
(lp539
S''
asbasbasbag57
(g73
g59
NtRp540
(dp541
g62
(dp542
sg71
g476
sg64
(lp543
g57
(g78
g59
NtRp544
(dp545
g62
(dp546
g82
g83
ssg71
g540
sg64
(lp547
g357
asbag57
(g78
g59
NtRp548
(dp549
g62
(dp550
g89
g90
ssg71
g540
sg64
(lp551
S':'
asbag57
(g78
g59
NtRp552
(dp553
g62
(dp554
sg71
g540
sg64
(lp555
g57
(g58
g59
NtRp556
(dp557
g62
(dp558
g70
I3
ssg71
g552
sg64
(lp559
S''
asbasbasbag57
(g73
g59
NtRp560
(dp561
g62
(dp562
sg71
g476
sg64
(lp563
g57
(g78
g59
NtRp564
(dp565
g62
(dp566
g82
g83
ssg71
g560
sg64
(lp567
g378
asbag57
(g78
g59
NtRp568
(dp569
g62
(dp570
g89
g90
ssg71
g560
sg64
(lp571
S':'
asbag57
(g78
g59
NtRp572
(dp573
g62
(dp574
sg71
g560
sg64
(lp575
g57
(g58
g59
NtRp576
(dp577
g62
(dp578
g70
I3
ssg71
g572
sg64
(lp579
S''
asbasbasbag57
(g73
g59
NtRp580
(dp581
g62
(dp582
sg71
g476
sg64
(lp583
g57
(g78
g59
NtRp584
(dp585
g62
(dp586
g82
g83
ssg71
g580
sg64
(lp587
g399
asbag57
(g78
g59
NtRp588
(dp589
g62
(dp590
g89
g90
ssg71
g580
sg64
(lp591
S':'
asbag57
(g78
g59
NtRp592
(dp593
g62
(dp594
sg71
g580
sg64
(lp595
g57
(g58
g59
NtRp596
(dp597
g62
(dp598
g70
I3
ssg71
g592
sg64
(lp599
S''
asbasbasbag57
(g73
g59
NtRp600
(dp601
g62
(dp602
sg71
g476
sg64
(lp603
g57
(g78
g59
NtRp604
(dp605
g62
(dp606
g82
g83
ssg71
g600
sg64
(lp607
g420
asbag57
(g78
g59
NtRp608
(dp609
g62
(dp610
g89
g90
ssg71
g600
sg64
(lp611
S':'
asbag57
(g78
g59
NtRp612
(dp613
g62
(dp614
sg71
g600
sg64
(lp615
g57
(g58
g59
NtRp616
(dp617
g62
(dp618
g70
I3
ssg71
g612
sg64
(lp619
S''
asbasbasbag57
(g73
g59
NtRp620
(dp621
g62
(dp622
sg71
g476
sg64
(lp623
g57
(g78
g59
NtRp624
(dp625
g62
(dp626
g82
g83
ssg71
g620
sg64
(lp627
g441
asbag57
(g78
g59
NtRp628
(dp629
g62
(dp630
g89
g90
ssg71
g620
sg64
(lp631
S':'
asbag57
(g78
g59
NtRp632
(dp633
g62
(dp634
sg71
g620
sg64
(lp635
g57
(g58
g59
NtRp636
(dp637
g62
(dp638
g70
I3
ssg71
g632
sg64
(lp639
S''
asbasbasbasbasbasbasbag57
(g73
g59
NtRp640
(dp641
g62
(dp642
sg71
g256
sg64
(lp643
g57
(g78
g59
NtRp644
(dp645
g62
(dp646
g82
g83
ssg71
g640
sg64
(lp647
S'session_id_welcome'
p648
asbag57
(g78
g59
NtRp649
(dp650
g62
(dp651
g89
g90
ssg71
g640
sg64
(lp652
S':'
asbag57
(g78
g59
NtRp653
(dp654
g62
(dp655
sg71
g640
sg64
(lp656
g57
(g58
g59
NtRp657
(dp658
g62
(dp659
g70
I4
ssg71
g653
sg64
(lp660
S'127.0.0.1-2a3f0a40-83b1-4e73-811e-c902f1f09304'
p661
ag57
(g66
g59
NtRp662
(dp663
g62
(dp664
g70
I3
ssg71
Nsg64
(lp665
g57
(g73
g59
NtRp666
(dp667
g62
(dp668
sg71
g662
sg64
(lp669
g57
(g78
g59
NtRp670
(dp671
g62
(dp672
g82
g83
ssg71
g666
sg64
(lp673
g294
asbag57
(g78
g59
NtRp674
(dp675
g62
(dp676
g89
g90
ssg71
g666
sg64
(lp677
S':'
asbag57
(g78
g59
NtRp678
(dp679
g62
(dp680
sg71
g666
sg64
(lp681
g57
(g58
g59
NtRp682
(dp683
g62
(dp684
g70
I3
ssg71
g678
sg64
(lp685
S''
asbasbasbag57
(g73
g59
NtRp686
(dp687
g62
(dp688
sg71
g662
sg64
(lp689
g57
(g78
g59
NtRp690
(dp691
g62
(dp692
g82
g83
ssg71
g686
sg64
(lp693
g315
asbag57
(g78
g59
NtRp694
(dp695
g62
(dp696
g89
g90
ssg71
g686
sg64
(lp697
S':'
asbag57
(g78
g59
NtRp698
(dp699
g62
(dp700
sg71
g686
sg64
(lp701
g57
(g58
g59
NtRp702
(dp703
g62
(dp704
g70
I3
ssg71
g698
sg64
(lp705
S''
asbasbasbag57
(g73
g59
NtRp706
(dp707
g62
(dp708
sg71
g662
sg64
(lp709
g57
(g78
g59
NtRp710
(dp711
g62
(dp712
g82
g83
ssg71
g706
sg64
(lp713
g336
asbag57
(g78
g59
NtRp714
(dp715
g62
(dp716
g89
g90
ssg71
g706
sg64
(lp717
S':'
asbag57
(g78
g59
NtRp718
(dp719
g62
(dp720
sg71
g706
sg64
(lp721
g57
(g58
g59
NtRp722
(dp723
g62
(dp724
g70
I3
ssg71
g718
sg64
(lp725
S''
asbasbasbag57
(g73
g59
NtRp726
(dp727
g62
(dp728
sg71
g662
sg64
(lp729
g57
(g78
g59
NtRp730
(dp731
g62
(dp732
g82
g83
ssg71
g726
sg64
(lp733
g357
asbag57
(g78
g59
NtRp734
(dp735
g62
(dp736
g89
g90
ssg71
g726
sg64
(lp737
S':'
asbag57
(g78
g59
NtRp738
(dp739
g62
(dp740
sg71
g726
sg64
(lp741
g57
(g58
g59
NtRp742
(dp743
g62
(dp744
g70
I3
ssg71
g738
sg64
(lp745
S''
asbasbasbag57
(g73
g59
NtRp746
(dp747
g62
(dp748
sg71
g662
sg64
(lp749
g57
(g78
g59
NtRp750
(dp751
g62
(dp752
g82
g83
ssg71
g746
sg64
(lp753
g378
asbag57
(g78
g59
NtRp754
(dp755
g62
(dp756
g89
g90
ssg71
g746
sg64
(lp757
S':'
asbag57
(g78
g59
NtRp758
(dp759
g62
(dp760
sg71
g746
sg64
(lp761
g57
(g58
g59
NtRp762
(dp763
g62
(dp764
g70
I3
ssg71
g758
sg64
(lp765
S''
asbasbasbag57
(g73
g59
NtRp766
(dp767
g62
(dp768
sg71
g662
sg64
(lp769
g57
(g78
g59
NtRp770
(dp771
g62
(dp772
g82
g83
ssg71
g766
sg64
(lp773
g399
asbag57
(g78
g59
NtRp774
(dp775
g62
(dp776
g89
g90
ssg71
g766
sg64
(lp777
S':'
asbag57
(g78
g59
NtRp778
(dp779
g62
(dp780
sg71
g766
sg64
(lp781
g57
(g58
g59
NtRp782
(dp783
g62
(dp784
g70
I3
ssg71
g778
sg64
(lp785
S''
asbasbasbag57
(g73
g59
NtRp786
(dp787
g62
(dp788
sg71
g662
sg64
(lp789
g57
(g78
g59
NtRp790
(dp791
g62
(dp792
g82
g83
ssg71
g786
sg64
(lp793
g420
asbag57
(g78
g59
NtRp794
(dp795
g62
(dp796
g89
g90
ssg71
g786
sg64
(lp797
S':'
asbag57
(g78
g59
NtRp798
(dp799
g62
(dp800
sg71
g786
sg64
(lp801
g57
(g58
g59
NtRp802
(dp803
g62
(dp804
g70
I3
ssg71
g798
sg64
(lp805
S''
asbasbasbag57
(g73
g59
NtRp806
(dp807
g62
(dp808
sg71
g662
sg64
(lp809
g57
(g78
g59
NtRp810
(dp811
g62
(dp812
g82
g83
ssg71
g806
sg64
(lp813
g441
asbag57
(g78
g59
NtRp814
(dp815
g62
(dp816
g89
g90
ssg71
g806
sg64
(lp817
S':'
asbag57
(g78
g59
NtRp818
(dp819
g62
(dp820
sg71
g806
sg64
(lp821
g57
(g58
g59
NtRp822
(dp823
g62
(dp824
g70
I3
ssg71
g818
sg64
(lp825
S''
asbasbasbasbasbasbasbasbasbasbasbag57
(g73
g59
NtRp826
(dp827
g62
(dp828
sg71
g67
sg64
(lp829
g57
(g78
g59
NtRp830
(dp831
g62
(dp832
g82
g83
ssg71
g826
sg64
(lp833
S'env'
p834
asbag57
(g78
g59
NtRp835
(dp836
g62
(dp837
g89
g90
ssg71
g826
sg64
(lp838
S':'
asbag57
(g78
g59
NtRp839
(dp840
g62
(dp841
sg71
g826
sg64
(lp842
g57
(g58
g59
NtRp843
(dp844
g62
(dp845
g70
I5
ssg71
g839
sg64
(lp846
g57
(g66
g59
NtRp847
(dp848
g62
(dp849
g70
I4
ssg71
Nsg64
(lp850
g57
(g73
g59
NtRp851
(dp852
g62
(dp853
sg71
g847
sg64
(lp854
g57
(g78
g59
NtRp855
(dp856
g62
(dp857
g82
g83
ssg71
g851
sg64
(lp858
S'app_folders'
p859
asbag57
(g78
g59
NtRp860
(dp861
g62
(dp862
g89
g90
ssg71
g851
sg64
(lp863
S':'
asbag57
(g78
g59
NtRp864
(dp865
g62
(dp866
sg71
g851
sg64
(lp867
g57
(g58
g59
NtRp868
(dp869
g62
(dp870
g70
I4
ssg71
g864
sg64
(lp871
S"set(['/home/aditi/Desktop/web2py/applications/assignment2/', '/home/aditi/Desktop/web2py/applications/admin/', '/home/aditi/Desktop/web2py/applications/welcome/'])"
p872
asbasbasbag57
(g73
g59
NtRp873
(dp874
g62
(dp875
sg71
g847
sg64
(lp876
g57
(g78
g59
NtRp877
(dp878
g62
(dp879
g82
g83
ssg71
g873
sg64
(lp880
S'applications_parent'
p881
asbag57
(g78
g59
NtRp882
(dp883
g62
(dp884
g89
g90
ssg71
g873
sg64
(lp885
S':'
asbag57
(g78
g59
NtRp886
(dp887
g62
(dp888
sg71
g873
sg64
(lp889
g57
(g58
g59
NtRp890
(dp891
g62
(dp892
g70
I4
ssg71
g886
sg64
(lp893
S'/home/aditi/Desktop/web2py'
p894
asbasbasbag57
(g73
g59
NtRp895
(dp896
g62
(dp897
sg71
g847
sg64
(lp898
g57
(g78
g59
NtRp899
(dp900
g62
(dp901
g82
g83
ssg71
g895
sg64
(lp902
S'cmd_args'
p903
asbag57
(g78
g59
NtRp904
(dp905
g62
(dp906
g89
g90
ssg71
g895
sg64
(lp907
S':'
asbag57
(g78
g59
NtRp908
(dp909
g62
(dp910
sg71
g895
sg64
(lp911
g57
(g58
g59
NtRp912
(dp913
g62
(dp914
g70
I4
ssg71
g908
sg64
(lp915
g57
(g66
g59
NtRp916
(dp917
g62
(dp918
g70
I3
ssg71
Nsg64
(lp919
sbasbasbasbag57
(g73
g59
NtRp920
(dp921
g62
(dp922
sg71
g847
sg64
(lp923
g57
(g78
g59
NtRp924
(dp925
g62
(dp926
g82
g83
ssg71
g920
sg64
(lp927
S'cmd_options'
p928
asbag57
(g78
g59
NtRp929
(dp930
g62
(dp931
g89
g90
ssg71
g920
sg64
(lp932
S':'
asbag57
(g78
g59
NtRp933
(dp934
g62
(dp935
sg71
g920
sg64
(lp936
g57
(g58
g59
NtRp937
(dp938
g62
(dp939
g70
I4
ssg71
g933
sg64
(lp940
S"<Values at 0x9ad8a0c: {'verbose': False, 'ip': '127.0.0.1', 'with_scheduler': False, 'ips': [], 'shutdown_timeout': 5, 'taskbar': False, 'port': 8000, 'maxthreads': None, 'softcron': False, 'server_name': 'ubuntu', 'bpython': False, 'nogui': False, 'pid_filename': 'httpserver.pid', 'extcron': False, 'runcron': False, 'run_system_tests': False, 'test': None, 'folder': '/home/aditi/Desktop/web2py', 'config': '', 'import_models': False, 'winservice': '', 'shell': None, 'run': '', 'log_filename': 'httpserver.log', 'debuglevel': 30, 'args': [''], 'socket_timeout': 5, 'ssl_ca_certificate': None, 'scheduler': None, 'profiler_filename': None, 'ssl_private_key': '', 'scheduler_groups': None, 'password': '<ask>', 'request_queue_size': 5, 'ssl_certificate': '', 'cronjob': False, 'numthreads': None, 'quiet': False, 'interfaces': None, 'minthreads': None, 'timeout': 10, 'plain': False, 'nobanner': False}>"
p941
asbasbasbag57
(g73
g59
NtRp942
(dp943
g62
(dp944
sg71
g847
sg64
(lp945
g57
(g78
g59
NtRp946
(dp947
g62
(dp948
g82
g83
ssg71
g942
sg64
(lp949
S'content_length'
p950
asbag57
(g78
g59
NtRp951
(dp952
g62
(dp953
g89
g90
ssg71
g942
sg64
(lp954
S':'
asbag57
(g78
g59
NtRp955
(dp956
g62
(dp957
sg71
g942
sg64
(lp958
g57
(g58
g59
NtRp959
(dp960
g62
(dp961
g70
I4
ssg71
g955
sg64
(lp962
S'901'
p963
asbasbasbag57
(g73
g59
NtRp964
(dp965
g62
(dp966
sg71
g847
sg64
(lp967
g57
(g78
g59
NtRp968
(dp969
g62
(dp970
g82
g83
ssg71
g964
sg64
(lp971
S'content_type'
p972
asbag57
(g78
g59
NtRp973
(dp974
g62
(dp975
g89
g90
ssg71
g964
sg64
(lp976
S':'
asbag57
(g78
g59
NtRp977
(dp978
g62
(dp979
sg71
g964
sg64
(lp980
g57
(g58
g59
NtRp981
(dp982
g62
(dp983
g70
I4
ssg71
g977
sg64
(lp984
S'multipart/form-data; boundary=---------------------------139419555014550596401240501232'
p985
asbasbasbag57
(g73
g59
NtRp986
(dp987
g62
(dp988
sg71
g847
sg64
(lp989
g57
(g78
g59
NtRp990
(dp991
g62
(dp992
g82
g83
ssg71
g986
sg64
(lp993
S'db_sessions'
p994
asbag57
(g78
g59
NtRp995
(dp996
g62
(dp997
g89
g90
ssg71
g986
sg64
(lp998
S':'
asbag57
(g78
g59
NtRp999
(dp1000
g62
(dp1001
sg71
g986
sg64
(lp1002
g57
(g58
g59
NtRp1003
(dp1004
g62
(dp1005
g70
I4
ssg71
g999
sg64
(lp1006
S'set([])'
p1007
asbasbasbag57
(g73
g59
NtRp1008
(dp1009
g62
(dp1010
sg71
g847
sg64
(lp1011
g57
(g78
g59
NtRp1012
(dp1013
g62
(dp1014
g82
g83
ssg71
g1008
sg64
(lp1015
S'debugging'
p1016
asbag57
(g78
g59
NtRp1017
(dp1018
g62
(dp1019
g89
g90
ssg71
g1008
sg64
(lp1020
S':'
asbag57
(g78
g59
NtRp1021
(dp1022
g62
(dp1023
sg71
g1008
sg64
(lp1024
g57
(g58
g59
NtRp1025
(dp1026
g62
(dp1027
g70
I4
ssg71
g1021
sg64
(lp1028
g100
asbasbasbag57
(g73
g59
NtRp1029
(dp1030
g62
(dp1031
sg71
g847
sg64
(lp1032
g57
(g78
g59
NtRp1033
(dp1034
g62
(dp1035
g82
g83
ssg71
g1029
sg64
(lp1036
S'gluon_parent'
p1037
asbag57
(g78
g59
NtRp1038
(dp1039
g62
(dp1040
g89
g90
ssg71
g1029
sg64
(lp1041
S':'
asbag57
(g78
g59
NtRp1042
(dp1043
g62
(dp1044
sg71
g1029
sg64
(lp1045
g57
(g58
g59
NtRp1046
(dp1047
g62
(dp1048
g70
I4
ssg71
g1042
sg64
(lp1049
S'/home/aditi/Desktop/web2py'
p1050
asbasbasbag57
(g73
g59
NtRp1051
(dp1052
g62
(dp1053
sg71
g847
sg64
(lp1054
g57
(g78
g59
NtRp1055
(dp1056
g62
(dp1057
g82
g83
ssg71
g1051
sg64
(lp1058
S'http_accept'
p1059
asbag57
(g78
g59
NtRp1060
(dp1061
g62
(dp1062
g89
g90
ssg71
g1051
sg64
(lp1063
S':'
asbag57
(g78
g59
NtRp1064
(dp1065
g62
(dp1066
sg71
g1051
sg64
(lp1067
g57
(g58
g59
NtRp1068
(dp1069
g62
(dp1070
g70
I4
ssg71
g1064
sg64
(lp1071
S'text/html,application/xhtml+xml,application/xml;q=0.9,*/*;q=0.8'
p1072
asbasbasbag57
(g73
g59
NtRp1073
(dp1074
g62
(dp1075
sg71
g847
sg64
(lp1076
g57
(g78
g59
NtRp1077
(dp1078
g62
(dp1079
g82
g83
ssg71
g1073
sg64
(lp1080
S'http_accept_encoding'
p1081
asbag57
(g78
g59
NtRp1082
(dp1083
g62
(dp1084
g89
g90
ssg71
g1073
sg64
(lp1085
S':'
asbag57
(g78
g59
NtRp1086
(dp1087
g62
(dp1088
sg71
g1073
sg64
(lp1089
g57
(g58
g59
NtRp1090
(dp1091
g62
(dp1092
g70
I4
ssg71
g1086
sg64
(lp1093
S'gzip, deflate'
p1094
asbasbasbag57
(g73
g59
NtRp1095
(dp1096
g62
(dp1097
sg71
g847
sg64
(lp1098
g57
(g78
g59
NtRp1099
(dp1100
g62
(dp1101
g82
g83
ssg71
g1095
sg64
(lp1102
S'http_accept_language'
p1103
asbag57
(g78
g59
NtRp1104
(dp1105
g62
(dp1106
g89
g90
ssg71
g1095
sg64
(lp1107
S':'
asbag57
(g78
g59
NtRp1108
(dp1109
g62
(dp1110
sg71
g1095
sg64
(lp1111
g57
(g58
g59
NtRp1112
(dp1113
g62
(dp1114
g70
I4
ssg71
g1108
sg64
(lp1115
S'en-US,en;q=0.5'
p1116
asbasbasbag57
(g73
g59
NtRp1117
(dp1118
g62
(dp1119
sg71
g847
sg64
(lp1120
g57
(g78
g59
NtRp1121
(dp1122
g62
(dp1123
g82
g83
ssg71
g1117
sg64
(lp1124
S'http_connection'
p1125
asbag57
(g78
g59
NtRp1126
(dp1127
g62
(dp1128
g89
g90
ssg71
g1117
sg64
(lp1129
S':'
asbag57
(g78
g59
NtRp1130
(dp1131
g62
(dp1132
sg71
g1117
sg64
(lp1133
g57
(g58
g59
NtRp1134
(dp1135
g62
(dp1136
g70
I4
ssg71
g1130
sg64
(lp1137
S'keep-alive'
p1138
asbasbasbag57
(g73
g59
NtRp1139
(dp1140
g62
(dp1141
sg71
g847
sg64
(lp1142
g57
(g78
g59
NtRp1143
(dp1144
g62
(dp1145
g82
g83
ssg71
g1139
sg64
(lp1146
S'http_content_length'
p1147
asbag57
(g78
g59
NtRp1148
(dp1149
g62
(dp1150
g89
g90
ssg71
g1139
sg64
(lp1151
S':'
asbag57
(g78
g59
NtRp1152
(dp1153
g62
(dp1154
sg71
g1139
sg64
(lp1155
g57
(g58
g59
NtRp1156
(dp1157
g62
(dp1158
g70
I4
ssg71
g1152
sg64
(lp1159
g963
asbasbasbag57
(g73
g59
NtRp1160
(dp1161
g62
(dp1162
sg71
g847
sg64
(lp1163
g57
(g78
g59
NtRp1164
(dp1165
g62
(dp1166
g82
g83
ssg71
g1160
sg64
(lp1167
S'http_content_type'
p1168
asbag57
(g78
g59
NtRp1169
(dp1170
g62
(dp1171
g89
g90
ssg71
g1160
sg64
(lp1172
S':'
asbag57
(g78
g59
NtRp1173
(dp1174
g62
(dp1175
sg71
g1160
sg64
(lp1176
g57
(g58
g59
NtRp1177
(dp1178
g62
(dp1179
g70
I4
ssg71
g1173
sg64
(lp1180
g985
asbasbasbag57
(g73
g59
NtRp1181
(dp1182
g62
(dp1183
sg71
g847
sg64
(lp1184
g57
(g78
g59
NtRp1185
(dp1186
g62
(dp1187
g82
g83
ssg71
g1181
sg64
(lp1188
S'http_cookie'
p1189
asbag57
(g78
g59
NtRp1190
(dp1191
g62
(dp1192
g89
g90
ssg71
g1181
sg64
(lp1193
S':'
asbag57
(g78
g59
NtRp1194
(dp1195
g62
(dp1196
sg71
g1181
sg64
(lp1197
g57
(g58
g59
NtRp1198
(dp1199
g62
(dp1200
g70
I4
ssg71
g1194
sg64
(lp1201
S'session_id_welcome=127.0.0.1-2a3f0a40-83b1-4e73-811e-c902f1f09304; session_id_admin=127.0.0.1-8963b168-effa-4dc0-8b35-fdcdb207fa30; session_id_assignment2=127.0.0.1-f901c239-914d-4817-baae-ae5793bf884f'
p1202
asbasbasbag57
(g73
g59
NtRp1203
(dp1204
g62
(dp1205
sg71
g847
sg64
(lp1206
g57
(g78
g59
NtRp1207
(dp1208
g62
(dp1209
g82
g83
ssg71
g1203
sg64
(lp1210
S'http_host'
p1211
asbag57
(g78
g59
NtRp1212
(dp1213
g62
(dp1214
g89
g90
ssg71
g1203
sg64
(lp1215
S':'
asbag57
(g78
g59
NtRp1216
(dp1217
g62
(dp1218
sg71
g1203
sg64
(lp1219
g57
(g58
g59
NtRp1220
(dp1221
g62
(dp1222
g70
I4
ssg71
g1216
sg64
(lp1223
S'127.0.0.1:8000'
p1224
asbasbasbag57
(g73
g59
NtRp1225
(dp1226
g62
(dp1227
sg71
g847
sg64
(lp1228
g57
(g78
g59
NtRp1229
(dp1230
g62
(dp1231
g82
g83
ssg71
g1225
sg64
(lp1232
S'http_referer'
p1233
asbag57
(g78
g59
NtRp1234
(dp1235
g62
(dp1236
g89
g90
ssg71
g1225
sg64
(lp1237
S':'
asbag57
(g78
g59
NtRp1238
(dp1239
g62
(dp1240
sg71
g1225
sg64
(lp1241
g57
(g58
g59
NtRp1242
(dp1243
g62
(dp1244
g70
I4
ssg71
g1238
sg64
(lp1245
S'http://127.0.0.1:8000/assignment2/default/changedetails?id=3'
p1246
asbasbasbag57
(g73
g59
NtRp1247
(dp1248
g62
(dp1249
sg71
g847
sg64
(lp1250
g57
(g78
g59
NtRp1251
(dp1252
g62
(dp1253
g82
g83
ssg71
g1247
sg64
(lp1254
S'http_user_agent'
p1255
asbag57
(g78
g59
NtRp1256
(dp1257
g62
(dp1258
g89
g90
ssg71
g1247
sg64
(lp1259
S':'
asbag57
(g78
g59
NtRp1260
(dp1261
g62
(dp1262
sg71
g1247
sg64
(lp1263
g57
(g58
g59
NtRp1264
(dp1265
g62
(dp1266
g70
I4
ssg71
g1260
sg64
(lp1267
S'Mozilla/5.0 (X11; Ubuntu; Linux i686; rv:23.0) Gecko/20100101 Firefox/23.0'
p1268
asbasbasbag57
(g73
g59
NtRp1269
(dp1270
g62
(dp1271
sg71
g847
sg64
(lp1272
g57
(g78
g59
NtRp1273
(dp1274
g62
(dp1275
g82
g83
ssg71
g1269
sg64
(lp1276
S'is_jython'
p1277
asbag57
(g78
g59
NtRp1278
(dp1279
g62
(dp1280
g89
g90
ssg71
g1269
sg64
(lp1281
S':'
asbag57
(g78
g59
NtRp1282
(dp1283
g62
(dp1284
sg71
g1269
sg64
(lp1285
g57
(g58
g59
NtRp1286
(dp1287
g62
(dp1288
g70
I4
ssg71
g1282
sg64
(lp1289
g100
asbasbasbag57
(g73
g59
NtRp1290
(dp1291
g62
(dp1292
sg71
g847
sg64
(lp1293
g57
(g78
g59
NtRp1294
(dp1295
g62
(dp1296
g82
g83
ssg71
g1290
sg64
(lp1297
S'is_pypy'
p1298
asbag57
(g78
g59
NtRp1299
(dp1300
g62
(dp1301
g89
g90
ssg71
g1290
sg64
(lp1302
S':'
asbag57
(g78
g59
NtRp1303
(dp1304
g62
(dp1305
sg71
g1290
sg64
(lp1306
g57
(g58
g59
NtRp1307
(dp1308
g62
(dp1309
g70
I4
ssg71
g1303
sg64
(lp1310
g100
asbasbasbag57
(g73
g59
NtRp1311
(dp1312
g62
(dp1313
sg71
g847
sg64
(lp1314
g57
(g78
g59
NtRp1315
(dp1316
g62
(dp1317
g82
g83
ssg71
g1311
sg64
(lp1318
S'local_hosts'
p1319
asbag57
(g78
g59
NtRp1320
(dp1321
g62
(dp1322
g89
g90
ssg71
g1311
sg64
(lp1323
S':'
asbag57
(g78
g59
NtRp1324
(dp1325
g62
(dp1326
sg71
g1311
sg64
(lp1327
g57
(g58
g59
NtRp1328
(dp1329
g62
(dp1330
g70
I4
ssg71
g1324
sg64
(lp1331
g57
(g66
g59
NtRp1332
(dp1333
g62
(dp1334
g70
I3
ssg71
Nsg64
(lp1335
g57
(g73
g59
NtRp1336
(dp1337
g62
(dp1338
sg71
g1332
sg64
(lp1339
g57
(g78
g59
NtRp1340
(dp1341
g62
(dp1342
sg71
g1336
sg64
(lp1343
g57
(g58
g59
NtRp1344
(dp1345
g62
(dp1346
g70
I3
ssg71
g1340
sg64
(lp1347
S'ubuntu.ubuntu-domain'
p1348
asbasbasbag57
(g73
g59
NtRp1349
(dp1350
g62
(dp1351
sg71
g1332
sg64
(lp1352
g57
(g78
g59
NtRp1353
(dp1354
g62
(dp1355
sg71
g1349
sg64
(lp1356
g57
(g58
g59
NtRp1357
(dp1358
g62
(dp1359
g70
I3
ssg71
g1353
sg64
(lp1360
S'::ffff:127.0.0.1'
p1361
asbasbasbag57
(g73
g59
NtRp1362
(dp1363
g62
(dp1364
sg71
g1332
sg64
(lp1365
g57
(g78
g59
NtRp1366
(dp1367
g62
(dp1368
sg71
g1362
sg64
(lp1369
g57
(g58
g59
NtRp1370
(dp1371
g62
(dp1372
g70
I3
ssg71
g1366
sg64
(lp1373
S'::1'
p1374
asbasbasbag57
(g73
g59
NtRp1375
(dp1376
g62
(dp1377
sg71
g1332
sg64
(lp1378
g57
(g78
g59
NtRp1379
(dp1380
g62
(dp1381
sg71
g1375
sg64
(lp1382
g57
(g58
g59
NtRp1383
(dp1384
g62
(dp1385
g70
I3
ssg71
g1379
sg64
(lp1386
S'ubuntu'
p1387
asbasbasbag57
(g73
g59
NtRp1388
(dp1389
g62
(dp1390
sg71
g1332
sg64
(lp1391
g57
(g78
g59
NtRp1392
(dp1393
g62
(dp1394
sg71
g1388
sg64
(lp1395
g57
(g58
g59
NtRp1396
(dp1397
g62
(dp1398
g70
I3
ssg71
g1392
sg64
(lp1399
S'127.0.1.1'
p1400
asbasbasbag57
(g73
g59
NtRp1401
(dp1402
g62
(dp1403
sg71
g1332
sg64
(lp1404
g57
(g78
g59
NtRp1405
(dp1406
g62
(dp1407
sg71
g1401
sg64
(lp1408
g57
(g58
g59
NtRp1409
(dp1410
g62
(dp1411
g70
I3
ssg71
g1405
sg64
(lp1412
S'127.0.0.1'
p1413
asbasbasbasbasbasbasbag57
(g73
g59
NtRp1414
(dp1415
g62
(dp1416
sg71
g847
sg64
(lp1417
g57
(g78
g59
NtRp1418
(dp1419
g62
(dp1420
g82
g83
ssg71
g1414
sg64
(lp1421
S'path_info'
p1422
asbag57
(g78
g59
NtRp1423
(dp1424
g62
(dp1425
g89
g90
ssg71
g1414
sg64
(lp1426
S':'
asbag57
(g78
g59
NtRp1427
(dp1428
g62
(dp1429
sg71
g1414
sg64
(lp1430
g57
(g58
g59
NtRp1431
(dp1432
g62
(dp1433
g70
I4
ssg71
g1427
sg64
(lp1434
S'/assignment2/default/changedetails'
p1435
asbasbasbag57
(g73
g59
NtRp1436
(dp1437
g62
(dp1438
sg71
g847
sg64
(lp1439
g57
(g78
g59
NtRp1440
(dp1441
g62
(dp1442
g82
g83
ssg71
g1436
sg64
(lp1443
S'query_string'
p1444
asbag57
(g78
g59
NtRp1445
(dp1446
g62
(dp1447
g89
g90
ssg71
g1436
sg64
(lp1448
S':'
asbag57
(g78
g59
NtRp1449
(dp1450
g62
(dp1451
sg71
g1436
sg64
(lp1452
g57
(g58
g59
NtRp1453
(dp1454
g62
(dp1455
g70
I4
ssg71
g1449
sg64
(lp1456
S'id=3'
p1457
asbasbasbag57
(g73
g59
NtRp1458
(dp1459
g62
(dp1460
sg71
g847
sg64
(lp1461
g57
(g78
g59
NtRp1462
(dp1463
g62
(dp1464
g82
g83
ssg71
g1458
sg64
(lp1465
S'remote_addr'
p1466
asbag57
(g78
g59
NtRp1467
(dp1468
g62
(dp1469
g89
g90
ssg71
g1458
sg64
(lp1470
S':'
asbag57
(g78
g59
NtRp1471
(dp1472
g62
(dp1473
sg71
g1458
sg64
(lp1474
g57
(g58
g59
NtRp1475
(dp1476
g62
(dp1477
g70
I4
ssg71
g1471
sg64
(lp1478
g212
asbasbasbag57
(g73
g59
NtRp1479
(dp1480
g62
(dp1481
sg71
g847
sg64
(lp1482
g57
(g78
g59
NtRp1483
(dp1484
g62
(dp1485
g82
g83
ssg71
g1479
sg64
(lp1486
S'remote_port'
p1487
asbag57
(g78
g59
NtRp1488
(dp1489
g62
(dp1490
g89
g90
ssg71
g1479
sg64
(lp1491
S':'
asbag57
(g78
g59
NtRp1492
(dp1493
g62
(dp1494
sg71
g1479
sg64
(lp1495
g57
(g58
g59
NtRp1496
(dp1497
g62
(dp1498
g70
I4
ssg71
g1492
sg64
(lp1499
S'59254'
p1500
asbasbasbag57
(g73
g59
NtRp1501
(dp1502
g62
(dp1503
sg71
g847
sg64
(lp1504
g57
(g78
g59
NtRp1505
(dp1506
g62
(dp1507
g82
g83
ssg71
g1501
sg64
(lp1508
S'request_method'
p1509
asbag57
(g78
g59
NtRp1510
(dp1511
g62
(dp1512
g89
g90
ssg71
g1501
sg64
(lp1513
S':'
asbag57
(g78
g59
NtRp1514
(dp1515
g62
(dp1516
sg71
g1501
sg64
(lp1517
g57
(g58
g59
NtRp1518
(dp1519
g62
(dp1520
g70
I4
ssg71
g1514
sg64
(lp1521
S'POST'
p1522
asbasbasbag57
(g73
g59
NtRp1523
(dp1524
g62
(dp1525
sg71
g847
sg64
(lp1526
g57
(g78
g59
NtRp1527
(dp1528
g62
(dp1529
g82
g83
ssg71
g1523
sg64
(lp1530
S'request_uri'
p1531
asbag57
(g78
g59
NtRp1532
(dp1533
g62
(dp1534
g89
g90
ssg71
g1523
sg64
(lp1535
S':'
asbag57
(g78
g59
NtRp1536
(dp1537
g62
(dp1538
sg71
g1523
sg64
(lp1539
g57
(g58
g59
NtRp1540
(dp1541
g62
(dp1542
g70
I4
ssg71
g1536
sg64
(lp1543
S'/assignment2/default/changedetails?id=3'
p1544
asbasbasbag57
(g73
g59
NtRp1545
(dp1546
g62
(dp1547
sg71
g847
sg64
(lp1548
g57
(g78
g59
NtRp1549
(dp1550
g62
(dp1551
g82
g83
ssg71
g1545
sg64
(lp1552
S'script_name'
p1553
asbag57
(g78
g59
NtRp1554
(dp1555
g62
(dp1556
g89
g90
ssg71
g1545
sg64
(lp1557
S':'
asbag57
(g78
g59
NtRp1558
(dp1559
g62
(dp1560
sg71
g1545
sg64
(lp1561
g57
(g58
g59
NtRp1562
(dp1563
g62
(dp1564
g70
I4
ssg71
g1558
sg64
(lp1565
S''
asbasbasbag57
(g73
g59
NtRp1566
(dp1567
g62
(dp1568
sg71
g847
sg64
(lp1569
g57
(g78
g59
NtRp1570
(dp1571
g62
(dp1572
g82
g83
ssg71
g1566
sg64
(lp1573
S'server_name'
p1574
asbag57
(g78
g59
NtRp1575
(dp1576
g62
(dp1577
g89
g90
ssg71
g1566
sg64
(lp1578
S':'
asbag57
(g78
g59
NtRp1579
(dp1580
g62
(dp1581
sg71
g1566
sg64
(lp1582
g57
(g58
g59
NtRp1583
(dp1584
g62
(dp1585
g70
I4
ssg71
g1579
sg64
(lp1586
S'ubuntu'
p1587
asbasbasbag57
(g73
g59
NtRp1588
(dp1589
g62
(dp1590
sg71
g847
sg64
(lp1591
g57
(g78
g59
NtRp1592
(dp1593
g62
(dp1594
g82
g83
ssg71
g1588
sg64
(lp1595
S'server_port'
p1596
asbag57
(g78
g59
NtRp1597
(dp1598
g62
(dp1599
g89
g90
ssg71
g1588
sg64
(lp1600
S':'
asbag57
(g78
g59
NtRp1601
(dp1602
g62
(dp1603
sg71
g1588
sg64
(lp1604
g57
(g58
g59
NtRp1605
(dp1606
g62
(dp1607
g70
I4
ssg71
g1601
sg64
(lp1608
S'8000'
p1609
asbasbasbag57
(g73
g59
NtRp1610
(dp1611
g62
(dp1612
sg71
g847
sg64
(lp1613
g57
(g78
g59
NtRp1614
(dp1615
g62
(dp1616
g82
g83
ssg71
g1610
sg64
(lp1617
S'server_protocol'
p1618
asbag57
(g78
g59
NtRp1619
(dp1620
g62
(dp1621
g89
g90
ssg71
g1610
sg64
(lp1622
S':'
asbag57
(g78
g59
NtRp1623
(dp1624
g62
(dp1625
sg71
g1610
sg64
(lp1626
g57
(g58
g59
NtRp1627
(dp1628
g62
(dp1629
g70
I4
ssg71
g1623
sg64
(lp1630
S'HTTP/1.1'
p1631
asbasbasbag57
(g73
g59
NtRp1632
(dp1633
g62
(dp1634
sg71
g847
sg64
(lp1635
g57
(g78
g59
NtRp1636
(dp1637
g62
(dp1638
g82
g83
ssg71
g1632
sg64
(lp1639
S'server_software'
p1640
asbag57
(g78
g59
NtRp1641
(dp1642
g62
(dp1643
g89
g90
ssg71
g1632
sg64
(lp1644
S':'
asbag57
(g78
g59
NtRp1645
(dp1646
g62
(dp1647
sg71
g1632
sg64
(lp1648
g57
(g58
g59
NtRp1649
(dp1650
g62
(dp1651
g70
I4
ssg71
g1645
sg64
(lp1652
S'Rocket 1.2.6'
p1653
asbasbasbag57
(g73
g59
NtRp1654
(dp1655
g62
(dp1656
sg71
g847
sg64
(lp1657
g57
(g78
g59
NtRp1658
(dp1659
g62
(dp1660
g82
g83
ssg71
g1654
sg64
(lp1661
S'web2py_path'
p1662
asbag57
(g78
g59
NtRp1663
(dp1664
g62
(dp1665
g89
g90
ssg71
g1654
sg64
(lp1666
S':'
asbag57
(g78
g59
NtRp1667
(dp1668
g62
(dp1669
sg71
g1654
sg64
(lp1670
g57
(g58
g59
NtRp1671
(dp1672
g62
(dp1673
g70
I4
ssg71
g1667
sg64
(lp1674
g894
asbasbasbag57
(g73
g59
NtRp1675
(dp1676
g62
(dp1677
sg71
g847
sg64
(lp1678
g57
(g78
g59
NtRp1679
(dp1680
g62
(dp1681
g82
g83
ssg71
g1675
sg64
(lp1682
S'web2py_version'
p1683
asbag57
(g78
g59
NtRp1684
(dp1685
g62
(dp1686
g89
g90
ssg71
g1675
sg64
(lp1687
S':'
asbag57
(g78
g59
NtRp1688
(dp1689
g62
(dp1690
sg71
g1675
sg64
(lp1691
g57
(g58
g59
NtRp1692
(dp1693
g62
(dp1694
g70
I4
ssg71
g1688
sg64
(lp1695
g57
(g66
g59
NtRp1696
(dp1697
g62
(dp1698
g70
I3
ssg71
Nsg64
(lp1699
g57
(g73
g59
NtRp1700
(dp1701
g62
(dp1702
sg71
g1696
sg64
(lp1703
g57
(g78
g59
NtRp1704
(dp1705
g62
(dp1706
sg71
g1700
sg64
(lp1707
g57
(g58
g59
NtRp1708
(dp1709
g62
(dp1710
g70
I3
ssg71
g1704
sg64
(lp1711
S'2'
asbasbasbag57
(g73
g59
NtRp1712
(dp1713
g62
(dp1714
sg71
g1696
sg64
(lp1715
g57
(g78
g59
NtRp1716
(dp1717
g62
(dp1718
sg71
g1712
sg64
(lp1719
g57
(g58
g59
NtRp1720
(dp1721
g62
(dp1722
g70
I3
ssg71
g1716
sg64
(lp1723
S'3'
asbasbasbag57
(g73
g59
NtRp1724
(dp1725
g62
(dp1726
sg71
g1696
sg64
(lp1727
g57
(g78
g59
NtRp1728
(dp1729
g62
(dp1730
sg71
g1724
sg64
(lp1731
g57
(g58
g59
NtRp1732
(dp1733
g62
(dp1734
g70
I3
ssg71
g1728
sg64
(lp1735
S'2'
asbasbasbag57
(g73
g59
NtRp1736
(dp1737
g62
(dp1738
sg71
g1696
sg64
(lp1739
g57
(g78
g59
NtRp1740
(dp1741
g62
(dp1742
sg71
g1736
sg64
(lp1743
g57
(g58
g59
NtRp1744
(dp1745
g62
(dp1746
g70
I3
ssg71
g1740
sg64
(lp1747
S'datetime.datetime(2012, 12, 17, 15, 3, 30)'
p1748
asbasbasbag57
(g73
g59
NtRp1749
(dp1750
g62
(dp1751
sg71
g1696
sg64
(lp1752
g57
(g78
g59
NtRp1753
(dp1754
g62
(dp1755
sg71
g1749
sg64
(lp1756
g57
(g58
g59
NtRp1757
(dp1758
g62
(dp1759
g70
I3
ssg71
g1753
sg64
(lp1760
S'stable'
p1761
asbasbasbasbasbasbasbag57
(g73
g59
NtRp1762
(dp1763
g62
(dp1764
sg71
g847
sg64
(lp1765
g57
(g78
g59
NtRp1766
(dp1767
g62
(dp1768
g82
g83
ssg71
g1762
sg64
(lp1769
S'wsgi_errors'
p1770
asbag57
(g78
g59
NtRp1771
(dp1772
g62
(dp1773
g89
g90
ssg71
g1762
sg64
(lp1774
S':'
asbag57
(g78
g59
NtRp1775
(dp1776
g62
(dp1777
sg71
g1762
sg64
(lp1778
g57
(g58
g59
NtRp1779
(dp1780
g62
(dp1781
g70
I4
ssg71
g1775
sg64
(lp1782
S"<open file '<stderr>', mode 'w' at 0xb727d0d0>"
p1783
asbasbasbag57
(g73
g59
NtRp1784
(dp1785
g62
(dp1786
sg71
g847
sg64
(lp1787
g57
(g78
g59
NtRp1788
(dp1789
g62
(dp1790
g82
g83
ssg71
g1784
sg64
(lp1791
S'wsgi_file_wrapper'
p1792
asbag57
(g78
g59
NtRp1793
(dp1794
g62
(dp1795
g89
g90
ssg71
g1784
sg64
(lp1796
S':'
asbag57
(g78
g59
NtRp1797
(dp1798
g62
(dp1799
sg71
g1784
sg64
(lp1800
g57
(g58
g59
NtRp1801
(dp1802
g62
(dp1803
g70
I4
ssg71
g1797
sg64
(lp1804
S'<class wsgiref.util.FileWrapper at 0x9a9465c>'
p1805
asbasbasbag57
(g73
g59
NtRp1806
(dp1807
g62
(dp1808
sg71
g847
sg64
(lp1809
g57
(g78
g59
NtRp1810
(dp1811
g62
(dp1812
g82
g83
ssg71
g1806
sg64
(lp1813
S'wsgi_input'
p1814
asbag57
(g78
g59
NtRp1815
(dp1816
g62
(dp1817
g89
g90
ssg71
g1806
sg64
(lp1818
S':'
asbag57
(g78
g59
NtRp1819
(dp1820
g62
(dp1821
sg71
g1806
sg64
(lp1822
g57
(g58
g59
NtRp1823
(dp1824
g62
(dp1825
g70
I4
ssg71
g1819
sg64
(lp1826
S'<socket._fileobject object at 0xad99b0ec>'
p1827
asbasbasbag57
(g73
g59
NtRp1828
(dp1829
g62
(dp1830
sg71
g847
sg64
(lp1831
g57
(g78
g59
NtRp1832
(dp1833
g62
(dp1834
g82
g83
ssg71
g1828
sg64
(lp1835
S'wsgi_multiprocess'
p1836
asbag57
(g78
g59
NtRp1837
(dp1838
g62
(dp1839
g89
g90
ssg71
g1828
sg64
(lp1840
S':'
asbag57
(g78
g59
NtRp1841
(dp1842
g62
(dp1843
sg71
g1828
sg64
(lp1844
g57
(g58
g59
NtRp1845
(dp1846
g62
(dp1847
g70
I4
ssg71
g1841
sg64
(lp1848
g100
asbasbasbag57
(g73
g59
NtRp1849
(dp1850
g62
(dp1851
sg71
g847
sg64
(lp1852
g57
(g78
g59
NtRp1853
(dp1854
g62
(dp1855
g82
g83
ssg71
g1849
sg64
(lp1856
S'wsgi_multithread'
p1857
asbag57
(g78
g59
NtRp1858
(dp1859
g62
(dp1860
g89
g90
ssg71
g1849
sg64
(lp1861
S':'
asbag57
(g78
g59
NtRp1862
(dp1863
g62
(dp1864
sg71
g1849
sg64
(lp1865
g57
(g58
g59
NtRp1866
(dp1867
g62
(dp1868
g70
I4
ssg71
g1862
sg64
(lp1869
S'True'
p1870
asbasbasbag57
(g73
g59
NtRp1871
(dp1872
g62
(dp1873
sg71
g847
sg64
(lp1874
g57
(g78
g59
NtRp1875
(dp1876
g62
(dp1877
g82
g83
ssg71
g1871
sg64
(lp1878
S'wsgi_run_once'
p1879
asbag57
(g78
g59
NtRp1880
(dp1881
g62
(dp1882
g89
g90
ssg71
g1871
sg64
(lp1883
S':'
asbag57
(g78
g59
NtRp1884
(dp1885
g62
(dp1886
sg71
g1871
sg64
(lp1887
g57
(g58
g59
NtRp1888
(dp1889
g62
(dp1890
g70
I4
ssg71
g1884
sg64
(lp1891
g100
asbasbasbag57
(g73
g59
NtRp1892
(dp1893
g62
(dp1894
sg71
g847
sg64
(lp1895
g57
(g78
g59
NtRp1896
(dp1897
g62
(dp1898
g82
g83
ssg71
g1892
sg64
(lp1899
S'wsgi_url_scheme'
p1900
asbag57
(g78
g59
NtRp1901
(dp1902
g62
(dp1903
g89
g90
ssg71
g1892
sg64
(lp1904
S':'
asbag57
(g78
g59
NtRp1905
(dp1906
g62
(dp1907
sg71
g1892
sg64
(lp1908
g57
(g58
g59
NtRp1909
(dp1910
g62
(dp1911
g70
I4
ssg71
g1905
sg64
(lp1912
S'http'
p1913
asbasbasbag57
(g73
g59
NtRp1914
(dp1915
g62
(dp1916
sg71
g847
sg64
(lp1917
g57
(g78
g59
NtRp1918
(dp1919
g62
(dp1920
g82
g83
ssg71
g1914
sg64
(lp1921
S'wsgi_version'
p1922
asbag57
(g78
g59
NtRp1923
(dp1924
g62
(dp1925
g89
g90
ssg71
g1914
sg64
(lp1926
S':'
asbag57
(g78
g59
NtRp1927
(dp1928
g62
(dp1929
sg71
g1914
sg64
(lp1930
g57
(g58
g59
NtRp1931
(dp1932
g62
(dp1933
g70
I4
ssg71
g1927
sg64
(lp1934
g57
(g66
g59
NtRp1935
(dp1936
g62
(dp1937
g70
I3
ssg71
Nsg64
(lp1938
g57
(g73
g59
NtRp1939
(dp1940
g62
(dp1941
sg71
g1935
sg64
(lp1942
g57
(g78
g59
NtRp1943
(dp1944
g62
(dp1945
sg71
g1939
sg64
(lp1946
g57
(g58
g59
NtRp1947
(dp1948
g62
(dp1949
g70
I3
ssg71
g1943
sg64
(lp1950
S'1'
asbasbasbag57
(g73
g59
NtRp1951
(dp1952
g62
(dp1953
sg71
g1935
sg64
(lp1954
g57
(g78
g59
NtRp1955
(dp1956
g62
(dp1957
sg71
g1951
sg64
(lp1958
g57
(g58
g59
NtRp1959
(dp1960
g62
(dp1961
g70
I3
ssg71
g1955
sg64
(lp1962
S'0'
asbasbasbasbasbasbasbasbasbasbasbag57
(g73
g59
NtRp1963
(dp1964
g62
(dp1965
sg71
g67
sg64
(lp1966
g57
(g78
g59
NtRp1967
(dp1968
g62
(dp1969
g82
g83
ssg71
g1963
sg64
(lp1970
S'extension'
p1971
asbag57
(g78
g59
NtRp1972
(dp1973
g62
(dp1974
g89
g90
ssg71
g1963
sg64
(lp1975
S':'
asbag57
(g78
g59
NtRp1976
(dp1977
g62
(dp1978
sg71
g1963
sg64
(lp1979
g57
(g58
g59
NtRp1980
(dp1981
g62
(dp1982
g70
I5
ssg71
g1976
sg64
(lp1983
S'html'
p1984
asbasbasbag57
(g73
g59
NtRp1985
(dp1986
g62
(dp1987
sg71
g67
sg64
(lp1988
g57
(g78
g59
NtRp1989
(dp1990
g62
(dp1991
g82
g83
ssg71
g1985
sg64
(lp1992
S'folder'
p1993
asbag57
(g78
g59
NtRp1994
(dp1995
g62
(dp1996
g89
g90
ssg71
g1985
sg64
(lp1997
S':'
asbag57
(g78
g59
NtRp1998
(dp1999
g62
(dp2000
sg71
g1985
sg64
(lp2001
g57
(g58
g59
NtRp2002
(dp2003
g62
(dp2004
g70
I5
ssg71
g1998
sg64
(lp2005
S'/home/aditi/Desktop/web2py/applications/assignment2/'
p2006
asbasbasbag57
(g73
g59
NtRp2007
(dp2008
g62
(dp2009
sg71
g67
sg64
(lp2010
g57
(g78
g59
NtRp2011
(dp2012
g62
(dp2013
g82
g83
ssg71
g2007
sg64
(lp2014
S'function'
p2015
asbag57
(g78
g59
NtRp2016
(dp2017
g62
(dp2018
g89
g90
ssg71
g2007
sg64
(lp2019
S':'
asbag57
(g78
g59
NtRp2020
(dp2021
g62
(dp2022
sg71
g2007
sg64
(lp2023
g57
(g58
g59
NtRp2024
(dp2025
g62
(dp2026
g70
I5
ssg71
g2020
sg64
(lp2027
S'changedetails'
p2028
asbasbasbag57
(g73
g59
NtRp2029
(dp2030
g62
(dp2031
sg71
g67
sg64
(lp2032
g57
(g78
g59
NtRp2033
(dp2034
g62
(dp2035
g82
g83
ssg71
g2029
sg64
(lp2036
S'get_vars'
p2037
asbag57
(g78
g59
NtRp2038
(dp2039
g62
(dp2040
g89
g90
ssg71
g2029
sg64
(lp2041
S':'
asbag57
(g78
g59
NtRp2042
(dp2043
g62
(dp2044
sg71
g2029
sg64
(lp2045
g57
(g58
g59
NtRp2046
(dp2047
g62
(dp2048
g70
I5
ssg71
g2042
sg64
(lp2049
g57
(g66
g59
NtRp2050
(dp2051
g62
(dp2052
g70
I4
ssg71
Nsg64
(lp2053
g57
(g73
g59
NtRp2054
(dp2055
g62
(dp2056
sg71
g2050
sg64
(lp2057
g57
(g78
g59
NtRp2058
(dp2059
g62
(dp2060
g82
g83
ssg71
g2054
sg64
(lp2061
S'id'
p2062
asbag57
(g78
g59
NtRp2063
(dp2064
g62
(dp2065
g89
g90
ssg71
g2054
sg64
(lp2066
S':'
asbag57
(g78
g59
NtRp2067
(dp2068
g62
(dp2069
sg71
g2054
sg64
(lp2070
g57
(g58
g59
NtRp2071
(dp2072
g62
(dp2073
g70
I4
ssg71
g2067
sg64
(lp2074
S'3'
asbasbasbasbasbasbasbag57
(g73
g59
NtRp2075
(dp2076
g62
(dp2077
sg71
g67
sg64
(lp2078
g57
(g78
g59
NtRp2079
(dp2080
g62
(dp2081
g82
g83
ssg71
g2075
sg64
(lp2082
S'global_settings'
p2083
asbag57
(g78
g59
NtRp2084
(dp2085
g62
(dp2086
g89
g90
ssg71
g2075
sg64
(lp2087
S':'
asbag57
(g78
g59
NtRp2088
(dp2089
g62
(dp2090
sg71
g2075
sg64
(lp2091
g57
(g58
g59
NtRp2092
(dp2093
g62
(dp2094
g70
I5
ssg71
g2088
sg64
(lp2095
g57
(g66
g59
NtRp2096
(dp2097
g62
(dp2098
g70
I4
ssg71
Nsg64
(lp2099
g57
(g73
g59
NtRp2100
(dp2101
g62
(dp2102
sg71
g2096
sg64
(lp2103
g57
(g78
g59
NtRp2104
(dp2105
g62
(dp2106
g82
g83
ssg71
g2100
sg64
(lp2107
g859
asbag57
(g78
g59
NtRp2108
(dp2109
g62
(dp2110
g89
g90
ssg71
g2100
sg64
(lp2111
S':'
asbag57
(g78
g59
NtRp2112
(dp2113
g62
(dp2114
sg71
g2100
sg64
(lp2115
g57
(g58
g59
NtRp2116
(dp2117
g62
(dp2118
g70
I4
ssg71
g2112
sg64
(lp2119
S"set(['/home/aditi/Desktop/web2py/applications/assignment2/', '/home/aditi/Desktop/web2py/applications/admin/', '/home/aditi/Desktop/web2py/applications/welcome/'])"
p2120
asbasbasbag57
(g73
g59
NtRp2121
(dp2122
g62
(dp2123
sg71
g2096
sg64
(lp2124
g57
(g78
g59
NtRp2125
(dp2126
g62
(dp2127
g82
g83
ssg71
g2121
sg64
(lp2128
g881
asbag57
(g78
g59
NtRp2129
(dp2130
g62
(dp2131
g89
g90
ssg71
g2121
sg64
(lp2132
S':'
asbag57
(g78
g59
NtRp2133
(dp2134
g62
(dp2135
sg71
g2121
sg64
(lp2136
g57
(g58
g59
NtRp2137
(dp2138
g62
(dp2139
g70
I4
ssg71
g2133
sg64
(lp2140
g894
asbasbasbag57
(g73
g59
NtRp2141
(dp2142
g62
(dp2143
sg71
g2096
sg64
(lp2144
g57
(g78
g59
NtRp2145
(dp2146
g62
(dp2147
g82
g83
ssg71
g2141
sg64
(lp2148
g903
asbag57
(g78
g59
NtRp2149
(dp2150
g62
(dp2151
g89
g90
ssg71
g2141
sg64
(lp2152
S':'
asbag57
(g78
g59
NtRp2153
(dp2154
g62
(dp2155
sg71
g2141
sg64
(lp2156
g57
(g58
g59
NtRp2157
(dp2158
g62
(dp2159
g70
I4
ssg71
g2153
sg64
(lp2160
g57
(g66
g59
NtRp2161
(dp2162
g62
(dp2163
g70
I3
ssg71
Nsg64
(lp2164
sbasbasbasbag57
(g73
g59
NtRp2165
(dp2166
g62
(dp2167
sg71
g2096
sg64
(lp2168
g57
(g78
g59
NtRp2169
(dp2170
g62
(dp2171
g82
g83
ssg71
g2165
sg64
(lp2172
g928
asbag57
(g78
g59
NtRp2173
(dp2174
g62
(dp2175
g89
g90
ssg71
g2165
sg64
(lp2176
S':'
asbag57
(g78
g59
NtRp2177
(dp2178
g62
(dp2179
sg71
g2165
sg64
(lp2180
g57
(g58
g59
NtRp2181
(dp2182
g62
(dp2183
g70
I4
ssg71
g2177
sg64
(lp2184
S"<Values at 0x9ad8a0c: {'verbose': False, 'ip': '127.0.0.1', 'with_scheduler': False, 'ips': [], 'shutdown_timeout': 5, 'taskbar': False, 'port': 8000, 'maxthreads': None, 'softcron': False, 'server_name': 'ubuntu', 'bpython': False, 'nogui': False, 'pid_filename': 'httpserver.pid', 'extcron': False, 'runcron': False, 'run_system_tests': False, 'test': None, 'folder': '/home/aditi/Desktop/web2py', 'config': '', 'import_models': False, 'winservice': '', 'shell': None, 'run': '', 'log_filename': 'httpserver.log', 'debuglevel': 30, 'args': [''], 'socket_timeout': 5, 'ssl_ca_certificate': None, 'scheduler': None, 'profiler_filename': None, 'ssl_private_key': '', 'scheduler_groups': None, 'password': '<ask>', 'request_queue_size': 5, 'ssl_certificate': '', 'cronjob': False, 'numthreads': None, 'quiet': False, 'interfaces': None, 'minthreads': None, 'timeout': 10, 'plain': False, 'nobanner': False}>"
p2185
asbasbasbag57
(g73
g59
NtRp2186
(dp2187
g62
(dp2188
sg71
g2096
sg64
(lp2189
g57
(g78
g59
NtRp2190
(dp2191
g62
(dp2192
g82
g83
ssg71
g2186
sg64
(lp2193
g994
asbag57
(g78
g59
NtRp2194
(dp2195
g62
(dp2196
g89
g90
ssg71
g2186
sg64
(lp2197
S':'
asbag57
(g78
g59
NtRp2198
(dp2199
g62
(dp2200
sg71
g2186
sg64
(lp2201
g57
(g58
g59
NtRp2202
(dp2203
g62
(dp2204
g70
I4
ssg71
g2198
sg64
(lp2205
S'set([])'
p2206
asbasbasbag57
(g73
g59
NtRp2207
(dp2208
g62
(dp2209
sg71
g2096
sg64
(lp2210
g57
(g78
g59
NtRp2211
(dp2212
g62
(dp2213
g82
g83
ssg71
g2207
sg64
(lp2214
g1016
asbag57
(g78
g59
NtRp2215
(dp2216
g62
(dp2217
g89
g90
ssg71
g2207
sg64
(lp2218
S':'
asbag57
(g78
g59
NtRp2219
(dp2220
g62
(dp2221
sg71
g2207
sg64
(lp2222
g57
(g58
g59
NtRp2223
(dp2224
g62
(dp2225
g70
I4
ssg71
g2219
sg64
(lp2226
g100
asbasbasbag57
(g73
g59
NtRp2227
(dp2228
g62
(dp2229
sg71
g2096
sg64
(lp2230
g57
(g78
g59
NtRp2231
(dp2232
g62
(dp2233
g82
g83
ssg71
g2227
sg64
(lp2234
g1037
asbag57
(g78
g59
NtRp2235
(dp2236
g62
(dp2237
g89
g90
ssg71
g2227
sg64
(lp2238
S':'
asbag57
(g78
g59
NtRp2239
(dp2240
g62
(dp2241
sg71
g2227
sg64
(lp2242
g57
(g58
g59
NtRp2243
(dp2244
g62
(dp2245
g70
I4
ssg71
g2239
sg64
(lp2246
g1050
asbasbasbag57
(g73
g59
NtRp2247
(dp2248
g62
(dp2249
sg71
g2096
sg64
(lp2250
g57
(g78
g59
NtRp2251
(dp2252
g62
(dp2253
g82
g83
ssg71
g2247
sg64
(lp2254
g1277
asbag57
(g78
g59
NtRp2255
(dp2256
g62
(dp2257
g89
g90
ssg71
g2247
sg64
(lp2258
S':'
asbag57
(g78
g59
NtRp2259
(dp2260
g62
(dp2261
sg71
g2247
sg64
(lp2262
g57
(g58
g59
NtRp2263
(dp2264
g62
(dp2265
g70
I4
ssg71
g2259
sg64
(lp2266
g100
asbasbasbag57
(g73
g59
NtRp2267
(dp2268
g62
(dp2269
sg71
g2096
sg64
(lp2270
g57
(g78
g59
NtRp2271
(dp2272
g62
(dp2273
g82
g83
ssg71
g2267
sg64
(lp2274
g1298
asbag57
(g78
g59
NtRp2275
(dp2276
g62
(dp2277
g89
g90
ssg71
g2267
sg64
(lp2278
S':'
asbag57
(g78
g59
NtRp2279
(dp2280
g62
(dp2281
sg71
g2267
sg64
(lp2282
g57
(g58
g59
NtRp2283
(dp2284
g62
(dp2285
g70
I4
ssg71
g2279
sg64
(lp2286
g100
asbasbasbag57
(g73
g59
NtRp2287
(dp2288
g62
(dp2289
sg71
g2096
sg64
(lp2290
g57
(g78
g59
NtRp2291
(dp2292
g62
(dp2293
g82
g83
ssg71
g2287
sg64
(lp2294
g1319
asbag57
(g78
g59
NtRp2295
(dp2296
g62
(dp2297
g89
g90
ssg71
g2287
sg64
(lp2298
S':'
asbag57
(g78
g59
NtRp2299
(dp2300
g62
(dp2301
sg71
g2287
sg64
(lp2302
g57
(g58
g59
NtRp2303
(dp2304
g62
(dp2305
g70
I4
ssg71
g2299
sg64
(lp2306
g57
(g66
g59
NtRp2307
(dp2308
g62
(dp2309
g70
I3
ssg71
Nsg64
(lp2310
g57
(g73
g59
NtRp2311
(dp2312
g62
(dp2313
sg71
g2307
sg64
(lp2314
g57
(g78
g59
NtRp2315
(dp2316
g62
(dp2317
sg71
g2311
sg64
(lp2318
g57
(g58
g59
NtRp2319
(dp2320
g62
(dp2321
g70
I3
ssg71
g2315
sg64
(lp2322
g1348
asbasbasbag57
(g73
g59
NtRp2323
(dp2324
g62
(dp2325
sg71
g2307
sg64
(lp2326
g57
(g78
g59
NtRp2327
(dp2328
g62
(dp2329
sg71
g2323
sg64
(lp2330
g57
(g58
g59
NtRp2331
(dp2332
g62
(dp2333
g70
I3
ssg71
g2327
sg64
(lp2334
g1361
asbasbasbag57
(g73
g59
NtRp2335
(dp2336
g62
(dp2337
sg71
g2307
sg64
(lp2338
g57
(g78
g59
NtRp2339
(dp2340
g62
(dp2341
sg71
g2335
sg64
(lp2342
g57
(g58
g59
NtRp2343
(dp2344
g62
(dp2345
g70
I3
ssg71
g2339
sg64
(lp2346
g1374
asbasbasbag57
(g73
g59
NtRp2347
(dp2348
g62
(dp2349
sg71
g2307
sg64
(lp2350
g57
(g78
g59
NtRp2351
(dp2352
g62
(dp2353
sg71
g2347
sg64
(lp2354
g57
(g58
g59
NtRp2355
(dp2356
g62
(dp2357
g70
I3
ssg71
g2351
sg64
(lp2358
g1387
asbasbasbag57
(g73
g59
NtRp2359
(dp2360
g62
(dp2361
sg71
g2307
sg64
(lp2362
g57
(g78
g59
NtRp2363
(dp2364
g62
(dp2365
sg71
g2359
sg64
(lp2366
g57
(g58
g59
NtRp2367
(dp2368
g62
(dp2369
g70
I3
ssg71
g2363
sg64
(lp2370
g1400
asbasbasbag57
(g73
g59
NtRp2371
(dp2372
g62
(dp2373
sg71
g2307
sg64
(lp2374
g57
(g78
g59
NtRp2375
(dp2376
g62
(dp2377
sg71
g2371
sg64
(lp2378
g57
(g58
g59
NtRp2379
(dp2380
g62
(dp2381
g70
I3
ssg71
g2375
sg64
(lp2382
g1413
asbasbasbasbasbasbasbag57
(g73
g59
NtRp2383
(dp2384
g62
(dp2385
sg71
g2096
sg64
(lp2386
g57
(g78
g59
NtRp2387
(dp2388
g62
(dp2389
g82
g83
ssg71
g2383
sg64
(lp2390
g1683
asbag57
(g78
g59
NtRp2391
(dp2392
g62
(dp2393
g89
g90
ssg71
g2383
sg64
(lp2394
S':'
asbag57
(g78
g59
NtRp2395
(dp2396
g62
(dp2397
sg71
g2383
sg64
(lp2398
g57
(g58
g59
NtRp2399
(dp2400
g62
(dp2401
g70
I4
ssg71
g2395
sg64
(lp2402
g57
(g66
g59
NtRp2403
(dp2404
g62
(dp2405
g70
I3
ssg71
Nsg64
(lp2406
g57
(g73
g59
NtRp2407
(dp2408
g62
(dp2409
sg71
g2403
sg64
(lp2410
g57
(g78
g59
NtRp2411
(dp2412
g62
(dp2413
sg71
g2407
sg64
(lp2414
g57
(g58
g59
NtRp2415
(dp2416
g62
(dp2417
g70
I3
ssg71
g2411
sg64
(lp2418
S'2'
asbasbasbag57
(g73
g59
NtRp2419
(dp2420
g62
(dp2421
sg71
g2403
sg64
(lp2422
g57
(g78
g59
NtRp2423
(dp2424
g62
(dp2425
sg71
g2419
sg64
(lp2426
g57
(g58
g59
NtRp2427
(dp2428
g62
(dp2429
g70
I3
ssg71
g2423
sg64
(lp2430
S'3'
asbasbasbag57
(g73
g59
NtRp2431
(dp2432
g62
(dp2433
sg71
g2403
sg64
(lp2434
g57
(g78
g59
NtRp2435
(dp2436
g62
(dp2437
sg71
g2431
sg64
(lp2438
g57
(g58
g59
NtRp2439
(dp2440
g62
(dp2441
g70
I3
ssg71
g2435
sg64
(lp2442
S'2'
asbasbasbag57
(g73
g59
NtRp2443
(dp2444
g62
(dp2445
sg71
g2403
sg64
(lp2446
g57
(g78
g59
NtRp2447
(dp2448
g62
(dp2449
sg71
g2443
sg64
(lp2450
g57
(g58
g59
NtRp2451
(dp2452
g62
(dp2453
g70
I3
ssg71
g2447
sg64
(lp2454
S'datetime.datetime(2012, 12, 17, 15, 3, 30)'
p2455
asbasbasbag57
(g73
g59
NtRp2456
(dp2457
g62
(dp2458
sg71
g2403
sg64
(lp2459
g57
(g78
g59
NtRp2460
(dp2461
g62
(dp2462
sg71
g2456
sg64
(lp2463
g57
(g58
g59
NtRp2464
(dp2465
g62
(dp2466
g70
I3
ssg71
g2460
sg64
(lp2467
g1761
asbasbasbasbasbasbasbasbasbasbasbag57
(g73
g59
NtRp2468
(dp2469
g62
(dp2470
sg71
g67
sg64
(lp2471
g57
(g78
g59
NtRp2472
(dp2473
g62
(dp2474
g82
g83
ssg71
g2468
sg64
(lp2475
S'is_https'
p2476
asbag57
(g78
g59
NtRp2477
(dp2478
g62
(dp2479
g89
g90
ssg71
g2468
sg64
(lp2480
S':'
asbag57
(g78
g59
NtRp2481
(dp2482
g62
(dp2483
sg71
g2468
sg64
(lp2484
g57
(g58
g59
NtRp2485
(dp2486
g62
(dp2487
g70
I5
ssg71
g2481
sg64
(lp2488
g100
asbasbasbag57
(g73
g59
NtRp2489
(dp2490
g62
(dp2491
sg71
g67
sg64
(lp2492
g57
(g78
g59
NtRp2493
(dp2494
g62
(dp2495
g82
g83
ssg71
g2489
sg64
(lp2496
S'is_local'
p2497
asbag57
(g78
g59
NtRp2498
(dp2499
g62
(dp2500
g89
g90
ssg71
g2489
sg64
(lp2501
S':'
asbag57
(g78
g59
NtRp2502
(dp2503
g62
(dp2504
sg71
g2489
sg64
(lp2505
g57
(g58
g59
NtRp2506
(dp2507
g62
(dp2508
g70
I5
ssg71
g2502
sg64
(lp2509
g1870
asbasbasbag57
(g73
g59
NtRp2510
(dp2511
g62
(dp2512
sg71
g67
sg64
(lp2513
g57
(g78
g59
NtRp2514
(dp2515
g62
(dp2516
g82
g83
ssg71
g2510
sg64
(lp2517
S'is_restful'
p2518
asbag57
(g78
g59
NtRp2519
(dp2520
g62
(dp2521
g89
g90
ssg71
g2510
sg64
(lp2522
S':'
asbag57
(g78
g59
NtRp2523
(dp2524
g62
(dp2525
sg71
g2510
sg64
(lp2526
g57
(g58
g59
NtRp2527
(dp2528
g62
(dp2529
g70
I5
ssg71
g2523
sg64
(lp2530
g100
asbasbasbag57
(g73
g59
NtRp2531
(dp2532
g62
(dp2533
sg71
g67
sg64
(lp2534
g57
(g78
g59
NtRp2535
(dp2536
g62
(dp2537
g82
g83
ssg71
g2531
sg64
(lp2538
S'now'
p2539
asbag57
(g78
g59
NtRp2540
(dp2541
g62
(dp2542
g89
g90
ssg71
g2531
sg64
(lp2543
S':'
asbag57
(g78
g59
NtRp2544
(dp2545
g62
(dp2546
sg71
g2531
sg64
(lp2547
g57
(g58
g59
NtRp2548
(dp2549
g62
(dp2550
g70
I5
ssg71
g2544
sg64
(lp2551
S'datetime.datetime(2013, 8, 27, 15, 13, 42, 908620)'
p2552
asbasbasbag57
(g73
g59
NtRp2553
(dp2554
g62
(dp2555
sg71
g67
sg64
(lp2556
g57
(g78
g59
NtRp2557
(dp2558
g62
(dp2559
g82
g83
ssg71
g2553
sg64
(lp2560
S'post_vars'
p2561
asbag57
(g78
g59
NtRp2562
(dp2563
g62
(dp2564
g89
g90
ssg71
g2553
sg64
(lp2565
S':'
asbag57
(g78
g59
NtRp2566
(dp2567
g62
(dp2568
sg71
g2553
sg64
(lp2569
g57
(g58
g59
NtRp2570
(dp2571
g62
(dp2572
g70
I5
ssg71
g2566
sg64
(lp2573
g57
(g66
g59
NtRp2574
(dp2575
g62
(dp2576
g70
I4
ssg71
Nsg64
(lp2577
g57
(g73
g59
NtRp2578
(dp2579
g62
(dp2580
sg71
g2574
sg64
(lp2581
g57
(g78
g59
NtRp2582
(dp2583
g62
(dp2584
g82
g83
ssg71
g2578
sg64
(lp2585
S'URL'
p2586
asbag57
(g78
g59
NtRp2587
(dp2588
g62
(dp2589
g89
g90
ssg71
g2578
sg64
(lp2590
S':'
asbag57
(g78
g59
NtRp2591
(dp2592
g62
(dp2593
sg71
g2578
sg64
(lp2594
g57
(g58
g59
NtRp2595
(dp2596
g62
(dp2597
g70
I4
ssg71
g2591
sg64
(lp2598
S'http://www.indiaunimagined.com/101-interesting-facts-about-india/'
p2599
asbasbasbag57
(g73
g59
NtRp2600
(dp2601
g62
(dp2602
sg71
g2574
sg64
(lp2603
g57
(g78
g59
NtRp2604
(dp2605
g62
(dp2606
g82
g83
ssg71
g2600
sg64
(lp2607
S'category'
p2608
asbag57
(g78
g59
NtRp2609
(dp2610
g62
(dp2611
g89
g90
ssg71
g2600
sg64
(lp2612
S':'
asbag57
(g78
g59
NtRp2613
(dp2614
g62
(dp2615
sg71
g2600
sg64
(lp2616
g57
(g58
g59
NtRp2617
(dp2618
g62
(dp2619
g70
I4
ssg71
g2613
sg64
(lp2620
S'india'
p2621
asbasbasbag57
(g73
g59
NtRp2622
(dp2623
g62
(dp2624
sg71
g2574
sg64
(lp2625
g57
(g78
g59
NtRp2626
(dp2627
g62
(dp2628
g82
g83
ssg71
g2622
sg64
(lp2629
S'choice'
p2630
asbag57
(g78
g59
NtRp2631
(dp2632
g62
(dp2633
g89
g90
ssg71
g2622
sg64
(lp2634
S':'
asbag57
(g78
g59
NtRp2635
(dp2636
g62
(dp2637
sg71
g2622
sg64
(lp2638
g57
(g58
g59
NtRp2639
(dp2640
g62
(dp2641
g70
I4
ssg71
g2635
sg64
(lp2642
S'article'
p2643
asbasbasbag57
(g73
g59
NtRp2644
(dp2645
g62
(dp2646
sg71
g2574
sg64
(lp2647
g57
(g78
g59
NtRp2648
(dp2649
g62
(dp2650
g82
g83
ssg71
g2644
sg64
(lp2651
S'heading'
p2652
asbag57
(g78
g59
NtRp2653
(dp2654
g62
(dp2655
g89
g90
ssg71
g2644
sg64
(lp2656
S':'
asbag57
(g78
g59
NtRp2657
(dp2658
g62
(dp2659
sg71
g2644
sg64
(lp2660
g57
(g58
g59
NtRp2661
(dp2662
g62
(dp2663
g70
I4
ssg71
g2657
sg64
(lp2664
S'101 Interesting facts about India'
p2665
asbasbasbasbasbasbasbag57
(g73
g59
NtRp2666
(dp2667
g62
(dp2668
sg71
g67
sg64
(lp2669
g57
(g78
g59
NtRp2670
(dp2671
g62
(dp2672
g82
g83
ssg71
g2666
sg64
(lp2673
S'raw_args'
p2674
asbag57
(g78
g59
NtRp2675
(dp2676
g62
(dp2677
g89
g90
ssg71
g2666
sg64
(lp2678
S':'
asbag57
(g78
g59
NtRp2679
(dp2680
g62
(dp2681
sg71
g2666
sg64
(lp2682
g57
(g58
g59
NtRp2683
(dp2684
g62
(dp2685
g70
I5
ssg71
g2679
sg64
(lp2686
S''
asbasbasbag57
(g73
g59
NtRp2687
(dp2688
g62
(dp2689
sg71
g67
sg64
(lp2690
g57
(g78
g59
NtRp2691
(dp2692
g62
(dp2693
g82
g83
ssg71
g2687
sg64
(lp2694
S'raw_extension'
p2695
asbag57
(g78
g59
NtRp2696
(dp2697
g62
(dp2698
g89
g90
ssg71
g2687
sg64
(lp2699
S':'
asbag57
(g78
g59
NtRp2700
(dp2701
g62
(dp2702
sg71
g2687
sg64
(lp2703
g57
(g58
g59
NtRp2704
(dp2705
g62
(dp2706
g70
I5
ssg71
g2700
sg64
(lp2707
S'None'
p2708
asbasbasbag57
(g73
g59
NtRp2709
(dp2710
g62
(dp2711
sg71
g67
sg64
(lp2712
g57
(g78
g59
NtRp2713
(dp2714
g62
(dp2715
g82
g83
ssg71
g2709
sg64
(lp2716
S'url'
p2717
asbag57
(g78
g59
NtRp2718
(dp2719
g62
(dp2720
g89
g90
ssg71
g2709
sg64
(lp2721
S':'
asbag57
(g78
g59
NtRp2722
(dp2723
g62
(dp2724
sg71
g2709
sg64
(lp2725
g57
(g58
g59
NtRp2726
(dp2727
g62
(dp2728
g70
I5
ssg71
g2722
sg64
(lp2729
g1435
asbasbasbag57
(g73
g59
NtRp2730
(dp2731
g62
(dp2732
sg71
g67
sg64
(lp2733
g57
(g78
g59
NtRp2734
(dp2735
g62
(dp2736
g82
g83
ssg71
g2730
sg64
(lp2737
S'utcnow'
p2738
asbag57
(g78
g59
NtRp2739
(dp2740
g62
(dp2741
g89
g90
ssg71
g2730
sg64
(lp2742
S':'
asbag57
(g78
g59
NtRp2743
(dp2744
g62
(dp2745
sg71
g2730
sg64
(lp2746
g57
(g58
g59
NtRp2747
(dp2748
g62
(dp2749
g70
I5
ssg71
g2743
sg64
(lp2750
S'datetime.datetime(2013, 8, 27, 9, 43, 42, 908675)'
p2751
asbasbasbag57
(g73
g59
NtRp2752
(dp2753
g62
(dp2754
sg71
g67
sg64
(lp2755
g57
(g78
g59
NtRp2756
(dp2757
g62
(dp2758
g82
g83
ssg71
g2752
sg64
(lp2759
S'uuid'
p2760
asbag57
(g78
g59
NtRp2761
(dp2762
g62
(dp2763
g89
g90
ssg71
g2752
sg64
(lp2764
S':'
asbag57
(g78
g59
NtRp2765
(dp2766
g62
(dp2767
sg71
g2752
sg64
(lp2768
g57
(g58
g59
NtRp2769
(dp2770
g62
(dp2771
g70
I5
ssg71
g2765
sg64
(lp2772
S'assignment2/127.0.0.1.2013-08-27.15-13-42.2a11a2a2-2591-4547-bb3c-ac77f30e6c06'
p2773
asbasbasbag57
(g73
g59
NtRp2774
(dp2775
g62
(dp2776
sg71
g67
sg64
(lp2777
g57
(g78
g59
NtRp2778
(dp2779
g62
(dp2780
g82
g83
ssg71
g2774
sg64
(lp2781
S'vars'
p2782
asbag57
(g78
g59
NtRp2783
(dp2784
g62
(dp2785
g89
g90
ssg71
g2774
sg64
(lp2786
S':'
asbag57
(g78
g59
NtRp2787
(dp2788
g62
(dp2789
sg71
g2774
sg64
(lp2790
g57
(g58
g59
NtRp2791
(dp2792
g62
(dp2793
g70
I5
ssg71
g2787
sg64
(lp2794
g57
(g66
g59
NtRp2795
(dp2796
g62
(dp2797
g70
I4
ssg71
Nsg64
(lp2798
g57
(g73
g59
NtRp2799
(dp2800
g62
(dp2801
sg71
g2795
sg64
(lp2802
g57
(g78
g59
NtRp2803
(dp2804
g62
(dp2805
g82
g83
ssg71
g2799
sg64
(lp2806
g2586
asbag57
(g78
g59
NtRp2807
(dp2808
g62
(dp2809
g89
g90
ssg71
g2799
sg64
(lp2810
S':'
asbag57
(g78
g59
NtRp2811
(dp2812
g62
(dp2813
sg71
g2799
sg64
(lp2814
g57
(g58
g59
NtRp2815
(dp2816
g62
(dp2817
g70
I4
ssg71
g2811
sg64
(lp2818
g2599
asbasbasbag57
(g73
g59
NtRp2819
(dp2820
g62
(dp2821
sg71
g2795
sg64
(lp2822
g57
(g78
g59
NtRp2823
(dp2824
g62
(dp2825
g82
g83
ssg71
g2819
sg64
(lp2826
g2608
asbag57
(g78
g59
NtRp2827
(dp2828
g62
(dp2829
g89
g90
ssg71
g2819
sg64
(lp2830
S':'
asbag57
(g78
g59
NtRp2831
(dp2832
g62
(dp2833
sg71
g2819
sg64
(lp2834
g57
(g58
g59
NtRp2835
(dp2836
g62
(dp2837
g70
I4
ssg71
g2831
sg64
(lp2838
g2621
asbasbasbag57
(g73
g59
NtRp2839
(dp2840
g62
(dp2841
sg71
g2795
sg64
(lp2842
g57
(g78
g59
NtRp2843
(dp2844
g62
(dp2845
g82
g83
ssg71
g2839
sg64
(lp2846
g2630
asbag57
(g78
g59
NtRp2847
(dp2848
g62
(dp2849
g89
g90
ssg71
g2839
sg64
(lp2850
S':'
asbag57
(g78
g59
NtRp2851
(dp2852
g62
(dp2853
sg71
g2839
sg64
(lp2854
g57
(g58
g59
NtRp2855
(dp2856
g62
(dp2857
g70
I4
ssg71
g2851
sg64
(lp2858
g2643
asbasbasbag57
(g73
g59
NtRp2859
(dp2860
g62
(dp2861
sg71
g2795
sg64
(lp2862
g57
(g78
g59
NtRp2863
(dp2864
g62
(dp2865
g82
g83
ssg71
g2859
sg64
(lp2866
g2652
asbag57
(g78
g59
NtRp2867
(dp2868
g62
(dp2869
g89
g90
ssg71
g2859
sg64
(lp2870
S':'
asbag57
(g78
g59
NtRp2871
(dp2872
g62
(dp2873
sg71
g2859
sg64
(lp2874
g57
(g58
g59
NtRp2875
(dp2876
g62
(dp2877
g70
I4
ssg71
g2871
sg64
(lp2878
g2665
asbasbasbag57
(g73
g59
NtRp2879
(dp2880
g62
(dp2881
sg71
g2795
sg64
(lp2882
g57
(g78
g59
NtRp2883
(dp2884
g62
(dp2885
g82
g83
ssg71
g2879
sg64
(lp2886
g2062
asbag57
(g78
g59
NtRp2887
(dp2888
g62
(dp2889
g89
g90
ssg71
g2879
sg64
(lp2890
S':'
asbag57
(g78
g59
NtRp2891
(dp2892
g62
(dp2893
sg71
g2879
sg64
(lp2894
g57
(g58
g59
NtRp2895
(dp2896
g62
(dp2897
g70
I4
ssg71
g2891
sg64
(lp2898
S'3'
asbasbasbasbasbasbasbag57
(g73
g59
NtRp2899
(dp2900
g62
(dp2901
sg71
g67
sg64
(lp2902
g57
(g78
g59
NtRp2903
(dp2904
g62
(dp2905
g82
g83
ssg71
g2899
sg64
(lp2906
S'wsgi'
p2907
asbag57
(g78
g59
NtRp2908
(dp2909
g62
(dp2910
g89
g90
ssg71
g2899
sg64
(lp2911
S':'
asbag57
(g78
g59
NtRp2912
(dp2913
g62
(dp2914
sg71
g2899
sg64
(lp2915
g57
(g58
g59
NtRp2916
(dp2917
g62
(dp2918
g70
I5
ssg71
g2912
sg64
(lp2919
g57
(g66
g59
NtRp2920
(dp2921
g62
(dp2922
g70
I4
ssg71
Nsg64
(lp2923
g57
(g73
g59
NtRp2924
(dp2925
g62
(dp2926
sg71
g2920
sg64
(lp2927
g57
(g78
g59
NtRp2928
(dp2929
g62
(dp2930
g82
g83
ssg71
g2924
sg64
(lp2931
S'environ'
p2932
asbag57
(g78
g59
NtRp2933
(dp2934
g62
(dp2935
g89
g90
ssg71
g2924
sg64
(lp2936
S':'
asbag57
(g78
g59
NtRp2937
(dp2938
g62
(dp2939
sg71
g2924
sg64
(lp2940
g57
(g58
g59
NtRp2941
(dp2942
g62
(dp2943
g70
I4
ssg71
g2937
sg64
(lp2944
g57
(g66
g59
NtRp2945
(dp2946
g62
(dp2947
g70
I3
ssg71
Nsg64
(lp2948
g57
(g73
g59
NtRp2949
(dp2950
g62
(dp2951
sg71
g2945
sg64
(lp2952
g57
(g78
g59
NtRp2953
(dp2954
g62
(dp2955
g82
g83
ssg71
g2949
sg64
(lp2956
S'CONTENT_LENGTH'
p2957
asbag57
(g78
g59
NtRp2958
(dp2959
g62
(dp2960
g89
g90
ssg71
g2949
sg64
(lp2961
S':'
asbag57
(g78
g59
NtRp2962
(dp2963
g62
(dp2964
sg71
g2949
sg64
(lp2965
g57
(g58
g59
NtRp2966
(dp2967
g62
(dp2968
g70
I3
ssg71
g2962
sg64
(lp2969
g963
asbasbasbag57
(g73
g59
NtRp2970
(dp2971
g62
(dp2972
sg71
g2945
sg64
(lp2973
g57
(g78
g59
NtRp2974
(dp2975
g62
(dp2976
g82
g83
ssg71
g2970
sg64
(lp2977
S'CONTENT_TYPE'
p2978
asbag57
(g78
g59
NtRp2979
(dp2980
g62
(dp2981
g89
g90
ssg71
g2970
sg64
(lp2982
S':'
asbag57
(g78
g59
NtRp2983
(dp2984
g62
(dp2985
sg71
g2970
sg64
(lp2986
g57
(g58
g59
NtRp2987
(dp2988
g62
(dp2989
g70
I3
ssg71
g2983
sg64
(lp2990
g985
asbasbasbag57
(g73
g59
NtRp2991
(dp2992
g62
(dp2993
sg71
g2945
sg64
(lp2994
g57
(g78
g59
NtRp2995
(dp2996
g62
(dp2997
g82
g83
ssg71
g2991
sg64
(lp2998
S'HTTP_ACCEPT'
p2999
asbag57
(g78
g59
NtRp3000
(dp3001
g62
(dp3002
g89
g90
ssg71
g2991
sg64
(lp3003
S':'
asbag57
(g78
g59
NtRp3004
(dp3005
g62
(dp3006
sg71
g2991
sg64
(lp3007
g57
(g58
g59
NtRp3008
(dp3009
g62
(dp3010
g70
I3
ssg71
g3004
sg64
(lp3011
g1072
asbasbasbag57
(g73
g59
NtRp3012
(dp3013
g62
(dp3014
sg71
g2945
sg64
(lp3015
g57
(g78
g59
NtRp3016
(dp3017
g62
(dp3018
g82
g83
ssg71
g3012
sg64
(lp3019
S'HTTP_ACCEPT_ENCODING'
p3020
asbag57
(g78
g59
NtRp3021
(dp3022
g62
(dp3023
g89
g90
ssg71
g3012
sg64
(lp3024
S':'
asbag57
(g78
g59
NtRp3025
(dp3026
g62
(dp3027
sg71
g3012
sg64
(lp3028
g57
(g58
g59
NtRp3029
(dp3030
g62
(dp3031
g70
I3
ssg71
g3025
sg64
(lp3032
g1094
asbasbasbag57
(g73
g59
NtRp3033
(dp3034
g62
(dp3035
sg71
g2945
sg64
(lp3036
g57
(g78
g59
NtRp3037
(dp3038
g62
(dp3039
g82
g83
ssg71
g3033
sg64
(lp3040
S'HTTP_ACCEPT_LANGUAGE'
p3041
asbag57
(g78
g59
NtRp3042
(dp3043
g62
(dp3044
g89
g90
ssg71
g3033
sg64
(lp3045
S':'
asbag57
(g78
g59
NtRp3046
(dp3047
g62
(dp3048
sg71
g3033
sg64
(lp3049
g57
(g58
g59
NtRp3050
(dp3051
g62
(dp3052
g70
I3
ssg71
g3046
sg64
(lp3053
g1116
asbasbasbag57
(g73
g59
NtRp3054
(dp3055
g62
(dp3056
sg71
g2945
sg64
(lp3057
g57
(g78
g59
NtRp3058
(dp3059
g62
(dp3060
g82
g83
ssg71
g3054
sg64
(lp3061
S'HTTP_CONNECTION'
p3062
asbag57
(g78
g59
NtRp3063
(dp3064
g62
(dp3065
g89
g90
ssg71
g3054
sg64
(lp3066
S':'
asbag57
(g78
g59
NtRp3067
(dp3068
g62
(dp3069
sg71
g3054
sg64
(lp3070
g57
(g58
g59
NtRp3071
(dp3072
g62
(dp3073
g70
I3
ssg71
g3067
sg64
(lp3074
g1138
asbasbasbag57
(g73
g59
NtRp3075
(dp3076
g62
(dp3077
sg71
g2945
sg64
(lp3078
g57
(g78
g59
NtRp3079
(dp3080
g62
(dp3081
g82
g83
ssg71
g3075
sg64
(lp3082
S'HTTP_CONTENT_LENGTH'
p3083
asbag57
(g78
g59
NtRp3084
(dp3085
g62
(dp3086
g89
g90
ssg71
g3075
sg64
(lp3087
S':'
asbag57
(g78
g59
NtRp3088
(dp3089
g62
(dp3090
sg71
g3075
sg64
(lp3091
g57
(g58
g59
NtRp3092
(dp3093
g62
(dp3094
g70
I3
ssg71
g3088
sg64
(lp3095
g963
asbasbasbag57
(g73
g59
NtRp3096
(dp3097
g62
(dp3098
sg71
g2945
sg64
(lp3099
g57
(g78
g59
NtRp3100
(dp3101
g62
(dp3102
g82
g83
ssg71
g3096
sg64
(lp3103
S'HTTP_CONTENT_TYPE'
p3104
asbag57
(g78
g59
NtRp3105
(dp3106
g62
(dp3107
g89
g90
ssg71
g3096
sg64
(lp3108
S':'
asbag57
(g78
g59
NtRp3109
(dp3110
g62
(dp3111
sg71
g3096
sg64
(lp3112
g57
(g58
g59
NtRp3113
(dp3114
g62
(dp3115
g70
I3
ssg71
g3109
sg64
(lp3116
g985
asbasbasbag57
(g73
g59
NtRp3117
(dp3118
g62
(dp3119
sg71
g2945
sg64
(lp3120
g57
(g78
g59
NtRp3121
(dp3122
g62
(dp3123
g82
g83
ssg71
g3117
sg64
(lp3124
S'HTTP_COOKIE'
p3125
asbag57
(g78
g59
NtRp3126
(dp3127
g62
(dp3128
g89
g90
ssg71
g3117
sg64
(lp3129
S':'
asbag57
(g78
g59
NtRp3130
(dp3131
g62
(dp3132
sg71
g3117
sg64
(lp3133
g57
(g58
g59
NtRp3134
(dp3135
g62
(dp3136
g70
I3
ssg71
g3130
sg64
(lp3137
g1202
asbasbasbag57
(g73
g59
NtRp3138
(dp3139
g62
(dp3140
sg71
g2945
sg64
(lp3141
g57
(g78
g59
NtRp3142
(dp3143
g62
(dp3144
g82
g83
ssg71
g3138
sg64
(lp3145
S'HTTP_HOST'
p3146
asbag57
(g78
g59
NtRp3147
(dp3148
g62
(dp3149
g89
g90
ssg71
g3138
sg64
(lp3150
S':'
asbag57
(g78
g59
NtRp3151
(dp3152
g62
(dp3153
sg71
g3138
sg64
(lp3154
g57
(g58
g59
NtRp3155
(dp3156
g62
(dp3157
g70
I3
ssg71
g3151
sg64
(lp3158
g1224
asbasbasbag57
(g73
g59
NtRp3159
(dp3160
g62
(dp3161
sg71
g2945
sg64
(lp3162
g57
(g78
g59
NtRp3163
(dp3164
g62
(dp3165
g82
g83
ssg71
g3159
sg64
(lp3166
S'HTTP_REFERER'
p3167
asbag57
(g78
g59
NtRp3168
(dp3169
g62
(dp3170
g89
g90
ssg71
g3159
sg64
(lp3171
S':'
asbag57
(g78
g59
NtRp3172
(dp3173
g62
(dp3174
sg71
g3159
sg64
(lp3175
g57
(g58
g59
NtRp3176
(dp3177
g62
(dp3178
g70
I3
ssg71
g3172
sg64
(lp3179
g1246
asbasbasbag57
(g73
g59
NtRp3180
(dp3181
g62
(dp3182
sg71
g2945
sg64
(lp3183
g57
(g78
g59
NtRp3184
(dp3185
g62
(dp3186
g82
g83
ssg71
g3180
sg64
(lp3187
S'HTTP_USER_AGENT'
p3188
asbag57
(g78
g59
NtRp3189
(dp3190
g62
(dp3191
g89
g90
ssg71
g3180
sg64
(lp3192
S':'
asbag57
(g78
g59
NtRp3193
(dp3194
g62
(dp3195
sg71
g3180
sg64
(lp3196
g57
(g58
g59
NtRp3197
(dp3198
g62
(dp3199
g70
I3
ssg71
g3193
sg64
(lp3200
g1268
asbasbasbag57
(g73
g59
NtRp3201
(dp3202
g62
(dp3203
sg71
g2945
sg64
(lp3204
g57
(g78
g59
NtRp3205
(dp3206
g62
(dp3207
g82
g83
ssg71
g3201
sg64
(lp3208
S'PATH_INFO'
p3209
asbag57
(g78
g59
NtRp3210
(dp3211
g62
(dp3212
g89
g90
ssg71
g3201
sg64
(lp3213
S':'
asbag57
(g78
g59
NtRp3214
(dp3215
g62
(dp3216
sg71
g3201
sg64
(lp3217
g57
(g58
g59
NtRp3218
(dp3219
g62
(dp3220
g70
I3
ssg71
g3214
sg64
(lp3221
g1435
asbasbasbag57
(g73
g59
NtRp3222
(dp3223
g62
(dp3224
sg71
g2945
sg64
(lp3225
g57
(g78
g59
NtRp3226
(dp3227
g62
(dp3228
g82
g83
ssg71
g3222
sg64
(lp3229
S'QUERY_STRING'
p3230
asbag57
(g78
g59
NtRp3231
(dp3232
g62
(dp3233
g89
g90
ssg71
g3222
sg64
(lp3234
S':'
asbag57
(g78
g59
NtRp3235
(dp3236
g62
(dp3237
sg71
g3222
sg64
(lp3238
g57
(g58
g59
NtRp3239
(dp3240
g62
(dp3241
g70
I3
ssg71
g3235
sg64
(lp3242
g1457
asbasbasbag57
(g73
g59
NtRp3243
(dp3244
g62
(dp3245
sg71
g2945
sg64
(lp3246
g57
(g78
g59
NtRp3247
(dp3248
g62
(dp3249
g82
g83
ssg71
g3243
sg64
(lp3250
S'REMOTE_ADDR'
p3251
asbag57
(g78
g59
NtRp3252
(dp3253
g62
(dp3254
g89
g90
ssg71
g3243
sg64
(lp3255
S':'
asbag57
(g78
g59
NtRp3256
(dp3257
g62
(dp3258
sg71
g3243
sg64
(lp3259
g57
(g58
g59
NtRp3260
(dp3261
g62
(dp3262
g70
I3
ssg71
g3256
sg64
(lp3263
g212
asbasbasbag57
(g73
g59
NtRp3264
(dp3265
g62
(dp3266
sg71
g2945
sg64
(lp3267
g57
(g78
g59
NtRp3268
(dp3269
g62
(dp3270
g82
g83
ssg71
g3264
sg64
(lp3271
S'REMOTE_PORT'
p3272
asbag57
(g78
g59
NtRp3273
(dp3274
g62
(dp3275
g89
g90
ssg71
g3264
sg64
(lp3276
S':'
asbag57
(g78
g59
NtRp3277
(dp3278
g62
(dp3279
sg71
g3264
sg64
(lp3280
g57
(g58
g59
NtRp3281
(dp3282
g62
(dp3283
g70
I3
ssg71
g3277
sg64
(lp3284
g1500
asbasbasbag57
(g73
g59
NtRp3285
(dp3286
g62
(dp3287
sg71
g2945
sg64
(lp3288
g57
(g78
g59
NtRp3289
(dp3290
g62
(dp3291
g82
g83
ssg71
g3285
sg64
(lp3292
S'REQUEST_METHOD'
p3293
asbag57
(g78
g59
NtRp3294
(dp3295
g62
(dp3296
g89
g90
ssg71
g3285
sg64
(lp3297
S':'
asbag57
(g78
g59
NtRp3298
(dp3299
g62
(dp3300
sg71
g3285
sg64
(lp3301
g57
(g58
g59
NtRp3302
(dp3303
g62
(dp3304
g70
I3
ssg71
g3298
sg64
(lp3305
g1522
asbasbasbag57
(g73
g59
NtRp3306
(dp3307
g62
(dp3308
sg71
g2945
sg64
(lp3309
g57
(g78
g59
NtRp3310
(dp3311
g62
(dp3312
g82
g83
ssg71
g3306
sg64
(lp3313
S'REQUEST_URI'
p3314
asbag57
(g78
g59
NtRp3315
(dp3316
g62
(dp3317
g89
g90
ssg71
g3306
sg64
(lp3318
S':'
asbag57
(g78
g59
NtRp3319
(dp3320
g62
(dp3321
sg71
g3306
sg64
(lp3322
g57
(g58
g59
NtRp3323
(dp3324
g62
(dp3325
g70
I3
ssg71
g3319
sg64
(lp3326
g1544
asbasbasbag57
(g73
g59
NtRp3327
(dp3328
g62
(dp3329
sg71
g2945
sg64
(lp3330
g57
(g78
g59
NtRp3331
(dp3332
g62
(dp3333
g82
g83
ssg71
g3327
sg64
(lp3334
S'SCRIPT_NAME'
p3335
asbag57
(g78
g59
NtRp3336
(dp3337
g62
(dp3338
g89
g90
ssg71
g3327
sg64
(lp3339
S':'
asbag57
(g78
g59
NtRp3340
(dp3341
g62
(dp3342
sg71
g3327
sg64
(lp3343
g57
(g58
g59
NtRp3344
(dp3345
g62
(dp3346
g70
I3
ssg71
g3340
sg64
(lp3347
S''
asbasbasbag57
(g73
g59
NtRp3348
(dp3349
g62
(dp3350
sg71
g2945
sg64
(lp3351
g57
(g78
g59
NtRp3352
(dp3353
g62
(dp3354
g82
g83
ssg71
g3348
sg64
(lp3355
S'SERVER_NAME'
p3356
asbag57
(g78
g59
NtRp3357
(dp3358
g62
(dp3359
g89
g90
ssg71
g3348
sg64
(lp3360
S':'
asbag57
(g78
g59
NtRp3361
(dp3362
g62
(dp3363
sg71
g3348
sg64
(lp3364
g57
(g58
g59
NtRp3365
(dp3366
g62
(dp3367
g70
I3
ssg71
g3361
sg64
(lp3368
g1587
asbasbasbag57
(g73
g59
NtRp3369
(dp3370
g62
(dp3371
sg71
g2945
sg64
(lp3372
g57
(g78
g59
NtRp3373
(dp3374
g62
(dp3375
g82
g83
ssg71
g3369
sg64
(lp3376
S'SERVER_PORT'
p3377
asbag57
(g78
g59
NtRp3378
(dp3379
g62
(dp3380
g89
g90
ssg71
g3369
sg64
(lp3381
S':'
asbag57
(g78
g59
NtRp3382
(dp3383
g62
(dp3384
sg71
g3369
sg64
(lp3385
g57
(g58
g59
NtRp3386
(dp3387
g62
(dp3388
g70
I3
ssg71
g3382
sg64
(lp3389
g1609
asbasbasbag57
(g73
g59
NtRp3390
(dp3391
g62
(dp3392
sg71
g2945
sg64
(lp3393
g57
(g78
g59
NtRp3394
(dp3395
g62
(dp3396
g82
g83
ssg71
g3390
sg64
(lp3397
S'SERVER_PROTOCOL'
p3398
asbag57
(g78
g59
NtRp3399
(dp3400
g62
(dp3401
g89
g90
ssg71
g3390
sg64
(lp3402
S':'
asbag57
(g78
g59
NtRp3403
(dp3404
g62
(dp3405
sg71
g3390
sg64
(lp3406
g57
(g58
g59
NtRp3407
(dp3408
g62
(dp3409
g70
I3
ssg71
g3403
sg64
(lp3410
g1631
asbasbasbag57
(g73
g59
NtRp3411
(dp3412
g62
(dp3413
sg71
g2945
sg64
(lp3414
g57
(g78
g59
NtRp3415
(dp3416
g62
(dp3417
g82
g83
ssg71
g3411
sg64
(lp3418
S'SERVER_SOFTWARE'
p3419
asbag57
(g78
g59
NtRp3420
(dp3421
g62
(dp3422
g89
g90
ssg71
g3411
sg64
(lp3423
S':'
asbag57
(g78
g59
NtRp3424
(dp3425
g62
(dp3426
sg71
g3411
sg64
(lp3427
g57
(g58
g59
NtRp3428
(dp3429
g62
(dp3430
g70
I3
ssg71
g3424
sg64
(lp3431
g1653
asbasbasbag57
(g73
g59
NtRp3432
(dp3433
g62
(dp3434
sg71
g2945
sg64
(lp3435
g57
(g78
g59
NtRp3436
(dp3437
g62
(dp3438
g82
g83
ssg71
g3432
sg64
(lp3439
S'wsgi.errors'
p3440
asbag57
(g78
g59
NtRp3441
(dp3442
g62
(dp3443
g89
g90
ssg71
g3432
sg64
(lp3444
S':'
asbag57
(g78
g59
NtRp3445
(dp3446
g62
(dp3447
sg71
g3432
sg64
(lp3448
g57
(g58
g59
NtRp3449
(dp3450
g62
(dp3451
g70
I3
ssg71
g3445
sg64
(lp3452
S"<open file '<stderr>', mode 'w' at 0xb727d0d0>"
p3453
asbasbasbag57
(g73
g59
NtRp3454
(dp3455
g62
(dp3456
sg71
g2945
sg64
(lp3457
g57
(g78
g59
NtRp3458
(dp3459
g62
(dp3460
g82
g83
ssg71
g3454
sg64
(lp3461
S'wsgi.file_wrapper'
p3462
asbag57
(g78
g59
NtRp3463
(dp3464
g62
(dp3465
g89
g90
ssg71
g3454
sg64
(lp3466
S':'
asbag57
(g78
g59
NtRp3467
(dp3468
g62
(dp3469
sg71
g3454
sg64
(lp3470
g57
(g58
g59
NtRp3471
(dp3472
g62
(dp3473
g70
I3
ssg71
g3467
sg64
(lp3474
S'<class wsgiref.util.FileWrapper at 0x9a9465c>'
p3475
asbasbasbag57
(g73
g59
NtRp3476
(dp3477
g62
(dp3478
sg71
g2945
sg64
(lp3479
g57
(g78
g59
NtRp3480
(dp3481
g62
(dp3482
g82
g83
ssg71
g3476
sg64
(lp3483
S'wsgi.input'
p3484
asbag57
(g78
g59
NtRp3485
(dp3486
g62
(dp3487
g89
g90
ssg71
g3476
sg64
(lp3488
S':'
asbag57
(g78
g59
NtRp3489
(dp3490
g62
(dp3491
sg71
g3476
sg64
(lp3492
g57
(g58
g59
NtRp3493
(dp3494
g62
(dp3495
g70
I3
ssg71
g3489
sg64
(lp3496
S"<open file '<fdopen>', mode 'w+b' at 0xac797a18>"
p3497
asbasbasbag57
(g73
g59
NtRp3498
(dp3499
g62
(dp3500
sg71
g2945
sg64
(lp3501
g57
(g78
g59
NtRp3502
(dp3503
g62
(dp3504
g82
g83
ssg71
g3498
sg64
(lp3505
S'wsgi.multiprocess'
p3506
asbag57
(g78
g59
NtRp3507
(dp3508
g62
(dp3509
g89
g90
ssg71
g3498
sg64
(lp3510
S':'
asbag57
(g78
g59
NtRp3511
(dp3512
g62
(dp3513
sg71
g3498
sg64
(lp3514
g57
(g58
g59
NtRp3515
(dp3516
g62
(dp3517
g70
I3
ssg71
g3511
sg64
(lp3518
g100
asbasbasbag57
(g73
g59
NtRp3519
(dp3520
g62
(dp3521
sg71
g2945
sg64
(lp3522
g57
(g78
g59
NtRp3523
(dp3524
g62
(dp3525
g82
g83
ssg71
g3519
sg64
(lp3526
S'wsgi.multithread'
p3527
asbag57
(g78
g59
NtRp3528
(dp3529
g62
(dp3530
g89
g90
ssg71
g3519
sg64
(lp3531
S':'
asbag57
(g78
g59
NtRp3532
(dp3533
g62
(dp3534
sg71
g3519
sg64
(lp3535
g57
(g58
g59
NtRp3536
(dp3537
g62
(dp3538
g70
I3
ssg71
g3532
sg64
(lp3539
g1870
asbasbasbag57
(g73
g59
NtRp3540
(dp3541
g62
(dp3542
sg71
g2945
sg64
(lp3543
g57
(g78
g59
NtRp3544
(dp3545
g62
(dp3546
g82
g83
ssg71
g3540
sg64
(lp3547
S'wsgi.run_once'
p3548
asbag57
(g78
g59
NtRp3549
(dp3550
g62
(dp3551
g89
g90
ssg71
g3540
sg64
(lp3552
S':'
asbag57
(g78
g59
NtRp3553
(dp3554
g62
(dp3555
sg71
g3540
sg64
(lp3556
g57
(g58
g59
NtRp3557
(dp3558
g62
(dp3559
g70
I3
ssg71
g3553
sg64
(lp3560
g100
asbasbasbag57
(g73
g59
NtRp3561
(dp3562
g62
(dp3563
sg71
g2945
sg64
(lp3564
g57
(g78
g59
NtRp3565
(dp3566
g62
(dp3567
g82
g83
ssg71
g3561
sg64
(lp3568
S'wsgi.url_scheme'
p3569
asbag57
(g78
g59
NtRp3570
(dp3571
g62
(dp3572
g89
g90
ssg71
g3561
sg64
(lp3573
S':'
asbag57
(g78
g59
NtRp3574
(dp3575
g62
(dp3576
sg71
g3561
sg64
(lp3577
g57
(g58
g59
NtRp3578
(dp3579
g62
(dp3580
g70
I3
ssg71
g3574
sg64
(lp3581
g1913
asbasbasbag57
(g73
g59
NtRp3582
(dp3583
g62
(dp3584
sg71
g2945
sg64
(lp3585
g57
(g78
g59
NtRp3586
(dp3587
g62
(dp3588
g82
g83
ssg71
g3582
sg64
(lp3589
S'wsgi.version'
p3590
asbag57
(g78
g59
NtRp3591
(dp3592
g62
(dp3593
g89
g90
ssg71
g3582
sg64
(lp3594
S':'
asbag57
(g78
g59
NtRp3595
(dp3596
g62
(dp3597
sg71
g3582
sg64
(lp3598
g57
(g58
g59
NtRp3599
(dp3600
g62
(dp3601
g70
I3
ssg71
g3595
sg64
(lp3602
S'1'
asbasbasbasbasbasbasbasbasbasbasbasbasbsS'frames'
p3603
(lp3604
(dp3605
S'file'
p3606
S'/home/aditi/Desktop/web2py/gluon/restricted.py'
p3607
sS'dump'
p3608
(dp3609
S'environment'
p3610
S"{'A': <class 'gluon.html.A'>, 'Auth': <class 'gluon.tools.Auth'>, 'B': <class 'gluon.html.B'>, 'BEAUTIFY': <class 'gluon.html.BEAUTIFY'>, 'BODY': <class 'gluon.html.BODY'>, 'BR': <class 'gluon.html.BR'>, 'BUTTON': <class 'gluon.html.BUTTON'>, 'CAT': <class 'gluon.html.CAT'>, 'CENTER': <class 'gluon.html.CENTER'>, 'CLEANUP': <class 'gluon.validators.CLEANUP'>, ...}"
p3611
sS'ccode'
p3612
S'<code object <module> at 0xac7b5c80, file "/home...ons/assignment2/controllers/default.py", line 13>'
p3613
ssS'lnum'
p3614
I212
sS'lines'
p3615
(dp3616
I207
S'    try:'
p3617
sI208
S'        if isinstance(code, types.CodeType):'
p3618
sI209
S'            ccode = code'
p3619
sI210
S'        else:'
p3620
sI211
S'            ccode = compile2(code, layer)'
p3621
sI212
S'        exec ccode in environment'
p3622
sI213
S'    except HTTP:'
p3623
sI214
S'        raise'
p3624
sI215
S'    except RestrictedError:'
p3625
sI216
S'        # do not encapsulate (obfuscate) the original RestrictedError'
p3626
ssS'call'
p3627
S"(code='# -*- coding: utf-8 -*-\\n# this file is released ...\\n\\nresponse._vars=response._caller(changedetails)\\n', environment={'A': <class 'gluon.html.A'>, 'Auth': <class 'gluon.tools.Auth'>, 'B': <class 'gluon.html.B'>, 'BEAUTIFY': <class 'gluon.html.BEAUTIFY'>, 'BODY': <class 'gluon.html.BODY'>, 'BR': <class 'gluon.html.BR'>, 'BUTTON': <class 'gluon.html.BUTTON'>, 'CAT': <class 'gluon.html.CAT'>, 'CENTER': <class 'gluon.html.CENTER'>, 'CLEANUP': <class 'gluon.validators.CLEANUP'>, ...}, layer='/home/aditi/Desktop/web2py/applications/assignment2/controllers/default.py')"
p3628
sS'func'
p3629
S'restricted'
p3630
sa(dp3631
g3606
S'/home/aditi/Desktop/web2py/applications/assignment2/controllers/default.py'
p3632
sg3608
(dp3633
sg3614
I167
sg3615
(dp3634
I160
S'    but URLs must be signed, i.e. linked with'
p3635
sI161
S"      A('table',_href=URL('data/tables',user_signature=True))"
p3636
sI162
S'    or with the signed load operator'
p3637
sI163
S"      LOAD('default','data.load',args='tables',ajax=True,user_signature=True)"
p3638
sI164
S'    """'
p3639
sI165
S'    return dict(form=crud())'
p3640
sI156
S'    http://..../[app]/default/data/update/[table]/[id]'
p3641
sI157
S'    http://..../[app]/default/data/delete/[table]/[id]'
p3642
sI158
S'    http://..../[app]/default/data/select/[table]'
p3643
sI159
S'    http://..../[app]/default/data/search/[table]'
p3644
ssg3627
S'()'
p3645
sg3629
S'<module>'
p3646
sa(dp3647
g3606
S'/home/aditi/Desktop/web2py/gluon/globals.py'
p3648
sg3608
(dp3649
S'self'
p3650
S'undefined'
p3651
sS'f'
S'<function changedetails>'
p3652
ssg3614
I193
sg3615
(dp3653
I192
S'        self._vars = None'
p3654
sI193
S'        self._caller = lambda f: f()'
p3655
sI194
S'        self._view_environment = None'
p3656
sI195
S'        self._custom_commit = None'
p3657
sI196
S'        self._custom_rollback = None'
p3658
sI197
S''
sI188
S'        self.menu = []             # used by the default view layout'
p3659
sI189
S'        self.files = []            # used by web2py_ajax.html'
p3660
sI190
S'        self.generic_patterns = []  # patterns to allow generic views'
p3661
sI191
S"        self.delimiters = ('{{', '}}')"
p3662
ssg3627
S'(f=<function changedetails>)'
p3663
sg3629
S'<lambda>'
p3664
sa(dp3665
g3606
S'/home/aditi/Desktop/web2py/applications/assignment2/controllers/default.py'
p3666
sg3608
(dp3667
S'category'
p3668
g3651
sS'form.vars'
p3669
S"<Storage {'category': 'india', 'URL': 'http://ww...resting facts about India', 'choice': 'article'}>"
p3670
sS'form'
p3671
S'<gluon.sqlhtml.SQLFORM object>'
p3672
sS'url'
p3673
g3651
sS'form.vars.choice'
p3674
S"'article'"
p3675
sS'form.vars.category'
p3676
S"'india'"
p3677
sS'db.newsitem'
p3678
S'<Table newsitem (id,userid,category,heading,choice,url,points,likes,dislikes,rating,ranking)>'
p3679
sS'choice'
p3680
g3651
sS'form.vars.url'
p3681
S'None'
p3682
sS'db.newsitem.update'
p3683
S'<bound method Table.update of <Table newsitem (i...hoice,url,points,likes,dislikes,rating,ranking)>>'
p3684
sS'global db'
p3685
S'<DAL uri="sqlite://storage.sqlite">'
p3686
sS'form.vars.heading'
p3687
S"'101 Interesting facts about India'"
p3688
sS'heading'
p3689
g3651
ssg3614
I78
sg3615
(dp3690
I73
S"    form=SQLFORM.factory(db.Field('category','string',requires=IS_IN_SET(temp),required=True,default=x[0]['category']),"
p3691
sI74
S"                        Field('heading','string',required=True,default=x[0]['heading']),"
p3692
sI75
S"                        Field('choice','string',requires=IS_IN_SET(['article','video']),required=True,default=x[0]['choice']),"
p3693
sI76
S"                        Field('URL','string',requires=IS_URL(),required=True,default=x[0]['url']))"
p3694
sI77
S'    if(form.accepts(request.vars,session)):'
p3695
sI78
S'        db.newsitem.update(category=form.vars.category,heading=form.vars.heading,choice=form.vars.choice,url=form.vars.url)'
p3696
sI79
S"        redirect(URL(r=request,f='user_homepage'))"
p3697
sI80
S'        response.flash="Your news item has been updated successfully!"'
p3698
sI81
S'    return locals()'
p3699
sI82
S''
ssg3627
S'()'
p3700
sg3629
S'changedetails'
p3701
sa(dp3702
g3606
S'/home/aditi/Desktop/web2py/gluon/dal.py'
p3703
sg3608
(dp3704
S'builtinRuntimeError'
p3705
S"<type 'exceptions.RuntimeError'>"
p3706
ssg3614
I7646
sg3615
(dp3707
I7648
S'    def _enable_record_versioning(self,'
p3708
sI7649
S'                                  archive_db=None,'
p3709
sI7650
S"                                  archive_name = '%(tablename)s_archive',"
p3710
sI7641
S'    @property'
p3711
sI7642
S'    def fields(self):'
p3712
sI7643
S'        return self._fields'
p3713
sI7644
S''
sI7645
S'    def update(self,*args,**kwargs):'
p3714
sI7646
S'        raise RuntimeError("Syntax Not Supported")'
p3715
sI7647
S''
ssg3627
S"(self=<Table newsitem (id,userid,category,heading,choice,url,points,likes,dislikes,rating,ranking)>, *args=(), **kwargs={'category': 'india', 'choice': 'article', 'heading': '101 Interesting facts about India', 'url': None})"
p3716
sg3629
S'update'
p3717
sasS'pyver'
p3718
S'Python 2.7.3: /usr/bin/python'
p3719
sS'session'
p3720
g57
(g58
g59
NtRp3721
(dp3722
g62
(dp3723
sg64
(lp3724
g57
(g66
g59
NtRp3725
(dp3726
g62
(dp3727
g70
I5
ssg71
Nsg64
(lp3728
g57
(g73
g59
NtRp3729
(dp3730
g62
(dp3731
sg71
g3725
sg64
(lp3732
g57
(g78
g59
NtRp3733
(dp3734
g62
(dp3735
g82
g83
ssg71
g3729
sg64
(lp3736
S'auth'
p3737
asbag57
(g78
g59
NtRp3738
(dp3739
g62
(dp3740
g89
g90
ssg71
g3729
sg64
(lp3741
S':'
asbag57
(g78
g59
NtRp3742
(dp3743
g62
(dp3744
sg71
g3729
sg64
(lp3745
g57
(g58
g59
NtRp3746
(dp3747
g62
(dp3748
g70
I5
ssg71
g3742
sg64
(lp3749
g57
(g66
g59
NtRp3750
(dp3751
g62
(dp3752
g70
I4
ssg71
Nsg64
(lp3753
g57
(g73
g59
NtRp3754
(dp3755
g62
(dp3756
sg71
g3750
sg64
(lp3757
g57
(g78
g59
NtRp3758
(dp3759
g62
(dp3760
g82
g83
ssg71
g3754
sg64
(lp3761
S'expiration'
p3762
asbag57
(g78
g59
NtRp3763
(dp3764
g62
(dp3765
g89
g90
ssg71
g3754
sg64
(lp3766
S':'
asbag57
(g78
g59
NtRp3767
(dp3768
g62
(dp3769
sg71
g3754
sg64
(lp3770
g57
(g58
g59
NtRp3771
(dp3772
g62
(dp3773
g70
I4
ssg71
g3767
sg64
(lp3774
S'3600'
p3775
asbasbasbag57
(g73
g59
NtRp3776
(dp3777
g62
(dp3778
sg71
g3750
sg64
(lp3779
g57
(g78
g59
NtRp3780
(dp3781
g62
(dp3782
g82
g83
ssg71
g3776
sg64
(lp3783
S'hmac_key'
p3784
asbag57
(g78
g59
NtRp3785
(dp3786
g62
(dp3787
g89
g90
ssg71
g3776
sg64
(lp3788
S':'
asbag57
(g78
g59
NtRp3789
(dp3790
g62
(dp3791
sg71
g3776
sg64
(lp3792
g57
(g58
g59
NtRp3793
(dp3794
g62
(dp3795
g70
I4
ssg71
g3789
sg64
(lp3796
S'c257f949-6b32-439a-8d3d-6b36aadc2b7f'
p3797
asbasbasbag57
(g73
g59
NtRp3798
(dp3799
g62
(dp3800
sg71
g3750
sg64
(lp3801
g57
(g78
g59
NtRp3802
(dp3803
g62
(dp3804
g82
g83
ssg71
g3798
sg64
(lp3805
S'last_visit'
p3806
asbag57
(g78
g59
NtRp3807
(dp3808
g62
(dp3809
g89
g90
ssg71
g3798
sg64
(lp3810
S':'
asbag57
(g78
g59
NtRp3811
(dp3812
g62
(dp3813
sg71
g3798
sg64
(lp3814
g57
(g58
g59
NtRp3815
(dp3816
g62
(dp3817
g70
I4
ssg71
g3811
sg64
(lp3818
S'datetime.datetime(2013, 8, 27, 15, 8, 30, 965795)'
p3819
asbasbasbag57
(g73
g59
NtRp3820
(dp3821
g62
(dp3822
sg71
g3750
sg64
(lp3823
g57
(g78
g59
NtRp3824
(dp3825
g62
(dp3826
g82
g83
ssg71
g3820
sg64
(lp3827
S'remember'
p3828
asbag57
(g78
g59
NtRp3829
(dp3830
g62
(dp3831
g89
g90
ssg71
g3820
sg64
(lp3832
S':'
asbag57
(g78
g59
NtRp3833
(dp3834
g62
(dp3835
sg71
g3820
sg64
(lp3836
g57
(g58
g59
NtRp3837
(dp3838
g62
(dp3839
g70
I4
ssg71
g3833
sg64
(lp3840
g100
asbasbasbag57
(g73
g59
NtRp3841
(dp3842
g62
(dp3843
sg71
g3750
sg64
(lp3844
g57
(g78
g59
NtRp3845
(dp3846
g62
(dp3847
g82
g83
ssg71
g3841
sg64
(lp3848
S'user'
p3849
asbag57
(g78
g59
NtRp3850
(dp3851
g62
(dp3852
g89
g90
ssg71
g3841
sg64
(lp3853
S':'
asbag57
(g78
g59
NtRp3854
(dp3855
g62
(dp3856
sg71
g3841
sg64
(lp3857
g57
(g58
g59
NtRp3858
(dp3859
g62
(dp3860
g70
I4
ssg71
g3854
sg64
(lp3861
g57
(g66
g59
NtRp3862
(dp3863
g62
(dp3864
g70
I3
ssg71
Nsg64
(lp3865
g57
(g73
g59
NtRp3866
(dp3867
g62
(dp3868
sg71
g3862
sg64
(lp3869
g57
(g78
g59
NtRp3870
(dp3871
g62
(dp3872
g82
g83
ssg71
g3866
sg64
(lp3873
S'account_type'
p3874
asbag57
(g78
g59
NtRp3875
(dp3876
g62
(dp3877
g89
g90
ssg71
g3866
sg64
(lp3878
S':'
asbag57
(g78
g59
NtRp3879
(dp3880
g62
(dp3881
sg71
g3866
sg64
(lp3882
g57
(g58
g59
NtRp3883
(dp3884
g62
(dp3885
g70
I3
ssg71
g3879
sg64
(lp3886
S'user'
p3887
asbasbasbag57
(g73
g59
NtRp3888
(dp3889
g62
(dp3890
sg71
g3862
sg64
(lp3891
g57
(g78
g59
NtRp3892
(dp3893
g62
(dp3894
g82
g83
ssg71
g3888
sg64
(lp3895
S'alt_email'
p3896
asbag57
(g78
g59
NtRp3897
(dp3898
g62
(dp3899
g89
g90
ssg71
g3888
sg64
(lp3900
S':'
asbag57
(g78
g59
NtRp3901
(dp3902
g62
(dp3903
sg71
g3888
sg64
(lp3904
g57
(g58
g59
NtRp3905
(dp3906
g62
(dp3907
g70
I3
ssg71
g3901
sg64
(lp3908
S'switch2aditi@gmail.com'
p3909
asbasbasbag57
(g73
g59
NtRp3910
(dp3911
g62
(dp3912
sg71
g3862
sg64
(lp3913
g57
(g78
g59
NtRp3914
(dp3915
g62
(dp3916
g82
g83
ssg71
g3910
sg64
(lp3917
S'dob'
p3918
asbag57
(g78
g59
NtRp3919
(dp3920
g62
(dp3921
g89
g90
ssg71
g3910
sg64
(lp3922
S':'
asbag57
(g78
g59
NtRp3923
(dp3924
g62
(dp3925
sg71
g3910
sg64
(lp3926
g57
(g58
g59
NtRp3927
(dp3928
g62
(dp3929
g70
I3
ssg71
g3923
sg64
(lp3930
S'datetime.date(1994, 5, 11)'
p3931
asbasbasbag57
(g73
g59
NtRp3932
(dp3933
g62
(dp3934
sg71
g3862
sg64
(lp3935
g57
(g78
g59
NtRp3936
(dp3937
g62
(dp3938
g82
g83
ssg71
g3932
sg64
(lp3939
S'email'
p3940
asbag57
(g78
g59
NtRp3941
(dp3942
g62
(dp3943
g89
g90
ssg71
g3932
sg64
(lp3944
S':'
asbag57
(g78
g59
NtRp3945
(dp3946
g62
(dp3947
sg71
g3932
sg64
(lp3948
g57
(g58
g59
NtRp3949
(dp3950
g62
(dp3951
g70
I3
ssg71
g3945
sg64
(lp3952
S'aditi.mavalankar@students.iiit.ac.in'
p3953
asbasbasbag57
(g73
g59
NtRp3954
(dp3955
g62
(dp3956
sg71
g3862
sg64
(lp3957
g57
(g78
g59
NtRp3958
(dp3959
g62
(dp3960
g82
g83
ssg71
g3954
sg64
(lp3961
S'first_name'
p3962
asbag57
(g78
g59
NtRp3963
(dp3964
g62
(dp3965
g89
g90
ssg71
g3954
sg64
(lp3966
S':'
asbag57
(g78
g59
NtRp3967
(dp3968
g62
(dp3969
sg71
g3954
sg64
(lp3970
g57
(g58
g59
NtRp3971
(dp3972
g62
(dp3973
g70
I3
ssg71
g3967
sg64
(lp3974
S'aditi'
p3975
asbasbasbag57
(g73
g59
NtRp3976
(dp3977
g62
(dp3978
sg71
g3862
sg64
(lp3979
g57
(g78
g59
NtRp3980
(dp3981
g62
(dp3982
g82
g83
ssg71
g3976
sg64
(lp3983
S'id'
p3984
asbag57
(g78
g59
NtRp3985
(dp3986
g62
(dp3987
g89
g90
ssg71
g3976
sg64
(lp3988
S':'
asbag57
(g78
g59
NtRp3989
(dp3990
g62
(dp3991
sg71
g3976
sg64
(lp3992
g57
(g58
g59
NtRp3993
(dp3994
g62
(dp3995
g70
I3
ssg71
g3989
sg64
(lp3996
S'1'
asbasbasbag57
(g73
g59
NtRp3997
(dp3998
g62
(dp3999
sg71
g3862
sg64
(lp4000
g57
(g78
g59
NtRp4001
(dp4002
g62
(dp4003
g82
g83
ssg71
g3997
sg64
(lp4004
S'last_name'
p4005
asbag57
(g78
g59
NtRp4006
(dp4007
g62
(dp4008
g89
g90
ssg71
g3997
sg64
(lp4009
S':'
asbag57
(g78
g59
NtRp4010
(dp4011
g62
(dp4012
sg71
g3997
sg64
(lp4013
g57
(g58
g59
NtRp4014
(dp4015
g62
(dp4016
g70
I3
ssg71
g4010
sg64
(lp4017
S'mavalankar'
p4018
asbasbasbag57
(g73
g59
NtRp4019
(dp4020
g62
(dp4021
sg71
g3862
sg64
(lp4022
g57
(g78
g59
NtRp4023
(dp4024
g62
(dp4025
g82
g83
ssg71
g4019
sg64
(lp4026
S'registration_id'
p4027
asbag57
(g78
g59
NtRp4028
(dp4029
g62
(dp4030
g89
g90
ssg71
g4019
sg64
(lp4031
S':'
asbag57
(g78
g59
NtRp4032
(dp4033
g62
(dp4034
sg71
g4019
sg64
(lp4035
g57
(g58
g59
NtRp4036
(dp4037
g62
(dp4038
g70
I3
ssg71
g4032
sg64
(lp4039
S''
asbasbasbag57
(g73
g59
NtRp4040
(dp4041
g62
(dp4042
sg71
g3862
sg64
(lp4043
g57
(g78
g59
NtRp4044
(dp4045
g62
(dp4046
g82
g83
ssg71
g4040
sg64
(lp4047
S'registration_key'
p4048
asbag57
(g78
g59
NtRp4049
(dp4050
g62
(dp4051
g89
g90
ssg71
g4040
sg64
(lp4052
S':'
asbag57
(g78
g59
NtRp4053
(dp4054
g62
(dp4055
sg71
g4040
sg64
(lp4056
g57
(g58
g59
NtRp4057
(dp4058
g62
(dp4059
g70
I3
ssg71
g4053
sg64
(lp4060
S''
asbasbasbag57
(g73
g59
NtRp4061
(dp4062
g62
(dp4063
sg71
g3862
sg64
(lp4064
g57
(g78
g59
NtRp4065
(dp4066
g62
(dp4067
g82
g83
ssg71
g4061
sg64
(lp4068
S'reset_password_key'
p4069
asbag57
(g78
g59
NtRp4070
(dp4071
g62
(dp4072
g89
g90
ssg71
g4061
sg64
(lp4073
S':'
asbag57
(g78
g59
NtRp4074
(dp4075
g62
(dp4076
sg71
g4061
sg64
(lp4077
g57
(g58
g59
NtRp4078
(dp4079
g62
(dp4080
g70
I3
ssg71
g4074
sg64
(lp4081
S''
asbasbasbag57
(g73
g59
NtRp4082
(dp4083
g62
(dp4084
sg71
g3862
sg64
(lp4085
g57
(g78
g59
NtRp4086
(dp4087
g62
(dp4088
g82
g83
ssg71
g4082
sg64
(lp4089
S'username'
p4090
asbag57
(g78
g59
NtRp4091
(dp4092
g62
(dp4093
g89
g90
ssg71
g4082
sg64
(lp4094
S':'
asbag57
(g78
g59
NtRp4095
(dp4096
g62
(dp4097
sg71
g4082
sg64
(lp4098
g57
(g58
g59
NtRp4099
(dp4100
g62
(dp4101
g70
I3
ssg71
g4095
sg64
(lp4102
S'aditi.mavalankar'
p4103
asbasbasbasbasbasbasbag57
(g73
g59
NtRp4104
(dp4105
g62
(dp4106
sg71
g3750
sg64
(lp4107
g57
(g78
g59
NtRp4108
(dp4109
g62
(dp4110
g82
g83
ssg71
g4104
sg64
(lp4111
S'user_groups'
p4112
asbag57
(g78
g59
NtRp4113
(dp4114
g62
(dp4115
g89
g90
ssg71
g4104
sg64
(lp4116
S':'
asbag57
(g78
g59
NtRp4117
(dp4118
g62
(dp4119
sg71
g4104
sg64
(lp4120
g57
(g58
g59
NtRp4121
(dp4122
g62
(dp4123
g70
I4
ssg71
g4117
sg64
(lp4124
g57
(g66
g59
NtRp4125
(dp4126
g62
(dp4127
g70
I3
ssg71
Nsg64
(lp4128
g57
(g73
g59
NtRp4129
(dp4130
g62
(dp4131
sg71
g4125
sg64
(lp4132
g57
(g78
g59
NtRp4133
(dp4134
g62
(dp4135
g82
g83
ssg71
g4129
sg64
(lp4136
S'1'
asbag57
(g78
g59
NtRp4137
(dp4138
g62
(dp4139
g89
g90
ssg71
g4129
sg64
(lp4140
S':'
asbag57
(g78
g59
NtRp4141
(dp4142
g62
(dp4143
sg71
g4129
sg64
(lp4144
g57
(g58
g59
NtRp4145
(dp4146
g62
(dp4147
g70
I3
ssg71
g4141
sg64
(lp4148
S'user_1'
p4149
asbasbasbasbasbasbasbasbasbasbasbag57
(g73
g59
NtRp4150
(dp4151
g62
(dp4152
sg71
g3725
sg64
(lp4153
g57
(g78
g59
NtRp4154
(dp4155
g62
(dp4156
g82
g83
ssg71
g4150
sg64
(lp4157
S'flash'
p4158
asbag57
(g78
g59
NtRp4159
(dp4160
g62
(dp4161
g89
g90
ssg71
g4150
sg64
(lp4162
S':'
asbag57
(g78
g59
NtRp4163
(dp4164
g62
(dp4165
sg71
g4150
sg64
(lp4166
g57
(g58
g59
NtRp4167
(dp4168
g62
(dp4169
g70
I5
ssg71
g4163
sg64
(lp4170
S'None'
p4171
asbasbasbasbasbsS'etype'
p4172
S"<type 'exceptions.RuntimeError'>"
p4173
sS'date'
p4174
S'Tue Aug 27 15:13:43 2013'
p4175
sS'response'
p4176
g57
(g58
g59
NtRp4177
(dp4178
g62
(dp4179
sg64
(lp4180
g57
(g66
g59
NtRp4181
(dp4182
g62
(dp4183
g70
I5
ssg71
Nsg64
(lp4184
g57
(g73
g59
NtRp4185
(dp4186
g62
(dp4187
sg71
g4181
sg64
(lp4188
g57
(g78
g59
NtRp4189
(dp4190
g62
(dp4191
g82
g83
ssg71
g4185
sg64
(lp4192
g155
asbag57
(g78
g59
NtRp4193
(dp4194
g62
(dp4195
g89
g90
ssg71
g4185
sg64
(lp4196
S':'
asbag57
(g78
g59
NtRp4197
(dp4198
g62
(dp4199
sg71
g4185
sg64
(lp4200
g57
(g58
g59
NtRp4201
(dp4202
g62
(dp4203
g70
I5
ssg71
g4197
sg64
(lp4204
S'<cStringIO.StringO object at 0xacc84cc0>'
p4205
asbasbasbag57
(g73
g59
NtRp4206
(dp4207
g62
(dp4208
sg71
g4181
sg64
(lp4209
g57
(g78
g59
NtRp4210
(dp4211
g62
(dp4212
g82
g83
ssg71
g4206
sg64
(lp4213
g243
asbag57
(g78
g59
NtRp4214
(dp4215
g62
(dp4216
g89
g90
ssg71
g4206
sg64
(lp4217
S':'
asbag57
(g78
g59
NtRp4218
(dp4219
g62
(dp4220
sg71
g4206
sg64
(lp4221
g57
(g58
g59
NtRp4222
(dp4223
g62
(dp4224
g70
I5
ssg71
g4218
sg64
(lp4225
g57
(g66
g59
NtRp4226
(dp4227
g62
(dp4228
g70
I4
ssg71
Nsg64
(lp4229
g57
(g73
g59
NtRp4230
(dp4231
g62
(dp4232
sg71
g4226
sg64
(lp4233
g57
(g78
g59
NtRp4234
(dp4235
g62
(dp4236
g82
g83
ssg71
g4230
sg64
(lp4237
S'session_id_assignment2'
p4238
asbag57
(g78
g59
NtRp4239
(dp4240
g62
(dp4241
g89
g90
ssg71
g4230
sg64
(lp4242
S':'
asbag57
(g78
g59
NtRp4243
(dp4244
g62
(dp4245
sg71
g4230
sg64
(lp4246
g57
(g58
g59
NtRp4247
(dp4248
g62
(dp4249
g70
I4
ssg71
g4243
sg64
(lp4250
g475
ag57
(g66
g59
NtRp4251
(dp4252
g62
(dp4253
g70
I3
ssg71
Nsg64
(lp4254
g57
(g73
g59
NtRp4255
(dp4256
g62
(dp4257
sg71
g4251
sg64
(lp4258
g57
(g78
g59
NtRp4259
(dp4260
g62
(dp4261
g82
g83
ssg71
g4255
sg64
(lp4262
g294
asbag57
(g78
g59
NtRp4263
(dp4264
g62
(dp4265
g89
g90
ssg71
g4255
sg64
(lp4266
S':'
asbag57
(g78
g59
NtRp4267
(dp4268
g62
(dp4269
sg71
g4255
sg64
(lp4270
g57
(g58
g59
NtRp4271
(dp4272
g62
(dp4273
g70
I3
ssg71
g4267
sg64
(lp4274
S''
asbasbasbag57
(g73
g59
NtRp4275
(dp4276
g62
(dp4277
sg71
g4251
sg64
(lp4278
g57
(g78
g59
NtRp4279
(dp4280
g62
(dp4281
g82
g83
ssg71
g4275
sg64
(lp4282
g315
asbag57
(g78
g59
NtRp4283
(dp4284
g62
(dp4285
g89
g90
ssg71
g4275
sg64
(lp4286
S':'
asbag57
(g78
g59
NtRp4287
(dp4288
g62
(dp4289
sg71
g4275
sg64
(lp4290
g57
(g58
g59
NtRp4291
(dp4292
g62
(dp4293
g70
I3
ssg71
g4287
sg64
(lp4294
S''
asbasbasbag57
(g73
g59
NtRp4295
(dp4296
g62
(dp4297
sg71
g4251
sg64
(lp4298
g57
(g78
g59
NtRp4299
(dp4300
g62
(dp4301
g82
g83
ssg71
g4295
sg64
(lp4302
g336
asbag57
(g78
g59
NtRp4303
(dp4304
g62
(dp4305
g89
g90
ssg71
g4295
sg64
(lp4306
S':'
asbag57
(g78
g59
NtRp4307
(dp4308
g62
(dp4309
sg71
g4295
sg64
(lp4310
g57
(g58
g59
NtRp4311
(dp4312
g62
(dp4313
g70
I3
ssg71
g4307
sg64
(lp4314
S''
asbasbasbag57
(g73
g59
NtRp4315
(dp4316
g62
(dp4317
sg71
g4251
sg64
(lp4318
g57
(g78
g59
NtRp4319
(dp4320
g62
(dp4321
g82
g83
ssg71
g4315
sg64
(lp4322
g357
asbag57
(g78
g59
NtRp4323
(dp4324
g62
(dp4325
g89
g90
ssg71
g4315
sg64
(lp4326
S':'
asbag57
(g78
g59
NtRp4327
(dp4328
g62
(dp4329
sg71
g4315
sg64
(lp4330
g57
(g58
g59
NtRp4331
(dp4332
g62
(dp4333
g70
I3
ssg71
g4327
sg64
(lp4334
S''
asbasbasbag57
(g73
g59
NtRp4335
(dp4336
g62
(dp4337
sg71
g4251
sg64
(lp4338
g57
(g78
g59
NtRp4339
(dp4340
g62
(dp4341
g82
g83
ssg71
g4335
sg64
(lp4342
g378
asbag57
(g78
g59
NtRp4343
(dp4344
g62
(dp4345
g89
g90
ssg71
g4335
sg64
(lp4346
S':'
asbag57
(g78
g59
NtRp4347
(dp4348
g62
(dp4349
sg71
g4335
sg64
(lp4350
g57
(g58
g59
NtRp4351
(dp4352
g62
(dp4353
g70
I3
ssg71
g4347
sg64
(lp4354
S''
asbasbasbag57
(g73
g59
NtRp4355
(dp4356
g62
(dp4357
sg71
g4251
sg64
(lp4358
g57
(g78
g59
NtRp4359
(dp4360
g62
(dp4361
g82
g83
ssg71
g4355
sg64
(lp4362
g399
asbag57
(g78
g59
NtRp4363
(dp4364
g62
(dp4365
g89
g90
ssg71
g4355
sg64
(lp4366
S':'
asbag57
(g78
g59
NtRp4367
(dp4368
g62
(dp4369
sg71
g4355
sg64
(lp4370
g57
(g58
g59
NtRp4371
(dp4372
g62
(dp4373
g70
I3
ssg71
g4367
sg64
(lp4374
S'/'
asbasbasbag57
(g73
g59
NtRp4375
(dp4376
g62
(dp4377
sg71
g4251
sg64
(lp4378
g57
(g78
g59
NtRp4379
(dp4380
g62
(dp4381
g82
g83
ssg71
g4375
sg64
(lp4382
g420
asbag57
(g78
g59
NtRp4383
(dp4384
g62
(dp4385
g89
g90
ssg71
g4375
sg64
(lp4386
S':'
asbag57
(g78
g59
NtRp4387
(dp4388
g62
(dp4389
sg71
g4375
sg64
(lp4390
g57
(g58
g59
NtRp4391
(dp4392
g62
(dp4393
g70
I3
ssg71
g4387
sg64
(lp4394
S''
asbasbasbag57
(g73
g59
NtRp4395
(dp4396
g62
(dp4397
sg71
g4251
sg64
(lp4398
g57
(g78
g59
NtRp4399
(dp4400
g62
(dp4401
g82
g83
ssg71
g4395
sg64
(lp4402
g441
asbag57
(g78
g59
NtRp4403
(dp4404
g62
(dp4405
g89
g90
ssg71
g4395
sg64
(lp4406
S':'
asbag57
(g78
g59
NtRp4407
(dp4408
g62
(dp4409
sg71
g4395
sg64
(lp4410
g57
(g58
g59
NtRp4411
(dp4412
g62
(dp4413
g70
I3
ssg71
g4407
sg64
(lp4414
S''
asbasbasbasbasbasbasbasbasbasbasbag57
(g73
g59
NtRp4415
(dp4416
g62
(dp4417
sg71
g4181
sg64
(lp4418
g57
(g78
g59
NtRp4419
(dp4420
g62
(dp4421
g82
g83
ssg71
g4415
sg64
(lp4422
S'delimiters'
p4423
asbag57
(g78
g59
NtRp4424
(dp4425
g62
(dp4426
g89
g90
ssg71
g4415
sg64
(lp4427
S':'
asbag57
(g78
g59
NtRp4428
(dp4429
g62
(dp4430
sg71
g4415
sg64
(lp4431
g57
(g58
g59
NtRp4432
(dp4433
g62
(dp4434
g70
I5
ssg71
g4428
sg64
(lp4435
g57
(g66
g59
NtRp4436
(dp4437
g62
(dp4438
g70
I4
ssg71
Nsg64
(lp4439
g57
(g73
g59
NtRp4440
(dp4441
g62
(dp4442
sg71
g4436
sg64
(lp4443
g57
(g78
g59
NtRp4444
(dp4445
g62
(dp4446
sg71
g4440
sg64
(lp4447
g57
(g58
g59
NtRp4448
(dp4449
g62
(dp4450
g70
I4
ssg71
g4444
sg64
(lp4451
S'{{'
p4452
asbasbasbag57
(g73
g59
NtRp4453
(dp4454
g62
(dp4455
sg71
g4436
sg64
(lp4456
g57
(g78
g59
NtRp4457
(dp4458
g62
(dp4459
sg71
g4453
sg64
(lp4460
g57
(g58
g59
NtRp4461
(dp4462
g62
(dp4463
g70
I4
ssg71
g4457
sg64
(lp4464
S'}}'
p4465
asbasbasbasbasbasbasbag57
(g73
g59
NtRp4466
(dp4467
g62
(dp4468
sg71
g4181
sg64
(lp4469
g57
(g78
g59
NtRp4470
(dp4471
g62
(dp4472
g82
g83
ssg71
g4466
sg64
(lp4473
S'files'
p4474
asbag57
(g78
g59
NtRp4475
(dp4476
g62
(dp4477
g89
g90
ssg71
g4466
sg64
(lp4478
S':'
asbag57
(g78
g59
NtRp4479
(dp4480
g62
(dp4481
sg71
g4466
sg64
(lp4482
g57
(g58
g59
NtRp4483
(dp4484
g62
(dp4485
g70
I5
ssg71
g4479
sg64
(lp4486
g57
(g66
g59
NtRp4487
(dp4488
g62
(dp4489
g70
I4
ssg71
Nsg64
(lp4490
sbasbasbasbag57
(g73
g59
NtRp4491
(dp4492
g62
(dp4493
sg71
g4181
sg64
(lp4494
g57
(g78
g59
NtRp4495
(dp4496
g62
(dp4497
g82
g83
ssg71
g4491
sg64
(lp4498
S'flash'
p4499
asbag57
(g78
g59
NtRp4500
(dp4501
g62
(dp4502
g89
g90
ssg71
g4491
sg64
(lp4503
S':'
asbag57
(g78
g59
NtRp4504
(dp4505
g62
(dp4506
sg71
g4491
sg64
(lp4507
g57
(g58
g59
NtRp4508
(dp4509
g62
(dp4510
g70
I5
ssg71
g4504
sg64
(lp4511
S''
asbasbasbag57
(g73
g59
NtRp4512
(dp4513
g62
(dp4514
sg71
g4181
sg64
(lp4515
g57
(g78
g59
NtRp4516
(dp4517
g62
(dp4518
g82
g83
ssg71
g4512
sg64
(lp4519
S'generic_patterns'
p4520
asbag57
(g78
g59
NtRp4521
(dp4522
g62
(dp4523
g89
g90
ssg71
g4512
sg64
(lp4524
S':'
asbag57
(g78
g59
NtRp4525
(dp4526
g62
(dp4527
sg71
g4512
sg64
(lp4528
g57
(g58
g59
NtRp4529
(dp4530
g62
(dp4531
g70
I5
ssg71
g4525
sg64
(lp4532
g57
(g66
g59
NtRp4533
(dp4534
g62
(dp4535
g70
I4
ssg71
Nsg64
(lp4536
g57
(g73
g59
NtRp4537
(dp4538
g62
(dp4539
sg71
g4533
sg64
(lp4540
g57
(g78
g59
NtRp4541
(dp4542
g62
(dp4543
sg71
g4537
sg64
(lp4544
g57
(g58
g59
NtRp4545
(dp4546
g62
(dp4547
g70
I4
ssg71
g4541
sg64
(lp4548
S'*'
asbasbasbasbasbasbasbag57
(g73
g59
NtRp4549
(dp4550
g62
(dp4551
sg71
g4181
sg64
(lp4552
g57
(g78
g59
NtRp4553
(dp4554
g62
(dp4555
g82
g83
ssg71
g4549
sg64
(lp4556
S'google_analytics_id'
p4557
asbag57
(g78
g59
NtRp4558
(dp4559
g62
(dp4560
g89
g90
ssg71
g4549
sg64
(lp4561
S':'
asbag57
(g78
g59
NtRp4562
(dp4563
g62
(dp4564
sg71
g4549
sg64
(lp4565
g57
(g58
g59
NtRp4566
(dp4567
g62
(dp4568
g70
I5
ssg71
g4562
sg64
(lp4569
S'None'
p4570
asbasbasbag57
(g73
g59
NtRp4571
(dp4572
g62
(dp4573
sg71
g4181
sg64
(lp4574
g57
(g78
g59
NtRp4575
(dp4576
g62
(dp4577
g82
g83
ssg71
g4571
sg64
(lp4578
S'headers'
p4579
asbag57
(g78
g59
NtRp4580
(dp4581
g62
(dp4582
g89
g90
ssg71
g4571
sg64
(lp4583
S':'
asbag57
(g78
g59
NtRp4584
(dp4585
g62
(dp4586
sg71
g4571
sg64
(lp4587
g57
(g58
g59
NtRp4588
(dp4589
g62
(dp4590
g70
I5
ssg71
g4584
sg64
(lp4591
g57
(g66
g59
NtRp4592
(dp4593
g62
(dp4594
g70
I4
ssg71
Nsg64
(lp4595
g57
(g73
g59
NtRp4596
(dp4597
g62
(dp4598
sg71
g4592
sg64
(lp4599
g57
(g78
g59
NtRp4600
(dp4601
g62
(dp4602
g82
g83
ssg71
g4596
sg64
(lp4603
S'X-Powered-By'
p4604
asbag57
(g78
g59
NtRp4605
(dp4606
g62
(dp4607
g89
g90
ssg71
g4596
sg64
(lp4608
S':'
asbag57
(g78
g59
NtRp4609
(dp4610
g62
(dp4611
sg71
g4596
sg64
(lp4612
g57
(g58
g59
NtRp4613
(dp4614
g62
(dp4615
g70
I4
ssg71
g4609
sg64
(lp4616
S'web2py'
p4617
asbasbasbasbasbasbasbag57
(g73
g59
NtRp4618
(dp4619
g62
(dp4620
sg71
g4181
sg64
(lp4621
g57
(g78
g59
NtRp4622
(dp4623
g62
(dp4624
g82
g83
ssg71
g4618
sg64
(lp4625
S'logo'
p4626
asbag57
(g78
g59
NtRp4627
(dp4628
g62
(dp4629
g89
g90
ssg71
g4618
sg64
(lp4630
S':'
asbag57
(g78
g59
NtRp4631
(dp4632
g62
(dp4633
sg71
g4618
sg64
(lp4634
g57
(g58
g59
NtRp4635
(dp4636
g62
(dp4637
g70
I5
ssg71
g4631
sg64
(lp4638
g57
(cgluon.html
A
p4639
g59
NtRp4640
(dp4641
g62
(dp4642
S'_class'
p4643
S'brand'
p4644
sS'_href'
p4645
S'http://www.web2py.com/'
p4646
ssg71
Nsg64
(lp4647
g57
(cgluon.html
B
p4648
g59
NtRp4649
(dp4650
g62
(dp4651
sg71
g4640
sg64
(lp4652
S'web'
p4653
ag57
(cgluon.html
SPAN
p4654
g59
NtRp4655
(dp4656
g62
(dp4657
sg71
g4649
sg64
(lp4658
I2
asbaS'py'
p4659
asbacgluon.html
XML_unpickle
p4660
(S's\r\x00\x00\x00&trade;&nbsp;'
tRp4661
asbasbasbasbag57
(g73
g59
NtRp4662
(dp4663
g62
(dp4664
sg71
g4181
sg64
(lp4665
g57
(g78
g59
NtRp4666
(dp4667
g62
(dp4668
g82
g83
ssg71
g4662
sg64
(lp4669
S'menu'
p4670
asbag57
(g78
g59
NtRp4671
(dp4672
g62
(dp4673
g89
g90
ssg71
g4662
sg64
(lp4674
S':'
asbag57
(g78
g59
NtRp4675
(dp4676
g62
(dp4677
sg71
g4662
sg64
(lp4678
g57
(g58
g59
NtRp4679
(dp4680
g62
(dp4681
g70
I5
ssg71
g4675
sg64
(lp4682
g57
(g66
g59
NtRp4683
(dp4684
g62
(dp4685
g70
I4
ssg71
Nsg64
(lp4686
g57
(g73
g59
NtRp4687
(dp4688
g62
(dp4689
sg71
g4683
sg64
(lp4690
g57
(g78
g59
NtRp4691
(dp4692
g62
(dp4693
sg71
g4687
sg64
(lp4694
g57
(g58
g59
NtRp4695
(dp4696
g62
(dp4697
g70
I4
ssg71
g4691
sg64
(lp4698
g57
(g66
g59
NtRp4699
(dp4700
g62
(dp4701
g70
I3
ssg71
Nsg64
(lp4702
g57
(g73
g59
NtRp4703
(dp4704
g62
(dp4705
sg71
g4699
sg64
(lp4706
g57
(g78
g59
NtRp4707
(dp4708
g62
(dp4709
sg71
g4703
sg64
(lp4710
g57
(g58
g59
NtRp4711
(dp4712
g62
(dp4713
g70
I3
ssg71
g4707
sg64
(lp4714
cgluon.languages
lazyT_unpickle
p4715
(S's\x04\x00\x00\x00Home'
tRp4716
asbasbasbag57
(g73
g59
NtRp4717
(dp4718
g62
(dp4719
sg71
g4699
sg64
(lp4720
g57
(g78
g59
NtRp4721
(dp4722
g62
(dp4723
sg71
g4717
sg64
(lp4724
g57
(g58
g59
NtRp4725
(dp4726
g62
(dp4727
g70
I3
ssg71
g4721
sg64
(lp4728
g100
asbasbasbag57
(g73
g59
NtRp4729
(dp4730
g62
(dp4731
sg71
g4699
sg64
(lp4732
g57
(g78
g59
NtRp4733
(dp4734
g62
(dp4735
sg71
g4729
sg64
(lp4736
g57
(g58
g59
NtRp4737
(dp4738
g62
(dp4739
g70
I3
ssg71
g4733
sg64
(lp4740
S'/assignment2/default/index'
p4741
asbasbasbag57
(g73
g59
NtRp4742
(dp4743
g62
(dp4744
sg71
g4699
sg64
(lp4745
g57
(g78
g59
NtRp4746
(dp4747
g62
(dp4748
sg71
g4742
sg64
(lp4749
g57
(g58
g59
NtRp4750
(dp4751
g62
(dp4752
g70
I3
ssg71
g4746
sg64
(lp4753
g57
(g66
g59
NtRp4754
(dp4755
g62
(dp4756
g70
I2
ssg71
Nsg64
(lp4757
sbasbasbasbasbasbasbasbag57
(g73
g59
NtRp4758
(dp4759
g62
(dp4760
sg71
g4683
sg64
(lp4761
g57
(g78
g59
NtRp4762
(dp4763
g62
(dp4764
sg71
g4758
sg64
(lp4765
g57
(g58
g59
NtRp4766
(dp4767
g62
(dp4768
g70
I4
ssg71
g4762
sg64
(lp4769
g57
(g66
g59
NtRp4770
(dp4771
g62
(dp4772
g70
I3
ssg71
Nsg64
(lp4773
g57
(g73
g59
NtRp4774
(dp4775
g62
(dp4776
sg71
g4770
sg64
(lp4777
g57
(g78
g59
NtRp4778
(dp4779
g62
(dp4780
sg71
g4774
sg64
(lp4781
g57
(g58
g59
NtRp4782
(dp4783
g62
(dp4784
g70
I3
ssg71
g4778
sg64
(lp4785
g57
(g4654
g59
NtRp4786
(dp4787
g62
(dp4788
g4643
S'highlighted'
p4789
ssg71
Nsg64
(lp4790
g4617
asbasbasbasbag57
(g73
g59
NtRp4791
(dp4792
g62
(dp4793
sg71
g4770
sg64
(lp4794
g57
(g78
g59
NtRp4795
(dp4796
g62
(dp4797
sg71
g4791
sg64
(lp4798
g57
(g58
g59
NtRp4799
(dp4800
g62
(dp4801
g70
I3
ssg71
g4795
sg64
(lp4802
g100
asbasbasbag57
(g73
g59
NtRp4803
(dp4804
g62
(dp4805
sg71
g4770
sg64
(lp4806
g57
(g78
g59
NtRp4807
(dp4808
g62
(dp4809
sg71
g4803
sg64
(lp4810
g57
(g58
g59
NtRp4811
(dp4812
g62
(dp4813
g70
I3
ssg71
g4807
sg64
(lp4814
S'http://web2py.com'
p4815
asbasbasbag57
(g73
g59
NtRp4816
(dp4817
g62
(dp4818
sg71
g4770
sg64
(lp4819
g57
(g78
g59
NtRp4820
(dp4821
g62
(dp4822
sg71
g4816
sg64
(lp4823
g57
(g58
g59
NtRp4824
(dp4825
g62
(dp4826
g70
I3
ssg71
g4820
sg64
(lp4827
g57
(g66
g59
NtRp4828
(dp4829
g62
(dp4830
g70
I2
ssg71
Nsg64
(lp4831
g57
(g73
g59
NtRp4832
(dp4833
g62
(dp4834
sg71
g4828
sg64
(lp4835
g57
(g78
g59
NtRp4836
(dp4837
g62
(dp4838
sg71
g4832
sg64
(lp4839
g57
(g58
g59
NtRp4840
(dp4841
g62
(dp4842
g70
I2
ssg71
g4836
sg64
(lp4843
g57
(g66
g59
NtRp4844
(dp4845
g62
(dp4846
g70
I1
ssg71
Nsg64
(lp4847
g57
(g73
g59
NtRp4848
(dp4849
g62
(dp4850
sg71
g4844
sg64
(lp4851
g57
(g78
g59
NtRp4852
(dp4853
g62
(dp4854
sg71
g4848
sg64
(lp4855
g57
(g58
g59
NtRp4856
(dp4857
g62
(dp4858
g70
I1
ssg71
g4852
sg64
(lp4859
g4715
(S's\x08\x00\x00\x00My Sites'
tRp4860
asbasbasbag57
(g73
g59
NtRp4861
(dp4862
g62
(dp4863
sg71
g4844
sg64
(lp4864
g57
(g78
g59
NtRp4865
(dp4866
g62
(dp4867
sg71
g4861
sg64
(lp4868
g57
(g58
g59
NtRp4869
(dp4870
g62
(dp4871
g70
I1
ssg71
g4865
sg64
(lp4872
I00
asbasbasbag57
(g73
g59
NtRp4873
(dp4874
g62
(dp4875
sg71
g4844
sg64
(lp4876
g57
(g78
g59
NtRp4877
(dp4878
g62
(dp4879
sg71
g4873
sg64
(lp4880
g57
(g58
g59
NtRp4881
(dp4882
g62
(dp4883
g70
I1
ssg71
g4877
sg64
(lp4884
S'/admin/default/site'
p4885
asbasbasbasbasbasbasbag57
(g73
g59
NtRp4886
(dp4887
g62
(dp4888
sg71
g4828
sg64
(lp4889
g57
(g78
g59
NtRp4890
(dp4891
g62
(dp4892
sg71
g4886
sg64
(lp4893
g57
(g58
g59
NtRp4894
(dp4895
g62
(dp4896
g70
I2
ssg71
g4890
sg64
(lp4897
g57
(g66
g59
NtRp4898
(dp4899
g62
(dp4900
g70
I1
ssg71
Nsg64
(lp4901
g57
(g73
g59
NtRp4902
(dp4903
g62
(dp4904
sg71
g4898
sg64
(lp4905
g57
(g78
g59
NtRp4906
(dp4907
g62
(dp4908
sg71
g4902
sg64
(lp4909
g57
(g58
g59
NtRp4910
(dp4911
g62
(dp4912
g70
I1
ssg71
g4906
sg64
(lp4913
g4715
(S's\x08\x00\x00\x00This App'
tRp4914
asbasbasbag57
(g73
g59
NtRp4915
(dp4916
g62
(dp4917
sg71
g4898
sg64
(lp4918
g57
(g78
g59
NtRp4919
(dp4920
g62
(dp4921
sg71
g4915
sg64
(lp4922
g57
(g58
g59
NtRp4923
(dp4924
g62
(dp4925
g70
I1
ssg71
g4919
sg64
(lp4926
I00
asbasbasbag57
(g73
g59
NtRp4927
(dp4928
g62
(dp4929
sg71
g4898
sg64
(lp4930
g57
(g78
g59
NtRp4931
(dp4932
g62
(dp4933
sg71
g4927
sg64
(lp4934
g57
(g58
g59
NtRp4935
(dp4936
g62
(dp4937
g70
I1
ssg71
g4931
sg64
(lp4938
S'/admin/default/design/assignment2'
p4939
asbasbasbag57
(g73
g59
NtRp4940
(dp4941
g62
(dp4942
sg71
g4898
sg64
(lp4943
g57
(g78
g59
NtRp4944
(dp4945
g62
(dp4946
sg71
g4940
sg64
(lp4947
g57
(g58
g59
NtRp4948
(dp4949
g62
(dp4950
g70
I1
ssg71
g4944
sg64
(lp4951
(lp4952
(g4715
(S's\n\x00\x00\x00Controller'
tRp4953
I00
S'/admin/default/edit/assignment2/controllers/default.py'
tp4954
a(g4715
(S's\x04\x00\x00\x00View'
tRp4955
I00
S'/admin/default/edit/assignment2/views/default/changedetails.html'
tp4956
a(g4715
(S's\x06\x00\x00\x00Layout'
tRp4957
I00
S'/admin/default/edit/assignment2/views/layout.html'
tp4958
a(g4715
(S's\n\x00\x00\x00Stylesheet'
tRp4959
I00
S'/admin/default/edit/assignment2/static/css/web2py.css'
tp4960
a(g4715
(S's\x08\x00\x00\x00DB Model'
tRp4961
I00
S'/admin/default/edit/assignment2/models/db.py'
tp4962
a(g4715
(S's\n\x00\x00\x00Menu Model'
tRp4963
I00
S'/admin/default/edit/assignment2/models/menu.py'
tp4964
a(g4715
(S's\x08\x00\x00\x00Database'
tRp4965
I00
S'/assignment2/appadmin/index'
tp4966
a(g4715
(S's\x06\x00\x00\x00Errors'
tRp4967
I00
S'/admin/default/errors/assignment2'
tp4968
a(g4715
(S's\x05\x00\x00\x00About'
tRp4969
I00
S'/admin/default/about/assignment2'
tp4970
aasbasbasbasbasbasbasbag57
(g73
g59
NtRp4971
(dp4972
g62
(dp4973
sg71
g4828
sg64
(lp4974
g57
(g78
g59
NtRp4975
(dp4976
g62
(dp4977
sg71
g4971
sg64
(lp4978
g57
(g58
g59
NtRp4979
(dp4980
g62
(dp4981
g70
I2
ssg71
g4975
sg64
(lp4982
g57
(g66
g59
NtRp4983
(dp4984
g62
(dp4985
g70
I1
ssg71
Nsg64
(lp4986
g57
(g73
g59
NtRp4987
(dp4988
g62
(dp4989
sg71
g4983
sg64
(lp4990
g57
(g78
g59
NtRp4991
(dp4992
g62
(dp4993
sg71
g4987
sg64
(lp4994
g57
(g58
g59
NtRp4995
(dp4996
g62
(dp4997
g70
I1
ssg71
g4991
sg64
(lp4998
S'web2py.com'
p4999
asbasbasbag57
(g73
g59
NtRp5000
(dp5001
g62
(dp5002
sg71
g4983
sg64
(lp5003
g57
(g78
g59
NtRp5004
(dp5005
g62
(dp5006
sg71
g5000
sg64
(lp5007
g57
(g58
g59
NtRp5008
(dp5009
g62
(dp5010
g70
I1
ssg71
g5004
sg64
(lp5011
I00
asbasbasbag57
(g73
g59
NtRp5012
(dp5013
g62
(dp5014
sg71
g4983
sg64
(lp5015
g57
(g78
g59
NtRp5016
(dp5017
g62
(dp5018
sg71
g5012
sg64
(lp5019
g57
(g58
g59
NtRp5020
(dp5021
g62
(dp5022
g70
I1
ssg71
g5016
sg64
(lp5023
S'http://www.web2py.com'
p5024
asbasbasbag57
(g73
g59
NtRp5025
(dp5026
g62
(dp5027
sg71
g4983
sg64
(lp5028
g57
(g78
g59
NtRp5029
(dp5030
g62
(dp5031
sg71
g5025
sg64
(lp5032
g57
(g58
g59
NtRp5033
(dp5034
g62
(dp5035
g70
I1
ssg71
g5029
sg64
(lp5036
(lp5037
(g4715
(S's\x08\x00\x00\x00Download'
tRp5038
I00
S'http://www.web2py.com/examples/default/download'
p5039
tp5040
a(g4715
(S's\x07\x00\x00\x00Support'
tRp5041
I00
S'http://www.web2py.com/examples/default/support'
p5042
tp5043
a(g4715
(S's\x04\x00\x00\x00Demo'
tRp5044
I00
S'http://web2py.com/demo_admin'
p5045
tp5046
a(g4715
(S's\x0e\x00\x00\x00Quick Examples'
tRp5047
I00
S'http://web2py.com/examples/default/examples'
p5048
tp5049
a(g4715
(S's\x03\x00\x00\x00FAQ'
tRp5050
I00
S'http://web2py.com/AlterEgo'
p5051
tp5052
a(g4715
(S's\x06\x00\x00\x00Videos'
tRp5053
I00
S'http://www.web2py.com/examples/default/videos/'
p5054
tp5055
a(g4715
(S's\x11\x00\x00\x00Free Applications'
tRp5056
I00
S'http://web2py.com/appliances'
p5057
tp5058
a(g4715
(S's\x07\x00\x00\x00Plugins'
tRp5059
I00
S'http://web2py.com/plugins'
p5060
tp5061
a(g4715
(S's\x07\x00\x00\x00Layouts'
tRp5062
I00
S'http://web2py.com/layouts'
p5063
tp5064
a(g4715
(S's\x07\x00\x00\x00Recipes'
tRp5065
I00
S'http://web2pyslices.com/'
p5066
tp5067
a(g4715
(S's\x08\x00\x00\x00Semantic'
tRp5068
I00
S'http://web2py.com/semantic'
p5069
tp5070
aasbasbasbasbasbasbasbag57
(g73
g59
NtRp5071
(dp5072
g62
(dp5073
sg71
g4828
sg64
(lp5074
g57
(g78
g59
NtRp5075
(dp5076
g62
(dp5077
sg71
g5071
sg64
(lp5078
g57
(g58
g59
NtRp5079
(dp5080
g62
(dp5081
g70
I2
ssg71
g5075
sg64
(lp5082
g57
(g66
g59
NtRp5083
(dp5084
g62
(dp5085
g70
I1
ssg71
Nsg64
(lp5086
g57
(g73
g59
NtRp5087
(dp5088
g62
(dp5089
sg71
g5083
sg64
(lp5090
g57
(g78
g59
NtRp5091
(dp5092
g62
(dp5093
sg71
g5087
sg64
(lp5094
g57
(g58
g59
NtRp5095
(dp5096
g62
(dp5097
g70
I1
ssg71
g5091
sg64
(lp5098
g4715
(S's\r\x00\x00\x00Documentation'
tRp5099
asbasbasbag57
(g73
g59
NtRp5100
(dp5101
g62
(dp5102
sg71
g5083
sg64
(lp5103
g57
(g78
g59
NtRp5104
(dp5105
g62
(dp5106
sg71
g5100
sg64
(lp5107
g57
(g58
g59
NtRp5108
(dp5109
g62
(dp5110
g70
I1
ssg71
g5104
sg64
(lp5111
I00
asbasbasbag57
(g73
g59
NtRp5112
(dp5113
g62
(dp5114
sg71
g5083
sg64
(lp5115
g57
(g78
g59
NtRp5116
(dp5117
g62
(dp5118
sg71
g5112
sg64
(lp5119
g57
(g58
g59
NtRp5120
(dp5121
g62
(dp5122
g70
I1
ssg71
g5116
sg64
(lp5123
S'http://www.web2py.com/book'
p5124
asbasbasbag57
(g73
g59
NtRp5125
(dp5126
g62
(dp5127
sg71
g5083
sg64
(lp5128
g57
(g78
g59
NtRp5129
(dp5130
g62
(dp5131
sg71
g5125
sg64
(lp5132
g57
(g58
g59
NtRp5133
(dp5134
g62
(dp5135
g70
I1
ssg71
g5129
sg64
(lp5136
(lp5137
(g4715
(S's\x07\x00\x00\x00Preface'
tRp5138
I00
S'http://www.web2py.com/book/default/chapter/00'
p5139
tp5140
a(g4715
(S's\x0c\x00\x00\x00Introduction'
tRp5141
I00
S'http://www.web2py.com/book/default/chapter/01'
p5142
tp5143
a(g4715
(S's\x06\x00\x00\x00Python'
tRp5144
I00
S'http://www.web2py.com/book/default/chapter/02'
p5145
tp5146
a(g4715
(S's\x08\x00\x00\x00Overview'
tRp5147
I00
S'http://www.web2py.com/book/default/chapter/03'
p5148
tp5149
a(g4715
(S's\x08\x00\x00\x00The Core'
tRp5150
I00
S'http://www.web2py.com/book/default/chapter/04'
p5151
tp5152
a(g4715
(S's\t\x00\x00\x00The Views'
tRp5153
I00
S'http://www.web2py.com/book/default/chapter/05'
p5154
tp5155
a(g4715
(S's\x08\x00\x00\x00Database'
tRp5156
I00
S'http://www.web2py.com/book/default/chapter/06'
p5157
tp5158
a(g4715
(S's\x14\x00\x00\x00Forms and Validators'
tRp5159
I00
S'http://www.web2py.com/book/default/chapter/07'
p5160
tp5161
a(g4715
(S's\r\x00\x00\x00Email and SMS'
tRp5162
I00
S'http://www.web2py.com/book/default/chapter/08'
p5163
tp5164
a(g4715
(S's\x0e\x00\x00\x00Access Control'
tRp5165
I00
S'http://www.web2py.com/book/default/chapter/09'
p5166
tp5167
a(g4715
(S's\x08\x00\x00\x00Services'
tRp5168
I00
S'http://www.web2py.com/book/default/chapter/10'
p5169
tp5170
a(g4715
(S's\x0c\x00\x00\x00Ajax Recipes'
tRp5171
I00
S'http://www.web2py.com/book/default/chapter/11'
p5172
tp5173
a(g4715
(S's\x16\x00\x00\x00Components and Plugins'
tRp5174
I00
S'http://www.web2py.com/book/default/chapter/12'
p5175
tp5176
a(g4715
(S's\x12\x00\x00\x00Deployment Recipes'
tRp5177
I00
S'http://www.web2py.com/book/default/chapter/13'
p5178
tp5179
a(g4715
(S's\r\x00\x00\x00Other Recipes'
tRp5180
I00
S'http://www.web2py.com/book/default/chapter/14'
p5181
tp5182
a(g4715
(S's\r\x00\x00\x00Buy this book'
tRp5183
I00
S'http://stores.lulu.com/web2py'
p5184
tp5185
aasbasbasbasbasbasbasbag57
(g73
g59
NtRp5186
(dp5187
g62
(dp5188
sg71
g4828
sg64
(lp5189
g57
(g78
g59
NtRp5190
(dp5191
g62
(dp5192
sg71
g5186
sg64
(lp5193
g57
(g58
g59
NtRp5194
(dp5195
g62
(dp5196
g70
I2
ssg71
g5190
sg64
(lp5197
g57
(g66
g59
NtRp5198
(dp5199
g62
(dp5200
g70
I1
ssg71
Nsg64
(lp5201
g57
(g73
g59
NtRp5202
(dp5203
g62
(dp5204
sg71
g5198
sg64
(lp5205
g57
(g78
g59
NtRp5206
(dp5207
g62
(dp5208
sg71
g5202
sg64
(lp5209
g57
(g58
g59
NtRp5210
(dp5211
g62
(dp5212
g70
I1
ssg71
g5206
sg64
(lp5213
g4715
(S's\t\x00\x00\x00Community'
tRp5214
asbasbasbag57
(g73
g59
NtRp5215
(dp5216
g62
(dp5217
sg71
g5198
sg64
(lp5218
g57
(g78
g59
NtRp5219
(dp5220
g62
(dp5221
sg71
g5215
sg64
(lp5222
g57
(g58
g59
NtRp5223
(dp5224
g62
(dp5225
g70
I1
ssg71
g5219
sg64
(lp5226
I00
asbasbasbag57
(g73
g59
NtRp5227
(dp5228
g62
(dp5229
sg71
g5198
sg64
(lp5230
g57
(g78
g59
NtRp5231
(dp5232
g62
(dp5233
sg71
g5227
sg64
(lp5234
g57
(g58
g59
NtRp5235
(dp5236
g62
(dp5237
g70
I1
ssg71
g5231
sg64
(lp5238
Nasbasbasbag57
(g73
g59
NtRp5239
(dp5240
g62
(dp5241
sg71
g5198
sg64
(lp5242
g57
(g78
g59
NtRp5243
(dp5244
g62
(dp5245
sg71
g5239
sg64
(lp5246
g57
(g58
g59
NtRp5247
(dp5248
g62
(dp5249
g70
I1
ssg71
g5243
sg64
(lp5250
(lp5251
(g4715
(S's\x06\x00\x00\x00Groups'
tRp5252
I00
S'http://www.web2py.com/examples/default/usergroups'
p5253
tp5254
a(g4715
(S's\x07\x00\x00\x00Twitter'
tRp5255
I00
S'http://twitter.com/web2py'
p5256
tp5257
a(g4715
(S's\t\x00\x00\x00Live Chat'
tRp5258
I00
S'http://webchat.freenode.net/?channels=web2py'
p5259
tp5260
aasbasbasbasbasbasbasbag57
(g73
g59
NtRp5261
(dp5262
g62
(dp5263
sg71
g4828
sg64
(lp5264
g57
(g78
g59
NtRp5265
(dp5266
g62
(dp5267
sg71
g5261
sg64
(lp5268
g57
(g58
g59
NtRp5269
(dp5270
g62
(dp5271
g70
I2
ssg71
g5265
sg64
(lp5272
g57
(g66
g59
NtRp5273
(dp5274
g62
(dp5275
g70
I1
ssg71
Nsg64
(lp5276
g57
(g73
g59
NtRp5277
(dp5278
g62
(dp5279
sg71
g5273
sg64
(lp5280
g57
(g78
g59
NtRp5281
(dp5282
g62
(dp5283
sg71
g5277
sg64
(lp5284
g57
(g58
g59
NtRp5285
(dp5286
g62
(dp5287
g70
I1
ssg71
g5281
sg64
(lp5288
g4715
(S's\x07\x00\x00\x00Plugins'
tRp5289
asbasbasbag57
(g73
g59
NtRp5290
(dp5291
g62
(dp5292
sg71
g5273
sg64
(lp5293
g57
(g78
g59
NtRp5294
(dp5295
g62
(dp5296
sg71
g5290
sg64
(lp5297
g57
(g58
g59
NtRp5298
(dp5299
g62
(dp5300
g70
I1
ssg71
g5294
sg64
(lp5301
I00
asbasbasbag57
(g73
g59
NtRp5302
(dp5303
g62
(dp5304
sg71
g5273
sg64
(lp5305
g57
(g78
g59
NtRp5306
(dp5307
g62
(dp5308
sg71
g5302
sg64
(lp5309
g57
(g58
g59
NtRp5310
(dp5311
g62
(dp5312
g70
I1
ssg71
g5306
sg64
(lp5313
Nasbasbasbag57
(g73
g59
NtRp5314
(dp5315
g62
(dp5316
sg71
g5273
sg64
(lp5317
g57
(g78
g59
NtRp5318
(dp5319
g62
(dp5320
sg71
g5314
sg64
(lp5321
g57
(g58
g59
NtRp5322
(dp5323
g62
(dp5324
g70
I1
ssg71
g5318
sg64
(lp5325
(lp5326
(S'plugin_wiki'
p5327
I00
S'http://web2py.com/examples/default/download'
p5328
tp5329
a(g4715
(S's\r\x00\x00\x00Other Plugins'
tRp5330
I00
g5060
tp5331
a(g4715
(S's\x0e\x00\x00\x00Layout Plugins'
tRp5332
I00
g5063
tp5333
aasbasbasbasbasbasbasbasbasbasbasbasbasbasbasbasbasbasbasbag57
(g73
g59
NtRp5334
(dp5335
g62
(dp5336
sg71
g4181
sg64
(lp5337
g57
(g78
g59
NtRp5338
(dp5339
g62
(dp5340
g82
g83
ssg71
g5334
sg64
(lp5341
S'meta'
p5342
asbag57
(g78
g59
NtRp5343
(dp5344
g62
(dp5345
g89
g90
ssg71
g5334
sg64
(lp5346
S':'
asbag57
(g78
g59
NtRp5347
(dp5348
g62
(dp5349
sg71
g5334
sg64
(lp5350
g57
(g58
g59
NtRp5351
(dp5352
g62
(dp5353
g70
I5
ssg71
g5347
sg64
(lp5354
g57
(g66
g59
NtRp5355
(dp5356
g62
(dp5357
g70
I4
ssg71
Nsg64
(lp5358
g57
(g73
g59
NtRp5359
(dp5360
g62
(dp5361
sg71
g5355
sg64
(lp5362
g57
(g78
g59
NtRp5363
(dp5364
g62
(dp5365
g82
g83
ssg71
g5359
sg64
(lp5366
S'author'
p5367
asbag57
(g78
g59
NtRp5368
(dp5369
g62
(dp5370
g89
g90
ssg71
g5359
sg64
(lp5371
S':'
asbag57
(g78
g59
NtRp5372
(dp5373
g62
(dp5374
sg71
g5359
sg64
(lp5375
g57
(g58
g59
NtRp5376
(dp5377
g62
(dp5378
g70
I4
ssg71
g5372
sg64
(lp5379
S'Your Name <you@example.com>'
p5380
asbasbasbag57
(g73
g59
NtRp5381
(dp5382
g62
(dp5383
sg71
g5355
sg64
(lp5384
g57
(g78
g59
NtRp5385
(dp5386
g62
(dp5387
g82
g83
ssg71
g5381
sg64
(lp5388
S'description'
p5389
asbag57
(g78
g59
NtRp5390
(dp5391
g62
(dp5392
g89
g90
ssg71
g5381
sg64
(lp5393
S':'
asbag57
(g78
g59
NtRp5394
(dp5395
g62
(dp5396
sg71
g5381
sg64
(lp5397
g57
(g58
g59
NtRp5398
(dp5399
g62
(dp5400
g70
I4
ssg71
g5394
sg64
(lp5401
S'a cool new app'
p5402
asbasbasbag57
(g73
g59
NtRp5403
(dp5404
g62
(dp5405
sg71
g5355
sg64
(lp5406
g57
(g78
g59
NtRp5407
(dp5408
g62
(dp5409
g82
g83
ssg71
g5403
sg64
(lp5410
S'generator'
p5411
asbag57
(g78
g59
NtRp5412
(dp5413
g62
(dp5414
g89
g90
ssg71
g5403
sg64
(lp5415
S':'
asbag57
(g78
g59
NtRp5416
(dp5417
g62
(dp5418
sg71
g5403
sg64
(lp5419
g57
(g58
g59
NtRp5420
(dp5421
g62
(dp5422
g70
I4
ssg71
g5416
sg64
(lp5423
S'Web2py Web Framework'
p5424
asbasbasbag57
(g73
g59
NtRp5425
(dp5426
g62
(dp5427
sg71
g5355
sg64
(lp5428
g57
(g78
g59
NtRp5429
(dp5430
g62
(dp5431
g82
g83
ssg71
g5425
sg64
(lp5432
S'keywords'
p5433
asbag57
(g78
g59
NtRp5434
(dp5435
g62
(dp5436
g89
g90
ssg71
g5425
sg64
(lp5437
S':'
asbag57
(g78
g59
NtRp5438
(dp5439
g62
(dp5440
sg71
g5425
sg64
(lp5441
g57
(g58
g59
NtRp5442
(dp5443
g62
(dp5444
g70
I4
ssg71
g5438
sg64
(lp5445
S'web2py, python, framework'
p5446
asbasbasbasbasbasbasbag57
(g73
g59
NtRp5447
(dp5448
g62
(dp5449
sg71
g4181
sg64
(lp5450
g57
(g78
g59
NtRp5451
(dp5452
g62
(dp5453
g82
g83
ssg71
g5447
sg64
(lp5454
S'models_to_run'
p5455
asbag57
(g78
g59
NtRp5456
(dp5457
g62
(dp5458
g89
g90
ssg71
g5447
sg64
(lp5459
S':'
asbag57
(g78
g59
NtRp5460
(dp5461
g62
(dp5462
sg71
g5447
sg64
(lp5463
g57
(g58
g59
NtRp5464
(dp5465
g62
(dp5466
g70
I5
ssg71
g5460
sg64
(lp5467
g57
(g66
g59
NtRp5468
(dp5469
g62
(dp5470
g70
I4
ssg71
Nsg64
(lp5471
g57
(g73
g59
NtRp5472
(dp5473
g62
(dp5474
sg71
g5468
sg64
(lp5475
g57
(g78
g59
NtRp5476
(dp5477
g62
(dp5478
sg71
g5472
sg64
(lp5479
g57
(g58
g59
NtRp5480
(dp5481
g62
(dp5482
g70
I4
ssg71
g5476
sg64
(lp5483
S'^\\w+\\.py$'
p5484
asbasbasbag57
(g73
g59
NtRp5485
(dp5486
g62
(dp5487
sg71
g5468
sg64
(lp5488
g57
(g78
g59
NtRp5489
(dp5490
g62
(dp5491
sg71
g5485
sg64
(lp5492
g57
(g58
g59
NtRp5493
(dp5494
g62
(dp5495
g70
I4
ssg71
g5489
sg64
(lp5496
S'^default/\\w+\\.py$'
p5497
asbasbasbag57
(g73
g59
NtRp5498
(dp5499
g62
(dp5500
sg71
g5468
sg64
(lp5501
g57
(g78
g59
NtRp5502
(dp5503
g62
(dp5504
sg71
g5498
sg64
(lp5505
g57
(g58
g59
NtRp5506
(dp5507
g62
(dp5508
g70
I4
ssg71
g5502
sg64
(lp5509
S'^default/changedetails/\\w+\\.py$'
p5510
asbasbasbasbasbasbasbag57
(g73
g59
NtRp5511
(dp5512
g62
(dp5513
sg71
g4181
sg64
(lp5514
g57
(g78
g59
NtRp5515
(dp5516
g62
(dp5517
g82
g83
ssg71
g5511
sg64
(lp5518
S'postprocessing'
p5519
asbag57
(g78
g59
NtRp5520
(dp5521
g62
(dp5522
g89
g90
ssg71
g5511
sg64
(lp5523
S':'
asbag57
(g78
g59
NtRp5524
(dp5525
g62
(dp5526
sg71
g5511
sg64
(lp5527
g57
(g58
g59
NtRp5528
(dp5529
g62
(dp5530
g70
I5
ssg71
g5524
sg64
(lp5531
g57
(g66
g59
NtRp5532
(dp5533
g62
(dp5534
g70
I4
ssg71
Nsg64
(lp5535
sbasbasbasbag57
(g73
g59
NtRp5536
(dp5537
g62
(dp5538
sg71
g4181
sg64
(lp5539
g57
(g78
g59
NtRp5540
(dp5541
g62
(dp5542
g82
g83
ssg71
g5536
sg64
(lp5543
S'session_cookie_expires'
p5544
asbag57
(g78
g59
NtRp5545
(dp5546
g62
(dp5547
g89
g90
ssg71
g5536
sg64
(lp5548
S':'
asbag57
(g78
g59
NtRp5549
(dp5550
g62
(dp5551
sg71
g5536
sg64
(lp5552
g57
(g58
g59
NtRp5553
(dp5554
g62
(dp5555
g70
I5
ssg71
g5549
sg64
(lp5556
S'None'
p5557
asbasbasbag57
(g73
g59
NtRp5558
(dp5559
g62
(dp5560
sg71
g4181
sg64
(lp5561
g57
(g78
g59
NtRp5562
(dp5563
g62
(dp5564
g82
g83
ssg71
g5558
sg64
(lp5565
S'session_data_name'
p5566
asbag57
(g78
g59
NtRp5567
(dp5568
g62
(dp5569
g89
g90
ssg71
g5558
sg64
(lp5570
S':'
asbag57
(g78
g59
NtRp5571
(dp5572
g62
(dp5573
sg71
g5558
sg64
(lp5574
g57
(g58
g59
NtRp5575
(dp5576
g62
(dp5577
g70
I5
ssg71
g5571
sg64
(lp5578
S'session_data_assignment2'
p5579
asbasbasbag57
(g73
g59
NtRp5580
(dp5581
g62
(dp5582
sg71
g4181
sg64
(lp5583
g57
(g78
g59
NtRp5584
(dp5585
g62
(dp5586
g82
g83
ssg71
g5580
sg64
(lp5587
S'session_file'
p5588
asbag57
(g78
g59
NtRp5589
(dp5590
g62
(dp5591
g89
g90
ssg71
g5580
sg64
(lp5592
S':'
asbag57
(g78
g59
NtRp5593
(dp5594
g62
(dp5595
sg71
g5580
sg64
(lp5596
g57
(g58
g59
NtRp5597
(dp5598
g62
(dp5599
g70
I5
ssg71
g5593
sg64
(lp5600
S"<open file '/home/aditi/Desktop/web2py/applications/assignment2/sessions/127.0.0.1-f901c239-914d-4817-baae-ae5793bf884f', mode 'rb+' at 0xac797e38>"
p5601
asbasbasbag57
(g73
g59
NtRp5602
(dp5603
g62
(dp5604
sg71
g4181
sg64
(lp5605
g57
(g78
g59
NtRp5606
(dp5607
g62
(dp5608
g82
g83
ssg71
g5602
sg64
(lp5609
S'session_filename'
p5610
asbag57
(g78
g59
NtRp5611
(dp5612
g62
(dp5613
g89
g90
ssg71
g5602
sg64
(lp5614
S':'
asbag57
(g78
g59
NtRp5615
(dp5616
g62
(dp5617
sg71
g5602
sg64
(lp5618
g57
(g58
g59
NtRp5619
(dp5620
g62
(dp5621
g70
I5
ssg71
g5615
sg64
(lp5622
S'/home/aditi/Desktop/web2py/applications/assignment2/sessions/127.0.0.1-f901c239-914d-4817-baae-ae5793bf884f'
p5623
asbasbasbag57
(g73
g59
NtRp5624
(dp5625
g62
(dp5626
sg71
g4181
sg64
(lp5627
g57
(g78
g59
NtRp5628
(dp5629
g62
(dp5630
g82
g83
ssg71
g5624
sg64
(lp5631
S'session_id'
p5632
asbag57
(g78
g59
NtRp5633
(dp5634
g62
(dp5635
g89
g90
ssg71
g5624
sg64
(lp5636
S':'
asbag57
(g78
g59
NtRp5637
(dp5638
g62
(dp5639
sg71
g5624
sg64
(lp5640
g57
(g58
g59
NtRp5641
(dp5642
g62
(dp5643
g70
I5
ssg71
g5637
sg64
(lp5644
g475
asbasbasbag57
(g73
g59
NtRp5645
(dp5646
g62
(dp5647
sg71
g4181
sg64
(lp5648
g57
(g78
g59
NtRp5649
(dp5650
g62
(dp5651
g82
g83
ssg71
g5645
sg64
(lp5652
S'session_id_name'
p5653
asbag57
(g78
g59
NtRp5654
(dp5655
g62
(dp5656
g89
g90
ssg71
g5645
sg64
(lp5657
S':'
asbag57
(g78
g59
NtRp5658
(dp5659
g62
(dp5660
sg71
g5645
sg64
(lp5661
g57
(g58
g59
NtRp5662
(dp5663
g62
(dp5664
g70
I5
ssg71
g5658
sg64
(lp5665
g4238
asbasbasbag57
(g73
g59
NtRp5666
(dp5667
g62
(dp5668
sg71
g4181
sg64
(lp5669
g57
(g78
g59
NtRp5670
(dp5671
g62
(dp5672
g82
g83
ssg71
g5666
sg64
(lp5673
S'session_locked'
p5674
asbag57
(g78
g59
NtRp5675
(dp5676
g62
(dp5677
g89
g90
ssg71
g5666
sg64
(lp5678
S':'
asbag57
(g78
g59
NtRp5679
(dp5680
g62
(dp5681
sg71
g5666
sg64
(lp5682
g57
(g58
g59
NtRp5683
(dp5684
g62
(dp5685
g70
I5
ssg71
g5679
sg64
(lp5686
g1870
asbasbasbag57
(g73
g59
NtRp5687
(dp5688
g62
(dp5689
sg71
g4181
sg64
(lp5690
g57
(g78
g59
NtRp5691
(dp5692
g62
(dp5693
g82
g83
ssg71
g5687
sg64
(lp5694
S'session_new'
p5695
asbag57
(g78
g59
NtRp5696
(dp5697
g62
(dp5698
g89
g90
ssg71
g5687
sg64
(lp5699
S':'
asbag57
(g78
g59
NtRp5700
(dp5701
g62
(dp5702
sg71
g5687
sg64
(lp5703
g57
(g58
g59
NtRp5704
(dp5705
g62
(dp5706
g70
I5
ssg71
g5700
sg64
(lp5707
g100
asbasbasbag57
(g73
g59
NtRp5708
(dp5709
g62
(dp5710
sg71
g4181
sg64
(lp5711
g57
(g78
g59
NtRp5712
(dp5713
g62
(dp5714
g82
g83
ssg71
g5708
sg64
(lp5715
S'session_storage_type'
p5716
asbag57
(g78
g59
NtRp5717
(dp5718
g62
(dp5719
g89
g90
ssg71
g5708
sg64
(lp5720
S':'
asbag57
(g78
g59
NtRp5721
(dp5722
g62
(dp5723
sg71
g5708
sg64
(lp5724
g57
(g58
g59
NtRp5725
(dp5726
g62
(dp5727
g70
I5
ssg71
g5721
sg64
(lp5728
g3606
asbasbasbag57
(g73
g59
NtRp5729
(dp5730
g62
(dp5731
sg71
g4181
sg64
(lp5732
g57
(g78
g59
NtRp5733
(dp5734
g62
(dp5735
g82
g83
ssg71
g5729
sg64
(lp5736
S'status'
p5737
asbag57
(g78
g59
NtRp5738
(dp5739
g62
(dp5740
g89
g90
ssg71
g5729
sg64
(lp5741
S':'
asbag57
(g78
g59
NtRp5742
(dp5743
g62
(dp5744
sg71
g5729
sg64
(lp5745
g57
(g58
g59
NtRp5746
(dp5747
g62
(dp5748
g70
I5
ssg71
g5742
sg64
(lp5749
S'200'
p5750
asbasbasbag57
(g73
g59
NtRp5751
(dp5752
g62
(dp5753
sg71
g4181
sg64
(lp5754
g57
(g78
g59
NtRp5755
(dp5756
g62
(dp5757
g82
g83
ssg71
g5751
sg64
(lp5758
S'subtitle'
p5759
asbag57
(g78
g59
NtRp5760
(dp5761
g62
(dp5762
g89
g90
ssg71
g5751
sg64
(lp5763
S':'
asbag57
(g78
g59
NtRp5764
(dp5765
g62
(dp5766
sg71
g5751
sg64
(lp5767
g57
(g58
g59
NtRp5768
(dp5769
g62
(dp5770
g70
I5
ssg71
g5764
sg64
(lp5771
g4715
(S's\r\x00\x00\x00customize me!'
tRp5772
asbasbasbag57
(g73
g59
NtRp5773
(dp5774
g62
(dp5775
sg71
g4181
sg64
(lp5776
g57
(g78
g59
NtRp5777
(dp5778
g62
(dp5779
g82
g83
ssg71
g5773
sg64
(lp5780
S'title'
p5781
asbag57
(g78
g59
NtRp5782
(dp5783
g62
(dp5784
g89
g90
ssg71
g5773
sg64
(lp5785
S':'
asbag57
(g78
g59
NtRp5786
(dp5787
g62
(dp5788
sg71
g5773
sg64
(lp5789
g57
(g58
g59
NtRp5790
(dp5791
g62
(dp5792
g70
I5
ssg71
g5786
sg64
(lp5793
S'Assignment2'
p5794
asbasbasbag57
(g73
g59
NtRp5795
(dp5796
g62
(dp5797
sg71
g4181
sg64
(lp5798
g57
(g78
g59
NtRp5799
(dp5800
g62
(dp5801
g82
g83
ssg71
g5795
sg64
(lp5802
S'view'
p5803
asbag57
(g78
g59
NtRp5804
(dp5805
g62
(dp5806
g89
g90
ssg71
g5795
sg64
(lp5807
S':'
asbag57
(g78
g59
NtRp5808
(dp5809
g62
(dp5810
sg71
g5795
sg64
(lp5811
g57
(g58
g59
NtRp5812
(dp5813
g62
(dp5814
g70
I5
ssg71
g5808
sg64
(lp5815
S'default/changedetails.html'
p5816
asbasbasbasbasbsS'locals'
p5817
(dp5818
S'self'
p5819
S'<Table newsitem (id,userid,category,heading,choice,url,points,likes,dislikes,rating,ranking)>'
p5820
sg42
S'()'
p5821
sS'kwargs'
p5822
S"{'category': 'india', 'choice': 'article', 'heading': '101 Interesting facts about India', 'url': None}"
p5823
sssS'traceback'
p5824
S'Traceback (most recent call last):\n  File "/home/aditi/Desktop/web2py/gluon/restricted.py", line 212, in restricted\n    exec ccode in environment\n  File "/home/aditi/Desktop/web2py/applications/assignment2/controllers/default.py", line 167, in <module>\n  File "/home/aditi/Desktop/web2py/gluon/globals.py", line 193, in <lambda>\n    self._caller = lambda f: f()\n  File "/home/aditi/Desktop/web2py/applications/assignment2/controllers/default.py", line 78, in changedetails\n    db.newsitem.update(category=form.vars.category,heading=form.vars.heading,choice=form.vars.choice,url=form.vars.url)\n  File "/home/aditi/Desktop/web2py/gluon/dal.py", line 7646, in update\n    raise RuntimeError("Syntax Not Supported")\nRuntimeError: Syntax Not Supported\n'
p5825
s.