(dp1
S'output'
p2
S"<type 'exceptions.RuntimeError'> Syntax Not Supported"
p3
sS'layer'
p4
S'/home/aditi/Desktop/web2py/applications/assignment2/controllers/default.py'
p5
sS'code'
p6
S'# -*- coding: utf-8 -*-\n# this file is released under public domain and you can use without limitations\n\n#########################################################################\n## This is a samples controller\n## - index is the default action of any application\n## - user is required for authentication and authorization\n## - download is for downloading files uploaded in the db (does streaming)\n## - call exposes all registered services (none by default)\n#########################################################################\n\n\n@auth.requires_login()\ndef index():\n    """\n    example action using the internationalization operator T and flash\n    rendered by views/default/index.html or views/generic.html\n\n    if you need a simple wiki simple replace the two lines below with:\n    return auth.wiki()\n    """\n    a=auth.user.id\n    b=db(db.auth_user.id==a).select(db.auth_user.username,db.auth_user.account_type)\n    if b[0][\'account_type\']==\'user\':\n        redirect(URL(r=request,f=\'user_homepage\'))\n    elif b[0][\'account_type\']==\'admin\':\n        redirect(URL(r=request,f=\'intermediate\'))\n    else:\n        response.flash="You may not be having an account"\n    return locals()\n\ndef user_homepage():\n    a=auth.user.id\n    f=db(db.auth_user.id==a).select(db.auth_user.first_name)\n    l=db(db.auth_user.id==a).select(db.auth_user.last_name)\n    c=db().select(db.category.name)\n    temp=[]\n    for i in range(len(c)):\n        temp.append(c[i][\'name\'])\n    form=SQLFORM.factory(db.Field(\'category\',\'string\',requires=IS_IN_SET(temp),required=True,label=\'Enter category\'),\n                        Field(\'heading\',\'string\',label=\'Enter heading\',required=True),\n                        Field(\'choice\',\'string\',requires=IS_IN_SET([\'article\',\'video\']),required=True),\n                        Field(\'url\',\'string\',requires=IS_URL(),label=\'Enter URL\',required=True))\n    if(form.accepts(request.vars,session)):\n        db.newsitem.insert(userid=a,category=form.vars.category,heading=form.vars.heading,url=form.vars.url,points=100,likes=0,dislikes=0,rating=1)\n        response.flash=\'News item successfully added\'\n        redirect(URL(r=request,f=\'user_homepage\'))\n    n=db().select(db.newsitem.ALL)\n    count=0\n    deleteform=[]\n    editform=[]\n    for i in range(len(n)):\n        if n[i][\'userid\']==a:\n            p=n[i][\'id\']\n            deleteform.append(SQLFORM.factory(submit_button="Delete post"))\n            editform.append(SQLFORM.factory(submit_button="Edit post"))\n            if deleteform[count].process(formname=\'deleteform[%d]\'%count).accepted:\n                db(db.newsitem.id==p).delete()\n                redirect(URL(r=request,f=\'user_homepage\'))\n                count+=1\n            if editform[count].process(formname=\'editform[%d]\'%count).accepted:\n                redirect(URL(r=request,f=\'changedetails?id=%d\'%p))\n                count+=1\n    return locals()\n\ndef changedetails():\n    p=request.vars.id\n    x=db(db.newsitem.id==p).select(db.newsitem.ALL)\n    c=db().select(db.category.ALL)\n    temp=[]\n    for i in range(len(c)):\n        temp.append(c[i][\'name\'])\n    form=SQLFORM.factory(db.Field(\'category\',\'string\',requires=IS_IN_SET(temp),required=True,default=x[0][\'category\']),\n                        Field(\'heading\',\'string\',required=True,default=x[0][\'heading\']),\n                        Field(\'choice\',\'string\',requires=IS_IN_SET([\'article\',\'video\']),required=True,default=x[0][\'choice\']),\n                        Field(\'URL\',\'string\',requires=IS_URL(),required=True,default=x[0][\'url\']))\n    if(form.accepts(request.vars,session)):\n        db.newsitem.update(category=form.vars.category,heading=form.vars.heading,choice=form.vars.choice,url=form.vars.url)\n        redirect(URL(r=request,f=\'user_homepage\'))\n        response.flash="Your news item has been updated successfully!"\n    return locals()\n\ndef intermediate():\n    form=SQLFORM.factory(db.Field(\'key\',\'password\',readable=False,required=True))\n    if(form.accepts(request.vars,session)):\n        if form.vars.key==\'ab%k20*(kd12$\':\n            redirect(URL(r=request,f=\'admin_homepage\'))\n        else:\n            response.flash="Wrong key entered."\n    return locals()\n\ndef admin_homepage():\n    a=auth.user.id\n    count=0\n    f=db(db.auth_user.id==a).select(db.auth_user.first_name)\n    l=db(db.auth_user.id==a).select(db.auth_user.last_name)\n    form1=SQLFORM.factory(db.Field(\'category\',\'string\',label=\'Enter category\',required=True))\n    if(form1.accepts(request.vars,session)):\n        db.category.insert(name=form1.vars.category)\n        response.flash=\'New category successfully added.\'\n    n=db().select(db.newsitem.ALL)\n    c=db().select(db.category.name)\n    form2=[]\n    for i in range(len(c)):\n        for j in range(len(n)):\n             p=n[j][\'id\']\n             if n[j][\'category\']==c[i][\'name\']:\n                  form2.append(SQLFORM.factory(submit_button="Delete post"))\n                  if form2[count].process(formname=\'form2[%d]\'%count).accepted:\n                      db(db.newsitem.id==p).delete()\n                      redirect(URL(r=request,f=\'admin_homepage\'))\n                  count+=1\n    return locals()\n\ndef user():\n    """\n    exposes:\n    http://..../[app]/default/user/login\n    http://..../[app]/default/user/logout\n    http://..../[app]/default/user/register\n    http://..../[app]/default/user/profile\n    http://..../[app]/default/user/retrieve_password\n    http://..../[app]/default/user/change_password\n    use @auth.requires_login()\n        @auth.requires_membership(\'group name\')\n        @auth.requires_permission(\'read\',\'table name\',record_id)\n    to decorate functions that need access control\n    """\n    return dict(form=auth())\n\n\ndef download():\n    """\n    allows downloading of uploaded files\n    http://..../[app]/default/download/[filename]\n    """\n    return response.download(request, db)\n\n\ndef call():\n    """\n    exposes services. for example:\n    http://..../[app]/default/call/jsonrpc\n    decorate with @services.jsonrpc the functions to expose\n    supports xml, json, xmlrpc, jsonrpc, amfrpc, rss, csv\n    """\n    return service()\n\n\n@auth.requires_signature()\ndef data():\n    """\n    http://..../[app]/default/data/tables\n    http://..../[app]/default/data/create/[table]\n    http://..../[app]/default/data/read/[table]/[id]\n    http://..../[app]/default/data/update/[table]/[id]\n    http://..../[app]/default/data/delete/[table]/[id]\n    http://..../[app]/default/data/select/[table]\n    http://..../[app]/default/data/search/[table]\n    but URLs must be signed, i.e. linked with\n      A(\'table\',_href=URL(\'data/tables\',user_signature=True))\n    or with the signed load operator\n      LOAD(\'default\',\'data.load\',args=\'tables\',ajax=True,user_signature=True)\n    """\n    return dict(form=crud())\n\nresponse._vars=response._caller(changedetails)\n'
p7
sS'snapshot'
p8
(dp9
S'exception'
p10
(dp11
S'__hash__'
p12
S"<method-wrapper '__hash__' of exceptions.RuntimeError object>"
p13
sS'__setattr__'
p14
S"<method-wrapper '__setattr__' of exceptions.RuntimeError object>"
p15
sS'__reduce_ex__'
p16
S'<built-in method __reduce_ex__ of exceptions.RuntimeError object>'
p17
sS'__getslice__'
p18
S"<method-wrapper '__getslice__' of exceptions.RuntimeError object>"
p19
sS'__getitem__'
p20
S"<method-wrapper '__getitem__' of exceptions.RuntimeError object>"
p21
sS'__setstate__'
p22
S'<built-in method __setstate__ of exceptions.RuntimeError object>'
p23
sS'__reduce__'
p24
S'<built-in method __reduce__ of exceptions.RuntimeError object>'
p25
sS'__str__'
p26
S"<method-wrapper '__str__' of exceptions.RuntimeError object>"
p27
sS'__format__'
p28
S'<built-in method __format__ of exceptions.RuntimeError object>'
p29
sS'__getattribute__'
p30
S"<method-wrapper '__getattribute__' of exceptions.RuntimeError object>"
p31
sS'__class__'
p32
S"<type 'exceptions.RuntimeError'>"
p33
sS'__unicode__'
p34
S'<built-in method __unicode__ of exceptions.RuntimeError object>'
p35
sS'__delattr__'
p36
S"<method-wrapper '__delattr__' of exceptions.RuntimeError object>"
p37
sS'__subclasshook__'
p38
S'<built-in method __subclasshook__ of type object>'
p39
sS'__repr__'
p40
S"<method-wrapper '__repr__' of exceptions.RuntimeError object>"
p41
sS'args'
p42
S"('Syntax Not Supported',)"
p43
sS'__dict__'
p44
S'{}'
p45
sS'__sizeof__'
p46
S'<built-in method __sizeof__ of exceptions.RuntimeError object>'
p47
sS'__doc__'
p48
S"'Unspecified run-time error.'"
p49
sS'__init__'
p50
S"<method-wrapper '__init__' of exceptions.RuntimeError object>"
p51
sS'__new__'
p52
S'<built-in method __new__ of type object>'
p53
ssS'evalue'
p54
S'Syntax Not Supported'
p55
sS'request'
p56
ccopy_reg
_reconstructor
p57
(cgluon.html
BEAUTIFY
p58
c__builtin__
object
p59
NtRp60
(dp61
S'attributes'
p62
(dp63
sS'components'
p64
(lp65
g57
(cgluon.html
TABLE
p66
g59
NtRp67
(dp68
g62
(dp69
S'level'
p70
I5
ssS'parent'
p71
Nsg64
(lp72
g57
(cgluon.html
TR
p73
g59
NtRp74
(dp75
g62
(dp76
sg71
g67
sg64
(lp77
g57
(cgluon.html
TD
p78
g59
NtRp79
(dp80
g62
(dp81
S'_style'
p82
S'font-weight:bold;vertical-align:top'
p83
ssg71
g74
sg64
(lp84
S'ajax'
p85
asbag57
(g78
g59
NtRp86
(dp87
g62
(dp88
S'_valign'
p89
S'top'
p90
ssg71
g74
sg64
(lp91
S':'
asbag57
(g78
g59
NtRp92
(dp93
g62
(dp94
sg71
g74
sg64
(lp95
g57
(g58
g59
NtRp96
(dp97
g62
(dp98
g70
I5
ssg71
g92
sg64
(lp99
S'False'
p100
asbasbasbag57
(g73
g59
NtRp101
(dp102
g62
(dp103
sg71
g67
sg64
(lp104
g57
(g78
g59
NtRp105
(dp106
g62
(dp107
g82
g83
ssg71
g101
sg64
(lp108
S'application'
p109
asbag57
(g78
g59
NtRp110
(dp111
g62
(dp112
g89
g90
ssg71
g101
sg64
(lp113
S':'
asbag57
(g78
g59
NtRp114
(dp115
g62
(dp116
sg71
g101
sg64
(lp117
g57
(g58
g59
NtRp118
(dp119
g62
(dp120
g70
I5
ssg71
g114
sg64
(lp121
S'assignment2'
p122
asbasbasbag57
(g73
g59
NtRp123
(dp124
g62
(dp125
sg71
g67
sg64
(lp126
g57
(g78
g59
NtRp127
(dp128
g62
(dp129
g82
g83
ssg71
g123
sg64
(lp130
g42
asbag57
(g78
g59
NtRp131
(dp132
g62
(dp133
g89
g90
ssg71
g123
sg64
(lp134
S':'
asbag57
(g78
g59
NtRp135
(dp136
g62
(dp137
sg71
g123
sg64
(lp138
g57
(g58
g59
NtRp139
(dp140
g62
(dp141
g70
I5
ssg71
g135
sg64
(lp142
g57
(g66
g59
NtRp143
(dp144
g62
(dp145
g70
I4
ssg71
Nsg64
(lp146
sbasbasbasbag57
(g73
g59
NtRp147
(dp148
g62
(dp149
sg71
g67
sg64
(lp150
g57
(g78
g59
NtRp151
(dp152
g62
(dp153
g82
g83
ssg71
g147
sg64
(lp154
S'body'
p155
asbag57
(g78
g59
NtRp156
(dp157
g62
(dp158
g89
g90
ssg71
g147
sg64
(lp159
S':'
asbag57
(g78
g59
NtRp160
(dp161
g62
(dp162
sg71
g147
sg64
(lp163
g57
(g58
g59
NtRp164
(dp165
g62
(dp166
g70
I5
ssg71
g160
sg64
(lp167
S"<open file '<fdopen>', mode 'w+b' at 0xac413128>"
p168
asbasbasbag57
(g73
g59
NtRp169
(dp170
g62
(dp171
sg71
g67
sg64
(lp172
g57
(g78
g59
NtRp173
(dp174
g62
(dp175
g82
g83
ssg71
g169
sg64
(lp176
S'cid'
p177
asbag57
(g78
g59
NtRp178
(dp179
g62
(dp180
g89
g90
ssg71
g169
sg64
(lp181
S':'
asbag57
(g78
g59
NtRp182
(dp183
g62
(dp184
sg71
g169
sg64
(lp185
g57
(g58
g59
NtRp186
(dp187
g62
(dp188
g70
I5
ssg71
g182
sg64
(lp189
S'None'
p190
asbasbasbag57
(g73
g59
NtRp191
(dp192
g62
(dp193
sg71
g67
sg64
(lp194
g57
(g78
g59
NtRp195
(dp196
g62
(dp197
g82
g83
ssg71
g191
sg64
(lp198
S'client'
p199
asbag57
(g78
g59
NtRp200
(dp201
g62
(dp202
g89
g90
ssg71
g191
sg64
(lp203
S':'
asbag57
(g78
g59
NtRp204
(dp205
g62
(dp206
sg71
g191
sg64
(lp207
g57
(g58
g59
NtRp208
(dp209
g62
(dp210
g70
I5
ssg71
g204
sg64
(lp211
S'127.0.0.1'
p212
asbasbasbag57
(g73
g59
NtRp213
(dp214
g62
(dp215
sg71
g67
sg64
(lp216
g57
(g78
g59
NtRp217
(dp218
g62
(dp219
g82
g83
ssg71
g213
sg64
(lp220
S'controller'
p221
asbag57
(g78
g59
NtRp222
(dp223
g62
(dp224
g89
g90
ssg71
g213
sg64
(lp225
S':'
asbag57
(g78
g59
NtRp226
(dp227
g62
(dp228
sg71
g213
sg64
(lp229
g57
(g58
g59
NtRp230
(dp231
g62
(dp232
g70
I5
ssg71
g226
sg64
(lp233
S'default'
p234
asbasbasbag57
(g73
g59
NtRp235
(dp236
g62
(dp237
sg71
g67
sg64
(lp238
g57
(g78
g59
NtRp239
(dp240
g62
(dp241
g82
g83
ssg71
g235
sg64
(lp242
S'cookies'
p243
asbag57
(g78
g59
NtRp244
(dp245
g62
(dp246
g89
g90
ssg71
g235
sg64
(lp247
S':'
asbag57
(g78
g59
NtRp248
(dp249
g62
(dp250
sg71
g235
sg64
(lp251
g57
(g58
g59
NtRp252
(dp253
g62
(dp254
g70
I5
ssg71
g248
sg64
(lp255
g57
(g66
g59
NtRp256
(dp257
g62
(dp258
g70
I4
ssg71
Nsg64
(lp259
g57
(g73
g59
NtRp260
(dp261
g62
(dp262
sg71
g256
sg64
(lp263
g57
(g78
g59
NtRp264
(dp265
g62
(dp266
g82
g83
ssg71
g260
sg64
(lp267
S'session_id_admin'
p268
asbag57
(g78
g59
NtRp269
(dp270
g62
(dp271
g89
g90
ssg71
g260
sg64
(lp272
S':'
asbag57
(g78
g59
NtRp273
(dp274
g62
(dp275
sg71
g260
sg64
(lp276
g57
(g58
g59
NtRp277
(dp278
g62
(dp279
g70
I4
ssg71
g273
sg64
(lp280
S'127.0.0.1-8963b168-effa-4dc0-8b35-fdcdb207fa30'
p281
ag57
(g66
g59
NtRp282
(dp283
g62
(dp284
g70
I3
ssg71
Nsg64
(lp285
g57
(g73
g59
NtRp286
(dp287
g62
(dp288
sg71
g282
sg64
(lp289
g57
(g78
g59
NtRp290
(dp291
g62
(dp292
g82
g83
ssg71
g286
sg64
(lp293
S'comment'
p294
asbag57
(g78
g59
NtRp295
(dp296
g62
(dp297
g89
g90
ssg71
g286
sg64
(lp298
S':'
asbag57
(g78
g59
NtRp299
(dp300
g62
(dp301
sg71
g286
sg64
(lp302
g57
(g58
g59
NtRp303
(dp304
g62
(dp305
g70
I3
ssg71
g299
sg64
(lp306
S''
asbasbasbag57
(g73
g59
NtRp307
(dp308
g62
(dp309
sg71
g282
sg64
(lp310
g57
(g78
g59
NtRp311
(dp312
g62
(dp313
g82
g83
ssg71
g307
sg64
(lp314
S'domain'
p315
asbag57
(g78
g59
NtRp316
(dp317
g62
(dp318
g89
g90
ssg71
g307
sg64
(lp319
S':'
asbag57
(g78
g59
NtRp320
(dp321
g62
(dp322
sg71
g307
sg64
(lp323
g57
(g58
g59
NtRp324
(dp325
g62
(dp326
g70
I3
ssg71
g320
sg64
(lp327
S''
asbasbasbag57
(g73
g59
NtRp328
(dp329
g62
(dp330
sg71
g282
sg64
(lp331
g57
(g78
g59
NtRp332
(dp333
g62
(dp334
g82
g83
ssg71
g328
sg64
(lp335
S'expires'
p336
asbag57
(g78
g59
NtRp337
(dp338
g62
(dp339
g89
g90
ssg71
g328
sg64
(lp340
S':'
asbag57
(g78
g59
NtRp341
(dp342
g62
(dp343
sg71
g328
sg64
(lp344
g57
(g58
g59
NtRp345
(dp346
g62
(dp347
g70
I3
ssg71
g341
sg64
(lp348
S''
asbasbasbag57
(g73
g59
NtRp349
(dp350
g62
(dp351
sg71
g282
sg64
(lp352
g57
(g78
g59
NtRp353
(dp354
g62
(dp355
g82
g83
ssg71
g349
sg64
(lp356
S'httponly'
p357
asbag57
(g78
g59
NtRp358
(dp359
g62
(dp360
g89
g90
ssg71
g349
sg64
(lp361
S':'
asbag57
(g78
g59
NtRp362
(dp363
g62
(dp364
sg71
g349
sg64
(lp365
g57
(g58
g59
NtRp366
(dp367
g62
(dp368
g70
I3
ssg71
g362
sg64
(lp369
S''
asbasbasbag57
(g73
g59
NtRp370
(dp371
g62
(dp372
sg71
g282
sg64
(lp373
g57
(g78
g59
NtRp374
(dp375
g62
(dp376
g82
g83
ssg71
g370
sg64
(lp377
S'max-age'
p378
asbag57
(g78
g59
NtRp379
(dp380
g62
(dp381
g89
g90
ssg71
g370
sg64
(lp382
S':'
asbag57
(g78
g59
NtRp383
(dp384
g62
(dp385
sg71
g370
sg64
(lp386
g57
(g58
g59
NtRp387
(dp388
g62
(dp389
g70
I3
ssg71
g383
sg64
(lp390
S''
asbasbasbag57
(g73
g59
NtRp391
(dp392
g62
(dp393
sg71
g282
sg64
(lp394
g57
(g78
g59
NtRp395
(dp396
g62
(dp397
g82
g83
ssg71
g391
sg64
(lp398
S'path'
p399
asbag57
(g78
g59
NtRp400
(dp401
g62
(dp402
g89
g90
ssg71
g391
sg64
(lp403
S':'
asbag57
(g78
g59
NtRp404
(dp405
g62
(dp406
sg71
g391
sg64
(lp407
g57
(g58
g59
NtRp408
(dp409
g62
(dp410
g70
I3
ssg71
g404
sg64
(lp411
S''
asbasbasbag57
(g73
g59
NtRp412
(dp413
g62
(dp414
sg71
g282
sg64
(lp415
g57
(g78
g59
NtRp416
(dp417
g62
(dp418
g82
g83
ssg71
g412
sg64
(lp419
S'secure'
p420
asbag57
(g78
g59
NtRp421
(dp422
g62
(dp423
g89
g90
ssg71
g412
sg64
(lp424
S':'
asbag57
(g78
g59
NtRp425
(dp426
g62
(dp427
sg71
g412
sg64
(lp428
g57
(g58
g59
NtRp429
(dp430
g62
(dp431
g70
I3
ssg71
g425
sg64
(lp432
S''
asbasbasbag57
(g73
g59
NtRp433
(dp434
g62
(dp435
sg71
g282
sg64
(lp436
g57
(g78
g59
NtRp437
(dp438
g62
(dp439
g82
g83
ssg71
g433
sg64
(lp440
S'version'
p441
asbag57
(g78
g59
NtRp442
(dp443
g62
(dp444
g89
g90
ssg71
g433
sg64
(lp445
S':'
asbag57
(g78
g59
NtRp446
(dp447
g62
(dp448
sg71
g433
sg64
(lp449
g57
(g58
g59
NtRp450
(dp451
g62
(dp452
g70
I3
ssg71
g446
sg64
(lp453
S''
asbasbasbasbasbasbasbag57
(g73
g59
NtRp454
(dp455
g62
(dp456
sg71
g256
sg64
(lp457
g57
(g78
g59
NtRp458
(dp459
g62
(dp460
g82
g83
ssg71
g454
sg64
(lp461
S'session_id_assignment2'
p462
asbag57
(g78
g59
NtRp463
(dp464
g62
(dp465
g89
g90
ssg71
g454
sg64
(lp466
S':'
asbag57
(g78
g59
NtRp467
(dp468
g62
(dp469
sg71
g454
sg64
(lp470
g57
(g58
g59
NtRp471
(dp472
g62
(dp473
g70
I4
ssg71
g467
sg64
(lp474
S'127.0.0.1-f901c239-914d-4817-baae-ae5793bf884f'
p475
ag57
(g66
g59
NtRp476
(dp477
g62
(dp478
g70
I3
ssg71
Nsg64
(lp479
g57
(g73
g59
NtRp480
(dp481
g62
(dp482
sg71
g476
sg64
(lp483
g57
(g78
g59
NtRp484
(dp485
g62
(dp486
g82
g83
ssg71
g480
sg64
(lp487
g294
asbag57
(g78
g59
NtRp488
(dp489
g62
(dp490
g89
g90
ssg71
g480
sg64
(lp491
S':'
asbag57
(g78
g59
NtRp492
(dp493
g62
(dp494
sg71
g480
sg64
(lp495
g57
(g58
g59
NtRp496
(dp497
g62
(dp498
g70
I3
ssg71
g492
sg64
(lp499
S''
asbasbasbag57
(g73
g59
NtRp500
(dp501
g62
(dp502
sg71
g476
sg64
(lp503
g57
(g78
g59
NtRp504
(dp505
g62
(dp506
g82
g83
ssg71
g500
sg64
(lp507
g315
asbag57
(g78
g59
NtRp508
(dp509
g62
(dp510
g89
g90
ssg71
g500
sg64
(lp511
S':'
asbag57
(g78
g59
NtRp512
(dp513
g62
(dp514
sg71
g500
sg64
(lp515
g57
(g58
g59
NtRp516
(dp517
g62
(dp518
g70
I3
ssg71
g512
sg64
(lp519
S''
asbasbasbag57
(g73
g59
NtRp520
(dp521
g62
(dp522
sg71
g476
sg64
(lp523
g57
(g78
g59
NtRp524
(dp525
g62
(dp526
g82
g83
ssg71
g520
sg64
(lp527
g336
asbag57
(g78
g59
NtRp528
(dp529
g62
(dp530
g89
g90
ssg71
g520
sg64
(lp531
S':'
asbag57
(g78
g59
NtRp532
(dp533
g62
(dp534
sg71
g520
sg64
(lp535
g57
(g58
g59
NtRp536
(dp537
g62
(dp538
g70
I3
ssg71
g532
sg64
(lp539
S''
asbasbasbag57
(g73
g59
NtRp540
(dp541
g62
(dp542
sg71
g476
sg64
(lp543
g57
(g78
g59
NtRp544
(dp545
g62
(dp546
g82
g83
ssg71
g540
sg64
(lp547
g357
asbag57
(g78
g59
NtRp548
(dp549
g62
(dp550
g89
g90
ssg71
g540
sg64
(lp551
S':'
asbag57
(g78
g59
NtRp552
(dp553
g62
(dp554
sg71
g540
sg64
(lp555
g57
(g58
g59
NtRp556
(dp557
g62
(dp558
g70
I3
ssg71
g552
sg64
(lp559
S''
asbasbasbag57
(g73
g59
NtRp560
(dp561
g62
(dp562
sg71
g476
sg64
(lp563
g57
(g78
g59
NtRp564
(dp565
g62
(dp566
g82
g83
ssg71
g560
sg64
(lp567
g378
asbag57
(g78
g59
NtRp568
(dp569
g62
(dp570
g89
g90
ssg71
g560
sg64
(lp571
S':'
asbag57
(g78
g59
NtRp572
(dp573
g62
(dp574
sg71
g560
sg64
(lp575
g57
(g58
g59
NtRp576
(dp577
g62
(dp578
g70
I3
ssg71
g572
sg64
(lp579
S''
asbasbasbag57
(g73
g59
NtRp580
(dp581
g62
(dp582
sg71
g476
sg64
(lp583
g57
(g78
g59
NtRp584
(dp585
g62
(dp586
g82
g83
ssg71
g580
sg64
(lp587
g399
asbag57
(g78
g59
NtRp588
(dp589
g62
(dp590
g89
g90
ssg71
g580
sg64
(lp591
S':'
asbag57
(g78
g59
NtRp592
(dp593
g62
(dp594
sg71
g580
sg64
(lp595
g57
(g58
g59
NtRp596
(dp597
g62
(dp598
g70
I3
ssg71
g592
sg64
(lp599
S''
asbasbasbag57
(g73
g59
NtRp600
(dp601
g62
(dp602
sg71
g476
sg64
(lp603
g57
(g78
g59
NtRp604
(dp605
g62
(dp606
g82
g83
ssg71
g600
sg64
(lp607
g420
asbag57
(g78
g59
NtRp608
(dp609
g62
(dp610
g89
g90
ssg71
g600
sg64
(lp611
S':'
asbag57
(g78
g59
NtRp612
(dp613
g62
(dp614
sg71
g600
sg64
(lp615
g57
(g58
g59
NtRp616
(dp617
g62
(dp618
g70
I3
ssg71
g612
sg64
(lp619
S''
asbasbasbag57
(g73
g59
NtRp620
(dp621
g62
(dp622
sg71
g476
sg64
(lp623
g57
(g78
g59
NtRp624
(dp625
g62
(dp626
g82
g83
ssg71
g620
sg64
(lp627
g441
asbag57
(g78
g59
NtRp628
(dp629
g62
(dp630
g89
g90
ssg71
g620
sg64
(lp631
S':'
asbag57
(g78
g59
NtRp632
(dp633
g62
(dp634
sg71
g620
sg64
(lp635
g57
(g58
g59
NtRp636
(dp637
g62
(dp638
g70
I3
ssg71
g632
sg64
(lp639
S''
asbasbasbasbasbasbasbag57
(g73
g59
NtRp640
(dp641
g62
(dp642
sg71
g256
sg64
(lp643
g57
(g78
g59
NtRp644
(dp645
g62
(dp646
g82
g83
ssg71
g640
sg64
(lp647
S'session_id_welcome'
p648
asbag57
(g78
g59
NtRp649
(dp650
g62
(dp651
g89
g90
ssg71
g640
sg64
(lp652
S':'
asbag57
(g78
g59
NtRp653
(dp654
g62
(dp655
sg71
g640
sg64
(lp656
g57
(g58
g59
NtRp657
(dp658
g62
(dp659
g70
I4
ssg71
g653
sg64
(lp660
S'127.0.0.1-2a3f0a40-83b1-4e73-811e-c902f1f09304'
p661
ag57
(g66
g59
NtRp662
(dp663
g62
(dp664
g70
I3
ssg71
Nsg64
(lp665
g57
(g73
g59
NtRp666
(dp667
g62
(dp668
sg71
g662
sg64
(lp669
g57
(g78
g59
NtRp670
(dp671
g62
(dp672
g82
g83
ssg71
g666
sg64
(lp673
g294
asbag57
(g78
g59
NtRp674
(dp675
g62
(dp676
g89
g90
ssg71
g666
sg64
(lp677
S':'
asbag57
(g78
g59
NtRp678
(dp679
g62
(dp680
sg71
g666
sg64
(lp681
g57
(g58
g59
NtRp682
(dp683
g62
(dp684
g70
I3
ssg71
g678
sg64
(lp685
S''
asbasbasbag57
(g73
g59
NtRp686
(dp687
g62
(dp688
sg71
g662
sg64
(lp689
g57
(g78
g59
NtRp690
(dp691
g62
(dp692
g82
g83
ssg71
g686
sg64
(lp693
g315
asbag57
(g78
g59
NtRp694
(dp695
g62
(dp696
g89
g90
ssg71
g686
sg64
(lp697
S':'
asbag57
(g78
g59
NtRp698
(dp699
g62
(dp700
sg71
g686
sg64
(lp701
g57
(g58
g59
NtRp702
(dp703
g62
(dp704
g70
I3
ssg71
g698
sg64
(lp705
S''
asbasbasbag57
(g73
g59
NtRp706
(dp707
g62
(dp708
sg71
g662
sg64
(lp709
g57
(g78
g59
NtRp710
(dp711
g62
(dp712
g82
g83
ssg71
g706
sg64
(lp713
g336
asbag57
(g78
g59
NtRp714
(dp715
g62
(dp716
g89
g90
ssg71
g706
sg64
(lp717
S':'
asbag57
(g78
g59
NtRp718
(dp719
g62
(dp720
sg71
g706
sg64
(lp721
g57
(g58
g59
NtRp722
(dp723
g62
(dp724
g70
I3
ssg71
g718
sg64
(lp725
S''
asbasbasbag57
(g73
g59
NtRp726
(dp727
g62
(dp728
sg71
g662
sg64
(lp729
g57
(g78
g59
NtRp730
(dp731
g62
(dp732
g82
g83
ssg71
g726
sg64
(lp733
g357
asbag57
(g78
g59
NtRp734
(dp735
g62
(dp736
g89
g90
ssg71
g726
sg64
(lp737
S':'
asbag57
(g78
g59
NtRp738
(dp739
g62
(dp740
sg71
g726
sg64
(lp741
g57
(g58
g59
NtRp742
(dp743
g62
(dp744
g70
I3
ssg71
g738
sg64
(lp745
S''
asbasbasbag57
(g73
g59
NtRp746
(dp747
g62
(dp748
sg71
g662
sg64
(lp749
g57
(g78
g59
NtRp750
(dp751
g62
(dp752
g82
g83
ssg71
g746
sg64
(lp753
g378
asbag57
(g78
g59
NtRp754
(dp755
g62
(dp756
g89
g90
ssg71
g746
sg64
(lp757
S':'
asbag57
(g78
g59
NtRp758
(dp759
g62
(dp760
sg71
g746
sg64
(lp761
g57
(g58
g59
NtRp762
(dp763
g62
(dp764
g70
I3
ssg71
g758
sg64
(lp765
S''
asbasbasbag57
(g73
g59
NtRp766
(dp767
g62
(dp768
sg71
g662
sg64
(lp769
g57
(g78
g59
NtRp770
(dp771
g62
(dp772
g82
g83
ssg71
g766
sg64
(lp773
g399
asbag57
(g78
g59
NtRp774
(dp775
g62
(dp776
g89
g90
ssg71
g766
sg64
(lp777
S':'
asbag57
(g78
g59
NtRp778
(dp779
g62
(dp780
sg71
g766
sg64
(lp781
g57
(g58
g59
NtRp782
(dp783
g62
(dp784
g70
I3
ssg71
g778
sg64
(lp785
S''
asbasbasbag57
(g73
g59
NtRp786
(dp787
g62
(dp788
sg71
g662
sg64
(lp789
g57
(g78
g59
NtRp790
(dp791
g62
(dp792
g82
g83
ssg71
g786
sg64
(lp793
g420
asbag57
(g78
g59
NtRp794
(dp795
g62
(dp796
g89
g90
ssg71
g786
sg64
(lp797
S':'
asbag57
(g78
g59
NtRp798
(dp799
g62
(dp800
sg71
g786
sg64
(lp801
g57
(g58
g59
NtRp802
(dp803
g62
(dp804
g70
I3
ssg71
g798
sg64
(lp805
S''
asbasbasbag57
(g73
g59
NtRp806
(dp807
g62
(dp808
sg71
g662
sg64
(lp809
g57
(g78
g59
NtRp810
(dp811
g62
(dp812
g82
g83
ssg71
g806
sg64
(lp813
g441
asbag57
(g78
g59
NtRp814
(dp815
g62
(dp816
g89
g90
ssg71
g806
sg64
(lp817
S':'
asbag57
(g78
g59
NtRp818
(dp819
g62
(dp820
sg71
g806
sg64
(lp821
g57
(g58
g59
NtRp822
(dp823
g62
(dp824
g70
I3
ssg71
g818
sg64
(lp825
S''
asbasbasbasbasbasbasbasbasbasbasbag57
(g73
g59
NtRp826
(dp827
g62
(dp828
sg71
g67
sg64
(lp829
g57
(g78
g59
NtRp830
(dp831
g62
(dp832
g82
g83
ssg71
g826
sg64
(lp833
S'env'
p834
asbag57
(g78
g59
NtRp835
(dp836
g62
(dp837
g89
g90
ssg71
g826
sg64
(lp838
S':'
asbag57
(g78
g59
NtRp839
(dp840
g62
(dp841
sg71
g826
sg64
(lp842
g57
(g58
g59
NtRp843
(dp844
g62
(dp845
g70
I5
ssg71
g839
sg64
(lp846
g57
(g66
g59
NtRp847
(dp848
g62
(dp849
g70
I4
ssg71
Nsg64
(lp850
g57
(g73
g59
NtRp851
(dp852
g62
(dp853
sg71
g847
sg64
(lp854
g57
(g78
g59
NtRp855
(dp856
g62
(dp857
g82
g83
ssg71
g851
sg64
(lp858
S'app_folders'
p859
asbag57
(g78
g59
NtRp860
(dp861
g62
(dp862
g89
g90
ssg71
g851
sg64
(lp863
S':'
asbag57
(g78
g59
NtRp864
(dp865
g62
(dp866
sg71
g851
sg64
(lp867
g57
(g58
g59
NtRp868
(dp869
g62
(dp870
g70
I4
ssg71
g864
sg64
(lp871
S"set(['/home/aditi/Desktop/web2py/applications/assignment2/', '/home/aditi/Desktop/web2py/applications/admin/', '/home/aditi/Desktop/web2py/applications/welcome/'])"
p872
asbasbasbag57
(g73
g59
NtRp873
(dp874
g62
(dp875
sg71
g847
sg64
(lp876
g57
(g78
g59
NtRp877
(dp878
g62
(dp879
g82
g83
ssg71
g873
sg64
(lp880
S'applications_parent'
p881
asbag57
(g78
g59
NtRp882
(dp883
g62
(dp884
g89
g90
ssg71
g873
sg64
(lp885
S':'
asbag57
(g78
g59
NtRp886
(dp887
g62
(dp888
sg71
g873
sg64
(lp889
g57
(g58
g59
NtRp890
(dp891
g62
(dp892
g70
I4
ssg71
g886
sg64
(lp893
S'/home/aditi/Desktop/web2py'
p894
asbasbasbag57
(g73
g59
NtRp895
(dp896
g62
(dp897
sg71
g847
sg64
(lp898
g57
(g78
g59
NtRp899
(dp900
g62
(dp901
g82
g83
ssg71
g895
sg64
(lp902
S'cmd_args'
p903
asbag57
(g78
g59
NtRp904
(dp905
g62
(dp906
g89
g90
ssg71
g895
sg64
(lp907
S':'
asbag57
(g78
g59
NtRp908
(dp909
g62
(dp910
sg71
g895
sg64
(lp911
g57
(g58
g59
NtRp912
(dp913
g62
(dp914
g70
I4
ssg71
g908
sg64
(lp915
g57
(g66
g59
NtRp916
(dp917
g62
(dp918
g70
I3
ssg71
Nsg64
(lp919
sbasbasbasbag57
(g73
g59
NtRp920
(dp921
g62
(dp922
sg71
g847
sg64
(lp923
g57
(g78
g59
NtRp924
(dp925
g62
(dp926
g82
g83
ssg71
g920
sg64
(lp927
S'cmd_options'
p928
asbag57
(g78
g59
NtRp929
(dp930
g62
(dp931
g89
g90
ssg71
g920
sg64
(lp932
S':'
asbag57
(g78
g59
NtRp933
(dp934
g62
(dp935
sg71
g920
sg64
(lp936
g57
(g58
g59
NtRp937
(dp938
g62
(dp939
g70
I4
ssg71
g933
sg64
(lp940
S"<Values at 0x9ad8a0c: {'verbose': False, 'ip': '127.0.0.1', 'with_scheduler': False, 'ips': [], 'shutdown_timeout': 5, 'taskbar': False, 'port': 8000, 'maxthreads': None, 'softcron': False, 'server_name': 'ubuntu', 'bpython': False, 'nogui': False, 'pid_filename': 'httpserver.pid', 'extcron': False, 'runcron': False, 'run_system_tests': False, 'test': None, 'folder': '/home/aditi/Desktop/web2py', 'config': '', 'import_models': False, 'winservice': '', 'shell': None, 'run': '', 'log_filename': 'httpserver.log', 'debuglevel': 30, 'args': [''], 'socket_timeout': 5, 'ssl_ca_certificate': None, 'scheduler': None, 'profiler_filename': None, 'ssl_private_key': '', 'scheduler_groups': None, 'password': '<ask>', 'request_queue_size': 5, 'ssl_certificate': '', 'cronjob': False, 'numthreads': None, 'quiet': False, 'interfaces': None, 'minthreads': None, 'timeout': 10, 'plain': False, 'nobanner': False}>"
p941
asbasbasbag57
(g73
g59
NtRp942
(dp943
g62
(dp944
sg71
g847
sg64
(lp945
g57
(g78
g59
NtRp946
(dp947
g62
(dp948
g82
g83
ssg71
g942
sg64
(lp949
S'content_length'
p950
asbag57
(g78
g59
NtRp951
(dp952
g62
(dp953
g89
g90
ssg71
g942
sg64
(lp954
S':'
asbag57
(g78
g59
NtRp955
(dp956
g62
(dp957
sg71
g942
sg64
(lp958
g57
(g58
g59
NtRp959
(dp960
g62
(dp961
g70
I4
ssg71
g955
sg64
(lp962
S'901'
p963
asbasbasbag57
(g73
g59
NtRp964
(dp965
g62
(dp966
sg71
g847
sg64
(lp967
g57
(g78
g59
NtRp968
(dp969
g62
(dp970
g82
g83
ssg71
g964
sg64
(lp971
S'content_type'
p972
asbag57
(g78
g59
NtRp973
(dp974
g62
(dp975
g89
g90
ssg71
g964
sg64
(lp976
S':'
asbag57
(g78
g59
NtRp977
(dp978
g62
(dp979
sg71
g964
sg64
(lp980
g57
(g58
g59
NtRp981
(dp982
g62
(dp983
g70
I4
ssg71
g977
sg64
(lp984
S'multipart/form-data; boundary=---------------------------139419555014550596401240501232'
p985
asbasbasbag57
(g73
g59
NtRp986
(dp987
g62
(dp988
sg71
g847
sg64
(lp989
g57
(g78
g59
NtRp990
(dp991
g62
(dp992
g82
g83
ssg71
g986
sg64
(lp993
S'db_sessions'
p994
asbag57
(g78
g59
NtRp995
(dp996
g62
(dp997
g89
g90
ssg71
g986
sg64
(lp998
S':'
asbag57
(g78
g59
NtRp999
(dp1000
g62
(dp1001
sg71
g986
sg64
(lp1002
g57
(g58
g59
NtRp1003
(dp1004
g62
(dp1005
g70
I4
ssg71
g999
sg64
(lp1006
S'set([])'
p1007
asbasbasbag57
(g73
g59
NtRp1008
(dp1009
g62
(dp1010
sg71
g847
sg64
(lp1011
g57
(g78
g59
NtRp1012
(dp1013
g62
(dp1014
g82
g83
ssg71
g1008
sg64
(lp1015
S'debugging'
p1016
asbag57
(g78
g59
NtRp1017
(dp1018
g62
(dp1019
g89
g90
ssg71
g1008
sg64
(lp1020
S':'
asbag57
(g78
g59
NtRp1021
(dp1022
g62
(dp1023
sg71
g1008
sg64
(lp1024
g57
(g58
g59
NtRp1025
(dp1026
g62
(dp1027
g70
I4
ssg71
g1021
sg64
(lp1028
g100
asbasbasbag57
(g73
g59
NtRp1029
(dp1030
g62
(dp1031
sg71
g847
sg64
(lp1032
g57
(g78
g59
NtRp1033
(dp1034
g62
(dp1035
g82
g83
ssg71
g1029
sg64
(lp1036
S'gluon_parent'
p1037
asbag57
(g78
g59
NtRp1038
(dp1039
g62
(dp1040
g89
g90
ssg71
g1029
sg64
(lp1041
S':'
asbag57
(g78
g59
NtRp1042
(dp1043
g62
(dp1044
sg71
g1029
sg64
(lp1045
g57
(g58
g59
NtRp1046
(dp1047
g62
(dp1048
g70
I4
ssg71
g1042
sg64
(lp1049
S'/home/aditi/Desktop/web2py'
p1050
asbasbasbag57
(g73
g59
NtRp1051
(dp1052
g62
(dp1053
sg71
g847
sg64
(lp1054
g57
(g78
g59
NtRp1055
(dp1056
g62
(dp1057
g82
g83
ssg71
g1051
sg64
(lp1058
S'http_accept'
p1059
asbag57
(g78
g59
NtRp1060
(dp1061
g62
(dp1062
g89
g90
ssg71
g1051
sg64
(lp1063
S':'
asbag57
(g78
g59
NtRp1064
(dp1065
g62
(dp1066
sg71
g1051
sg64
(lp1067
g57
(g58
g59
NtRp1068
(dp1069
g62
(dp1070
g70
I4
ssg71
g1064
sg64
(lp1071
S'text/html,application/xhtml+xml,application/xml;q=0.9,*/*;q=0.8'
p1072
asbasbasbag57
(g73
g59
NtRp1073
(dp1074
g62
(dp1075
sg71
g847
sg64
(lp1076
g57
(g78
g59
NtRp1077
(dp1078
g62
(dp1079
g82
g83
ssg71
g1073
sg64
(lp1080
S'http_accept_encoding'
p1081
asbag57
(g78
g59
NtRp1082
(dp1083
g62
(dp1084
g89
g90
ssg71
g1073
sg64
(lp1085
S':'
asbag57
(g78
g59
NtRp1086
(dp1087
g62
(dp1088
sg71
g1073
sg64
(lp1089
g57
(g58
g59
NtRp1090
(dp1091
g62
(dp1092
g70
I4
ssg71
g1086
sg64
(lp1093
S'gzip, deflate'
p1094
asbasbasbag57
(g73
g59
NtRp1095
(dp1096
g62
(dp1097
sg71
g847
sg64
(lp1098
g57
(g78
g59
NtRp1099
(dp1100
g62
(dp1101
g82
g83
ssg71
g1095
sg64
(lp1102
S'http_accept_language'
p1103
asbag57
(g78
g59
NtRp1104
(dp1105
g62
(dp1106
g89
g90
ssg71
g1095
sg64
(lp1107
S':'
asbag57
(g78
g59
NtRp1108
(dp1109
g62
(dp1110
sg71
g1095
sg64
(lp1111
g57
(g58
g59
NtRp1112
(dp1113
g62
(dp1114
g70
I4
ssg71
g1108
sg64
(lp1115
S'en-US,en;q=0.5'
p1116
asbasbasbag57
(g73
g59
NtRp1117
(dp1118
g62
(dp1119
sg71
g847
sg64
(lp1120
g57
(g78
g59
NtRp1121
(dp1122
g62
(dp1123
g82
g83
ssg71
g1117
sg64
(lp1124
S'http_cache_control'
p1125
asbag57
(g78
g59
NtRp1126
(dp1127
g62
(dp1128
g89
g90
ssg71
g1117
sg64
(lp1129
S':'
asbag57
(g78
g59
NtRp1130
(dp1131
g62
(dp1132
sg71
g1117
sg64
(lp1133
g57
(g58
g59
NtRp1134
(dp1135
g62
(dp1136
g70
I4
ssg71
g1130
sg64
(lp1137
S'max-age=0'
p1138
asbasbasbag57
(g73
g59
NtRp1139
(dp1140
g62
(dp1141
sg71
g847
sg64
(lp1142
g57
(g78
g59
NtRp1143
(dp1144
g62
(dp1145
g82
g83
ssg71
g1139
sg64
(lp1146
S'http_connection'
p1147
asbag57
(g78
g59
NtRp1148
(dp1149
g62
(dp1150
g89
g90
ssg71
g1139
sg64
(lp1151
S':'
asbag57
(g78
g59
NtRp1152
(dp1153
g62
(dp1154
sg71
g1139
sg64
(lp1155
g57
(g58
g59
NtRp1156
(dp1157
g62
(dp1158
g70
I4
ssg71
g1152
sg64
(lp1159
S'keep-alive'
p1160
asbasbasbag57
(g73
g59
NtRp1161
(dp1162
g62
(dp1163
sg71
g847
sg64
(lp1164
g57
(g78
g59
NtRp1165
(dp1166
g62
(dp1167
g82
g83
ssg71
g1161
sg64
(lp1168
S'http_content_length'
p1169
asbag57
(g78
g59
NtRp1170
(dp1171
g62
(dp1172
g89
g90
ssg71
g1161
sg64
(lp1173
S':'
asbag57
(g78
g59
NtRp1174
(dp1175
g62
(dp1176
sg71
g1161
sg64
(lp1177
g57
(g58
g59
NtRp1178
(dp1179
g62
(dp1180
g70
I4
ssg71
g1174
sg64
(lp1181
g963
asbasbasbag57
(g73
g59
NtRp1182
(dp1183
g62
(dp1184
sg71
g847
sg64
(lp1185
g57
(g78
g59
NtRp1186
(dp1187
g62
(dp1188
g82
g83
ssg71
g1182
sg64
(lp1189
S'http_content_type'
p1190
asbag57
(g78
g59
NtRp1191
(dp1192
g62
(dp1193
g89
g90
ssg71
g1182
sg64
(lp1194
S':'
asbag57
(g78
g59
NtRp1195
(dp1196
g62
(dp1197
sg71
g1182
sg64
(lp1198
g57
(g58
g59
NtRp1199
(dp1200
g62
(dp1201
g70
I4
ssg71
g1195
sg64
(lp1202
g985
asbasbasbag57
(g73
g59
NtRp1203
(dp1204
g62
(dp1205
sg71
g847
sg64
(lp1206
g57
(g78
g59
NtRp1207
(dp1208
g62
(dp1209
g82
g83
ssg71
g1203
sg64
(lp1210
S'http_cookie'
p1211
asbag57
(g78
g59
NtRp1212
(dp1213
g62
(dp1214
g89
g90
ssg71
g1203
sg64
(lp1215
S':'
asbag57
(g78
g59
NtRp1216
(dp1217
g62
(dp1218
sg71
g1203
sg64
(lp1219
g57
(g58
g59
NtRp1220
(dp1221
g62
(dp1222
g70
I4
ssg71
g1216
sg64
(lp1223
S'session_id_welcome=127.0.0.1-2a3f0a40-83b1-4e73-811e-c902f1f09304; session_id_admin=127.0.0.1-8963b168-effa-4dc0-8b35-fdcdb207fa30; session_id_assignment2=127.0.0.1-f901c239-914d-4817-baae-ae5793bf884f'
p1224
asbasbasbag57
(g73
g59
NtRp1225
(dp1226
g62
(dp1227
sg71
g847
sg64
(lp1228
g57
(g78
g59
NtRp1229
(dp1230
g62
(dp1231
g82
g83
ssg71
g1225
sg64
(lp1232
S'http_host'
p1233
asbag57
(g78
g59
NtRp1234
(dp1235
g62
(dp1236
g89
g90
ssg71
g1225
sg64
(lp1237
S':'
asbag57
(g78
g59
NtRp1238
(dp1239
g62
(dp1240
sg71
g1225
sg64
(lp1241
g57
(g58
g59
NtRp1242
(dp1243
g62
(dp1244
g70
I4
ssg71
g1238
sg64
(lp1245
S'127.0.0.1:8000'
p1246
asbasbasbag57
(g73
g59
NtRp1247
(dp1248
g62
(dp1249
sg71
g847
sg64
(lp1250
g57
(g78
g59
NtRp1251
(dp1252
g62
(dp1253
g82
g83
ssg71
g1247
sg64
(lp1254
S'http_referer'
p1255
asbag57
(g78
g59
NtRp1256
(dp1257
g62
(dp1258
g89
g90
ssg71
g1247
sg64
(lp1259
S':'
asbag57
(g78
g59
NtRp1260
(dp1261
g62
(dp1262
sg71
g1247
sg64
(lp1263
g57
(g58
g59
NtRp1264
(dp1265
g62
(dp1266
g70
I4
ssg71
g1260
sg64
(lp1267
S'http://127.0.0.1:8000/assignment2/default/changedetails?id=3'
p1268
asbasbasbag57
(g73
g59
NtRp1269
(dp1270
g62
(dp1271
sg71
g847
sg64
(lp1272
g57
(g78
g59
NtRp1273
(dp1274
g62
(dp1275
g82
g83
ssg71
g1269
sg64
(lp1276
S'http_user_agent'
p1277
asbag57
(g78
g59
NtRp1278
(dp1279
g62
(dp1280
g89
g90
ssg71
g1269
sg64
(lp1281
S':'
asbag57
(g78
g59
NtRp1282
(dp1283
g62
(dp1284
sg71
g1269
sg64
(lp1285
g57
(g58
g59
NtRp1286
(dp1287
g62
(dp1288
g70
I4
ssg71
g1282
sg64
(lp1289
S'Mozilla/5.0 (X11; Ubuntu; Linux i686; rv:23.0) Gecko/20100101 Firefox/23.0'
p1290
asbasbasbag57
(g73
g59
NtRp1291
(dp1292
g62
(dp1293
sg71
g847
sg64
(lp1294
g57
(g78
g59
NtRp1295
(dp1296
g62
(dp1297
g82
g83
ssg71
g1291
sg64
(lp1298
S'is_jython'
p1299
asbag57
(g78
g59
NtRp1300
(dp1301
g62
(dp1302
g89
g90
ssg71
g1291
sg64
(lp1303
S':'
asbag57
(g78
g59
NtRp1304
(dp1305
g62
(dp1306
sg71
g1291
sg64
(lp1307
g57
(g58
g59
NtRp1308
(dp1309
g62
(dp1310
g70
I4
ssg71
g1304
sg64
(lp1311
g100
asbasbasbag57
(g73
g59
NtRp1312
(dp1313
g62
(dp1314
sg71
g847
sg64
(lp1315
g57
(g78
g59
NtRp1316
(dp1317
g62
(dp1318
g82
g83
ssg71
g1312
sg64
(lp1319
S'is_pypy'
p1320
asbag57
(g78
g59
NtRp1321
(dp1322
g62
(dp1323
g89
g90
ssg71
g1312
sg64
(lp1324
S':'
asbag57
(g78
g59
NtRp1325
(dp1326
g62
(dp1327
sg71
g1312
sg64
(lp1328
g57
(g58
g59
NtRp1329
(dp1330
g62
(dp1331
g70
I4
ssg71
g1325
sg64
(lp1332
g100
asbasbasbag57
(g73
g59
NtRp1333
(dp1334
g62
(dp1335
sg71
g847
sg64
(lp1336
g57
(g78
g59
NtRp1337
(dp1338
g62
(dp1339
g82
g83
ssg71
g1333
sg64
(lp1340
S'local_hosts'
p1341
asbag57
(g78
g59
NtRp1342
(dp1343
g62
(dp1344
g89
g90
ssg71
g1333
sg64
(lp1345
S':'
asbag57
(g78
g59
NtRp1346
(dp1347
g62
(dp1348
sg71
g1333
sg64
(lp1349
g57
(g58
g59
NtRp1350
(dp1351
g62
(dp1352
g70
I4
ssg71
g1346
sg64
(lp1353
g57
(g66
g59
NtRp1354
(dp1355
g62
(dp1356
g70
I3
ssg71
Nsg64
(lp1357
g57
(g73
g59
NtRp1358
(dp1359
g62
(dp1360
sg71
g1354
sg64
(lp1361
g57
(g78
g59
NtRp1362
(dp1363
g62
(dp1364
sg71
g1358
sg64
(lp1365
g57
(g58
g59
NtRp1366
(dp1367
g62
(dp1368
g70
I3
ssg71
g1362
sg64
(lp1369
S'ubuntu.ubuntu-domain'
p1370
asbasbasbag57
(g73
g59
NtRp1371
(dp1372
g62
(dp1373
sg71
g1354
sg64
(lp1374
g57
(g78
g59
NtRp1375
(dp1376
g62
(dp1377
sg71
g1371
sg64
(lp1378
g57
(g58
g59
NtRp1379
(dp1380
g62
(dp1381
g70
I3
ssg71
g1375
sg64
(lp1382
S'::ffff:127.0.0.1'
p1383
asbasbasbag57
(g73
g59
NtRp1384
(dp1385
g62
(dp1386
sg71
g1354
sg64
(lp1387
g57
(g78
g59
NtRp1388
(dp1389
g62
(dp1390
sg71
g1384
sg64
(lp1391
g57
(g58
g59
NtRp1392
(dp1393
g62
(dp1394
g70
I3
ssg71
g1388
sg64
(lp1395
S'::1'
p1396
asbasbasbag57
(g73
g59
NtRp1397
(dp1398
g62
(dp1399
sg71
g1354
sg64
(lp1400
g57
(g78
g59
NtRp1401
(dp1402
g62
(dp1403
sg71
g1397
sg64
(lp1404
g57
(g58
g59
NtRp1405
(dp1406
g62
(dp1407
g70
I3
ssg71
g1401
sg64
(lp1408
S'ubuntu'
p1409
asbasbasbag57
(g73
g59
NtRp1410
(dp1411
g62
(dp1412
sg71
g1354
sg64
(lp1413
g57
(g78
g59
NtRp1414
(dp1415
g62
(dp1416
sg71
g1410
sg64
(lp1417
g57
(g58
g59
NtRp1418
(dp1419
g62
(dp1420
g70
I3
ssg71
g1414
sg64
(lp1421
S'127.0.1.1'
p1422
asbasbasbag57
(g73
g59
NtRp1423
(dp1424
g62
(dp1425
sg71
g1354
sg64
(lp1426
g57
(g78
g59
NtRp1427
(dp1428
g62
(dp1429
sg71
g1423
sg64
(lp1430
g57
(g58
g59
NtRp1431
(dp1432
g62
(dp1433
g70
I3
ssg71
g1427
sg64
(lp1434
S'127.0.0.1'
p1435
asbasbasbasbasbasbasbag57
(g73
g59
NtRp1436
(dp1437
g62
(dp1438
sg71
g847
sg64
(lp1439
g57
(g78
g59
NtRp1440
(dp1441
g62
(dp1442
g82
g83
ssg71
g1436
sg64
(lp1443
S'path_info'
p1444
asbag57
(g78
g59
NtRp1445
(dp1446
g62
(dp1447
g89
g90
ssg71
g1436
sg64
(lp1448
S':'
asbag57
(g78
g59
NtRp1449
(dp1450
g62
(dp1451
sg71
g1436
sg64
(lp1452
g57
(g58
g59
NtRp1453
(dp1454
g62
(dp1455
g70
I4
ssg71
g1449
sg64
(lp1456
S'/assignment2/default/changedetails'
p1457
asbasbasbag57
(g73
g59
NtRp1458
(dp1459
g62
(dp1460
sg71
g847
sg64
(lp1461
g57
(g78
g59
NtRp1462
(dp1463
g62
(dp1464
g82
g83
ssg71
g1458
sg64
(lp1465
S'query_string'
p1466
asbag57
(g78
g59
NtRp1467
(dp1468
g62
(dp1469
g89
g90
ssg71
g1458
sg64
(lp1470
S':'
asbag57
(g78
g59
NtRp1471
(dp1472
g62
(dp1473
sg71
g1458
sg64
(lp1474
g57
(g58
g59
NtRp1475
(dp1476
g62
(dp1477
g70
I4
ssg71
g1471
sg64
(lp1478
S'id=3'
p1479
asbasbasbag57
(g73
g59
NtRp1480
(dp1481
g62
(dp1482
sg71
g847
sg64
(lp1483
g57
(g78
g59
NtRp1484
(dp1485
g62
(dp1486
g82
g83
ssg71
g1480
sg64
(lp1487
S'remote_addr'
p1488
asbag57
(g78
g59
NtRp1489
(dp1490
g62
(dp1491
g89
g90
ssg71
g1480
sg64
(lp1492
S':'
asbag57
(g78
g59
NtRp1493
(dp1494
g62
(dp1495
sg71
g1480
sg64
(lp1496
g57
(g58
g59
NtRp1497
(dp1498
g62
(dp1499
g70
I4
ssg71
g1493
sg64
(lp1500
g212
asbasbasbag57
(g73
g59
NtRp1501
(dp1502
g62
(dp1503
sg71
g847
sg64
(lp1504
g57
(g78
g59
NtRp1505
(dp1506
g62
(dp1507
g82
g83
ssg71
g1501
sg64
(lp1508
S'remote_port'
p1509
asbag57
(g78
g59
NtRp1510
(dp1511
g62
(dp1512
g89
g90
ssg71
g1501
sg64
(lp1513
S':'
asbag57
(g78
g59
NtRp1514
(dp1515
g62
(dp1516
sg71
g1501
sg64
(lp1517
g57
(g58
g59
NtRp1518
(dp1519
g62
(dp1520
g70
I4
ssg71
g1514
sg64
(lp1521
S'59258'
p1522
asbasbasbag57
(g73
g59
NtRp1523
(dp1524
g62
(dp1525
sg71
g847
sg64
(lp1526
g57
(g78
g59
NtRp1527
(dp1528
g62
(dp1529
g82
g83
ssg71
g1523
sg64
(lp1530
S'request_method'
p1531
asbag57
(g78
g59
NtRp1532
(dp1533
g62
(dp1534
g89
g90
ssg71
g1523
sg64
(lp1535
S':'
asbag57
(g78
g59
NtRp1536
(dp1537
g62
(dp1538
sg71
g1523
sg64
(lp1539
g57
(g58
g59
NtRp1540
(dp1541
g62
(dp1542
g70
I4
ssg71
g1536
sg64
(lp1543
S'POST'
p1544
asbasbasbag57
(g73
g59
NtRp1545
(dp1546
g62
(dp1547
sg71
g847
sg64
(lp1548
g57
(g78
g59
NtRp1549
(dp1550
g62
(dp1551
g82
g83
ssg71
g1545
sg64
(lp1552
S'request_uri'
p1553
asbag57
(g78
g59
NtRp1554
(dp1555
g62
(dp1556
g89
g90
ssg71
g1545
sg64
(lp1557
S':'
asbag57
(g78
g59
NtRp1558
(dp1559
g62
(dp1560
sg71
g1545
sg64
(lp1561
g57
(g58
g59
NtRp1562
(dp1563
g62
(dp1564
g70
I4
ssg71
g1558
sg64
(lp1565
S'/assignment2/default/changedetails?id=3'
p1566
asbasbasbag57
(g73
g59
NtRp1567
(dp1568
g62
(dp1569
sg71
g847
sg64
(lp1570
g57
(g78
g59
NtRp1571
(dp1572
g62
(dp1573
g82
g83
ssg71
g1567
sg64
(lp1574
S'script_name'
p1575
asbag57
(g78
g59
NtRp1576
(dp1577
g62
(dp1578
g89
g90
ssg71
g1567
sg64
(lp1579
S':'
asbag57
(g78
g59
NtRp1580
(dp1581
g62
(dp1582
sg71
g1567
sg64
(lp1583
g57
(g58
g59
NtRp1584
(dp1585
g62
(dp1586
g70
I4
ssg71
g1580
sg64
(lp1587
S''
asbasbasbag57
(g73
g59
NtRp1588
(dp1589
g62
(dp1590
sg71
g847
sg64
(lp1591
g57
(g78
g59
NtRp1592
(dp1593
g62
(dp1594
g82
g83
ssg71
g1588
sg64
(lp1595
S'server_name'
p1596
asbag57
(g78
g59
NtRp1597
(dp1598
g62
(dp1599
g89
g90
ssg71
g1588
sg64
(lp1600
S':'
asbag57
(g78
g59
NtRp1601
(dp1602
g62
(dp1603
sg71
g1588
sg64
(lp1604
g57
(g58
g59
NtRp1605
(dp1606
g62
(dp1607
g70
I4
ssg71
g1601
sg64
(lp1608
S'ubuntu'
p1609
asbasbasbag57
(g73
g59
NtRp1610
(dp1611
g62
(dp1612
sg71
g847
sg64
(lp1613
g57
(g78
g59
NtRp1614
(dp1615
g62
(dp1616
g82
g83
ssg71
g1610
sg64
(lp1617
S'server_port'
p1618
asbag57
(g78
g59
NtRp1619
(dp1620
g62
(dp1621
g89
g90
ssg71
g1610
sg64
(lp1622
S':'
asbag57
(g78
g59
NtRp1623
(dp1624
g62
(dp1625
sg71
g1610
sg64
(lp1626
g57
(g58
g59
NtRp1627
(dp1628
g62
(dp1629
g70
I4
ssg71
g1623
sg64
(lp1630
S'8000'
p1631
asbasbasbag57
(g73
g59
NtRp1632
(dp1633
g62
(dp1634
sg71
g847
sg64
(lp1635
g57
(g78
g59
NtRp1636
(dp1637
g62
(dp1638
g82
g83
ssg71
g1632
sg64
(lp1639
S'server_protocol'
p1640
asbag57
(g78
g59
NtRp1641
(dp1642
g62
(dp1643
g89
g90
ssg71
g1632
sg64
(lp1644
S':'
asbag57
(g78
g59
NtRp1645
(dp1646
g62
(dp1647
sg71
g1632
sg64
(lp1648
g57
(g58
g59
NtRp1649
(dp1650
g62
(dp1651
g70
I4
ssg71
g1645
sg64
(lp1652
S'HTTP/1.1'
p1653
asbasbasbag57
(g73
g59
NtRp1654
(dp1655
g62
(dp1656
sg71
g847
sg64
(lp1657
g57
(g78
g59
NtRp1658
(dp1659
g62
(dp1660
g82
g83
ssg71
g1654
sg64
(lp1661
S'server_software'
p1662
asbag57
(g78
g59
NtRp1663
(dp1664
g62
(dp1665
g89
g90
ssg71
g1654
sg64
(lp1666
S':'
asbag57
(g78
g59
NtRp1667
(dp1668
g62
(dp1669
sg71
g1654
sg64
(lp1670
g57
(g58
g59
NtRp1671
(dp1672
g62
(dp1673
g70
I4
ssg71
g1667
sg64
(lp1674
S'Rocket 1.2.6'
p1675
asbasbasbag57
(g73
g59
NtRp1676
(dp1677
g62
(dp1678
sg71
g847
sg64
(lp1679
g57
(g78
g59
NtRp1680
(dp1681
g62
(dp1682
g82
g83
ssg71
g1676
sg64
(lp1683
S'web2py_path'
p1684
asbag57
(g78
g59
NtRp1685
(dp1686
g62
(dp1687
g89
g90
ssg71
g1676
sg64
(lp1688
S':'
asbag57
(g78
g59
NtRp1689
(dp1690
g62
(dp1691
sg71
g1676
sg64
(lp1692
g57
(g58
g59
NtRp1693
(dp1694
g62
(dp1695
g70
I4
ssg71
g1689
sg64
(lp1696
g894
asbasbasbag57
(g73
g59
NtRp1697
(dp1698
g62
(dp1699
sg71
g847
sg64
(lp1700
g57
(g78
g59
NtRp1701
(dp1702
g62
(dp1703
g82
g83
ssg71
g1697
sg64
(lp1704
S'web2py_version'
p1705
asbag57
(g78
g59
NtRp1706
(dp1707
g62
(dp1708
g89
g90
ssg71
g1697
sg64
(lp1709
S':'
asbag57
(g78
g59
NtRp1710
(dp1711
g62
(dp1712
sg71
g1697
sg64
(lp1713
g57
(g58
g59
NtRp1714
(dp1715
g62
(dp1716
g70
I4
ssg71
g1710
sg64
(lp1717
g57
(g66
g59
NtRp1718
(dp1719
g62
(dp1720
g70
I3
ssg71
Nsg64
(lp1721
g57
(g73
g59
NtRp1722
(dp1723
g62
(dp1724
sg71
g1718
sg64
(lp1725
g57
(g78
g59
NtRp1726
(dp1727
g62
(dp1728
sg71
g1722
sg64
(lp1729
g57
(g58
g59
NtRp1730
(dp1731
g62
(dp1732
g70
I3
ssg71
g1726
sg64
(lp1733
S'2'
asbasbasbag57
(g73
g59
NtRp1734
(dp1735
g62
(dp1736
sg71
g1718
sg64
(lp1737
g57
(g78
g59
NtRp1738
(dp1739
g62
(dp1740
sg71
g1734
sg64
(lp1741
g57
(g58
g59
NtRp1742
(dp1743
g62
(dp1744
g70
I3
ssg71
g1738
sg64
(lp1745
S'3'
asbasbasbag57
(g73
g59
NtRp1746
(dp1747
g62
(dp1748
sg71
g1718
sg64
(lp1749
g57
(g78
g59
NtRp1750
(dp1751
g62
(dp1752
sg71
g1746
sg64
(lp1753
g57
(g58
g59
NtRp1754
(dp1755
g62
(dp1756
g70
I3
ssg71
g1750
sg64
(lp1757
S'2'
asbasbasbag57
(g73
g59
NtRp1758
(dp1759
g62
(dp1760
sg71
g1718
sg64
(lp1761
g57
(g78
g59
NtRp1762
(dp1763
g62
(dp1764
sg71
g1758
sg64
(lp1765
g57
(g58
g59
NtRp1766
(dp1767
g62
(dp1768
g70
I3
ssg71
g1762
sg64
(lp1769
S'datetime.datetime(2012, 12, 17, 15, 3, 30)'
p1770
asbasbasbag57
(g73
g59
NtRp1771
(dp1772
g62
(dp1773
sg71
g1718
sg64
(lp1774
g57
(g78
g59
NtRp1775
(dp1776
g62
(dp1777
sg71
g1771
sg64
(lp1778
g57
(g58
g59
NtRp1779
(dp1780
g62
(dp1781
g70
I3
ssg71
g1775
sg64
(lp1782
S'stable'
p1783
asbasbasbasbasbasbasbag57
(g73
g59
NtRp1784
(dp1785
g62
(dp1786
sg71
g847
sg64
(lp1787
g57
(g78
g59
NtRp1788
(dp1789
g62
(dp1790
g82
g83
ssg71
g1784
sg64
(lp1791
S'wsgi_errors'
p1792
asbag57
(g78
g59
NtRp1793
(dp1794
g62
(dp1795
g89
g90
ssg71
g1784
sg64
(lp1796
S':'
asbag57
(g78
g59
NtRp1797
(dp1798
g62
(dp1799
sg71
g1784
sg64
(lp1800
g57
(g58
g59
NtRp1801
(dp1802
g62
(dp1803
g70
I4
ssg71
g1797
sg64
(lp1804
S"<open file '<stderr>', mode 'w' at 0xb727d0d0>"
p1805
asbasbasbag57
(g73
g59
NtRp1806
(dp1807
g62
(dp1808
sg71
g847
sg64
(lp1809
g57
(g78
g59
NtRp1810
(dp1811
g62
(dp1812
g82
g83
ssg71
g1806
sg64
(lp1813
S'wsgi_file_wrapper'
p1814
asbag57
(g78
g59
NtRp1815
(dp1816
g62
(dp1817
g89
g90
ssg71
g1806
sg64
(lp1818
S':'
asbag57
(g78
g59
NtRp1819
(dp1820
g62
(dp1821
sg71
g1806
sg64
(lp1822
g57
(g58
g59
NtRp1823
(dp1824
g62
(dp1825
g70
I4
ssg71
g1819
sg64
(lp1826
S'<class wsgiref.util.FileWrapper at 0x9a9465c>'
p1827
asbasbasbag57
(g73
g59
NtRp1828
(dp1829
g62
(dp1830
sg71
g847
sg64
(lp1831
g57
(g78
g59
NtRp1832
(dp1833
g62
(dp1834
g82
g83
ssg71
g1828
sg64
(lp1835
S'wsgi_input'
p1836
asbag57
(g78
g59
NtRp1837
(dp1838
g62
(dp1839
g89
g90
ssg71
g1828
sg64
(lp1840
S':'
asbag57
(g78
g59
NtRp1841
(dp1842
g62
(dp1843
sg71
g1828
sg64
(lp1844
g57
(g58
g59
NtRp1845
(dp1846
g62
(dp1847
g70
I4
ssg71
g1841
sg64
(lp1848
S'<socket._fileobject object at 0xac65296c>'
p1849
asbasbasbag57
(g73
g59
NtRp1850
(dp1851
g62
(dp1852
sg71
g847
sg64
(lp1853
g57
(g78
g59
NtRp1854
(dp1855
g62
(dp1856
g82
g83
ssg71
g1850
sg64
(lp1857
S'wsgi_multiprocess'
p1858
asbag57
(g78
g59
NtRp1859
(dp1860
g62
(dp1861
g89
g90
ssg71
g1850
sg64
(lp1862
S':'
asbag57
(g78
g59
NtRp1863
(dp1864
g62
(dp1865
sg71
g1850
sg64
(lp1866
g57
(g58
g59
NtRp1867
(dp1868
g62
(dp1869
g70
I4
ssg71
g1863
sg64
(lp1870
g100
asbasbasbag57
(g73
g59
NtRp1871
(dp1872
g62
(dp1873
sg71
g847
sg64
(lp1874
g57
(g78
g59
NtRp1875
(dp1876
g62
(dp1877
g82
g83
ssg71
g1871
sg64
(lp1878
S'wsgi_multithread'
p1879
asbag57
(g78
g59
NtRp1880
(dp1881
g62
(dp1882
g89
g90
ssg71
g1871
sg64
(lp1883
S':'
asbag57
(g78
g59
NtRp1884
(dp1885
g62
(dp1886
sg71
g1871
sg64
(lp1887
g57
(g58
g59
NtRp1888
(dp1889
g62
(dp1890
g70
I4
ssg71
g1884
sg64
(lp1891
S'True'
p1892
asbasbasbag57
(g73
g59
NtRp1893
(dp1894
g62
(dp1895
sg71
g847
sg64
(lp1896
g57
(g78
g59
NtRp1897
(dp1898
g62
(dp1899
g82
g83
ssg71
g1893
sg64
(lp1900
S'wsgi_run_once'
p1901
asbag57
(g78
g59
NtRp1902
(dp1903
g62
(dp1904
g89
g90
ssg71
g1893
sg64
(lp1905
S':'
asbag57
(g78
g59
NtRp1906
(dp1907
g62
(dp1908
sg71
g1893
sg64
(lp1909
g57
(g58
g59
NtRp1910
(dp1911
g62
(dp1912
g70
I4
ssg71
g1906
sg64
(lp1913
g100
asbasbasbag57
(g73
g59
NtRp1914
(dp1915
g62
(dp1916
sg71
g847
sg64
(lp1917
g57
(g78
g59
NtRp1918
(dp1919
g62
(dp1920
g82
g83
ssg71
g1914
sg64
(lp1921
S'wsgi_url_scheme'
p1922
asbag57
(g78
g59
NtRp1923
(dp1924
g62
(dp1925
g89
g90
ssg71
g1914
sg64
(lp1926
S':'
asbag57
(g78
g59
NtRp1927
(dp1928
g62
(dp1929
sg71
g1914
sg64
(lp1930
g57
(g58
g59
NtRp1931
(dp1932
g62
(dp1933
g70
I4
ssg71
g1927
sg64
(lp1934
S'http'
p1935
asbasbasbag57
(g73
g59
NtRp1936
(dp1937
g62
(dp1938
sg71
g847
sg64
(lp1939
g57
(g78
g59
NtRp1940
(dp1941
g62
(dp1942
g82
g83
ssg71
g1936
sg64
(lp1943
S'wsgi_version'
p1944
asbag57
(g78
g59
NtRp1945
(dp1946
g62
(dp1947
g89
g90
ssg71
g1936
sg64
(lp1948
S':'
asbag57
(g78
g59
NtRp1949
(dp1950
g62
(dp1951
sg71
g1936
sg64
(lp1952
g57
(g58
g59
NtRp1953
(dp1954
g62
(dp1955
g70
I4
ssg71
g1949
sg64
(lp1956
g57
(g66
g59
NtRp1957
(dp1958
g62
(dp1959
g70
I3
ssg71
Nsg64
(lp1960
g57
(g73
g59
NtRp1961
(dp1962
g62
(dp1963
sg71
g1957
sg64
(lp1964
g57
(g78
g59
NtRp1965
(dp1966
g62
(dp1967
sg71
g1961
sg64
(lp1968
g57
(g58
g59
NtRp1969
(dp1970
g62
(dp1971
g70
I3
ssg71
g1965
sg64
(lp1972
S'1'
asbasbasbag57
(g73
g59
NtRp1973
(dp1974
g62
(dp1975
sg71
g1957
sg64
(lp1976
g57
(g78
g59
NtRp1977
(dp1978
g62
(dp1979
sg71
g1973
sg64
(lp1980
g57
(g58
g59
NtRp1981
(dp1982
g62
(dp1983
g70
I3
ssg71
g1977
sg64
(lp1984
S'0'
asbasbasbasbasbasbasbasbasbasbasbag57
(g73
g59
NtRp1985
(dp1986
g62
(dp1987
sg71
g67
sg64
(lp1988
g57
(g78
g59
NtRp1989
(dp1990
g62
(dp1991
g82
g83
ssg71
g1985
sg64
(lp1992
S'extension'
p1993
asbag57
(g78
g59
NtRp1994
(dp1995
g62
(dp1996
g89
g90
ssg71
g1985
sg64
(lp1997
S':'
asbag57
(g78
g59
NtRp1998
(dp1999
g62
(dp2000
sg71
g1985
sg64
(lp2001
g57
(g58
g59
NtRp2002
(dp2003
g62
(dp2004
g70
I5
ssg71
g1998
sg64
(lp2005
S'html'
p2006
asbasbasbag57
(g73
g59
NtRp2007
(dp2008
g62
(dp2009
sg71
g67
sg64
(lp2010
g57
(g78
g59
NtRp2011
(dp2012
g62
(dp2013
g82
g83
ssg71
g2007
sg64
(lp2014
S'folder'
p2015
asbag57
(g78
g59
NtRp2016
(dp2017
g62
(dp2018
g89
g90
ssg71
g2007
sg64
(lp2019
S':'
asbag57
(g78
g59
NtRp2020
(dp2021
g62
(dp2022
sg71
g2007
sg64
(lp2023
g57
(g58
g59
NtRp2024
(dp2025
g62
(dp2026
g70
I5
ssg71
g2020
sg64
(lp2027
S'/home/aditi/Desktop/web2py/applications/assignment2/'
p2028
asbasbasbag57
(g73
g59
NtRp2029
(dp2030
g62
(dp2031
sg71
g67
sg64
(lp2032
g57
(g78
g59
NtRp2033
(dp2034
g62
(dp2035
g82
g83
ssg71
g2029
sg64
(lp2036
S'function'
p2037
asbag57
(g78
g59
NtRp2038
(dp2039
g62
(dp2040
g89
g90
ssg71
g2029
sg64
(lp2041
S':'
asbag57
(g78
g59
NtRp2042
(dp2043
g62
(dp2044
sg71
g2029
sg64
(lp2045
g57
(g58
g59
NtRp2046
(dp2047
g62
(dp2048
g70
I5
ssg71
g2042
sg64
(lp2049
S'changedetails'
p2050
asbasbasbag57
(g73
g59
NtRp2051
(dp2052
g62
(dp2053
sg71
g67
sg64
(lp2054
g57
(g78
g59
NtRp2055
(dp2056
g62
(dp2057
g82
g83
ssg71
g2051
sg64
(lp2058
S'get_vars'
p2059
asbag57
(g78
g59
NtRp2060
(dp2061
g62
(dp2062
g89
g90
ssg71
g2051
sg64
(lp2063
S':'
asbag57
(g78
g59
NtRp2064
(dp2065
g62
(dp2066
sg71
g2051
sg64
(lp2067
g57
(g58
g59
NtRp2068
(dp2069
g62
(dp2070
g70
I5
ssg71
g2064
sg64
(lp2071
g57
(g66
g59
NtRp2072
(dp2073
g62
(dp2074
g70
I4
ssg71
Nsg64
(lp2075
g57
(g73
g59
NtRp2076
(dp2077
g62
(dp2078
sg71
g2072
sg64
(lp2079
g57
(g78
g59
NtRp2080
(dp2081
g62
(dp2082
g82
g83
ssg71
g2076
sg64
(lp2083
S'id'
p2084
asbag57
(g78
g59
NtRp2085
(dp2086
g62
(dp2087
g89
g90
ssg71
g2076
sg64
(lp2088
S':'
asbag57
(g78
g59
NtRp2089
(dp2090
g62
(dp2091
sg71
g2076
sg64
(lp2092
g57
(g58
g59
NtRp2093
(dp2094
g62
(dp2095
g70
I4
ssg71
g2089
sg64
(lp2096
S'3'
asbasbasbasbasbasbasbag57
(g73
g59
NtRp2097
(dp2098
g62
(dp2099
sg71
g67
sg64
(lp2100
g57
(g78
g59
NtRp2101
(dp2102
g62
(dp2103
g82
g83
ssg71
g2097
sg64
(lp2104
S'global_settings'
p2105
asbag57
(g78
g59
NtRp2106
(dp2107
g62
(dp2108
g89
g90
ssg71
g2097
sg64
(lp2109
S':'
asbag57
(g78
g59
NtRp2110
(dp2111
g62
(dp2112
sg71
g2097
sg64
(lp2113
g57
(g58
g59
NtRp2114
(dp2115
g62
(dp2116
g70
I5
ssg71
g2110
sg64
(lp2117
g57
(g66
g59
NtRp2118
(dp2119
g62
(dp2120
g70
I4
ssg71
Nsg64
(lp2121
g57
(g73
g59
NtRp2122
(dp2123
g62
(dp2124
sg71
g2118
sg64
(lp2125
g57
(g78
g59
NtRp2126
(dp2127
g62
(dp2128
g82
g83
ssg71
g2122
sg64
(lp2129
g859
asbag57
(g78
g59
NtRp2130
(dp2131
g62
(dp2132
g89
g90
ssg71
g2122
sg64
(lp2133
S':'
asbag57
(g78
g59
NtRp2134
(dp2135
g62
(dp2136
sg71
g2122
sg64
(lp2137
g57
(g58
g59
NtRp2138
(dp2139
g62
(dp2140
g70
I4
ssg71
g2134
sg64
(lp2141
S"set(['/home/aditi/Desktop/web2py/applications/assignment2/', '/home/aditi/Desktop/web2py/applications/admin/', '/home/aditi/Desktop/web2py/applications/welcome/'])"
p2142
asbasbasbag57
(g73
g59
NtRp2143
(dp2144
g62
(dp2145
sg71
g2118
sg64
(lp2146
g57
(g78
g59
NtRp2147
(dp2148
g62
(dp2149
g82
g83
ssg71
g2143
sg64
(lp2150
g881
asbag57
(g78
g59
NtRp2151
(dp2152
g62
(dp2153
g89
g90
ssg71
g2143
sg64
(lp2154
S':'
asbag57
(g78
g59
NtRp2155
(dp2156
g62
(dp2157
sg71
g2143
sg64
(lp2158
g57
(g58
g59
NtRp2159
(dp2160
g62
(dp2161
g70
I4
ssg71
g2155
sg64
(lp2162
g894
asbasbasbag57
(g73
g59
NtRp2163
(dp2164
g62
(dp2165
sg71
g2118
sg64
(lp2166
g57
(g78
g59
NtRp2167
(dp2168
g62
(dp2169
g82
g83
ssg71
g2163
sg64
(lp2170
g903
asbag57
(g78
g59
NtRp2171
(dp2172
g62
(dp2173
g89
g90
ssg71
g2163
sg64
(lp2174
S':'
asbag57
(g78
g59
NtRp2175
(dp2176
g62
(dp2177
sg71
g2163
sg64
(lp2178
g57
(g58
g59
NtRp2179
(dp2180
g62
(dp2181
g70
I4
ssg71
g2175
sg64
(lp2182
g57
(g66
g59
NtRp2183
(dp2184
g62
(dp2185
g70
I3
ssg71
Nsg64
(lp2186
sbasbasbasbag57
(g73
g59
NtRp2187
(dp2188
g62
(dp2189
sg71
g2118
sg64
(lp2190
g57
(g78
g59
NtRp2191
(dp2192
g62
(dp2193
g82
g83
ssg71
g2187
sg64
(lp2194
g928
asbag57
(g78
g59
NtRp2195
(dp2196
g62
(dp2197
g89
g90
ssg71
g2187
sg64
(lp2198
S':'
asbag57
(g78
g59
NtRp2199
(dp2200
g62
(dp2201
sg71
g2187
sg64
(lp2202
g57
(g58
g59
NtRp2203
(dp2204
g62
(dp2205
g70
I4
ssg71
g2199
sg64
(lp2206
S"<Values at 0x9ad8a0c: {'verbose': False, 'ip': '127.0.0.1', 'with_scheduler': False, 'ips': [], 'shutdown_timeout': 5, 'taskbar': False, 'port': 8000, 'maxthreads': None, 'softcron': False, 'server_name': 'ubuntu', 'bpython': False, 'nogui': False, 'pid_filename': 'httpserver.pid', 'extcron': False, 'runcron': False, 'run_system_tests': False, 'test': None, 'folder': '/home/aditi/Desktop/web2py', 'config': '', 'import_models': False, 'winservice': '', 'shell': None, 'run': '', 'log_filename': 'httpserver.log', 'debuglevel': 30, 'args': [''], 'socket_timeout': 5, 'ssl_ca_certificate': None, 'scheduler': None, 'profiler_filename': None, 'ssl_private_key': '', 'scheduler_groups': None, 'password': '<ask>', 'request_queue_size': 5, 'ssl_certificate': '', 'cronjob': False, 'numthreads': None, 'quiet': False, 'interfaces': None, 'minthreads': None, 'timeout': 10, 'plain': False, 'nobanner': False}>"
p2207
asbasbasbag57
(g73
g59
NtRp2208
(dp2209
g62
(dp2210
sg71
g2118
sg64
(lp2211
g57
(g78
g59
NtRp2212
(dp2213
g62
(dp2214
g82
g83
ssg71
g2208
sg64
(lp2215
g994
asbag57
(g78
g59
NtRp2216
(dp2217
g62
(dp2218
g89
g90
ssg71
g2208
sg64
(lp2219
S':'
asbag57
(g78
g59
NtRp2220
(dp2221
g62
(dp2222
sg71
g2208
sg64
(lp2223
g57
(g58
g59
NtRp2224
(dp2225
g62
(dp2226
g70
I4
ssg71
g2220
sg64
(lp2227
S'set([])'
p2228
asbasbasbag57
(g73
g59
NtRp2229
(dp2230
g62
(dp2231
sg71
g2118
sg64
(lp2232
g57
(g78
g59
NtRp2233
(dp2234
g62
(dp2235
g82
g83
ssg71
g2229
sg64
(lp2236
g1016
asbag57
(g78
g59
NtRp2237
(dp2238
g62
(dp2239
g89
g90
ssg71
g2229
sg64
(lp2240
S':'
asbag57
(g78
g59
NtRp2241
(dp2242
g62
(dp2243
sg71
g2229
sg64
(lp2244
g57
(g58
g59
NtRp2245
(dp2246
g62
(dp2247
g70
I4
ssg71
g2241
sg64
(lp2248
g100
asbasbasbag57
(g73
g59
NtRp2249
(dp2250
g62
(dp2251
sg71
g2118
sg64
(lp2252
g57
(g78
g59
NtRp2253
(dp2254
g62
(dp2255
g82
g83
ssg71
g2249
sg64
(lp2256
g1037
asbag57
(g78
g59
NtRp2257
(dp2258
g62
(dp2259
g89
g90
ssg71
g2249
sg64
(lp2260
S':'
asbag57
(g78
g59
NtRp2261
(dp2262
g62
(dp2263
sg71
g2249
sg64
(lp2264
g57
(g58
g59
NtRp2265
(dp2266
g62
(dp2267
g70
I4
ssg71
g2261
sg64
(lp2268
g1050
asbasbasbag57
(g73
g59
NtRp2269
(dp2270
g62
(dp2271
sg71
g2118
sg64
(lp2272
g57
(g78
g59
NtRp2273
(dp2274
g62
(dp2275
g82
g83
ssg71
g2269
sg64
(lp2276
g1299
asbag57
(g78
g59
NtRp2277
(dp2278
g62
(dp2279
g89
g90
ssg71
g2269
sg64
(lp2280
S':'
asbag57
(g78
g59
NtRp2281
(dp2282
g62
(dp2283
sg71
g2269
sg64
(lp2284
g57
(g58
g59
NtRp2285
(dp2286
g62
(dp2287
g70
I4
ssg71
g2281
sg64
(lp2288
g100
asbasbasbag57
(g73
g59
NtRp2289
(dp2290
g62
(dp2291
sg71
g2118
sg64
(lp2292
g57
(g78
g59
NtRp2293
(dp2294
g62
(dp2295
g82
g83
ssg71
g2289
sg64
(lp2296
g1320
asbag57
(g78
g59
NtRp2297
(dp2298
g62
(dp2299
g89
g90
ssg71
g2289
sg64
(lp2300
S':'
asbag57
(g78
g59
NtRp2301
(dp2302
g62
(dp2303
sg71
g2289
sg64
(lp2304
g57
(g58
g59
NtRp2305
(dp2306
g62
(dp2307
g70
I4
ssg71
g2301
sg64
(lp2308
g100
asbasbasbag57
(g73
g59
NtRp2309
(dp2310
g62
(dp2311
sg71
g2118
sg64
(lp2312
g57
(g78
g59
NtRp2313
(dp2314
g62
(dp2315
g82
g83
ssg71
g2309
sg64
(lp2316
g1341
asbag57
(g78
g59
NtRp2317
(dp2318
g62
(dp2319
g89
g90
ssg71
g2309
sg64
(lp2320
S':'
asbag57
(g78
g59
NtRp2321
(dp2322
g62
(dp2323
sg71
g2309
sg64
(lp2324
g57
(g58
g59
NtRp2325
(dp2326
g62
(dp2327
g70
I4
ssg71
g2321
sg64
(lp2328
g57
(g66
g59
NtRp2329
(dp2330
g62
(dp2331
g70
I3
ssg71
Nsg64
(lp2332
g57
(g73
g59
NtRp2333
(dp2334
g62
(dp2335
sg71
g2329
sg64
(lp2336
g57
(g78
g59
NtRp2337
(dp2338
g62
(dp2339
sg71
g2333
sg64
(lp2340
g57
(g58
g59
NtRp2341
(dp2342
g62
(dp2343
g70
I3
ssg71
g2337
sg64
(lp2344
g1370
asbasbasbag57
(g73
g59
NtRp2345
(dp2346
g62
(dp2347
sg71
g2329
sg64
(lp2348
g57
(g78
g59
NtRp2349
(dp2350
g62
(dp2351
sg71
g2345
sg64
(lp2352
g57
(g58
g59
NtRp2353
(dp2354
g62
(dp2355
g70
I3
ssg71
g2349
sg64
(lp2356
g1383
asbasbasbag57
(g73
g59
NtRp2357
(dp2358
g62
(dp2359
sg71
g2329
sg64
(lp2360
g57
(g78
g59
NtRp2361
(dp2362
g62
(dp2363
sg71
g2357
sg64
(lp2364
g57
(g58
g59
NtRp2365
(dp2366
g62
(dp2367
g70
I3
ssg71
g2361
sg64
(lp2368
g1396
asbasbasbag57
(g73
g59
NtRp2369
(dp2370
g62
(dp2371
sg71
g2329
sg64
(lp2372
g57
(g78
g59
NtRp2373
(dp2374
g62
(dp2375
sg71
g2369
sg64
(lp2376
g57
(g58
g59
NtRp2377
(dp2378
g62
(dp2379
g70
I3
ssg71
g2373
sg64
(lp2380
g1409
asbasbasbag57
(g73
g59
NtRp2381
(dp2382
g62
(dp2383
sg71
g2329
sg64
(lp2384
g57
(g78
g59
NtRp2385
(dp2386
g62
(dp2387
sg71
g2381
sg64
(lp2388
g57
(g58
g59
NtRp2389
(dp2390
g62
(dp2391
g70
I3
ssg71
g2385
sg64
(lp2392
g1422
asbasbasbag57
(g73
g59
NtRp2393
(dp2394
g62
(dp2395
sg71
g2329
sg64
(lp2396
g57
(g78
g59
NtRp2397
(dp2398
g62
(dp2399
sg71
g2393
sg64
(lp2400
g57
(g58
g59
NtRp2401
(dp2402
g62
(dp2403
g70
I3
ssg71
g2397
sg64
(lp2404
g1435
asbasbasbasbasbasbasbag57
(g73
g59
NtRp2405
(dp2406
g62
(dp2407
sg71
g2118
sg64
(lp2408
g57
(g78
g59
NtRp2409
(dp2410
g62
(dp2411
g82
g83
ssg71
g2405
sg64
(lp2412
g1705
asbag57
(g78
g59
NtRp2413
(dp2414
g62
(dp2415
g89
g90
ssg71
g2405
sg64
(lp2416
S':'
asbag57
(g78
g59
NtRp2417
(dp2418
g62
(dp2419
sg71
g2405
sg64
(lp2420
g57
(g58
g59
NtRp2421
(dp2422
g62
(dp2423
g70
I4
ssg71
g2417
sg64
(lp2424
g57
(g66
g59
NtRp2425
(dp2426
g62
(dp2427
g70
I3
ssg71
Nsg64
(lp2428
g57
(g73
g59
NtRp2429
(dp2430
g62
(dp2431
sg71
g2425
sg64
(lp2432
g57
(g78
g59
NtRp2433
(dp2434
g62
(dp2435
sg71
g2429
sg64
(lp2436
g57
(g58
g59
NtRp2437
(dp2438
g62
(dp2439
g70
I3
ssg71
g2433
sg64
(lp2440
S'2'
asbasbasbag57
(g73
g59
NtRp2441
(dp2442
g62
(dp2443
sg71
g2425
sg64
(lp2444
g57
(g78
g59
NtRp2445
(dp2446
g62
(dp2447
sg71
g2441
sg64
(lp2448
g57
(g58
g59
NtRp2449
(dp2450
g62
(dp2451
g70
I3
ssg71
g2445
sg64
(lp2452
S'3'
asbasbasbag57
(g73
g59
NtRp2453
(dp2454
g62
(dp2455
sg71
g2425
sg64
(lp2456
g57
(g78
g59
NtRp2457
(dp2458
g62
(dp2459
sg71
g2453
sg64
(lp2460
g57
(g58
g59
NtRp2461
(dp2462
g62
(dp2463
g70
I3
ssg71
g2457
sg64
(lp2464
S'2'
asbasbasbag57
(g73
g59
NtRp2465
(dp2466
g62
(dp2467
sg71
g2425
sg64
(lp2468
g57
(g78
g59
NtRp2469
(dp2470
g62
(dp2471
sg71
g2465
sg64
(lp2472
g57
(g58
g59
NtRp2473
(dp2474
g62
(dp2475
g70
I3
ssg71
g2469
sg64
(lp2476
S'datetime.datetime(2012, 12, 17, 15, 3, 30)'
p2477
asbasbasbag57
(g73
g59
NtRp2478
(dp2479
g62
(dp2480
sg71
g2425
sg64
(lp2481
g57
(g78
g59
NtRp2482
(dp2483
g62
(dp2484
sg71
g2478
sg64
(lp2485
g57
(g58
g59
NtRp2486
(dp2487
g62
(dp2488
g70
I3
ssg71
g2482
sg64
(lp2489
g1783
asbasbasbasbasbasbasbasbasbasbasbag57
(g73
g59
NtRp2490
(dp2491
g62
(dp2492
sg71
g67
sg64
(lp2493
g57
(g78
g59
NtRp2494
(dp2495
g62
(dp2496
g82
g83
ssg71
g2490
sg64
(lp2497
S'is_https'
p2498
asbag57
(g78
g59
NtRp2499
(dp2500
g62
(dp2501
g89
g90
ssg71
g2490
sg64
(lp2502
S':'
asbag57
(g78
g59
NtRp2503
(dp2504
g62
(dp2505
sg71
g2490
sg64
(lp2506
g57
(g58
g59
NtRp2507
(dp2508
g62
(dp2509
g70
I5
ssg71
g2503
sg64
(lp2510
g100
asbasbasbag57
(g73
g59
NtRp2511
(dp2512
g62
(dp2513
sg71
g67
sg64
(lp2514
g57
(g78
g59
NtRp2515
(dp2516
g62
(dp2517
g82
g83
ssg71
g2511
sg64
(lp2518
S'is_local'
p2519
asbag57
(g78
g59
NtRp2520
(dp2521
g62
(dp2522
g89
g90
ssg71
g2511
sg64
(lp2523
S':'
asbag57
(g78
g59
NtRp2524
(dp2525
g62
(dp2526
sg71
g2511
sg64
(lp2527
g57
(g58
g59
NtRp2528
(dp2529
g62
(dp2530
g70
I5
ssg71
g2524
sg64
(lp2531
g1892
asbasbasbag57
(g73
g59
NtRp2532
(dp2533
g62
(dp2534
sg71
g67
sg64
(lp2535
g57
(g78
g59
NtRp2536
(dp2537
g62
(dp2538
g82
g83
ssg71
g2532
sg64
(lp2539
S'is_restful'
p2540
asbag57
(g78
g59
NtRp2541
(dp2542
g62
(dp2543
g89
g90
ssg71
g2532
sg64
(lp2544
S':'
asbag57
(g78
g59
NtRp2545
(dp2546
g62
(dp2547
sg71
g2532
sg64
(lp2548
g57
(g58
g59
NtRp2549
(dp2550
g62
(dp2551
g70
I5
ssg71
g2545
sg64
(lp2552
g100
asbasbasbag57
(g73
g59
NtRp2553
(dp2554
g62
(dp2555
sg71
g67
sg64
(lp2556
g57
(g78
g59
NtRp2557
(dp2558
g62
(dp2559
g82
g83
ssg71
g2553
sg64
(lp2560
S'now'
p2561
asbag57
(g78
g59
NtRp2562
(dp2563
g62
(dp2564
g89
g90
ssg71
g2553
sg64
(lp2565
S':'
asbag57
(g78
g59
NtRp2566
(dp2567
g62
(dp2568
sg71
g2553
sg64
(lp2569
g57
(g58
g59
NtRp2570
(dp2571
g62
(dp2572
g70
I5
ssg71
g2566
sg64
(lp2573
S'datetime.datetime(2013, 8, 27, 16, 13, 8, 96539)'
p2574
asbasbasbag57
(g73
g59
NtRp2575
(dp2576
g62
(dp2577
sg71
g67
sg64
(lp2578
g57
(g78
g59
NtRp2579
(dp2580
g62
(dp2581
g82
g83
ssg71
g2575
sg64
(lp2582
S'post_vars'
p2583
asbag57
(g78
g59
NtRp2584
(dp2585
g62
(dp2586
g89
g90
ssg71
g2575
sg64
(lp2587
S':'
asbag57
(g78
g59
NtRp2588
(dp2589
g62
(dp2590
sg71
g2575
sg64
(lp2591
g57
(g58
g59
NtRp2592
(dp2593
g62
(dp2594
g70
I5
ssg71
g2588
sg64
(lp2595
g57
(g66
g59
NtRp2596
(dp2597
g62
(dp2598
g70
I4
ssg71
Nsg64
(lp2599
g57
(g73
g59
NtRp2600
(dp2601
g62
(dp2602
sg71
g2596
sg64
(lp2603
g57
(g78
g59
NtRp2604
(dp2605
g62
(dp2606
g82
g83
ssg71
g2600
sg64
(lp2607
S'URL'
p2608
asbag57
(g78
g59
NtRp2609
(dp2610
g62
(dp2611
g89
g90
ssg71
g2600
sg64
(lp2612
S':'
asbag57
(g78
g59
NtRp2613
(dp2614
g62
(dp2615
sg71
g2600
sg64
(lp2616
g57
(g58
g59
NtRp2617
(dp2618
g62
(dp2619
g70
I4
ssg71
g2613
sg64
(lp2620
S'http://www.indiaunimagined.com/101-interesting-facts-about-india/'
p2621
asbasbasbag57
(g73
g59
NtRp2622
(dp2623
g62
(dp2624
sg71
g2596
sg64
(lp2625
g57
(g78
g59
NtRp2626
(dp2627
g62
(dp2628
g82
g83
ssg71
g2622
sg64
(lp2629
S'category'
p2630
asbag57
(g78
g59
NtRp2631
(dp2632
g62
(dp2633
g89
g90
ssg71
g2622
sg64
(lp2634
S':'
asbag57
(g78
g59
NtRp2635
(dp2636
g62
(dp2637
sg71
g2622
sg64
(lp2638
g57
(g58
g59
NtRp2639
(dp2640
g62
(dp2641
g70
I4
ssg71
g2635
sg64
(lp2642
S'india'
p2643
asbasbasbag57
(g73
g59
NtRp2644
(dp2645
g62
(dp2646
sg71
g2596
sg64
(lp2647
g57
(g78
g59
NtRp2648
(dp2649
g62
(dp2650
g82
g83
ssg71
g2644
sg64
(lp2651
S'choice'
p2652
asbag57
(g78
g59
NtRp2653
(dp2654
g62
(dp2655
g89
g90
ssg71
g2644
sg64
(lp2656
S':'
asbag57
(g78
g59
NtRp2657
(dp2658
g62
(dp2659
sg71
g2644
sg64
(lp2660
g57
(g58
g59
NtRp2661
(dp2662
g62
(dp2663
g70
I4
ssg71
g2657
sg64
(lp2664
S'article'
p2665
asbasbasbag57
(g73
g59
NtRp2666
(dp2667
g62
(dp2668
sg71
g2596
sg64
(lp2669
g57
(g78
g59
NtRp2670
(dp2671
g62
(dp2672
g82
g83
ssg71
g2666
sg64
(lp2673
S'heading'
p2674
asbag57
(g78
g59
NtRp2675
(dp2676
g62
(dp2677
g89
g90
ssg71
g2666
sg64
(lp2678
S':'
asbag57
(g78
g59
NtRp2679
(dp2680
g62
(dp2681
sg71
g2666
sg64
(lp2682
g57
(g58
g59
NtRp2683
(dp2684
g62
(dp2685
g70
I4
ssg71
g2679
sg64
(lp2686
S'101 Interesting facts about India'
p2687
asbasbasbasbasbasbasbag57
(g73
g59
NtRp2688
(dp2689
g62
(dp2690
sg71
g67
sg64
(lp2691
g57
(g78
g59
NtRp2692
(dp2693
g62
(dp2694
g82
g83
ssg71
g2688
sg64
(lp2695
S'raw_args'
p2696
asbag57
(g78
g59
NtRp2697
(dp2698
g62
(dp2699
g89
g90
ssg71
g2688
sg64
(lp2700
S':'
asbag57
(g78
g59
NtRp2701
(dp2702
g62
(dp2703
sg71
g2688
sg64
(lp2704
g57
(g58
g59
NtRp2705
(dp2706
g62
(dp2707
g70
I5
ssg71
g2701
sg64
(lp2708
S''
asbasbasbag57
(g73
g59
NtRp2709
(dp2710
g62
(dp2711
sg71
g67
sg64
(lp2712
g57
(g78
g59
NtRp2713
(dp2714
g62
(dp2715
g82
g83
ssg71
g2709
sg64
(lp2716
S'raw_extension'
p2717
asbag57
(g78
g59
NtRp2718
(dp2719
g62
(dp2720
g89
g90
ssg71
g2709
sg64
(lp2721
S':'
asbag57
(g78
g59
NtRp2722
(dp2723
g62
(dp2724
sg71
g2709
sg64
(lp2725
g57
(g58
g59
NtRp2726
(dp2727
g62
(dp2728
g70
I5
ssg71
g2722
sg64
(lp2729
S'None'
p2730
asbasbasbag57
(g73
g59
NtRp2731
(dp2732
g62
(dp2733
sg71
g67
sg64
(lp2734
g57
(g78
g59
NtRp2735
(dp2736
g62
(dp2737
g82
g83
ssg71
g2731
sg64
(lp2738
S'url'
p2739
asbag57
(g78
g59
NtRp2740
(dp2741
g62
(dp2742
g89
g90
ssg71
g2731
sg64
(lp2743
S':'
asbag57
(g78
g59
NtRp2744
(dp2745
g62
(dp2746
sg71
g2731
sg64
(lp2747
g57
(g58
g59
NtRp2748
(dp2749
g62
(dp2750
g70
I5
ssg71
g2744
sg64
(lp2751
g1457
asbasbasbag57
(g73
g59
NtRp2752
(dp2753
g62
(dp2754
sg71
g67
sg64
(lp2755
g57
(g78
g59
NtRp2756
(dp2757
g62
(dp2758
g82
g83
ssg71
g2752
sg64
(lp2759
S'utcnow'
p2760
asbag57
(g78
g59
NtRp2761
(dp2762
g62
(dp2763
g89
g90
ssg71
g2752
sg64
(lp2764
S':'
asbag57
(g78
g59
NtRp2765
(dp2766
g62
(dp2767
sg71
g2752
sg64
(lp2768
g57
(g58
g59
NtRp2769
(dp2770
g62
(dp2771
g70
I5
ssg71
g2765
sg64
(lp2772
S'datetime.datetime(2013, 8, 27, 10, 43, 8, 96565)'
p2773
asbasbasbag57
(g73
g59
NtRp2774
(dp2775
g62
(dp2776
sg71
g67
sg64
(lp2777
g57
(g78
g59
NtRp2778
(dp2779
g62
(dp2780
g82
g83
ssg71
g2774
sg64
(lp2781
S'uuid'
p2782
asbag57
(g78
g59
NtRp2783
(dp2784
g62
(dp2785
g89
g90
ssg71
g2774
sg64
(lp2786
S':'
asbag57
(g78
g59
NtRp2787
(dp2788
g62
(dp2789
sg71
g2774
sg64
(lp2790
g57
(g58
g59
NtRp2791
(dp2792
g62
(dp2793
g70
I5
ssg71
g2787
sg64
(lp2794
S'assignment2/127.0.0.1.2013-08-27.16-13-08.434f6da6-2624-45dd-86da-bffc57436ee0'
p2795
asbasbasbag57
(g73
g59
NtRp2796
(dp2797
g62
(dp2798
sg71
g67
sg64
(lp2799
g57
(g78
g59
NtRp2800
(dp2801
g62
(dp2802
g82
g83
ssg71
g2796
sg64
(lp2803
S'vars'
p2804
asbag57
(g78
g59
NtRp2805
(dp2806
g62
(dp2807
g89
g90
ssg71
g2796
sg64
(lp2808
S':'
asbag57
(g78
g59
NtRp2809
(dp2810
g62
(dp2811
sg71
g2796
sg64
(lp2812
g57
(g58
g59
NtRp2813
(dp2814
g62
(dp2815
g70
I5
ssg71
g2809
sg64
(lp2816
g57
(g66
g59
NtRp2817
(dp2818
g62
(dp2819
g70
I4
ssg71
Nsg64
(lp2820
g57
(g73
g59
NtRp2821
(dp2822
g62
(dp2823
sg71
g2817
sg64
(lp2824
g57
(g78
g59
NtRp2825
(dp2826
g62
(dp2827
g82
g83
ssg71
g2821
sg64
(lp2828
g2608
asbag57
(g78
g59
NtRp2829
(dp2830
g62
(dp2831
g89
g90
ssg71
g2821
sg64
(lp2832
S':'
asbag57
(g78
g59
NtRp2833
(dp2834
g62
(dp2835
sg71
g2821
sg64
(lp2836
g57
(g58
g59
NtRp2837
(dp2838
g62
(dp2839
g70
I4
ssg71
g2833
sg64
(lp2840
g2621
asbasbasbag57
(g73
g59
NtRp2841
(dp2842
g62
(dp2843
sg71
g2817
sg64
(lp2844
g57
(g78
g59
NtRp2845
(dp2846
g62
(dp2847
g82
g83
ssg71
g2841
sg64
(lp2848
g2630
asbag57
(g78
g59
NtRp2849
(dp2850
g62
(dp2851
g89
g90
ssg71
g2841
sg64
(lp2852
S':'
asbag57
(g78
g59
NtRp2853
(dp2854
g62
(dp2855
sg71
g2841
sg64
(lp2856
g57
(g58
g59
NtRp2857
(dp2858
g62
(dp2859
g70
I4
ssg71
g2853
sg64
(lp2860
g2643
asbasbasbag57
(g73
g59
NtRp2861
(dp2862
g62
(dp2863
sg71
g2817
sg64
(lp2864
g57
(g78
g59
NtRp2865
(dp2866
g62
(dp2867
g82
g83
ssg71
g2861
sg64
(lp2868
g2652
asbag57
(g78
g59
NtRp2869
(dp2870
g62
(dp2871
g89
g90
ssg71
g2861
sg64
(lp2872
S':'
asbag57
(g78
g59
NtRp2873
(dp2874
g62
(dp2875
sg71
g2861
sg64
(lp2876
g57
(g58
g59
NtRp2877
(dp2878
g62
(dp2879
g70
I4
ssg71
g2873
sg64
(lp2880
g2665
asbasbasbag57
(g73
g59
NtRp2881
(dp2882
g62
(dp2883
sg71
g2817
sg64
(lp2884
g57
(g78
g59
NtRp2885
(dp2886
g62
(dp2887
g82
g83
ssg71
g2881
sg64
(lp2888
g2674
asbag57
(g78
g59
NtRp2889
(dp2890
g62
(dp2891
g89
g90
ssg71
g2881
sg64
(lp2892
S':'
asbag57
(g78
g59
NtRp2893
(dp2894
g62
(dp2895
sg71
g2881
sg64
(lp2896
g57
(g58
g59
NtRp2897
(dp2898
g62
(dp2899
g70
I4
ssg71
g2893
sg64
(lp2900
g2687
asbasbasbag57
(g73
g59
NtRp2901
(dp2902
g62
(dp2903
sg71
g2817
sg64
(lp2904
g57
(g78
g59
NtRp2905
(dp2906
g62
(dp2907
g82
g83
ssg71
g2901
sg64
(lp2908
g2084
asbag57
(g78
g59
NtRp2909
(dp2910
g62
(dp2911
g89
g90
ssg71
g2901
sg64
(lp2912
S':'
asbag57
(g78
g59
NtRp2913
(dp2914
g62
(dp2915
sg71
g2901
sg64
(lp2916
g57
(g58
g59
NtRp2917
(dp2918
g62
(dp2919
g70
I4
ssg71
g2913
sg64
(lp2920
S'3'
asbasbasbasbasbasbasbag57
(g73
g59
NtRp2921
(dp2922
g62
(dp2923
sg71
g67
sg64
(lp2924
g57
(g78
g59
NtRp2925
(dp2926
g62
(dp2927
g82
g83
ssg71
g2921
sg64
(lp2928
S'wsgi'
p2929
asbag57
(g78
g59
NtRp2930
(dp2931
g62
(dp2932
g89
g90
ssg71
g2921
sg64
(lp2933
S':'
asbag57
(g78
g59
NtRp2934
(dp2935
g62
(dp2936
sg71
g2921
sg64
(lp2937
g57
(g58
g59
NtRp2938
(dp2939
g62
(dp2940
g70
I5
ssg71
g2934
sg64
(lp2941
g57
(g66
g59
NtRp2942
(dp2943
g62
(dp2944
g70
I4
ssg71
Nsg64
(lp2945
g57
(g73
g59
NtRp2946
(dp2947
g62
(dp2948
sg71
g2942
sg64
(lp2949
g57
(g78
g59
NtRp2950
(dp2951
g62
(dp2952
g82
g83
ssg71
g2946
sg64
(lp2953
S'environ'
p2954
asbag57
(g78
g59
NtRp2955
(dp2956
g62
(dp2957
g89
g90
ssg71
g2946
sg64
(lp2958
S':'
asbag57
(g78
g59
NtRp2959
(dp2960
g62
(dp2961
sg71
g2946
sg64
(lp2962
g57
(g58
g59
NtRp2963
(dp2964
g62
(dp2965
g70
I4
ssg71
g2959
sg64
(lp2966
g57
(g66
g59
NtRp2967
(dp2968
g62
(dp2969
g70
I3
ssg71
Nsg64
(lp2970
g57
(g73
g59
NtRp2971
(dp2972
g62
(dp2973
sg71
g2967
sg64
(lp2974
g57
(g78
g59
NtRp2975
(dp2976
g62
(dp2977
g82
g83
ssg71
g2971
sg64
(lp2978
S'CONTENT_LENGTH'
p2979
asbag57
(g78
g59
NtRp2980
(dp2981
g62
(dp2982
g89
g90
ssg71
g2971
sg64
(lp2983
S':'
asbag57
(g78
g59
NtRp2984
(dp2985
g62
(dp2986
sg71
g2971
sg64
(lp2987
g57
(g58
g59
NtRp2988
(dp2989
g62
(dp2990
g70
I3
ssg71
g2984
sg64
(lp2991
g963
asbasbasbag57
(g73
g59
NtRp2992
(dp2993
g62
(dp2994
sg71
g2967
sg64
(lp2995
g57
(g78
g59
NtRp2996
(dp2997
g62
(dp2998
g82
g83
ssg71
g2992
sg64
(lp2999
S'CONTENT_TYPE'
p3000
asbag57
(g78
g59
NtRp3001
(dp3002
g62
(dp3003
g89
g90
ssg71
g2992
sg64
(lp3004
S':'
asbag57
(g78
g59
NtRp3005
(dp3006
g62
(dp3007
sg71
g2992
sg64
(lp3008
g57
(g58
g59
NtRp3009
(dp3010
g62
(dp3011
g70
I3
ssg71
g3005
sg64
(lp3012
g985
asbasbasbag57
(g73
g59
NtRp3013
(dp3014
g62
(dp3015
sg71
g2967
sg64
(lp3016
g57
(g78
g59
NtRp3017
(dp3018
g62
(dp3019
g82
g83
ssg71
g3013
sg64
(lp3020
S'HTTP_ACCEPT'
p3021
asbag57
(g78
g59
NtRp3022
(dp3023
g62
(dp3024
g89
g90
ssg71
g3013
sg64
(lp3025
S':'
asbag57
(g78
g59
NtRp3026
(dp3027
g62
(dp3028
sg71
g3013
sg64
(lp3029
g57
(g58
g59
NtRp3030
(dp3031
g62
(dp3032
g70
I3
ssg71
g3026
sg64
(lp3033
g1072
asbasbasbag57
(g73
g59
NtRp3034
(dp3035
g62
(dp3036
sg71
g2967
sg64
(lp3037
g57
(g78
g59
NtRp3038
(dp3039
g62
(dp3040
g82
g83
ssg71
g3034
sg64
(lp3041
S'HTTP_ACCEPT_ENCODING'
p3042
asbag57
(g78
g59
NtRp3043
(dp3044
g62
(dp3045
g89
g90
ssg71
g3034
sg64
(lp3046
S':'
asbag57
(g78
g59
NtRp3047
(dp3048
g62
(dp3049
sg71
g3034
sg64
(lp3050
g57
(g58
g59
NtRp3051
(dp3052
g62
(dp3053
g70
I3
ssg71
g3047
sg64
(lp3054
g1094
asbasbasbag57
(g73
g59
NtRp3055
(dp3056
g62
(dp3057
sg71
g2967
sg64
(lp3058
g57
(g78
g59
NtRp3059
(dp3060
g62
(dp3061
g82
g83
ssg71
g3055
sg64
(lp3062
S'HTTP_ACCEPT_LANGUAGE'
p3063
asbag57
(g78
g59
NtRp3064
(dp3065
g62
(dp3066
g89
g90
ssg71
g3055
sg64
(lp3067
S':'
asbag57
(g78
g59
NtRp3068
(dp3069
g62
(dp3070
sg71
g3055
sg64
(lp3071
g57
(g58
g59
NtRp3072
(dp3073
g62
(dp3074
g70
I3
ssg71
g3068
sg64
(lp3075
g1116
asbasbasbag57
(g73
g59
NtRp3076
(dp3077
g62
(dp3078
sg71
g2967
sg64
(lp3079
g57
(g78
g59
NtRp3080
(dp3081
g62
(dp3082
g82
g83
ssg71
g3076
sg64
(lp3083
S'HTTP_CACHE_CONTROL'
p3084
asbag57
(g78
g59
NtRp3085
(dp3086
g62
(dp3087
g89
g90
ssg71
g3076
sg64
(lp3088
S':'
asbag57
(g78
g59
NtRp3089
(dp3090
g62
(dp3091
sg71
g3076
sg64
(lp3092
g57
(g58
g59
NtRp3093
(dp3094
g62
(dp3095
g70
I3
ssg71
g3089
sg64
(lp3096
g1138
asbasbasbag57
(g73
g59
NtRp3097
(dp3098
g62
(dp3099
sg71
g2967
sg64
(lp3100
g57
(g78
g59
NtRp3101
(dp3102
g62
(dp3103
g82
g83
ssg71
g3097
sg64
(lp3104
S'HTTP_CONNECTION'
p3105
asbag57
(g78
g59
NtRp3106
(dp3107
g62
(dp3108
g89
g90
ssg71
g3097
sg64
(lp3109
S':'
asbag57
(g78
g59
NtRp3110
(dp3111
g62
(dp3112
sg71
g3097
sg64
(lp3113
g57
(g58
g59
NtRp3114
(dp3115
g62
(dp3116
g70
I3
ssg71
g3110
sg64
(lp3117
g1160
asbasbasbag57
(g73
g59
NtRp3118
(dp3119
g62
(dp3120
sg71
g2967
sg64
(lp3121
g57
(g78
g59
NtRp3122
(dp3123
g62
(dp3124
g82
g83
ssg71
g3118
sg64
(lp3125
S'HTTP_CONTENT_LENGTH'
p3126
asbag57
(g78
g59
NtRp3127
(dp3128
g62
(dp3129
g89
g90
ssg71
g3118
sg64
(lp3130
S':'
asbag57
(g78
g59
NtRp3131
(dp3132
g62
(dp3133
sg71
g3118
sg64
(lp3134
g57
(g58
g59
NtRp3135
(dp3136
g62
(dp3137
g70
I3
ssg71
g3131
sg64
(lp3138
g963
asbasbasbag57
(g73
g59
NtRp3139
(dp3140
g62
(dp3141
sg71
g2967
sg64
(lp3142
g57
(g78
g59
NtRp3143
(dp3144
g62
(dp3145
g82
g83
ssg71
g3139
sg64
(lp3146
S'HTTP_CONTENT_TYPE'
p3147
asbag57
(g78
g59
NtRp3148
(dp3149
g62
(dp3150
g89
g90
ssg71
g3139
sg64
(lp3151
S':'
asbag57
(g78
g59
NtRp3152
(dp3153
g62
(dp3154
sg71
g3139
sg64
(lp3155
g57
(g58
g59
NtRp3156
(dp3157
g62
(dp3158
g70
I3
ssg71
g3152
sg64
(lp3159
g985
asbasbasbag57
(g73
g59
NtRp3160
(dp3161
g62
(dp3162
sg71
g2967
sg64
(lp3163
g57
(g78
g59
NtRp3164
(dp3165
g62
(dp3166
g82
g83
ssg71
g3160
sg64
(lp3167
S'HTTP_COOKIE'
p3168
asbag57
(g78
g59
NtRp3169
(dp3170
g62
(dp3171
g89
g90
ssg71
g3160
sg64
(lp3172
S':'
asbag57
(g78
g59
NtRp3173
(dp3174
g62
(dp3175
sg71
g3160
sg64
(lp3176
g57
(g58
g59
NtRp3177
(dp3178
g62
(dp3179
g70
I3
ssg71
g3173
sg64
(lp3180
g1224
asbasbasbag57
(g73
g59
NtRp3181
(dp3182
g62
(dp3183
sg71
g2967
sg64
(lp3184
g57
(g78
g59
NtRp3185
(dp3186
g62
(dp3187
g82
g83
ssg71
g3181
sg64
(lp3188
S'HTTP_HOST'
p3189
asbag57
(g78
g59
NtRp3190
(dp3191
g62
(dp3192
g89
g90
ssg71
g3181
sg64
(lp3193
S':'
asbag57
(g78
g59
NtRp3194
(dp3195
g62
(dp3196
sg71
g3181
sg64
(lp3197
g57
(g58
g59
NtRp3198
(dp3199
g62
(dp3200
g70
I3
ssg71
g3194
sg64
(lp3201
g1246
asbasbasbag57
(g73
g59
NtRp3202
(dp3203
g62
(dp3204
sg71
g2967
sg64
(lp3205
g57
(g78
g59
NtRp3206
(dp3207
g62
(dp3208
g82
g83
ssg71
g3202
sg64
(lp3209
S'HTTP_REFERER'
p3210
asbag57
(g78
g59
NtRp3211
(dp3212
g62
(dp3213
g89
g90
ssg71
g3202
sg64
(lp3214
S':'
asbag57
(g78
g59
NtRp3215
(dp3216
g62
(dp3217
sg71
g3202
sg64
(lp3218
g57
(g58
g59
NtRp3219
(dp3220
g62
(dp3221
g70
I3
ssg71
g3215
sg64
(lp3222
g1268
asbasbasbag57
(g73
g59
NtRp3223
(dp3224
g62
(dp3225
sg71
g2967
sg64
(lp3226
g57
(g78
g59
NtRp3227
(dp3228
g62
(dp3229
g82
g83
ssg71
g3223
sg64
(lp3230
S'HTTP_USER_AGENT'
p3231
asbag57
(g78
g59
NtRp3232
(dp3233
g62
(dp3234
g89
g90
ssg71
g3223
sg64
(lp3235
S':'
asbag57
(g78
g59
NtRp3236
(dp3237
g62
(dp3238
sg71
g3223
sg64
(lp3239
g57
(g58
g59
NtRp3240
(dp3241
g62
(dp3242
g70
I3
ssg71
g3236
sg64
(lp3243
g1290
asbasbasbag57
(g73
g59
NtRp3244
(dp3245
g62
(dp3246
sg71
g2967
sg64
(lp3247
g57
(g78
g59
NtRp3248
(dp3249
g62
(dp3250
g82
g83
ssg71
g3244
sg64
(lp3251
S'PATH_INFO'
p3252
asbag57
(g78
g59
NtRp3253
(dp3254
g62
(dp3255
g89
g90
ssg71
g3244
sg64
(lp3256
S':'
asbag57
(g78
g59
NtRp3257
(dp3258
g62
(dp3259
sg71
g3244
sg64
(lp3260
g57
(g58
g59
NtRp3261
(dp3262
g62
(dp3263
g70
I3
ssg71
g3257
sg64
(lp3264
g1457
asbasbasbag57
(g73
g59
NtRp3265
(dp3266
g62
(dp3267
sg71
g2967
sg64
(lp3268
g57
(g78
g59
NtRp3269
(dp3270
g62
(dp3271
g82
g83
ssg71
g3265
sg64
(lp3272
S'QUERY_STRING'
p3273
asbag57
(g78
g59
NtRp3274
(dp3275
g62
(dp3276
g89
g90
ssg71
g3265
sg64
(lp3277
S':'
asbag57
(g78
g59
NtRp3278
(dp3279
g62
(dp3280
sg71
g3265
sg64
(lp3281
g57
(g58
g59
NtRp3282
(dp3283
g62
(dp3284
g70
I3
ssg71
g3278
sg64
(lp3285
g1479
asbasbasbag57
(g73
g59
NtRp3286
(dp3287
g62
(dp3288
sg71
g2967
sg64
(lp3289
g57
(g78
g59
NtRp3290
(dp3291
g62
(dp3292
g82
g83
ssg71
g3286
sg64
(lp3293
S'REMOTE_ADDR'
p3294
asbag57
(g78
g59
NtRp3295
(dp3296
g62
(dp3297
g89
g90
ssg71
g3286
sg64
(lp3298
S':'
asbag57
(g78
g59
NtRp3299
(dp3300
g62
(dp3301
sg71
g3286
sg64
(lp3302
g57
(g58
g59
NtRp3303
(dp3304
g62
(dp3305
g70
I3
ssg71
g3299
sg64
(lp3306
g212
asbasbasbag57
(g73
g59
NtRp3307
(dp3308
g62
(dp3309
sg71
g2967
sg64
(lp3310
g57
(g78
g59
NtRp3311
(dp3312
g62
(dp3313
g82
g83
ssg71
g3307
sg64
(lp3314
S'REMOTE_PORT'
p3315
asbag57
(g78
g59
NtRp3316
(dp3317
g62
(dp3318
g89
g90
ssg71
g3307
sg64
(lp3319
S':'
asbag57
(g78
g59
NtRp3320
(dp3321
g62
(dp3322
sg71
g3307
sg64
(lp3323
g57
(g58
g59
NtRp3324
(dp3325
g62
(dp3326
g70
I3
ssg71
g3320
sg64
(lp3327
g1522
asbasbasbag57
(g73
g59
NtRp3328
(dp3329
g62
(dp3330
sg71
g2967
sg64
(lp3331
g57
(g78
g59
NtRp3332
(dp3333
g62
(dp3334
g82
g83
ssg71
g3328
sg64
(lp3335
S'REQUEST_METHOD'
p3336
asbag57
(g78
g59
NtRp3337
(dp3338
g62
(dp3339
g89
g90
ssg71
g3328
sg64
(lp3340
S':'
asbag57
(g78
g59
NtRp3341
(dp3342
g62
(dp3343
sg71
g3328
sg64
(lp3344
g57
(g58
g59
NtRp3345
(dp3346
g62
(dp3347
g70
I3
ssg71
g3341
sg64
(lp3348
g1544
asbasbasbag57
(g73
g59
NtRp3349
(dp3350
g62
(dp3351
sg71
g2967
sg64
(lp3352
g57
(g78
g59
NtRp3353
(dp3354
g62
(dp3355
g82
g83
ssg71
g3349
sg64
(lp3356
S'REQUEST_URI'
p3357
asbag57
(g78
g59
NtRp3358
(dp3359
g62
(dp3360
g89
g90
ssg71
g3349
sg64
(lp3361
S':'
asbag57
(g78
g59
NtRp3362
(dp3363
g62
(dp3364
sg71
g3349
sg64
(lp3365
g57
(g58
g59
NtRp3366
(dp3367
g62
(dp3368
g70
I3
ssg71
g3362
sg64
(lp3369
g1566
asbasbasbag57
(g73
g59
NtRp3370
(dp3371
g62
(dp3372
sg71
g2967
sg64
(lp3373
g57
(g78
g59
NtRp3374
(dp3375
g62
(dp3376
g82
g83
ssg71
g3370
sg64
(lp3377
S'SCRIPT_NAME'
p3378
asbag57
(g78
g59
NtRp3379
(dp3380
g62
(dp3381
g89
g90
ssg71
g3370
sg64
(lp3382
S':'
asbag57
(g78
g59
NtRp3383
(dp3384
g62
(dp3385
sg71
g3370
sg64
(lp3386
g57
(g58
g59
NtRp3387
(dp3388
g62
(dp3389
g70
I3
ssg71
g3383
sg64
(lp3390
S''
asbasbasbag57
(g73
g59
NtRp3391
(dp3392
g62
(dp3393
sg71
g2967
sg64
(lp3394
g57
(g78
g59
NtRp3395
(dp3396
g62
(dp3397
g82
g83
ssg71
g3391
sg64
(lp3398
S'SERVER_NAME'
p3399
asbag57
(g78
g59
NtRp3400
(dp3401
g62
(dp3402
g89
g90
ssg71
g3391
sg64
(lp3403
S':'
asbag57
(g78
g59
NtRp3404
(dp3405
g62
(dp3406
sg71
g3391
sg64
(lp3407
g57
(g58
g59
NtRp3408
(dp3409
g62
(dp3410
g70
I3
ssg71
g3404
sg64
(lp3411
g1609
asbasbasbag57
(g73
g59
NtRp3412
(dp3413
g62
(dp3414
sg71
g2967
sg64
(lp3415
g57
(g78
g59
NtRp3416
(dp3417
g62
(dp3418
g82
g83
ssg71
g3412
sg64
(lp3419
S'SERVER_PORT'
p3420
asbag57
(g78
g59
NtRp3421
(dp3422
g62
(dp3423
g89
g90
ssg71
g3412
sg64
(lp3424
S':'
asbag57
(g78
g59
NtRp3425
(dp3426
g62
(dp3427
sg71
g3412
sg64
(lp3428
g57
(g58
g59
NtRp3429
(dp3430
g62
(dp3431
g70
I3
ssg71
g3425
sg64
(lp3432
g1631
asbasbasbag57
(g73
g59
NtRp3433
(dp3434
g62
(dp3435
sg71
g2967
sg64
(lp3436
g57
(g78
g59
NtRp3437
(dp3438
g62
(dp3439
g82
g83
ssg71
g3433
sg64
(lp3440
S'SERVER_PROTOCOL'
p3441
asbag57
(g78
g59
NtRp3442
(dp3443
g62
(dp3444
g89
g90
ssg71
g3433
sg64
(lp3445
S':'
asbag57
(g78
g59
NtRp3446
(dp3447
g62
(dp3448
sg71
g3433
sg64
(lp3449
g57
(g58
g59
NtRp3450
(dp3451
g62
(dp3452
g70
I3
ssg71
g3446
sg64
(lp3453
g1653
asbasbasbag57
(g73
g59
NtRp3454
(dp3455
g62
(dp3456
sg71
g2967
sg64
(lp3457
g57
(g78
g59
NtRp3458
(dp3459
g62
(dp3460
g82
g83
ssg71
g3454
sg64
(lp3461
S'SERVER_SOFTWARE'
p3462
asbag57
(g78
g59
NtRp3463
(dp3464
g62
(dp3465
g89
g90
ssg71
g3454
sg64
(lp3466
S':'
asbag57
(g78
g59
NtRp3467
(dp3468
g62
(dp3469
sg71
g3454
sg64
(lp3470
g57
(g58
g59
NtRp3471
(dp3472
g62
(dp3473
g70
I3
ssg71
g3467
sg64
(lp3474
g1675
asbasbasbag57
(g73
g59
NtRp3475
(dp3476
g62
(dp3477
sg71
g2967
sg64
(lp3478
g57
(g78
g59
NtRp3479
(dp3480
g62
(dp3481
g82
g83
ssg71
g3475
sg64
(lp3482
S'wsgi.errors'
p3483
asbag57
(g78
g59
NtRp3484
(dp3485
g62
(dp3486
g89
g90
ssg71
g3475
sg64
(lp3487
S':'
asbag57
(g78
g59
NtRp3488
(dp3489
g62
(dp3490
sg71
g3475
sg64
(lp3491
g57
(g58
g59
NtRp3492
(dp3493
g62
(dp3494
g70
I3
ssg71
g3488
sg64
(lp3495
S"<open file '<stderr>', mode 'w' at 0xb727d0d0>"
p3496
asbasbasbag57
(g73
g59
NtRp3497
(dp3498
g62
(dp3499
sg71
g2967
sg64
(lp3500
g57
(g78
g59
NtRp3501
(dp3502
g62
(dp3503
g82
g83
ssg71
g3497
sg64
(lp3504
S'wsgi.file_wrapper'
p3505
asbag57
(g78
g59
NtRp3506
(dp3507
g62
(dp3508
g89
g90
ssg71
g3497
sg64
(lp3509
S':'
asbag57
(g78
g59
NtRp3510
(dp3511
g62
(dp3512
sg71
g3497
sg64
(lp3513
g57
(g58
g59
NtRp3514
(dp3515
g62
(dp3516
g70
I3
ssg71
g3510
sg64
(lp3517
S'<class wsgiref.util.FileWrapper at 0x9a9465c>'
p3518
asbasbasbag57
(g73
g59
NtRp3519
(dp3520
g62
(dp3521
sg71
g2967
sg64
(lp3522
g57
(g78
g59
NtRp3523
(dp3524
g62
(dp3525
g82
g83
ssg71
g3519
sg64
(lp3526
S'wsgi.input'
p3527
asbag57
(g78
g59
NtRp3528
(dp3529
g62
(dp3530
g89
g90
ssg71
g3519
sg64
(lp3531
S':'
asbag57
(g78
g59
NtRp3532
(dp3533
g62
(dp3534
sg71
g3519
sg64
(lp3535
g57
(g58
g59
NtRp3536
(dp3537
g62
(dp3538
g70
I3
ssg71
g3532
sg64
(lp3539
S"<open file '<fdopen>', mode 'w+b' at 0xac413128>"
p3540
asbasbasbag57
(g73
g59
NtRp3541
(dp3542
g62
(dp3543
sg71
g2967
sg64
(lp3544
g57
(g78
g59
NtRp3545
(dp3546
g62
(dp3547
g82
g83
ssg71
g3541
sg64
(lp3548
S'wsgi.multiprocess'
p3549
asbag57
(g78
g59
NtRp3550
(dp3551
g62
(dp3552
g89
g90
ssg71
g3541
sg64
(lp3553
S':'
asbag57
(g78
g59
NtRp3554
(dp3555
g62
(dp3556
sg71
g3541
sg64
(lp3557
g57
(g58
g59
NtRp3558
(dp3559
g62
(dp3560
g70
I3
ssg71
g3554
sg64
(lp3561
g100
asbasbasbag57
(g73
g59
NtRp3562
(dp3563
g62
(dp3564
sg71
g2967
sg64
(lp3565
g57
(g78
g59
NtRp3566
(dp3567
g62
(dp3568
g82
g83
ssg71
g3562
sg64
(lp3569
S'wsgi.multithread'
p3570
asbag57
(g78
g59
NtRp3571
(dp3572
g62
(dp3573
g89
g90
ssg71
g3562
sg64
(lp3574
S':'
asbag57
(g78
g59
NtRp3575
(dp3576
g62
(dp3577
sg71
g3562
sg64
(lp3578
g57
(g58
g59
NtRp3579
(dp3580
g62
(dp3581
g70
I3
ssg71
g3575
sg64
(lp3582
g1892
asbasbasbag57
(g73
g59
NtRp3583
(dp3584
g62
(dp3585
sg71
g2967
sg64
(lp3586
g57
(g78
g59
NtRp3587
(dp3588
g62
(dp3589
g82
g83
ssg71
g3583
sg64
(lp3590
S'wsgi.run_once'
p3591
asbag57
(g78
g59
NtRp3592
(dp3593
g62
(dp3594
g89
g90
ssg71
g3583
sg64
(lp3595
S':'
asbag57
(g78
g59
NtRp3596
(dp3597
g62
(dp3598
sg71
g3583
sg64
(lp3599
g57
(g58
g59
NtRp3600
(dp3601
g62
(dp3602
g70
I3
ssg71
g3596
sg64
(lp3603
g100
asbasbasbag57
(g73
g59
NtRp3604
(dp3605
g62
(dp3606
sg71
g2967
sg64
(lp3607
g57
(g78
g59
NtRp3608
(dp3609
g62
(dp3610
g82
g83
ssg71
g3604
sg64
(lp3611
S'wsgi.url_scheme'
p3612
asbag57
(g78
g59
NtRp3613
(dp3614
g62
(dp3615
g89
g90
ssg71
g3604
sg64
(lp3616
S':'
asbag57
(g78
g59
NtRp3617
(dp3618
g62
(dp3619
sg71
g3604
sg64
(lp3620
g57
(g58
g59
NtRp3621
(dp3622
g62
(dp3623
g70
I3
ssg71
g3617
sg64
(lp3624
g1935
asbasbasbag57
(g73
g59
NtRp3625
(dp3626
g62
(dp3627
sg71
g2967
sg64
(lp3628
g57
(g78
g59
NtRp3629
(dp3630
g62
(dp3631
g82
g83
ssg71
g3625
sg64
(lp3632
S'wsgi.version'
p3633
asbag57
(g78
g59
NtRp3634
(dp3635
g62
(dp3636
g89
g90
ssg71
g3625
sg64
(lp3637
S':'
asbag57
(g78
g59
NtRp3638
(dp3639
g62
(dp3640
sg71
g3625
sg64
(lp3641
g57
(g58
g59
NtRp3642
(dp3643
g62
(dp3644
g70
I3
ssg71
g3638
sg64
(lp3645
S'1'
asbasbasbasbasbasbasbasbasbasbasbasbasbsS'frames'
p3646
(lp3647
(dp3648
S'file'
p3649
S'/home/aditi/Desktop/web2py/gluon/restricted.py'
p3650
sS'dump'
p3651
(dp3652
S'environment'
p3653
S"{'A': <class 'gluon.html.A'>, 'Auth': <class 'gluon.tools.Auth'>, 'B': <class 'gluon.html.B'>, 'BEAUTIFY': <class 'gluon.html.BEAUTIFY'>, 'BODY': <class 'gluon.html.BODY'>, 'BR': <class 'gluon.html.BR'>, 'BUTTON': <class 'gluon.html.BUTTON'>, 'CAT': <class 'gluon.html.CAT'>, 'CENTER': <class 'gluon.html.CENTER'>, 'CLEANUP': <class 'gluon.validators.CLEANUP'>, ...}"
p3654
sS'ccode'
p3655
S'<code object <module> at 0xac79c4a0, file "/home...ons/assignment2/controllers/default.py", line 13>'
p3656
ssS'lnum'
p3657
I212
sS'lines'
p3658
(dp3659
I207
S'    try:'
p3660
sI208
S'        if isinstance(code, types.CodeType):'
p3661
sI209
S'            ccode = code'
p3662
sI210
S'        else:'
p3663
sI211
S'            ccode = compile2(code, layer)'
p3664
sI212
S'        exec ccode in environment'
p3665
sI213
S'    except HTTP:'
p3666
sI214
S'        raise'
p3667
sI215
S'    except RestrictedError:'
p3668
sI216
S'        # do not encapsulate (obfuscate) the original RestrictedError'
p3669
ssS'call'
p3670
S"(code='# -*- coding: utf-8 -*-\\n# this file is released ...\\n\\nresponse._vars=response._caller(changedetails)\\n', environment={'A': <class 'gluon.html.A'>, 'Auth': <class 'gluon.tools.Auth'>, 'B': <class 'gluon.html.B'>, 'BEAUTIFY': <class 'gluon.html.BEAUTIFY'>, 'BODY': <class 'gluon.html.BODY'>, 'BR': <class 'gluon.html.BR'>, 'BUTTON': <class 'gluon.html.BUTTON'>, 'CAT': <class 'gluon.html.CAT'>, 'CENTER': <class 'gluon.html.CENTER'>, 'CLEANUP': <class 'gluon.validators.CLEANUP'>, ...}, layer='/home/aditi/Desktop/web2py/applications/assignment2/controllers/default.py')"
p3671
sS'func'
p3672
S'restricted'
p3673
sa(dp3674
g3649
S'/home/aditi/Desktop/web2py/applications/assignment2/controllers/default.py'
p3675
sg3651
(dp3676
sg3657
I167
sg3658
(dp3677
I160
S'    but URLs must be signed, i.e. linked with'
p3678
sI161
S"      A('table',_href=URL('data/tables',user_signature=True))"
p3679
sI162
S'    or with the signed load operator'
p3680
sI163
S"      LOAD('default','data.load',args='tables',ajax=True,user_signature=True)"
p3681
sI164
S'    """'
p3682
sI165
S'    return dict(form=crud())'
p3683
sI156
S'    http://..../[app]/default/data/update/[table]/[id]'
p3684
sI157
S'    http://..../[app]/default/data/delete/[table]/[id]'
p3685
sI158
S'    http://..../[app]/default/data/select/[table]'
p3686
sI159
S'    http://..../[app]/default/data/search/[table]'
p3687
ssg3670
S'()'
p3688
sg3672
S'<module>'
p3689
sa(dp3690
g3649
S'/home/aditi/Desktop/web2py/gluon/globals.py'
p3691
sg3651
(dp3692
S'self'
p3693
S'undefined'
p3694
sS'f'
S'<function changedetails>'
p3695
ssg3657
I193
sg3658
(dp3696
I192
S'        self._vars = None'
p3697
sI193
S'        self._caller = lambda f: f()'
p3698
sI194
S'        self._view_environment = None'
p3699
sI195
S'        self._custom_commit = None'
p3700
sI196
S'        self._custom_rollback = None'
p3701
sI197
S''
sI188
S'        self.menu = []             # used by the default view layout'
p3702
sI189
S'        self.files = []            # used by web2py_ajax.html'
p3703
sI190
S'        self.generic_patterns = []  # patterns to allow generic views'
p3704
sI191
S"        self.delimiters = ('{{', '}}')"
p3705
ssg3670
S'(f=<function changedetails>)'
p3706
sg3672
S'<lambda>'
p3707
sa(dp3708
g3649
S'/home/aditi/Desktop/web2py/applications/assignment2/controllers/default.py'
p3709
sg3651
(dp3710
S'category'
p3711
g3694
sS'form.vars'
p3712
S"<Storage {'category': 'india', 'URL': 'http://ww...resting facts about India', 'choice': 'article'}>"
p3713
sS'form'
p3714
S'<gluon.sqlhtml.SQLFORM object>'
p3715
sS'url'
p3716
g3694
sS'form.vars.choice'
p3717
S"'article'"
p3718
sS'form.vars.category'
p3719
S"'india'"
p3720
sS'db.newsitem'
p3721
S'<Table newsitem (id,userid,category,heading,choice,url,points,likes,dislikes,rating,ranking)>'
p3722
sS'choice'
p3723
g3694
sS'form.vars.url'
p3724
S'None'
p3725
sS'db.newsitem.update'
p3726
S'<bound method Table.update of <Table newsitem (i...hoice,url,points,likes,dislikes,rating,ranking)>>'
p3727
sS'global db'
p3728
S'<DAL uri="sqlite://storage.sqlite">'
p3729
sS'form.vars.heading'
p3730
S"'101 Interesting facts about India'"
p3731
sS'heading'
p3732
g3694
ssg3657
I78
sg3658
(dp3733
I73
S"    form=SQLFORM.factory(db.Field('category','string',requires=IS_IN_SET(temp),required=True,default=x[0]['category']),"
p3734
sI74
S"                        Field('heading','string',required=True,default=x[0]['heading']),"
p3735
sI75
S"                        Field('choice','string',requires=IS_IN_SET(['article','video']),required=True,default=x[0]['choice']),"
p3736
sI76
S"                        Field('URL','string',requires=IS_URL(),required=True,default=x[0]['url']))"
p3737
sI77
S'    if(form.accepts(request.vars,session)):'
p3738
sI78
S'        db.newsitem.update(category=form.vars.category,heading=form.vars.heading,choice=form.vars.choice,url=form.vars.url)'
p3739
sI79
S"        redirect(URL(r=request,f='user_homepage'))"
p3740
sI80
S'        response.flash="Your news item has been updated successfully!"'
p3741
sI81
S'    return locals()'
p3742
sI82
S''
ssg3670
S'()'
p3743
sg3672
S'changedetails'
p3744
sa(dp3745
g3649
S'/home/aditi/Desktop/web2py/gluon/dal.py'
p3746
sg3651
(dp3747
S'builtinRuntimeError'
p3748
S"<type 'exceptions.RuntimeError'>"
p3749
ssg3657
I7646
sg3658
(dp3750
I7648
S'    def _enable_record_versioning(self,'
p3751
sI7649
S'                                  archive_db=None,'
p3752
sI7650
S"                                  archive_name = '%(tablename)s_archive',"
p3753
sI7641
S'    @property'
p3754
sI7642
S'    def fields(self):'
p3755
sI7643
S'        return self._fields'
p3756
sI7644
S''
sI7645
S'    def update(self,*args,**kwargs):'
p3757
sI7646
S'        raise RuntimeError("Syntax Not Supported")'
p3758
sI7647
S''
ssg3670
S"(self=<Table newsitem (id,userid,category,heading,choice,url,points,likes,dislikes,rating,ranking)>, *args=(), **kwargs={'category': 'india', 'choice': 'article', 'heading': '101 Interesting facts about India', 'url': None})"
p3759
sg3672
S'update'
p3760
sasS'pyver'
p3761
S'Python 2.7.3: /usr/bin/python'
p3762
sS'session'
p3763
g57
(g58
g59
NtRp3764
(dp3765
g62
(dp3766
sg64
(lp3767
g57
(g66
g59
NtRp3768
(dp3769
g62
(dp3770
g70
I5
ssg71
Nsg64
(lp3771
g57
(g73
g59
NtRp3772
(dp3773
g62
(dp3774
sg71
g3768
sg64
(lp3775
g57
(g78
g59
NtRp3776
(dp3777
g62
(dp3778
g82
g83
ssg71
g3772
sg64
(lp3779
S'flash'
p3780
asbag57
(g78
g59
NtRp3781
(dp3782
g62
(dp3783
g89
g90
ssg71
g3772
sg64
(lp3784
S':'
asbag57
(g78
g59
NtRp3785
(dp3786
g62
(dp3787
sg71
g3772
sg64
(lp3788
g57
(g58
g59
NtRp3789
(dp3790
g62
(dp3791
g70
I5
ssg71
g3785
sg64
(lp3792
S'None'
p3793
asbasbasbasbasbsS'etype'
p3794
S"<type 'exceptions.RuntimeError'>"
p3795
sS'date'
p3796
S'Tue Aug 27 16:13:08 2013'
p3797
sS'response'
p3798
g57
(g58
g59
NtRp3799
(dp3800
g62
(dp3801
sg64
(lp3802
g57
(g66
g59
NtRp3803
(dp3804
g62
(dp3805
g70
I5
ssg71
Nsg64
(lp3806
g57
(g73
g59
NtRp3807
(dp3808
g62
(dp3809
sg71
g3803
sg64
(lp3810
g57
(g78
g59
NtRp3811
(dp3812
g62
(dp3813
g82
g83
ssg71
g3807
sg64
(lp3814
g155
asbag57
(g78
g59
NtRp3815
(dp3816
g62
(dp3817
g89
g90
ssg71
g3807
sg64
(lp3818
S':'
asbag57
(g78
g59
NtRp3819
(dp3820
g62
(dp3821
sg71
g3807
sg64
(lp3822
g57
(g58
g59
NtRp3823
(dp3824
g62
(dp3825
g70
I5
ssg71
g3819
sg64
(lp3826
S'<cStringIO.StringO object at 0xa0ff4c0>'
p3827
asbasbasbag57
(g73
g59
NtRp3828
(dp3829
g62
(dp3830
sg71
g3803
sg64
(lp3831
g57
(g78
g59
NtRp3832
(dp3833
g62
(dp3834
g82
g83
ssg71
g3828
sg64
(lp3835
g243
asbag57
(g78
g59
NtRp3836
(dp3837
g62
(dp3838
g89
g90
ssg71
g3828
sg64
(lp3839
S':'
asbag57
(g78
g59
NtRp3840
(dp3841
g62
(dp3842
sg71
g3828
sg64
(lp3843
g57
(g58
g59
NtRp3844
(dp3845
g62
(dp3846
g70
I5
ssg71
g3840
sg64
(lp3847
g57
(g66
g59
NtRp3848
(dp3849
g62
(dp3850
g70
I4
ssg71
Nsg64
(lp3851
g57
(g73
g59
NtRp3852
(dp3853
g62
(dp3854
sg71
g3848
sg64
(lp3855
g57
(g78
g59
NtRp3856
(dp3857
g62
(dp3858
g82
g83
ssg71
g3852
sg64
(lp3859
S'session_id_assignment2'
p3860
asbag57
(g78
g59
NtRp3861
(dp3862
g62
(dp3863
g89
g90
ssg71
g3852
sg64
(lp3864
S':'
asbag57
(g78
g59
NtRp3865
(dp3866
g62
(dp3867
sg71
g3852
sg64
(lp3868
g57
(g58
g59
NtRp3869
(dp3870
g62
(dp3871
g70
I4
ssg71
g3865
sg64
(lp3872
g475
ag57
(g66
g59
NtRp3873
(dp3874
g62
(dp3875
g70
I3
ssg71
Nsg64
(lp3876
g57
(g73
g59
NtRp3877
(dp3878
g62
(dp3879
sg71
g3873
sg64
(lp3880
g57
(g78
g59
NtRp3881
(dp3882
g62
(dp3883
g82
g83
ssg71
g3877
sg64
(lp3884
g294
asbag57
(g78
g59
NtRp3885
(dp3886
g62
(dp3887
g89
g90
ssg71
g3877
sg64
(lp3888
S':'
asbag57
(g78
g59
NtRp3889
(dp3890
g62
(dp3891
sg71
g3877
sg64
(lp3892
g57
(g58
g59
NtRp3893
(dp3894
g62
(dp3895
g70
I3
ssg71
g3889
sg64
(lp3896
S''
asbasbasbag57
(g73
g59
NtRp3897
(dp3898
g62
(dp3899
sg71
g3873
sg64
(lp3900
g57
(g78
g59
NtRp3901
(dp3902
g62
(dp3903
g82
g83
ssg71
g3897
sg64
(lp3904
g315
asbag57
(g78
g59
NtRp3905
(dp3906
g62
(dp3907
g89
g90
ssg71
g3897
sg64
(lp3908
S':'
asbag57
(g78
g59
NtRp3909
(dp3910
g62
(dp3911
sg71
g3897
sg64
(lp3912
g57
(g58
g59
NtRp3913
(dp3914
g62
(dp3915
g70
I3
ssg71
g3909
sg64
(lp3916
S''
asbasbasbag57
(g73
g59
NtRp3917
(dp3918
g62
(dp3919
sg71
g3873
sg64
(lp3920
g57
(g78
g59
NtRp3921
(dp3922
g62
(dp3923
g82
g83
ssg71
g3917
sg64
(lp3924
g336
asbag57
(g78
g59
NtRp3925
(dp3926
g62
(dp3927
g89
g90
ssg71
g3917
sg64
(lp3928
S':'
asbag57
(g78
g59
NtRp3929
(dp3930
g62
(dp3931
sg71
g3917
sg64
(lp3932
g57
(g58
g59
NtRp3933
(dp3934
g62
(dp3935
g70
I3
ssg71
g3929
sg64
(lp3936
S''
asbasbasbag57
(g73
g59
NtRp3937
(dp3938
g62
(dp3939
sg71
g3873
sg64
(lp3940
g57
(g78
g59
NtRp3941
(dp3942
g62
(dp3943
g82
g83
ssg71
g3937
sg64
(lp3944
g357
asbag57
(g78
g59
NtRp3945
(dp3946
g62
(dp3947
g89
g90
ssg71
g3937
sg64
(lp3948
S':'
asbag57
(g78
g59
NtRp3949
(dp3950
g62
(dp3951
sg71
g3937
sg64
(lp3952
g57
(g58
g59
NtRp3953
(dp3954
g62
(dp3955
g70
I3
ssg71
g3949
sg64
(lp3956
S''
asbasbasbag57
(g73
g59
NtRp3957
(dp3958
g62
(dp3959
sg71
g3873
sg64
(lp3960
g57
(g78
g59
NtRp3961
(dp3962
g62
(dp3963
g82
g83
ssg71
g3957
sg64
(lp3964
g378
asbag57
(g78
g59
NtRp3965
(dp3966
g62
(dp3967
g89
g90
ssg71
g3957
sg64
(lp3968
S':'
asbag57
(g78
g59
NtRp3969
(dp3970
g62
(dp3971
sg71
g3957
sg64
(lp3972
g57
(g58
g59
NtRp3973
(dp3974
g62
(dp3975
g70
I3
ssg71
g3969
sg64
(lp3976
S''
asbasbasbag57
(g73
g59
NtRp3977
(dp3978
g62
(dp3979
sg71
g3873
sg64
(lp3980
g57
(g78
g59
NtRp3981
(dp3982
g62
(dp3983
g82
g83
ssg71
g3977
sg64
(lp3984
g399
asbag57
(g78
g59
NtRp3985
(dp3986
g62
(dp3987
g89
g90
ssg71
g3977
sg64
(lp3988
S':'
asbag57
(g78
g59
NtRp3989
(dp3990
g62
(dp3991
sg71
g3977
sg64
(lp3992
g57
(g58
g59
NtRp3993
(dp3994
g62
(dp3995
g70
I3
ssg71
g3989
sg64
(lp3996
S'/'
asbasbasbag57
(g73
g59
NtRp3997
(dp3998
g62
(dp3999
sg71
g3873
sg64
(lp4000
g57
(g78
g59
NtRp4001
(dp4002
g62
(dp4003
g82
g83
ssg71
g3997
sg64
(lp4004
g420
asbag57
(g78
g59
NtRp4005
(dp4006
g62
(dp4007
g89
g90
ssg71
g3997
sg64
(lp4008
S':'
asbag57
(g78
g59
NtRp4009
(dp4010
g62
(dp4011
sg71
g3997
sg64
(lp4012
g57
(g58
g59
NtRp4013
(dp4014
g62
(dp4015
g70
I3
ssg71
g4009
sg64
(lp4016
S''
asbasbasbag57
(g73
g59
NtRp4017
(dp4018
g62
(dp4019
sg71
g3873
sg64
(lp4020
g57
(g78
g59
NtRp4021
(dp4022
g62
(dp4023
g82
g83
ssg71
g4017
sg64
(lp4024
g441
asbag57
(g78
g59
NtRp4025
(dp4026
g62
(dp4027
g89
g90
ssg71
g4017
sg64
(lp4028
S':'
asbag57
(g78
g59
NtRp4029
(dp4030
g62
(dp4031
sg71
g4017
sg64
(lp4032
g57
(g58
g59
NtRp4033
(dp4034
g62
(dp4035
g70
I3
ssg71
g4029
sg64
(lp4036
S''
asbasbasbasbasbasbasbasbasbasbasbag57
(g73
g59
NtRp4037
(dp4038
g62
(dp4039
sg71
g3803
sg64
(lp4040
g57
(g78
g59
NtRp4041
(dp4042
g62
(dp4043
g82
g83
ssg71
g4037
sg64
(lp4044
S'delimiters'
p4045
asbag57
(g78
g59
NtRp4046
(dp4047
g62
(dp4048
g89
g90
ssg71
g4037
sg64
(lp4049
S':'
asbag57
(g78
g59
NtRp4050
(dp4051
g62
(dp4052
sg71
g4037
sg64
(lp4053
g57
(g58
g59
NtRp4054
(dp4055
g62
(dp4056
g70
I5
ssg71
g4050
sg64
(lp4057
g57
(g66
g59
NtRp4058
(dp4059
g62
(dp4060
g70
I4
ssg71
Nsg64
(lp4061
g57
(g73
g59
NtRp4062
(dp4063
g62
(dp4064
sg71
g4058
sg64
(lp4065
g57
(g78
g59
NtRp4066
(dp4067
g62
(dp4068
sg71
g4062
sg64
(lp4069
g57
(g58
g59
NtRp4070
(dp4071
g62
(dp4072
g70
I4
ssg71
g4066
sg64
(lp4073
S'{{'
p4074
asbasbasbag57
(g73
g59
NtRp4075
(dp4076
g62
(dp4077
sg71
g4058
sg64
(lp4078
g57
(g78
g59
NtRp4079
(dp4080
g62
(dp4081
sg71
g4075
sg64
(lp4082
g57
(g58
g59
NtRp4083
(dp4084
g62
(dp4085
g70
I4
ssg71
g4079
sg64
(lp4086
S'}}'
p4087
asbasbasbasbasbasbasbag57
(g73
g59
NtRp4088
(dp4089
g62
(dp4090
sg71
g3803
sg64
(lp4091
g57
(g78
g59
NtRp4092
(dp4093
g62
(dp4094
g82
g83
ssg71
g4088
sg64
(lp4095
S'files'
p4096
asbag57
(g78
g59
NtRp4097
(dp4098
g62
(dp4099
g89
g90
ssg71
g4088
sg64
(lp4100
S':'
asbag57
(g78
g59
NtRp4101
(dp4102
g62
(dp4103
sg71
g4088
sg64
(lp4104
g57
(g58
g59
NtRp4105
(dp4106
g62
(dp4107
g70
I5
ssg71
g4101
sg64
(lp4108
g57
(g66
g59
NtRp4109
(dp4110
g62
(dp4111
g70
I4
ssg71
Nsg64
(lp4112
sbasbasbasbag57
(g73
g59
NtRp4113
(dp4114
g62
(dp4115
sg71
g3803
sg64
(lp4116
g57
(g78
g59
NtRp4117
(dp4118
g62
(dp4119
g82
g83
ssg71
g4113
sg64
(lp4120
S'flash'
p4121
asbag57
(g78
g59
NtRp4122
(dp4123
g62
(dp4124
g89
g90
ssg71
g4113
sg64
(lp4125
S':'
asbag57
(g78
g59
NtRp4126
(dp4127
g62
(dp4128
sg71
g4113
sg64
(lp4129
g57
(g58
g59
NtRp4130
(dp4131
g62
(dp4132
g70
I5
ssg71
g4126
sg64
(lp4133
S''
asbasbasbag57
(g73
g59
NtRp4134
(dp4135
g62
(dp4136
sg71
g3803
sg64
(lp4137
g57
(g78
g59
NtRp4138
(dp4139
g62
(dp4140
g82
g83
ssg71
g4134
sg64
(lp4141
S'generic_patterns'
p4142
asbag57
(g78
g59
NtRp4143
(dp4144
g62
(dp4145
g89
g90
ssg71
g4134
sg64
(lp4146
S':'
asbag57
(g78
g59
NtRp4147
(dp4148
g62
(dp4149
sg71
g4134
sg64
(lp4150
g57
(g58
g59
NtRp4151
(dp4152
g62
(dp4153
g70
I5
ssg71
g4147
sg64
(lp4154
g57
(g66
g59
NtRp4155
(dp4156
g62
(dp4157
g70
I4
ssg71
Nsg64
(lp4158
g57
(g73
g59
NtRp4159
(dp4160
g62
(dp4161
sg71
g4155
sg64
(lp4162
g57
(g78
g59
NtRp4163
(dp4164
g62
(dp4165
sg71
g4159
sg64
(lp4166
g57
(g58
g59
NtRp4167
(dp4168
g62
(dp4169
g70
I4
ssg71
g4163
sg64
(lp4170
S'*'
asbasbasbasbasbasbasbag57
(g73
g59
NtRp4171
(dp4172
g62
(dp4173
sg71
g3803
sg64
(lp4174
g57
(g78
g59
NtRp4175
(dp4176
g62
(dp4177
g82
g83
ssg71
g4171
sg64
(lp4178
S'google_analytics_id'
p4179
asbag57
(g78
g59
NtRp4180
(dp4181
g62
(dp4182
g89
g90
ssg71
g4171
sg64
(lp4183
S':'
asbag57
(g78
g59
NtRp4184
(dp4185
g62
(dp4186
sg71
g4171
sg64
(lp4187
g57
(g58
g59
NtRp4188
(dp4189
g62
(dp4190
g70
I5
ssg71
g4184
sg64
(lp4191
S'None'
p4192
asbasbasbag57
(g73
g59
NtRp4193
(dp4194
g62
(dp4195
sg71
g3803
sg64
(lp4196
g57
(g78
g59
NtRp4197
(dp4198
g62
(dp4199
g82
g83
ssg71
g4193
sg64
(lp4200
S'headers'
p4201
asbag57
(g78
g59
NtRp4202
(dp4203
g62
(dp4204
g89
g90
ssg71
g4193
sg64
(lp4205
S':'
asbag57
(g78
g59
NtRp4206
(dp4207
g62
(dp4208
sg71
g4193
sg64
(lp4209
g57
(g58
g59
NtRp4210
(dp4211
g62
(dp4212
g70
I5
ssg71
g4206
sg64
(lp4213
g57
(g66
g59
NtRp4214
(dp4215
g62
(dp4216
g70
I4
ssg71
Nsg64
(lp4217
g57
(g73
g59
NtRp4218
(dp4219
g62
(dp4220
sg71
g4214
sg64
(lp4221
g57
(g78
g59
NtRp4222
(dp4223
g62
(dp4224
g82
g83
ssg71
g4218
sg64
(lp4225
S'X-Powered-By'
p4226
asbag57
(g78
g59
NtRp4227
(dp4228
g62
(dp4229
g89
g90
ssg71
g4218
sg64
(lp4230
S':'
asbag57
(g78
g59
NtRp4231
(dp4232
g62
(dp4233
sg71
g4218
sg64
(lp4234
g57
(g58
g59
NtRp4235
(dp4236
g62
(dp4237
g70
I4
ssg71
g4231
sg64
(lp4238
S'web2py'
p4239
asbasbasbasbasbasbasbag57
(g73
g59
NtRp4240
(dp4241
g62
(dp4242
sg71
g3803
sg64
(lp4243
g57
(g78
g59
NtRp4244
(dp4245
g62
(dp4246
g82
g83
ssg71
g4240
sg64
(lp4247
S'logo'
p4248
asbag57
(g78
g59
NtRp4249
(dp4250
g62
(dp4251
g89
g90
ssg71
g4240
sg64
(lp4252
S':'
asbag57
(g78
g59
NtRp4253
(dp4254
g62
(dp4255
sg71
g4240
sg64
(lp4256
g57
(g58
g59
NtRp4257
(dp4258
g62
(dp4259
g70
I5
ssg71
g4253
sg64
(lp4260
g57
(cgluon.html
A
p4261
g59
NtRp4262
(dp4263
g62
(dp4264
S'_class'
p4265
S'brand'
p4266
sS'_href'
p4267
S'http://www.web2py.com/'
p4268
ssg71
Nsg64
(lp4269
g57
(cgluon.html
B
p4270
g59
NtRp4271
(dp4272
g62
(dp4273
sg71
g4262
sg64
(lp4274
S'web'
p4275
ag57
(cgluon.html
SPAN
p4276
g59
NtRp4277
(dp4278
g62
(dp4279
sg71
g4271
sg64
(lp4280
I2
asbaS'py'
p4281
asbacgluon.html
XML_unpickle
p4282
(S's\r\x00\x00\x00&trade;&nbsp;'
tRp4283
asbasbasbasbag57
(g73
g59
NtRp4284
(dp4285
g62
(dp4286
sg71
g3803
sg64
(lp4287
g57
(g78
g59
NtRp4288
(dp4289
g62
(dp4290
g82
g83
ssg71
g4284
sg64
(lp4291
S'menu'
p4292
asbag57
(g78
g59
NtRp4293
(dp4294
g62
(dp4295
g89
g90
ssg71
g4284
sg64
(lp4296
S':'
asbag57
(g78
g59
NtRp4297
(dp4298
g62
(dp4299
sg71
g4284
sg64
(lp4300
g57
(g58
g59
NtRp4301
(dp4302
g62
(dp4303
g70
I5
ssg71
g4297
sg64
(lp4304
g57
(g66
g59
NtRp4305
(dp4306
g62
(dp4307
g70
I4
ssg71
Nsg64
(lp4308
g57
(g73
g59
NtRp4309
(dp4310
g62
(dp4311
sg71
g4305
sg64
(lp4312
g57
(g78
g59
NtRp4313
(dp4314
g62
(dp4315
sg71
g4309
sg64
(lp4316
g57
(g58
g59
NtRp4317
(dp4318
g62
(dp4319
g70
I4
ssg71
g4313
sg64
(lp4320
g57
(g66
g59
NtRp4321
(dp4322
g62
(dp4323
g70
I3
ssg71
Nsg64
(lp4324
g57
(g73
g59
NtRp4325
(dp4326
g62
(dp4327
sg71
g4321
sg64
(lp4328
g57
(g78
g59
NtRp4329
(dp4330
g62
(dp4331
sg71
g4325
sg64
(lp4332
g57
(g58
g59
NtRp4333
(dp4334
g62
(dp4335
g70
I3
ssg71
g4329
sg64
(lp4336
cgluon.languages
lazyT_unpickle
p4337
(S's\x04\x00\x00\x00Home'
tRp4338
asbasbasbag57
(g73
g59
NtRp4339
(dp4340
g62
(dp4341
sg71
g4321
sg64
(lp4342
g57
(g78
g59
NtRp4343
(dp4344
g62
(dp4345
sg71
g4339
sg64
(lp4346
g57
(g58
g59
NtRp4347
(dp4348
g62
(dp4349
g70
I3
ssg71
g4343
sg64
(lp4350
g100
asbasbasbag57
(g73
g59
NtRp4351
(dp4352
g62
(dp4353
sg71
g4321
sg64
(lp4354
g57
(g78
g59
NtRp4355
(dp4356
g62
(dp4357
sg71
g4351
sg64
(lp4358
g57
(g58
g59
NtRp4359
(dp4360
g62
(dp4361
g70
I3
ssg71
g4355
sg64
(lp4362
S'/assignment2/default/index'
p4363
asbasbasbag57
(g73
g59
NtRp4364
(dp4365
g62
(dp4366
sg71
g4321
sg64
(lp4367
g57
(g78
g59
NtRp4368
(dp4369
g62
(dp4370
sg71
g4364
sg64
(lp4371
g57
(g58
g59
NtRp4372
(dp4373
g62
(dp4374
g70
I3
ssg71
g4368
sg64
(lp4375
g57
(g66
g59
NtRp4376
(dp4377
g62
(dp4378
g70
I2
ssg71
Nsg64
(lp4379
sbasbasbasbasbasbasbasbag57
(g73
g59
NtRp4380
(dp4381
g62
(dp4382
sg71
g4305
sg64
(lp4383
g57
(g78
g59
NtRp4384
(dp4385
g62
(dp4386
sg71
g4380
sg64
(lp4387
g57
(g58
g59
NtRp4388
(dp4389
g62
(dp4390
g70
I4
ssg71
g4384
sg64
(lp4391
g57
(g66
g59
NtRp4392
(dp4393
g62
(dp4394
g70
I3
ssg71
Nsg64
(lp4395
g57
(g73
g59
NtRp4396
(dp4397
g62
(dp4398
sg71
g4392
sg64
(lp4399
g57
(g78
g59
NtRp4400
(dp4401
g62
(dp4402
sg71
g4396
sg64
(lp4403
g57
(g58
g59
NtRp4404
(dp4405
g62
(dp4406
g70
I3
ssg71
g4400
sg64
(lp4407
g57
(g4276
g59
NtRp4408
(dp4409
g62
(dp4410
g4265
S'highlighted'
p4411
ssg71
Nsg64
(lp4412
g4239
asbasbasbasbag57
(g73
g59
NtRp4413
(dp4414
g62
(dp4415
sg71
g4392
sg64
(lp4416
g57
(g78
g59
NtRp4417
(dp4418
g62
(dp4419
sg71
g4413
sg64
(lp4420
g57
(g58
g59
NtRp4421
(dp4422
g62
(dp4423
g70
I3
ssg71
g4417
sg64
(lp4424
g100
asbasbasbag57
(g73
g59
NtRp4425
(dp4426
g62
(dp4427
sg71
g4392
sg64
(lp4428
g57
(g78
g59
NtRp4429
(dp4430
g62
(dp4431
sg71
g4425
sg64
(lp4432
g57
(g58
g59
NtRp4433
(dp4434
g62
(dp4435
g70
I3
ssg71
g4429
sg64
(lp4436
S'http://web2py.com'
p4437
asbasbasbag57
(g73
g59
NtRp4438
(dp4439
g62
(dp4440
sg71
g4392
sg64
(lp4441
g57
(g78
g59
NtRp4442
(dp4443
g62
(dp4444
sg71
g4438
sg64
(lp4445
g57
(g58
g59
NtRp4446
(dp4447
g62
(dp4448
g70
I3
ssg71
g4442
sg64
(lp4449
g57
(g66
g59
NtRp4450
(dp4451
g62
(dp4452
g70
I2
ssg71
Nsg64
(lp4453
g57
(g73
g59
NtRp4454
(dp4455
g62
(dp4456
sg71
g4450
sg64
(lp4457
g57
(g78
g59
NtRp4458
(dp4459
g62
(dp4460
sg71
g4454
sg64
(lp4461
g57
(g58
g59
NtRp4462
(dp4463
g62
(dp4464
g70
I2
ssg71
g4458
sg64
(lp4465
g57
(g66
g59
NtRp4466
(dp4467
g62
(dp4468
g70
I1
ssg71
Nsg64
(lp4469
g57
(g73
g59
NtRp4470
(dp4471
g62
(dp4472
sg71
g4466
sg64
(lp4473
g57
(g78
g59
NtRp4474
(dp4475
g62
(dp4476
sg71
g4470
sg64
(lp4477
g57
(g58
g59
NtRp4478
(dp4479
g62
(dp4480
g70
I1
ssg71
g4474
sg64
(lp4481
g4337
(S's\x08\x00\x00\x00My Sites'
tRp4482
asbasbasbag57
(g73
g59
NtRp4483
(dp4484
g62
(dp4485
sg71
g4466
sg64
(lp4486
g57
(g78
g59
NtRp4487
(dp4488
g62
(dp4489
sg71
g4483
sg64
(lp4490
g57
(g58
g59
NtRp4491
(dp4492
g62
(dp4493
g70
I1
ssg71
g4487
sg64
(lp4494
I00
asbasbasbag57
(g73
g59
NtRp4495
(dp4496
g62
(dp4497
sg71
g4466
sg64
(lp4498
g57
(g78
g59
NtRp4499
(dp4500
g62
(dp4501
sg71
g4495
sg64
(lp4502
g57
(g58
g59
NtRp4503
(dp4504
g62
(dp4505
g70
I1
ssg71
g4499
sg64
(lp4506
S'/admin/default/site'
p4507
asbasbasbasbasbasbasbag57
(g73
g59
NtRp4508
(dp4509
g62
(dp4510
sg71
g4450
sg64
(lp4511
g57
(g78
g59
NtRp4512
(dp4513
g62
(dp4514
sg71
g4508
sg64
(lp4515
g57
(g58
g59
NtRp4516
(dp4517
g62
(dp4518
g70
I2
ssg71
g4512
sg64
(lp4519
g57
(g66
g59
NtRp4520
(dp4521
g62
(dp4522
g70
I1
ssg71
Nsg64
(lp4523
g57
(g73
g59
NtRp4524
(dp4525
g62
(dp4526
sg71
g4520
sg64
(lp4527
g57
(g78
g59
NtRp4528
(dp4529
g62
(dp4530
sg71
g4524
sg64
(lp4531
g57
(g58
g59
NtRp4532
(dp4533
g62
(dp4534
g70
I1
ssg71
g4528
sg64
(lp4535
g4337
(S's\x08\x00\x00\x00This App'
tRp4536
asbasbasbag57
(g73
g59
NtRp4537
(dp4538
g62
(dp4539
sg71
g4520
sg64
(lp4540
g57
(g78
g59
NtRp4541
(dp4542
g62
(dp4543
sg71
g4537
sg64
(lp4544
g57
(g58
g59
NtRp4545
(dp4546
g62
(dp4547
g70
I1
ssg71
g4541
sg64
(lp4548
I00
asbasbasbag57
(g73
g59
NtRp4549
(dp4550
g62
(dp4551
sg71
g4520
sg64
(lp4552
g57
(g78
g59
NtRp4553
(dp4554
g62
(dp4555
sg71
g4549
sg64
(lp4556
g57
(g58
g59
NtRp4557
(dp4558
g62
(dp4559
g70
I1
ssg71
g4553
sg64
(lp4560
S'/admin/default/design/assignment2'
p4561
asbasbasbag57
(g73
g59
NtRp4562
(dp4563
g62
(dp4564
sg71
g4520
sg64
(lp4565
g57
(g78
g59
NtRp4566
(dp4567
g62
(dp4568
sg71
g4562
sg64
(lp4569
g57
(g58
g59
NtRp4570
(dp4571
g62
(dp4572
g70
I1
ssg71
g4566
sg64
(lp4573
(lp4574
(g4337
(S's\n\x00\x00\x00Controller'
tRp4575
I00
S'/admin/default/edit/assignment2/controllers/default.py'
tp4576
a(g4337
(S's\x04\x00\x00\x00View'
tRp4577
I00
S'/admin/default/edit/assignment2/views/default/changedetails.html'
tp4578
a(g4337
(S's\x06\x00\x00\x00Layout'
tRp4579
I00
S'/admin/default/edit/assignment2/views/layout.html'
tp4580
a(g4337
(S's\n\x00\x00\x00Stylesheet'
tRp4581
I00
S'/admin/default/edit/assignment2/static/css/web2py.css'
tp4582
a(g4337
(S's\x08\x00\x00\x00DB Model'
tRp4583
I00
S'/admin/default/edit/assignment2/models/db.py'
tp4584
a(g4337
(S's\n\x00\x00\x00Menu Model'
tRp4585
I00
S'/admin/default/edit/assignment2/models/menu.py'
tp4586
a(g4337
(S's\x08\x00\x00\x00Database'
tRp4587
I00
S'/assignment2/appadmin/index'
tp4588
a(g4337
(S's\x06\x00\x00\x00Errors'
tRp4589
I00
S'/admin/default/errors/assignment2'
tp4590
a(g4337
(S's\x05\x00\x00\x00About'
tRp4591
I00
S'/admin/default/about/assignment2'
tp4592
aasbasbasbasbasbasbasbag57
(g73
g59
NtRp4593
(dp4594
g62
(dp4595
sg71
g4450
sg64
(lp4596
g57
(g78
g59
NtRp4597
(dp4598
g62
(dp4599
sg71
g4593
sg64
(lp4600
g57
(g58
g59
NtRp4601
(dp4602
g62
(dp4603
g70
I2
ssg71
g4597
sg64
(lp4604
g57
(g66
g59
NtRp4605
(dp4606
g62
(dp4607
g70
I1
ssg71
Nsg64
(lp4608
g57
(g73
g59
NtRp4609
(dp4610
g62
(dp4611
sg71
g4605
sg64
(lp4612
g57
(g78
g59
NtRp4613
(dp4614
g62
(dp4615
sg71
g4609
sg64
(lp4616
g57
(g58
g59
NtRp4617
(dp4618
g62
(dp4619
g70
I1
ssg71
g4613
sg64
(lp4620
S'web2py.com'
p4621
asbasbasbag57
(g73
g59
NtRp4622
(dp4623
g62
(dp4624
sg71
g4605
sg64
(lp4625
g57
(g78
g59
NtRp4626
(dp4627
g62
(dp4628
sg71
g4622
sg64
(lp4629
g57
(g58
g59
NtRp4630
(dp4631
g62
(dp4632
g70
I1
ssg71
g4626
sg64
(lp4633
I00
asbasbasbag57
(g73
g59
NtRp4634
(dp4635
g62
(dp4636
sg71
g4605
sg64
(lp4637
g57
(g78
g59
NtRp4638
(dp4639
g62
(dp4640
sg71
g4634
sg64
(lp4641
g57
(g58
g59
NtRp4642
(dp4643
g62
(dp4644
g70
I1
ssg71
g4638
sg64
(lp4645
S'http://www.web2py.com'
p4646
asbasbasbag57
(g73
g59
NtRp4647
(dp4648
g62
(dp4649
sg71
g4605
sg64
(lp4650
g57
(g78
g59
NtRp4651
(dp4652
g62
(dp4653
sg71
g4647
sg64
(lp4654
g57
(g58
g59
NtRp4655
(dp4656
g62
(dp4657
g70
I1
ssg71
g4651
sg64
(lp4658
(lp4659
(g4337
(S's\x08\x00\x00\x00Download'
tRp4660
I00
S'http://www.web2py.com/examples/default/download'
p4661
tp4662
a(g4337
(S's\x07\x00\x00\x00Support'
tRp4663
I00
S'http://www.web2py.com/examples/default/support'
p4664
tp4665
a(g4337
(S's\x04\x00\x00\x00Demo'
tRp4666
I00
S'http://web2py.com/demo_admin'
p4667
tp4668
a(g4337
(S's\x0e\x00\x00\x00Quick Examples'
tRp4669
I00
S'http://web2py.com/examples/default/examples'
p4670
tp4671
a(g4337
(S's\x03\x00\x00\x00FAQ'
tRp4672
I00
S'http://web2py.com/AlterEgo'
p4673
tp4674
a(g4337
(S's\x06\x00\x00\x00Videos'
tRp4675
I00
S'http://www.web2py.com/examples/default/videos/'
p4676
tp4677
a(g4337
(S's\x11\x00\x00\x00Free Applications'
tRp4678
I00
S'http://web2py.com/appliances'
p4679
tp4680
a(g4337
(S's\x07\x00\x00\x00Plugins'
tRp4681
I00
S'http://web2py.com/plugins'
p4682
tp4683
a(g4337
(S's\x07\x00\x00\x00Layouts'
tRp4684
I00
S'http://web2py.com/layouts'
p4685
tp4686
a(g4337
(S's\x07\x00\x00\x00Recipes'
tRp4687
I00
S'http://web2pyslices.com/'
p4688
tp4689
a(g4337
(S's\x08\x00\x00\x00Semantic'
tRp4690
I00
S'http://web2py.com/semantic'
p4691
tp4692
aasbasbasbasbasbasbasbag57
(g73
g59
NtRp4693
(dp4694
g62
(dp4695
sg71
g4450
sg64
(lp4696
g57
(g78
g59
NtRp4697
(dp4698
g62
(dp4699
sg71
g4693
sg64
(lp4700
g57
(g58
g59
NtRp4701
(dp4702
g62
(dp4703
g70
I2
ssg71
g4697
sg64
(lp4704
g57
(g66
g59
NtRp4705
(dp4706
g62
(dp4707
g70
I1
ssg71
Nsg64
(lp4708
g57
(g73
g59
NtRp4709
(dp4710
g62
(dp4711
sg71
g4705
sg64
(lp4712
g57
(g78
g59
NtRp4713
(dp4714
g62
(dp4715
sg71
g4709
sg64
(lp4716
g57
(g58
g59
NtRp4717
(dp4718
g62
(dp4719
g70
I1
ssg71
g4713
sg64
(lp4720
g4337
(S's\r\x00\x00\x00Documentation'
tRp4721
asbasbasbag57
(g73
g59
NtRp4722
(dp4723
g62
(dp4724
sg71
g4705
sg64
(lp4725
g57
(g78
g59
NtRp4726
(dp4727
g62
(dp4728
sg71
g4722
sg64
(lp4729
g57
(g58
g59
NtRp4730
(dp4731
g62
(dp4732
g70
I1
ssg71
g4726
sg64
(lp4733
I00
asbasbasbag57
(g73
g59
NtRp4734
(dp4735
g62
(dp4736
sg71
g4705
sg64
(lp4737
g57
(g78
g59
NtRp4738
(dp4739
g62
(dp4740
sg71
g4734
sg64
(lp4741
g57
(g58
g59
NtRp4742
(dp4743
g62
(dp4744
g70
I1
ssg71
g4738
sg64
(lp4745
S'http://www.web2py.com/book'
p4746
asbasbasbag57
(g73
g59
NtRp4747
(dp4748
g62
(dp4749
sg71
g4705
sg64
(lp4750
g57
(g78
g59
NtRp4751
(dp4752
g62
(dp4753
sg71
g4747
sg64
(lp4754
g57
(g58
g59
NtRp4755
(dp4756
g62
(dp4757
g70
I1
ssg71
g4751
sg64
(lp4758
(lp4759
(g4337
(S's\x07\x00\x00\x00Preface'
tRp4760
I00
S'http://www.web2py.com/book/default/chapter/00'
p4761
tp4762
a(g4337
(S's\x0c\x00\x00\x00Introduction'
tRp4763
I00
S'http://www.web2py.com/book/default/chapter/01'
p4764
tp4765
a(g4337
(S's\x06\x00\x00\x00Python'
tRp4766
I00
S'http://www.web2py.com/book/default/chapter/02'
p4767
tp4768
a(g4337
(S's\x08\x00\x00\x00Overview'
tRp4769
I00
S'http://www.web2py.com/book/default/chapter/03'
p4770
tp4771
a(g4337
(S's\x08\x00\x00\x00The Core'
tRp4772
I00
S'http://www.web2py.com/book/default/chapter/04'
p4773
tp4774
a(g4337
(S's\t\x00\x00\x00The Views'
tRp4775
I00
S'http://www.web2py.com/book/default/chapter/05'
p4776
tp4777
a(g4337
(S's\x08\x00\x00\x00Database'
tRp4778
I00
S'http://www.web2py.com/book/default/chapter/06'
p4779
tp4780
a(g4337
(S's\x14\x00\x00\x00Forms and Validators'
tRp4781
I00
S'http://www.web2py.com/book/default/chapter/07'
p4782
tp4783
a(g4337
(S's\r\x00\x00\x00Email and SMS'
tRp4784
I00
S'http://www.web2py.com/book/default/chapter/08'
p4785
tp4786
a(g4337
(S's\x0e\x00\x00\x00Access Control'
tRp4787
I00
S'http://www.web2py.com/book/default/chapter/09'
p4788
tp4789
a(g4337
(S's\x08\x00\x00\x00Services'
tRp4790
I00
S'http://www.web2py.com/book/default/chapter/10'
p4791
tp4792
a(g4337
(S's\x0c\x00\x00\x00Ajax Recipes'
tRp4793
I00
S'http://www.web2py.com/book/default/chapter/11'
p4794
tp4795
a(g4337
(S's\x16\x00\x00\x00Components and Plugins'
tRp4796
I00
S'http://www.web2py.com/book/default/chapter/12'
p4797
tp4798
a(g4337
(S's\x12\x00\x00\x00Deployment Recipes'
tRp4799
I00
S'http://www.web2py.com/book/default/chapter/13'
p4800
tp4801
a(g4337
(S's\r\x00\x00\x00Other Recipes'
tRp4802
I00
S'http://www.web2py.com/book/default/chapter/14'
p4803
tp4804
a(g4337
(S's\r\x00\x00\x00Buy this book'
tRp4805
I00
S'http://stores.lulu.com/web2py'
p4806
tp4807
aasbasbasbasbasbasbasbag57
(g73
g59
NtRp4808
(dp4809
g62
(dp4810
sg71
g4450
sg64
(lp4811
g57
(g78
g59
NtRp4812
(dp4813
g62
(dp4814
sg71
g4808
sg64
(lp4815
g57
(g58
g59
NtRp4816
(dp4817
g62
(dp4818
g70
I2
ssg71
g4812
sg64
(lp4819
g57
(g66
g59
NtRp4820
(dp4821
g62
(dp4822
g70
I1
ssg71
Nsg64
(lp4823
g57
(g73
g59
NtRp4824
(dp4825
g62
(dp4826
sg71
g4820
sg64
(lp4827
g57
(g78
g59
NtRp4828
(dp4829
g62
(dp4830
sg71
g4824
sg64
(lp4831
g57
(g58
g59
NtRp4832
(dp4833
g62
(dp4834
g70
I1
ssg71
g4828
sg64
(lp4835
g4337
(S's\t\x00\x00\x00Community'
tRp4836
asbasbasbag57
(g73
g59
NtRp4837
(dp4838
g62
(dp4839
sg71
g4820
sg64
(lp4840
g57
(g78
g59
NtRp4841
(dp4842
g62
(dp4843
sg71
g4837
sg64
(lp4844
g57
(g58
g59
NtRp4845
(dp4846
g62
(dp4847
g70
I1
ssg71
g4841
sg64
(lp4848
I00
asbasbasbag57
(g73
g59
NtRp4849
(dp4850
g62
(dp4851
sg71
g4820
sg64
(lp4852
g57
(g78
g59
NtRp4853
(dp4854
g62
(dp4855
sg71
g4849
sg64
(lp4856
g57
(g58
g59
NtRp4857
(dp4858
g62
(dp4859
g70
I1
ssg71
g4853
sg64
(lp4860
Nasbasbasbag57
(g73
g59
NtRp4861
(dp4862
g62
(dp4863
sg71
g4820
sg64
(lp4864
g57
(g78
g59
NtRp4865
(dp4866
g62
(dp4867
sg71
g4861
sg64
(lp4868
g57
(g58
g59
NtRp4869
(dp4870
g62
(dp4871
g70
I1
ssg71
g4865
sg64
(lp4872
(lp4873
(g4337
(S's\x06\x00\x00\x00Groups'
tRp4874
I00
S'http://www.web2py.com/examples/default/usergroups'
p4875
tp4876
a(g4337
(S's\x07\x00\x00\x00Twitter'
tRp4877
I00
S'http://twitter.com/web2py'
p4878
tp4879
a(g4337
(S's\t\x00\x00\x00Live Chat'
tRp4880
I00
S'http://webchat.freenode.net/?channels=web2py'
p4881
tp4882
aasbasbasbasbasbasbasbag57
(g73
g59
NtRp4883
(dp4884
g62
(dp4885
sg71
g4450
sg64
(lp4886
g57
(g78
g59
NtRp4887
(dp4888
g62
(dp4889
sg71
g4883
sg64
(lp4890
g57
(g58
g59
NtRp4891
(dp4892
g62
(dp4893
g70
I2
ssg71
g4887
sg64
(lp4894
g57
(g66
g59
NtRp4895
(dp4896
g62
(dp4897
g70
I1
ssg71
Nsg64
(lp4898
g57
(g73
g59
NtRp4899
(dp4900
g62
(dp4901
sg71
g4895
sg64
(lp4902
g57
(g78
g59
NtRp4903
(dp4904
g62
(dp4905
sg71
g4899
sg64
(lp4906
g57
(g58
g59
NtRp4907
(dp4908
g62
(dp4909
g70
I1
ssg71
g4903
sg64
(lp4910
g4337
(S's\x07\x00\x00\x00Plugins'
tRp4911
asbasbasbag57
(g73
g59
NtRp4912
(dp4913
g62
(dp4914
sg71
g4895
sg64
(lp4915
g57
(g78
g59
NtRp4916
(dp4917
g62
(dp4918
sg71
g4912
sg64
(lp4919
g57
(g58
g59
NtRp4920
(dp4921
g62
(dp4922
g70
I1
ssg71
g4916
sg64
(lp4923
I00
asbasbasbag57
(g73
g59
NtRp4924
(dp4925
g62
(dp4926
sg71
g4895
sg64
(lp4927
g57
(g78
g59
NtRp4928
(dp4929
g62
(dp4930
sg71
g4924
sg64
(lp4931
g57
(g58
g59
NtRp4932
(dp4933
g62
(dp4934
g70
I1
ssg71
g4928
sg64
(lp4935
Nasbasbasbag57
(g73
g59
NtRp4936
(dp4937
g62
(dp4938
sg71
g4895
sg64
(lp4939
g57
(g78
g59
NtRp4940
(dp4941
g62
(dp4942
sg71
g4936
sg64
(lp4943
g57
(g58
g59
NtRp4944
(dp4945
g62
(dp4946
g70
I1
ssg71
g4940
sg64
(lp4947
(lp4948
(S'plugin_wiki'
p4949
I00
S'http://web2py.com/examples/default/download'
p4950
tp4951
a(g4337
(S's\r\x00\x00\x00Other Plugins'
tRp4952
I00
g4682
tp4953
a(g4337
(S's\x0e\x00\x00\x00Layout Plugins'
tRp4954
I00
g4685
tp4955
aasbasbasbasbasbasbasbasbasbasbasbasbasbasbasbasbasbasbasbag57
(g73
g59
NtRp4956
(dp4957
g62
(dp4958
sg71
g3803
sg64
(lp4959
g57
(g78
g59
NtRp4960
(dp4961
g62
(dp4962
g82
g83
ssg71
g4956
sg64
(lp4963
S'meta'
p4964
asbag57
(g78
g59
NtRp4965
(dp4966
g62
(dp4967
g89
g90
ssg71
g4956
sg64
(lp4968
S':'
asbag57
(g78
g59
NtRp4969
(dp4970
g62
(dp4971
sg71
g4956
sg64
(lp4972
g57
(g58
g59
NtRp4973
(dp4974
g62
(dp4975
g70
I5
ssg71
g4969
sg64
(lp4976
g57
(g66
g59
NtRp4977
(dp4978
g62
(dp4979
g70
I4
ssg71
Nsg64
(lp4980
g57
(g73
g59
NtRp4981
(dp4982
g62
(dp4983
sg71
g4977
sg64
(lp4984
g57
(g78
g59
NtRp4985
(dp4986
g62
(dp4987
g82
g83
ssg71
g4981
sg64
(lp4988
S'author'
p4989
asbag57
(g78
g59
NtRp4990
(dp4991
g62
(dp4992
g89
g90
ssg71
g4981
sg64
(lp4993
S':'
asbag57
(g78
g59
NtRp4994
(dp4995
g62
(dp4996
sg71
g4981
sg64
(lp4997
g57
(g58
g59
NtRp4998
(dp4999
g62
(dp5000
g70
I4
ssg71
g4994
sg64
(lp5001
S'Your Name <you@example.com>'
p5002
asbasbasbag57
(g73
g59
NtRp5003
(dp5004
g62
(dp5005
sg71
g4977
sg64
(lp5006
g57
(g78
g59
NtRp5007
(dp5008
g62
(dp5009
g82
g83
ssg71
g5003
sg64
(lp5010
S'description'
p5011
asbag57
(g78
g59
NtRp5012
(dp5013
g62
(dp5014
g89
g90
ssg71
g5003
sg64
(lp5015
S':'
asbag57
(g78
g59
NtRp5016
(dp5017
g62
(dp5018
sg71
g5003
sg64
(lp5019
g57
(g58
g59
NtRp5020
(dp5021
g62
(dp5022
g70
I4
ssg71
g5016
sg64
(lp5023
S'a cool new app'
p5024
asbasbasbag57
(g73
g59
NtRp5025
(dp5026
g62
(dp5027
sg71
g4977
sg64
(lp5028
g57
(g78
g59
NtRp5029
(dp5030
g62
(dp5031
g82
g83
ssg71
g5025
sg64
(lp5032
S'generator'
p5033
asbag57
(g78
g59
NtRp5034
(dp5035
g62
(dp5036
g89
g90
ssg71
g5025
sg64
(lp5037
S':'
asbag57
(g78
g59
NtRp5038
(dp5039
g62
(dp5040
sg71
g5025
sg64
(lp5041
g57
(g58
g59
NtRp5042
(dp5043
g62
(dp5044
g70
I4
ssg71
g5038
sg64
(lp5045
S'Web2py Web Framework'
p5046
asbasbasbag57
(g73
g59
NtRp5047
(dp5048
g62
(dp5049
sg71
g4977
sg64
(lp5050
g57
(g78
g59
NtRp5051
(dp5052
g62
(dp5053
g82
g83
ssg71
g5047
sg64
(lp5054
S'keywords'
p5055
asbag57
(g78
g59
NtRp5056
(dp5057
g62
(dp5058
g89
g90
ssg71
g5047
sg64
(lp5059
S':'
asbag57
(g78
g59
NtRp5060
(dp5061
g62
(dp5062
sg71
g5047
sg64
(lp5063
g57
(g58
g59
NtRp5064
(dp5065
g62
(dp5066
g70
I4
ssg71
g5060
sg64
(lp5067
S'web2py, python, framework'
p5068
asbasbasbasbasbasbasbag57
(g73
g59
NtRp5069
(dp5070
g62
(dp5071
sg71
g3803
sg64
(lp5072
g57
(g78
g59
NtRp5073
(dp5074
g62
(dp5075
g82
g83
ssg71
g5069
sg64
(lp5076
S'models_to_run'
p5077
asbag57
(g78
g59
NtRp5078
(dp5079
g62
(dp5080
g89
g90
ssg71
g5069
sg64
(lp5081
S':'
asbag57
(g78
g59
NtRp5082
(dp5083
g62
(dp5084
sg71
g5069
sg64
(lp5085
g57
(g58
g59
NtRp5086
(dp5087
g62
(dp5088
g70
I5
ssg71
g5082
sg64
(lp5089
g57
(g66
g59
NtRp5090
(dp5091
g62
(dp5092
g70
I4
ssg71
Nsg64
(lp5093
g57
(g73
g59
NtRp5094
(dp5095
g62
(dp5096
sg71
g5090
sg64
(lp5097
g57
(g78
g59
NtRp5098
(dp5099
g62
(dp5100
sg71
g5094
sg64
(lp5101
g57
(g58
g59
NtRp5102
(dp5103
g62
(dp5104
g70
I4
ssg71
g5098
sg64
(lp5105
S'^\\w+\\.py$'
p5106
asbasbasbag57
(g73
g59
NtRp5107
(dp5108
g62
(dp5109
sg71
g5090
sg64
(lp5110
g57
(g78
g59
NtRp5111
(dp5112
g62
(dp5113
sg71
g5107
sg64
(lp5114
g57
(g58
g59
NtRp5115
(dp5116
g62
(dp5117
g70
I4
ssg71
g5111
sg64
(lp5118
S'^default/\\w+\\.py$'
p5119
asbasbasbag57
(g73
g59
NtRp5120
(dp5121
g62
(dp5122
sg71
g5090
sg64
(lp5123
g57
(g78
g59
NtRp5124
(dp5125
g62
(dp5126
sg71
g5120
sg64
(lp5127
g57
(g58
g59
NtRp5128
(dp5129
g62
(dp5130
g70
I4
ssg71
g5124
sg64
(lp5131
S'^default/changedetails/\\w+\\.py$'
p5132
asbasbasbasbasbasbasbag57
(g73
g59
NtRp5133
(dp5134
g62
(dp5135
sg71
g3803
sg64
(lp5136
g57
(g78
g59
NtRp5137
(dp5138
g62
(dp5139
g82
g83
ssg71
g5133
sg64
(lp5140
S'postprocessing'
p5141
asbag57
(g78
g59
NtRp5142
(dp5143
g62
(dp5144
g89
g90
ssg71
g5133
sg64
(lp5145
S':'
asbag57
(g78
g59
NtRp5146
(dp5147
g62
(dp5148
sg71
g5133
sg64
(lp5149
g57
(g58
g59
NtRp5150
(dp5151
g62
(dp5152
g70
I5
ssg71
g5146
sg64
(lp5153
g57
(g66
g59
NtRp5154
(dp5155
g62
(dp5156
g70
I4
ssg71
Nsg64
(lp5157
sbasbasbasbag57
(g73
g59
NtRp5158
(dp5159
g62
(dp5160
sg71
g3803
sg64
(lp5161
g57
(g78
g59
NtRp5162
(dp5163
g62
(dp5164
g82
g83
ssg71
g5158
sg64
(lp5165
S'session_cookie_expires'
p5166
asbag57
(g78
g59
NtRp5167
(dp5168
g62
(dp5169
g89
g90
ssg71
g5158
sg64
(lp5170
S':'
asbag57
(g78
g59
NtRp5171
(dp5172
g62
(dp5173
sg71
g5158
sg64
(lp5174
g57
(g58
g59
NtRp5175
(dp5176
g62
(dp5177
g70
I5
ssg71
g5171
sg64
(lp5178
S'None'
p5179
asbasbasbag57
(g73
g59
NtRp5180
(dp5181
g62
(dp5182
sg71
g3803
sg64
(lp5183
g57
(g78
g59
NtRp5184
(dp5185
g62
(dp5186
g82
g83
ssg71
g5180
sg64
(lp5187
S'session_data_name'
p5188
asbag57
(g78
g59
NtRp5189
(dp5190
g62
(dp5191
g89
g90
ssg71
g5180
sg64
(lp5192
S':'
asbag57
(g78
g59
NtRp5193
(dp5194
g62
(dp5195
sg71
g5180
sg64
(lp5196
g57
(g58
g59
NtRp5197
(dp5198
g62
(dp5199
g70
I5
ssg71
g5193
sg64
(lp5200
S'session_data_assignment2'
p5201
asbasbasbag57
(g73
g59
NtRp5202
(dp5203
g62
(dp5204
sg71
g3803
sg64
(lp5205
g57
(g78
g59
NtRp5206
(dp5207
g62
(dp5208
g82
g83
ssg71
g5202
sg64
(lp5209
S'session_file'
p5210
asbag57
(g78
g59
NtRp5211
(dp5212
g62
(dp5213
g89
g90
ssg71
g5202
sg64
(lp5214
S':'
asbag57
(g78
g59
NtRp5215
(dp5216
g62
(dp5217
sg71
g5202
sg64
(lp5218
g57
(g58
g59
NtRp5219
(dp5220
g62
(dp5221
g70
I5
ssg71
g5215
sg64
(lp5222
S"<open file '/home/aditi/Desktop/web2py/applications/assignment2/sessions/127.0.0.1-f901c239-914d-4817-baae-ae5793bf884f', mode 'rb+' at 0xac7973e8>"
p5223
asbasbasbag57
(g73
g59
NtRp5224
(dp5225
g62
(dp5226
sg71
g3803
sg64
(lp5227
g57
(g78
g59
NtRp5228
(dp5229
g62
(dp5230
g82
g83
ssg71
g5224
sg64
(lp5231
S'session_filename'
p5232
asbag57
(g78
g59
NtRp5233
(dp5234
g62
(dp5235
g89
g90
ssg71
g5224
sg64
(lp5236
S':'
asbag57
(g78
g59
NtRp5237
(dp5238
g62
(dp5239
sg71
g5224
sg64
(lp5240
g57
(g58
g59
NtRp5241
(dp5242
g62
(dp5243
g70
I5
ssg71
g5237
sg64
(lp5244
S'/home/aditi/Desktop/web2py/applications/assignment2/sessions/127.0.0.1-f901c239-914d-4817-baae-ae5793bf884f'
p5245
asbasbasbag57
(g73
g59
NtRp5246
(dp5247
g62
(dp5248
sg71
g3803
sg64
(lp5249
g57
(g78
g59
NtRp5250
(dp5251
g62
(dp5252
g82
g83
ssg71
g5246
sg64
(lp5253
S'session_id'
p5254
asbag57
(g78
g59
NtRp5255
(dp5256
g62
(dp5257
g89
g90
ssg71
g5246
sg64
(lp5258
S':'
asbag57
(g78
g59
NtRp5259
(dp5260
g62
(dp5261
sg71
g5246
sg64
(lp5262
g57
(g58
g59
NtRp5263
(dp5264
g62
(dp5265
g70
I5
ssg71
g5259
sg64
(lp5266
g475
asbasbasbag57
(g73
g59
NtRp5267
(dp5268
g62
(dp5269
sg71
g3803
sg64
(lp5270
g57
(g78
g59
NtRp5271
(dp5272
g62
(dp5273
g82
g83
ssg71
g5267
sg64
(lp5274
S'session_id_name'
p5275
asbag57
(g78
g59
NtRp5276
(dp5277
g62
(dp5278
g89
g90
ssg71
g5267
sg64
(lp5279
S':'
asbag57
(g78
g59
NtRp5280
(dp5281
g62
(dp5282
sg71
g5267
sg64
(lp5283
g57
(g58
g59
NtRp5284
(dp5285
g62
(dp5286
g70
I5
ssg71
g5280
sg64
(lp5287
g3860
asbasbasbag57
(g73
g59
NtRp5288
(dp5289
g62
(dp5290
sg71
g3803
sg64
(lp5291
g57
(g78
g59
NtRp5292
(dp5293
g62
(dp5294
g82
g83
ssg71
g5288
sg64
(lp5295
S'session_locked'
p5296
asbag57
(g78
g59
NtRp5297
(dp5298
g62
(dp5299
g89
g90
ssg71
g5288
sg64
(lp5300
S':'
asbag57
(g78
g59
NtRp5301
(dp5302
g62
(dp5303
sg71
g5288
sg64
(lp5304
g57
(g58
g59
NtRp5305
(dp5306
g62
(dp5307
g70
I5
ssg71
g5301
sg64
(lp5308
g1892
asbasbasbag57
(g73
g59
NtRp5309
(dp5310
g62
(dp5311
sg71
g3803
sg64
(lp5312
g57
(g78
g59
NtRp5313
(dp5314
g62
(dp5315
g82
g83
ssg71
g5309
sg64
(lp5316
S'session_new'
p5317
asbag57
(g78
g59
NtRp5318
(dp5319
g62
(dp5320
g89
g90
ssg71
g5309
sg64
(lp5321
S':'
asbag57
(g78
g59
NtRp5322
(dp5323
g62
(dp5324
sg71
g5309
sg64
(lp5325
g57
(g58
g59
NtRp5326
(dp5327
g62
(dp5328
g70
I5
ssg71
g5322
sg64
(lp5329
g100
asbasbasbag57
(g73
g59
NtRp5330
(dp5331
g62
(dp5332
sg71
g3803
sg64
(lp5333
g57
(g78
g59
NtRp5334
(dp5335
g62
(dp5336
g82
g83
ssg71
g5330
sg64
(lp5337
S'session_storage_type'
p5338
asbag57
(g78
g59
NtRp5339
(dp5340
g62
(dp5341
g89
g90
ssg71
g5330
sg64
(lp5342
S':'
asbag57
(g78
g59
NtRp5343
(dp5344
g62
(dp5345
sg71
g5330
sg64
(lp5346
g57
(g58
g59
NtRp5347
(dp5348
g62
(dp5349
g70
I5
ssg71
g5343
sg64
(lp5350
g3649
asbasbasbag57
(g73
g59
NtRp5351
(dp5352
g62
(dp5353
sg71
g3803
sg64
(lp5354
g57
(g78
g59
NtRp5355
(dp5356
g62
(dp5357
g82
g83
ssg71
g5351
sg64
(lp5358
S'status'
p5359
asbag57
(g78
g59
NtRp5360
(dp5361
g62
(dp5362
g89
g90
ssg71
g5351
sg64
(lp5363
S':'
asbag57
(g78
g59
NtRp5364
(dp5365
g62
(dp5366
sg71
g5351
sg64
(lp5367
g57
(g58
g59
NtRp5368
(dp5369
g62
(dp5370
g70
I5
ssg71
g5364
sg64
(lp5371
S'200'
p5372
asbasbasbag57
(g73
g59
NtRp5373
(dp5374
g62
(dp5375
sg71
g3803
sg64
(lp5376
g57
(g78
g59
NtRp5377
(dp5378
g62
(dp5379
g82
g83
ssg71
g5373
sg64
(lp5380
S'subtitle'
p5381
asbag57
(g78
g59
NtRp5382
(dp5383
g62
(dp5384
g89
g90
ssg71
g5373
sg64
(lp5385
S':'
asbag57
(g78
g59
NtRp5386
(dp5387
g62
(dp5388
sg71
g5373
sg64
(lp5389
g57
(g58
g59
NtRp5390
(dp5391
g62
(dp5392
g70
I5
ssg71
g5386
sg64
(lp5393
g4337
(S's\r\x00\x00\x00customize me!'
tRp5394
asbasbasbag57
(g73
g59
NtRp5395
(dp5396
g62
(dp5397
sg71
g3803
sg64
(lp5398
g57
(g78
g59
NtRp5399
(dp5400
g62
(dp5401
g82
g83
ssg71
g5395
sg64
(lp5402
S'title'
p5403
asbag57
(g78
g59
NtRp5404
(dp5405
g62
(dp5406
g89
g90
ssg71
g5395
sg64
(lp5407
S':'
asbag57
(g78
g59
NtRp5408
(dp5409
g62
(dp5410
sg71
g5395
sg64
(lp5411
g57
(g58
g59
NtRp5412
(dp5413
g62
(dp5414
g70
I5
ssg71
g5408
sg64
(lp5415
S'Assignment2'
p5416
asbasbasbag57
(g73
g59
NtRp5417
(dp5418
g62
(dp5419
sg71
g3803
sg64
(lp5420
g57
(g78
g59
NtRp5421
(dp5422
g62
(dp5423
g82
g83
ssg71
g5417
sg64
(lp5424
S'view'
p5425
asbag57
(g78
g59
NtRp5426
(dp5427
g62
(dp5428
g89
g90
ssg71
g5417
sg64
(lp5429
S':'
asbag57
(g78
g59
NtRp5430
(dp5431
g62
(dp5432
sg71
g5417
sg64
(lp5433
g57
(g58
g59
NtRp5434
(dp5435
g62
(dp5436
g70
I5
ssg71
g5430
sg64
(lp5437
S'default/changedetails.html'
p5438
asbasbasbasbasbsS'locals'
p5439
(dp5440
S'self'
p5441
S'<Table newsitem (id,userid,category,heading,choice,url,points,likes,dislikes,rating,ranking)>'
p5442
sg42
S'()'
p5443
sS'kwargs'
p5444
S"{'category': 'india', 'choice': 'article', 'heading': '101 Interesting facts about India', 'url': None}"
p5445
sssS'traceback'
p5446
S'Traceback (most recent call last):\n  File "/home/aditi/Desktop/web2py/gluon/restricted.py", line 212, in restricted\n    exec ccode in environment\n  File "/home/aditi/Desktop/web2py/applications/assignment2/controllers/default.py", line 167, in <module>\n  File "/home/aditi/Desktop/web2py/gluon/globals.py", line 193, in <lambda>\n    self._caller = lambda f: f()\n  File "/home/aditi/Desktop/web2py/applications/assignment2/controllers/default.py", line 78, in changedetails\n    db.newsitem.update(category=form.vars.category,heading=form.vars.heading,choice=form.vars.choice,url=form.vars.url)\n  File "/home/aditi/Desktop/web2py/gluon/dal.py", line 7646, in update\n    raise RuntimeError("Syntax Not Supported")\nRuntimeError: Syntax Not Supported\n'
p5447
s.