(dp1
S'output'
p2
S"<type 'exceptions.IndexError'> list index out of range"
p3
sS'layer'
p4
S'/home/aditi/Desktop/web2py/applications/assignment2/controllers/default.py'
p5
sS'code'
p6
S'# -*- coding: utf-8 -*-\n# this file is released under public domain and you can use without limitations\n\n#########################################################################\n## This is a samples controller\n## - index is the default action of any application\n## - user is required for authentication and authorization\n## - download is for downloading files uploaded in the db (does streaming)\n## - call exposes all registered services (none by default)\n#########################################################################\n\n\n@auth.requires_login()\ndef index():\n    """\n    example action using the internationalization operator T and flash\n    rendered by views/default/index.html or views/generic.html\n\n    if you need a simple wiki simple replace the two lines below with:\n    return auth.wiki()\n    """\n    a=auth.user.id\n    b=db(db.auth_user.id==a).select(db.auth_user.username,db.auth_user.account_type)\n    if b[0][\'account_type\']==\'user\':\n        redirect(URL(r=request,f=\'user_homepage\'))\n    elif b[0][\'account_type\']==\'admin\':\n        redirect(URL(r=request,f=\'intermediate\'))\n    else:\n        response.flash="You may not be having an account"\n    return locals()\n\ndef user_homepage():\n    a=auth.user.id\n    f=db(db.auth_user.id==a).select(db.auth_user.first_name)\n    l=db(db.auth_user.id==a).select(db.auth_user.last_name)\n    c=db().select(db.category.name)\n    temp=[]\n    for i in range(len(c)):\n        temp.append(c[i][\'name\'])\n    form=SQLFORM.factory(db.Field(\'category\',\'string\',requires=IS_IN_SET(temp),required=True,label=\'Enter category\'),\n                        Field(\'heading\',\'string\',label=\'Enter heading\',required=True),\n                        Field(\'choice\',\'string\',requires=IS_IN_SET([\'article\',\'video\']),required=True),\n                        Field(\'url\',\'string\',requires=IS_URL(),label=\'Enter URL\',required=True))\n    if(form.accepts(request.vars,session)):\n        db.newsitem.insert(userid=a,category=form.vars.category,heading=form.vars.heading,url=form.vars.url,points=100,likes=0,dislikes=0,rating=1)\n        response.flash=\'News item successfully added\'\n        redirect(URL(r=request,f=\'user_homepage\'))\n    n=db().select(db.newsitem.ALL)\n    count=0\n    deleteform=[]\n    editform=[]\n    likeform=[]\n    dislikeform=[]\n    totallike=[]\n    totaldislike=[]\n    for i in range(len(c)):\n        for j in range(len(n)):\n            if c[i][\'name\']==n[j][\'category\']:\n                if n[j][\'userid\']==a:\n                    p=n[j][\'id\']\n                    deleteform.append(SQLFORM.factory(submit_button="Delete post"))\n                    editform.append(SQLFORM.factory(submit_button="Edit post"))\n                    likeform.append(SQLFORM.factory(submit_button="Like post"))\n                    dislikeform.append(SQLFORM.factory(submit_button="Dislike post"))\n                    if deleteform[count].process(formname=\'deleteform[%d]\'%count).accepted:\n                        db(db.newsitem.id==p).delete()\n                        redirect(URL(r=request,f=\'user_homepage\'))\n                    if editform[count].process(formname=\'editform[%d]\'%count).accepted:\n                        redirect(URL(r=request,f=\'changedetails?id=%d\'%p))\n                    if likeform[count].process(formname=\'likeform[%d]\'%count).accepted:\n                        flag=0\n                        lk=db(db.likedposts.postid==p).select(db.likedposts.ALL)\n                        dlk=db(db.dislikedposts.postid==p).select(db.dislikedposts.ALL)\n                        for k in range(len(lk)):\n                            if lk[k][\'userid\']==a and lk[k][\'postid\']==p:\n                                flag=1\n                                response.flash="You have already liked this post"\n                        for k in range(len(dlk)):\n                            flag=1\n                            if dlk[k][\'userid\']==a and dlk[k][\'postid\']==p:\n                                db.likedposts.insert(userid=a,postid=p)\n                                pt=db(db.newsitem.id==p).select(db.newsitem.points)\n                                pts=pt[0][\'points\']\n                                db(db.dislikedposts.userid==a & db.dislikedposts.postid==p).delete()\n                                db(db.newsitem.id==p).update(points=pts+8)\n                        if flag==0:\n                            db.likedposts.insert(userid=a,postid=p)\n                            pt=db(db.newsitem.id==p).select(db.newsitem.points)\n                            pts=pt[0][\'points\']\n                            db(db.newsitem.id==p).update(points=pts+5)\n                    if dislikeform[count].process(formname=\'dislikeform[%d]\'%count).accepted:\n                        lk=db(db.likedposts.postid==p).select(db.likedposts.ALL)\n                        dlk=db(db.dislikedposts.postid==p).select(db.dislikedposts.ALL)\n                        flag=0\n                        for k in range(len(dlk)):\n                            if dlk[k][\'userid\']==a and dlk[k][\'postid\']==p:\n                                flag=1\n                                response.flash="You have already disliked this post"\n                        for k in range(len(lk)):\n                            if lk[k][\'postid\']==p and lk[k][\'userid\']==a:\n                                flag=1\n                                db.dislikedposts.insert(userid=a,postid=p)\n                                pt=db(db.newsitem.id==p).select(db.newsitem.points)\n                                pts=pt[0][\'points\']\n                                db(db.likedposts.userid==a & db.likedposts.postid==p).delete()\n                                db(db.newsitem.id==p).update(points=pts-8)\n                        if flag==0:\n                            db.dislikedposts.insert(userid=a,postid=p)\n                            pt=db(db.newsitem.id==p).select(db.newsitem.points)\n                            pts=pt[0][\'points\']\n                            db(db.newsitem.id==p).update(points=pts-3)\n                    count+=1\n                else:\n                    p=n[j][\'id\']\n                    likeform.append(SQLFORM.factory(submit_button="Like post"))\n                    dislikeform.append(SQLFORM.factory(submit_button="Dislike post"))\n                    if likeform[count].process(formname=\'likeform[%d]\'%count).accepted:\n                        flag=0\n                        lk=db(db.likedposts.postid==p).select(db.likedposts.ALL)\n                        dlk=db(db.dislikedposts.postid==p).select(db.dislikedposts.ALL)\n                        for k in range(len(lk)):\n                            if lk[k][\'userid\']==a and lk[k][\'postid\']==p:\n                                flag=1\n                                response.flash="You have already liked this post"\n                        for k in range(len(dlk)):\n                            flag=1\n                            if dlk[k][\'userid\']==a and dlk[k][\'postid\']==p:\n                                db.likedposts.insert(userid=a,postid=p)\n                                pt=db(db.newsitem.id==p).select(db.newsitem.points)\n                                pts=pt[0][\'points\']\n                                db(db.dislikedposts.userid==a & db.dislikedposts.postid==p).delete()\n                                db(db.newsitem.id==p).update(points=pts+8)\n                        if flag==0:\n                            db.likedposts.insert(userid=a,postid=p)\n                            pt=db(db.newsitem.id==p).select(db.newsitem.points)\n                            pts=pt[0][\'points\']\n                            db(db.newsitem.id==p).update(points=pts+5)\n                    if dislikeform[count].process(formname=\'dislikeform[%d]\'%count).accepted:\n                        lk=db(db.likedposts.postid==p).select(db.likedposts.ALL)\n                        dlk=db(db.dislikedposts.postid==p).select(db.dislikedposts.ALL)\n                        flag=0\n                        for k in range(len(dlk)):\n                            if dlk[k][\'userid\']==a and dlk[k][\'postid\']==p:\n                                flag=1\n                                response.flash="You have already disliked this post"\n                        for k in range(len(lk)):\n                            if lk[k][\'postid\']==p and lk[k][\'userid\']==a:\n                                flag=1\n                                db.dislikedposts.insert(userid=a,postid=p)\n                                pt=db(db.newsitem.id==p).select(db.newsitem.points)\n                                pts=pt[0][\'points\']\n                                db(db.likedposts.userid==a & db.likedposts.postid==p).delete()\n                                db(db.newsitem.id==p).update(points=pts-8)\n                        if flag==0:\n                            db.dislikedposts.insert(userid=a,postid=p)\n                            pt=db(db.newsitem.id==p).select(db.newsitem.points)\n                            pts=pt[0][\'points\']\n                            db(db.newsitem.id==p).update(points=pts-3)\n                    count+=1\n    return locals()\n\ndef changedetails():\n    p=request.vars.id\n    x=db(db.newsitem.id==p).select(db.newsitem.ALL)\n    c=db().select(db.category.ALL)\n    temp=[]\n    for i in range(len(c)):\n        temp.append(c[i][\'name\'])\n    form=SQLFORM.factory(db.Field(\'category\',\'string\',requires=IS_IN_SET(temp),required=True,default=x[0][\'category\']),\n                        Field(\'heading\',\'string\',required=True,default=x[0][\'heading\']),\n                        Field(\'choice\',\'string\',requires=IS_IN_SET([\'article\',\'video\']),required=True,default=x[0][\'choice\']),\n                        Field(\'url\',\'string\',requires=IS_URL(),required=True,default=x[0][\'url\']))\n    if(form.accepts(request.vars,session)):\n        db(db.newsitem.id==p).update(category=form.vars.category,heading=form.vars.heading,choice=form.vars.choice,url=form.vars.url)\n        redirect(URL(r=request,f=\'user_homepage\'))\n        response.flash="Your news item has been updated successfully!"\n    return locals()\n\ndef intermediate():\n    form=SQLFORM.factory(db.Field(\'key\',\'password\',readable=False,required=True))\n    if(form.accepts(request.vars,session)):\n        if form.vars.key==\'ab%k20*(kd12$\':\n            redirect(URL(r=request,f=\'admin_homepage\'))\n        else:\n            response.flash="Wrong key entered."\n    return locals()\n\ndef admin_homepage():\n    a=auth.user.id\n    count=0\n    f=db(db.auth_user.id==a).select(db.auth_user.first_name)\n    l=db(db.auth_user.id==a).select(db.auth_user.last_name)\n    form1=SQLFORM.factory(db.Field(\'category\',\'string\',label=\'Enter category\',required=True))\n    if(form1.accepts(request.vars,session)):\n        db.category.insert(name=form1.vars.category)\n        response.flash=\'New category successfully added.\'\n    n=db().select(db.newsitem.ALL)\n    c=db().select(db.category.name)\n    form2=[]\n    for i in range(len(c)):\n        for j in range(len(n)):\n             p=n[j][\'id\']\n             if n[j][\'category\']==c[i][\'name\']:\n                  form2.append(SQLFORM.factory(submit_button="Delete post"))\n                  if form2[count].process(formname=\'form2[%d]\'%count).accepted:\n                      db(db.newsitem.id==p).delete()\n                      redirect(URL(r=request,f=\'admin_homepage\'))\n                  count+=1\n    return locals()\n\ndef user():\n    """\n    exposes:\n    http://..../[app]/default/user/login\n    http://..../[app]/default/user/logout\n    http://..../[app]/default/user/register\n    http://..../[app]/default/user/profile\n    http://..../[app]/default/user/retrieve_password\n    http://..../[app]/default/user/change_password\n    use @auth.requires_login()\n        @auth.requires_membership(\'group name\')\n        @auth.requires_permission(\'read\',\'table name\',record_id)\n    to decorate functions that need access control\n    """\n    return dict(form=auth())\n\n\ndef download():\n    """\n    allows downloading of uploaded files\n    http://..../[app]/default/download/[filename]\n    """\n    return response.download(request, db)\n\n\ndef call():\n    """\n    exposes services. for example:\n    http://..../[app]/default/call/jsonrpc\n    decorate with @services.jsonrpc the functions to expose\n    supports xml, json, xmlrpc, jsonrpc, amfrpc, rss, csv\n    """\n    return service()\n\n\n@auth.requires_signature()\ndef data():\n    """\n    http://..../[app]/default/data/tables\n    http://..../[app]/default/data/create/[table]\n    http://..../[app]/default/data/read/[table]/[id]\n    http://..../[app]/default/data/update/[table]/[id]\n    http://..../[app]/default/data/delete/[table]/[id]\n    http://..../[app]/default/data/select/[table]\n    http://..../[app]/default/data/search/[table]\n    but URLs must be signed, i.e. linked with\n      A(\'table\',_href=URL(\'data/tables\',user_signature=True))\n    or with the signed load operator\n      LOAD(\'default\',\'data.load\',args=\'tables\',ajax=True,user_signature=True)\n    """\n    return dict(form=crud())\n\nresponse._vars=response._caller(user_homepage)\n'
p7
sS'snapshot'
p8
(dp9
S'exception'
p10
(dp11
S'__hash__'
p12
S"<method-wrapper '__hash__' of exceptions.IndexError object>"
p13
sS'__setattr__'
p14
S"<method-wrapper '__setattr__' of exceptions.IndexError object>"
p15
sS'__reduce_ex__'
p16
S'<built-in method __reduce_ex__ of exceptions.IndexError object>'
p17
sS'__getslice__'
p18
S"<method-wrapper '__getslice__' of exceptions.IndexError object>"
p19
sS'__getitem__'
p20
S"<method-wrapper '__getitem__' of exceptions.IndexError object>"
p21
sS'__setstate__'
p22
S'<built-in method __setstate__ of exceptions.IndexError object>'
p23
sS'__reduce__'
p24
S'<built-in method __reduce__ of exceptions.IndexError object>'
p25
sS'__str__'
p26
S"<method-wrapper '__str__' of exceptions.IndexError object>"
p27
sS'__format__'
p28
S'<built-in method __format__ of exceptions.IndexError object>'
p29
sS'__getattribute__'
p30
S"<method-wrapper '__getattribute__' of exceptions.IndexError object>"
p31
sS'__class__'
p32
S"<type 'exceptions.IndexError'>"
p33
sS'__unicode__'
p34
S'<built-in method __unicode__ of exceptions.IndexError object>'
p35
sS'__delattr__'
p36
S"<method-wrapper '__delattr__' of exceptions.IndexError object>"
p37
sS'__subclasshook__'
p38
S'<built-in method __subclasshook__ of type object>'
p39
sS'__repr__'
p40
S"<method-wrapper '__repr__' of exceptions.IndexError object>"
p41
sS'args'
p42
S"('list index out of range',)"
p43
sS'__dict__'
p44
S'{}'
p45
sS'__sizeof__'
p46
S'<built-in method __sizeof__ of exceptions.IndexError object>'
p47
sS'__doc__'
p48
S"'Sequence index out of range.'"
p49
sS'__init__'
p50
S"<method-wrapper '__init__' of exceptions.IndexError object>"
p51
sS'__new__'
p52
S'<built-in method __new__ of type object>'
p53
ssS'evalue'
p54
S'list index out of range'
p55
sS'request'
p56
ccopy_reg
_reconstructor
p57
(cgluon.html
BEAUTIFY
p58
c__builtin__
object
p59
NtRp60
(dp61
S'attributes'
p62
(dp63
sS'components'
p64
(lp65
g57
(cgluon.html
TABLE
p66
g59
NtRp67
(dp68
g62
(dp69
S'level'
p70
I5
ssS'parent'
p71
Nsg64
(lp72
g57
(cgluon.html
TR
p73
g59
NtRp74
(dp75
g62
(dp76
sg71
g67
sg64
(lp77
g57
(cgluon.html
TD
p78
g59
NtRp79
(dp80
g62
(dp81
S'_style'
p82
S'font-weight:bold;vertical-align:top'
p83
ssg71
g74
sg64
(lp84
S'ajax'
p85
asbag57
(g78
g59
NtRp86
(dp87
g62
(dp88
S'_valign'
p89
S'top'
p90
ssg71
g74
sg64
(lp91
S':'
asbag57
(g78
g59
NtRp92
(dp93
g62
(dp94
sg71
g74
sg64
(lp95
g57
(g58
g59
NtRp96
(dp97
g62
(dp98
g70
I5
ssg71
g92
sg64
(lp99
S'False'
p100
asbasbasbag57
(g73
g59
NtRp101
(dp102
g62
(dp103
sg71
g67
sg64
(lp104
g57
(g78
g59
NtRp105
(dp106
g62
(dp107
g82
g83
ssg71
g101
sg64
(lp108
S'application'
p109
asbag57
(g78
g59
NtRp110
(dp111
g62
(dp112
g89
g90
ssg71
g101
sg64
(lp113
S':'
asbag57
(g78
g59
NtRp114
(dp115
g62
(dp116
sg71
g101
sg64
(lp117
g57
(g58
g59
NtRp118
(dp119
g62
(dp120
g70
I5
ssg71
g114
sg64
(lp121
S'assignment2'
p122
asbasbasbag57
(g73
g59
NtRp123
(dp124
g62
(dp125
sg71
g67
sg64
(lp126
g57
(g78
g59
NtRp127
(dp128
g62
(dp129
g82
g83
ssg71
g123
sg64
(lp130
g42
asbag57
(g78
g59
NtRp131
(dp132
g62
(dp133
g89
g90
ssg71
g123
sg64
(lp134
S':'
asbag57
(g78
g59
NtRp135
(dp136
g62
(dp137
sg71
g123
sg64
(lp138
g57
(g58
g59
NtRp139
(dp140
g62
(dp141
g70
I5
ssg71
g135
sg64
(lp142
g57
(g66
g59
NtRp143
(dp144
g62
(dp145
g70
I4
ssg71
Nsg64
(lp146
sbasbasbasbag57
(g73
g59
NtRp147
(dp148
g62
(dp149
sg71
g67
sg64
(lp150
g57
(g78
g59
NtRp151
(dp152
g62
(dp153
g82
g83
ssg71
g147
sg64
(lp154
S'body'
p155
asbag57
(g78
g59
NtRp156
(dp157
g62
(dp158
g89
g90
ssg71
g147
sg64
(lp159
S':'
asbag57
(g78
g59
NtRp160
(dp161
g62
(dp162
sg71
g147
sg64
(lp163
g57
(g58
g59
NtRp164
(dp165
g62
(dp166
g70
I5
ssg71
g160
sg64
(lp167
S'<cStringIO.StringO object at 0xad52ea80>'
p168
asbasbasbag57
(g73
g59
NtRp169
(dp170
g62
(dp171
sg71
g67
sg64
(lp172
g57
(g78
g59
NtRp173
(dp174
g62
(dp175
g82
g83
ssg71
g169
sg64
(lp176
S'cid'
p177
asbag57
(g78
g59
NtRp178
(dp179
g62
(dp180
g89
g90
ssg71
g169
sg64
(lp181
S':'
asbag57
(g78
g59
NtRp182
(dp183
g62
(dp184
sg71
g169
sg64
(lp185
g57
(g58
g59
NtRp186
(dp187
g62
(dp188
g70
I5
ssg71
g182
sg64
(lp189
S'None'
p190
asbasbasbag57
(g73
g59
NtRp191
(dp192
g62
(dp193
sg71
g67
sg64
(lp194
g57
(g78
g59
NtRp195
(dp196
g62
(dp197
g82
g83
ssg71
g191
sg64
(lp198
S'client'
p199
asbag57
(g78
g59
NtRp200
(dp201
g62
(dp202
g89
g90
ssg71
g191
sg64
(lp203
S':'
asbag57
(g78
g59
NtRp204
(dp205
g62
(dp206
sg71
g191
sg64
(lp207
g57
(g58
g59
NtRp208
(dp209
g62
(dp210
g70
I5
ssg71
g204
sg64
(lp211
S'127.0.0.1'
p212
asbasbasbag57
(g73
g59
NtRp213
(dp214
g62
(dp215
sg71
g67
sg64
(lp216
g57
(g78
g59
NtRp217
(dp218
g62
(dp219
g82
g83
ssg71
g213
sg64
(lp220
S'controller'
p221
asbag57
(g78
g59
NtRp222
(dp223
g62
(dp224
g89
g90
ssg71
g213
sg64
(lp225
S':'
asbag57
(g78
g59
NtRp226
(dp227
g62
(dp228
sg71
g213
sg64
(lp229
g57
(g58
g59
NtRp230
(dp231
g62
(dp232
g70
I5
ssg71
g226
sg64
(lp233
S'default'
p234
asbasbasbag57
(g73
g59
NtRp235
(dp236
g62
(dp237
sg71
g67
sg64
(lp238
g57
(g78
g59
NtRp239
(dp240
g62
(dp241
g82
g83
ssg71
g235
sg64
(lp242
S'cookies'
p243
asbag57
(g78
g59
NtRp244
(dp245
g62
(dp246
g89
g90
ssg71
g235
sg64
(lp247
S':'
asbag57
(g78
g59
NtRp248
(dp249
g62
(dp250
sg71
g235
sg64
(lp251
g57
(g58
g59
NtRp252
(dp253
g62
(dp254
g70
I5
ssg71
g248
sg64
(lp255
g57
(g66
g59
NtRp256
(dp257
g62
(dp258
g70
I4
ssg71
Nsg64
(lp259
g57
(g73
g59
NtRp260
(dp261
g62
(dp262
sg71
g256
sg64
(lp263
g57
(g78
g59
NtRp264
(dp265
g62
(dp266
g82
g83
ssg71
g260
sg64
(lp267
S'session_id_admin'
p268
asbag57
(g78
g59
NtRp269
(dp270
g62
(dp271
g89
g90
ssg71
g260
sg64
(lp272
S':'
asbag57
(g78
g59
NtRp273
(dp274
g62
(dp275
sg71
g260
sg64
(lp276
g57
(g58
g59
NtRp277
(dp278
g62
(dp279
g70
I4
ssg71
g273
sg64
(lp280
S'127.0.0.1-8963b168-effa-4dc0-8b35-fdcdb207fa30'
p281
ag57
(g66
g59
NtRp282
(dp283
g62
(dp284
g70
I3
ssg71
Nsg64
(lp285
g57
(g73
g59
NtRp286
(dp287
g62
(dp288
sg71
g282
sg64
(lp289
g57
(g78
g59
NtRp290
(dp291
g62
(dp292
g82
g83
ssg71
g286
sg64
(lp293
S'comment'
p294
asbag57
(g78
g59
NtRp295
(dp296
g62
(dp297
g89
g90
ssg71
g286
sg64
(lp298
S':'
asbag57
(g78
g59
NtRp299
(dp300
g62
(dp301
sg71
g286
sg64
(lp302
g57
(g58
g59
NtRp303
(dp304
g62
(dp305
g70
I3
ssg71
g299
sg64
(lp306
S''
asbasbasbag57
(g73
g59
NtRp307
(dp308
g62
(dp309
sg71
g282
sg64
(lp310
g57
(g78
g59
NtRp311
(dp312
g62
(dp313
g82
g83
ssg71
g307
sg64
(lp314
S'domain'
p315
asbag57
(g78
g59
NtRp316
(dp317
g62
(dp318
g89
g90
ssg71
g307
sg64
(lp319
S':'
asbag57
(g78
g59
NtRp320
(dp321
g62
(dp322
sg71
g307
sg64
(lp323
g57
(g58
g59
NtRp324
(dp325
g62
(dp326
g70
I3
ssg71
g320
sg64
(lp327
S''
asbasbasbag57
(g73
g59
NtRp328
(dp329
g62
(dp330
sg71
g282
sg64
(lp331
g57
(g78
g59
NtRp332
(dp333
g62
(dp334
g82
g83
ssg71
g328
sg64
(lp335
S'expires'
p336
asbag57
(g78
g59
NtRp337
(dp338
g62
(dp339
g89
g90
ssg71
g328
sg64
(lp340
S':'
asbag57
(g78
g59
NtRp341
(dp342
g62
(dp343
sg71
g328
sg64
(lp344
g57
(g58
g59
NtRp345
(dp346
g62
(dp347
g70
I3
ssg71
g341
sg64
(lp348
S''
asbasbasbag57
(g73
g59
NtRp349
(dp350
g62
(dp351
sg71
g282
sg64
(lp352
g57
(g78
g59
NtRp353
(dp354
g62
(dp355
g82
g83
ssg71
g349
sg64
(lp356
S'httponly'
p357
asbag57
(g78
g59
NtRp358
(dp359
g62
(dp360
g89
g90
ssg71
g349
sg64
(lp361
S':'
asbag57
(g78
g59
NtRp362
(dp363
g62
(dp364
sg71
g349
sg64
(lp365
g57
(g58
g59
NtRp366
(dp367
g62
(dp368
g70
I3
ssg71
g362
sg64
(lp369
S''
asbasbasbag57
(g73
g59
NtRp370
(dp371
g62
(dp372
sg71
g282
sg64
(lp373
g57
(g78
g59
NtRp374
(dp375
g62
(dp376
g82
g83
ssg71
g370
sg64
(lp377
S'max-age'
p378
asbag57
(g78
g59
NtRp379
(dp380
g62
(dp381
g89
g90
ssg71
g370
sg64
(lp382
S':'
asbag57
(g78
g59
NtRp383
(dp384
g62
(dp385
sg71
g370
sg64
(lp386
g57
(g58
g59
NtRp387
(dp388
g62
(dp389
g70
I3
ssg71
g383
sg64
(lp390
S''
asbasbasbag57
(g73
g59
NtRp391
(dp392
g62
(dp393
sg71
g282
sg64
(lp394
g57
(g78
g59
NtRp395
(dp396
g62
(dp397
g82
g83
ssg71
g391
sg64
(lp398
S'path'
p399
asbag57
(g78
g59
NtRp400
(dp401
g62
(dp402
g89
g90
ssg71
g391
sg64
(lp403
S':'
asbag57
(g78
g59
NtRp404
(dp405
g62
(dp406
sg71
g391
sg64
(lp407
g57
(g58
g59
NtRp408
(dp409
g62
(dp410
g70
I3
ssg71
g404
sg64
(lp411
S''
asbasbasbag57
(g73
g59
NtRp412
(dp413
g62
(dp414
sg71
g282
sg64
(lp415
g57
(g78
g59
NtRp416
(dp417
g62
(dp418
g82
g83
ssg71
g412
sg64
(lp419
S'secure'
p420
asbag57
(g78
g59
NtRp421
(dp422
g62
(dp423
g89
g90
ssg71
g412
sg64
(lp424
S':'
asbag57
(g78
g59
NtRp425
(dp426
g62
(dp427
sg71
g412
sg64
(lp428
g57
(g58
g59
NtRp429
(dp430
g62
(dp431
g70
I3
ssg71
g425
sg64
(lp432
S''
asbasbasbag57
(g73
g59
NtRp433
(dp434
g62
(dp435
sg71
g282
sg64
(lp436
g57
(g78
g59
NtRp437
(dp438
g62
(dp439
g82
g83
ssg71
g433
sg64
(lp440
S'version'
p441
asbag57
(g78
g59
NtRp442
(dp443
g62
(dp444
g89
g90
ssg71
g433
sg64
(lp445
S':'
asbag57
(g78
g59
NtRp446
(dp447
g62
(dp448
sg71
g433
sg64
(lp449
g57
(g58
g59
NtRp450
(dp451
g62
(dp452
g70
I3
ssg71
g446
sg64
(lp453
S''
asbasbasbasbasbasbasbag57
(g73
g59
NtRp454
(dp455
g62
(dp456
sg71
g256
sg64
(lp457
g57
(g78
g59
NtRp458
(dp459
g62
(dp460
g82
g83
ssg71
g454
sg64
(lp461
S'session_id_assignment2'
p462
asbag57
(g78
g59
NtRp463
(dp464
g62
(dp465
g89
g90
ssg71
g454
sg64
(lp466
S':'
asbag57
(g78
g59
NtRp467
(dp468
g62
(dp469
sg71
g454
sg64
(lp470
g57
(g58
g59
NtRp471
(dp472
g62
(dp473
g70
I4
ssg71
g467
sg64
(lp474
S'127.0.0.1-f901c239-914d-4817-baae-ae5793bf884f'
p475
ag57
(g66
g59
NtRp476
(dp477
g62
(dp478
g70
I3
ssg71
Nsg64
(lp479
g57
(g73
g59
NtRp480
(dp481
g62
(dp482
sg71
g476
sg64
(lp483
g57
(g78
g59
NtRp484
(dp485
g62
(dp486
g82
g83
ssg71
g480
sg64
(lp487
g294
asbag57
(g78
g59
NtRp488
(dp489
g62
(dp490
g89
g90
ssg71
g480
sg64
(lp491
S':'
asbag57
(g78
g59
NtRp492
(dp493
g62
(dp494
sg71
g480
sg64
(lp495
g57
(g58
g59
NtRp496
(dp497
g62
(dp498
g70
I3
ssg71
g492
sg64
(lp499
S''
asbasbasbag57
(g73
g59
NtRp500
(dp501
g62
(dp502
sg71
g476
sg64
(lp503
g57
(g78
g59
NtRp504
(dp505
g62
(dp506
g82
g83
ssg71
g500
sg64
(lp507
g315
asbag57
(g78
g59
NtRp508
(dp509
g62
(dp510
g89
g90
ssg71
g500
sg64
(lp511
S':'
asbag57
(g78
g59
NtRp512
(dp513
g62
(dp514
sg71
g500
sg64
(lp515
g57
(g58
g59
NtRp516
(dp517
g62
(dp518
g70
I3
ssg71
g512
sg64
(lp519
S''
asbasbasbag57
(g73
g59
NtRp520
(dp521
g62
(dp522
sg71
g476
sg64
(lp523
g57
(g78
g59
NtRp524
(dp525
g62
(dp526
g82
g83
ssg71
g520
sg64
(lp527
g336
asbag57
(g78
g59
NtRp528
(dp529
g62
(dp530
g89
g90
ssg71
g520
sg64
(lp531
S':'
asbag57
(g78
g59
NtRp532
(dp533
g62
(dp534
sg71
g520
sg64
(lp535
g57
(g58
g59
NtRp536
(dp537
g62
(dp538
g70
I3
ssg71
g532
sg64
(lp539
S''
asbasbasbag57
(g73
g59
NtRp540
(dp541
g62
(dp542
sg71
g476
sg64
(lp543
g57
(g78
g59
NtRp544
(dp545
g62
(dp546
g82
g83
ssg71
g540
sg64
(lp547
g357
asbag57
(g78
g59
NtRp548
(dp549
g62
(dp550
g89
g90
ssg71
g540
sg64
(lp551
S':'
asbag57
(g78
g59
NtRp552
(dp553
g62
(dp554
sg71
g540
sg64
(lp555
g57
(g58
g59
NtRp556
(dp557
g62
(dp558
g70
I3
ssg71
g552
sg64
(lp559
S''
asbasbasbag57
(g73
g59
NtRp560
(dp561
g62
(dp562
sg71
g476
sg64
(lp563
g57
(g78
g59
NtRp564
(dp565
g62
(dp566
g82
g83
ssg71
g560
sg64
(lp567
g378
asbag57
(g78
g59
NtRp568
(dp569
g62
(dp570
g89
g90
ssg71
g560
sg64
(lp571
S':'
asbag57
(g78
g59
NtRp572
(dp573
g62
(dp574
sg71
g560
sg64
(lp575
g57
(g58
g59
NtRp576
(dp577
g62
(dp578
g70
I3
ssg71
g572
sg64
(lp579
S''
asbasbasbag57
(g73
g59
NtRp580
(dp581
g62
(dp582
sg71
g476
sg64
(lp583
g57
(g78
g59
NtRp584
(dp585
g62
(dp586
g82
g83
ssg71
g580
sg64
(lp587
g399
asbag57
(g78
g59
NtRp588
(dp589
g62
(dp590
g89
g90
ssg71
g580
sg64
(lp591
S':'
asbag57
(g78
g59
NtRp592
(dp593
g62
(dp594
sg71
g580
sg64
(lp595
g57
(g58
g59
NtRp596
(dp597
g62
(dp598
g70
I3
ssg71
g592
sg64
(lp599
S''
asbasbasbag57
(g73
g59
NtRp600
(dp601
g62
(dp602
sg71
g476
sg64
(lp603
g57
(g78
g59
NtRp604
(dp605
g62
(dp606
g82
g83
ssg71
g600
sg64
(lp607
g420
asbag57
(g78
g59
NtRp608
(dp609
g62
(dp610
g89
g90
ssg71
g600
sg64
(lp611
S':'
asbag57
(g78
g59
NtRp612
(dp613
g62
(dp614
sg71
g600
sg64
(lp615
g57
(g58
g59
NtRp616
(dp617
g62
(dp618
g70
I3
ssg71
g612
sg64
(lp619
S''
asbasbasbag57
(g73
g59
NtRp620
(dp621
g62
(dp622
sg71
g476
sg64
(lp623
g57
(g78
g59
NtRp624
(dp625
g62
(dp626
g82
g83
ssg71
g620
sg64
(lp627
g441
asbag57
(g78
g59
NtRp628
(dp629
g62
(dp630
g89
g90
ssg71
g620
sg64
(lp631
S':'
asbag57
(g78
g59
NtRp632
(dp633
g62
(dp634
sg71
g620
sg64
(lp635
g57
(g58
g59
NtRp636
(dp637
g62
(dp638
g70
I3
ssg71
g632
sg64
(lp639
S''
asbasbasbasbasbasbasbag57
(g73
g59
NtRp640
(dp641
g62
(dp642
sg71
g256
sg64
(lp643
g57
(g78
g59
NtRp644
(dp645
g62
(dp646
g82
g83
ssg71
g640
sg64
(lp647
S'session_id_welcome'
p648
asbag57
(g78
g59
NtRp649
(dp650
g62
(dp651
g89
g90
ssg71
g640
sg64
(lp652
S':'
asbag57
(g78
g59
NtRp653
(dp654
g62
(dp655
sg71
g640
sg64
(lp656
g57
(g58
g59
NtRp657
(dp658
g62
(dp659
g70
I4
ssg71
g653
sg64
(lp660
S'127.0.0.1-2a3f0a40-83b1-4e73-811e-c902f1f09304'
p661
ag57
(g66
g59
NtRp662
(dp663
g62
(dp664
g70
I3
ssg71
Nsg64
(lp665
g57
(g73
g59
NtRp666
(dp667
g62
(dp668
sg71
g662
sg64
(lp669
g57
(g78
g59
NtRp670
(dp671
g62
(dp672
g82
g83
ssg71
g666
sg64
(lp673
g294
asbag57
(g78
g59
NtRp674
(dp675
g62
(dp676
g89
g90
ssg71
g666
sg64
(lp677
S':'
asbag57
(g78
g59
NtRp678
(dp679
g62
(dp680
sg71
g666
sg64
(lp681
g57
(g58
g59
NtRp682
(dp683
g62
(dp684
g70
I3
ssg71
g678
sg64
(lp685
S''
asbasbasbag57
(g73
g59
NtRp686
(dp687
g62
(dp688
sg71
g662
sg64
(lp689
g57
(g78
g59
NtRp690
(dp691
g62
(dp692
g82
g83
ssg71
g686
sg64
(lp693
g315
asbag57
(g78
g59
NtRp694
(dp695
g62
(dp696
g89
g90
ssg71
g686
sg64
(lp697
S':'
asbag57
(g78
g59
NtRp698
(dp699
g62
(dp700
sg71
g686
sg64
(lp701
g57
(g58
g59
NtRp702
(dp703
g62
(dp704
g70
I3
ssg71
g698
sg64
(lp705
S''
asbasbasbag57
(g73
g59
NtRp706
(dp707
g62
(dp708
sg71
g662
sg64
(lp709
g57
(g78
g59
NtRp710
(dp711
g62
(dp712
g82
g83
ssg71
g706
sg64
(lp713
g336
asbag57
(g78
g59
NtRp714
(dp715
g62
(dp716
g89
g90
ssg71
g706
sg64
(lp717
S':'
asbag57
(g78
g59
NtRp718
(dp719
g62
(dp720
sg71
g706
sg64
(lp721
g57
(g58
g59
NtRp722
(dp723
g62
(dp724
g70
I3
ssg71
g718
sg64
(lp725
S''
asbasbasbag57
(g73
g59
NtRp726
(dp727
g62
(dp728
sg71
g662
sg64
(lp729
g57
(g78
g59
NtRp730
(dp731
g62
(dp732
g82
g83
ssg71
g726
sg64
(lp733
g357
asbag57
(g78
g59
NtRp734
(dp735
g62
(dp736
g89
g90
ssg71
g726
sg64
(lp737
S':'
asbag57
(g78
g59
NtRp738
(dp739
g62
(dp740
sg71
g726
sg64
(lp741
g57
(g58
g59
NtRp742
(dp743
g62
(dp744
g70
I3
ssg71
g738
sg64
(lp745
S''
asbasbasbag57
(g73
g59
NtRp746
(dp747
g62
(dp748
sg71
g662
sg64
(lp749
g57
(g78
g59
NtRp750
(dp751
g62
(dp752
g82
g83
ssg71
g746
sg64
(lp753
g378
asbag57
(g78
g59
NtRp754
(dp755
g62
(dp756
g89
g90
ssg71
g746
sg64
(lp757
S':'
asbag57
(g78
g59
NtRp758
(dp759
g62
(dp760
sg71
g746
sg64
(lp761
g57
(g58
g59
NtRp762
(dp763
g62
(dp764
g70
I3
ssg71
g758
sg64
(lp765
S''
asbasbasbag57
(g73
g59
NtRp766
(dp767
g62
(dp768
sg71
g662
sg64
(lp769
g57
(g78
g59
NtRp770
(dp771
g62
(dp772
g82
g83
ssg71
g766
sg64
(lp773
g399
asbag57
(g78
g59
NtRp774
(dp775
g62
(dp776
g89
g90
ssg71
g766
sg64
(lp777
S':'
asbag57
(g78
g59
NtRp778
(dp779
g62
(dp780
sg71
g766
sg64
(lp781
g57
(g58
g59
NtRp782
(dp783
g62
(dp784
g70
I3
ssg71
g778
sg64
(lp785
S''
asbasbasbag57
(g73
g59
NtRp786
(dp787
g62
(dp788
sg71
g662
sg64
(lp789
g57
(g78
g59
NtRp790
(dp791
g62
(dp792
g82
g83
ssg71
g786
sg64
(lp793
g420
asbag57
(g78
g59
NtRp794
(dp795
g62
(dp796
g89
g90
ssg71
g786
sg64
(lp797
S':'
asbag57
(g78
g59
NtRp798
(dp799
g62
(dp800
sg71
g786
sg64
(lp801
g57
(g58
g59
NtRp802
(dp803
g62
(dp804
g70
I3
ssg71
g798
sg64
(lp805
S''
asbasbasbag57
(g73
g59
NtRp806
(dp807
g62
(dp808
sg71
g662
sg64
(lp809
g57
(g78
g59
NtRp810
(dp811
g62
(dp812
g82
g83
ssg71
g806
sg64
(lp813
g441
asbag57
(g78
g59
NtRp814
(dp815
g62
(dp816
g89
g90
ssg71
g806
sg64
(lp817
S':'
asbag57
(g78
g59
NtRp818
(dp819
g62
(dp820
sg71
g806
sg64
(lp821
g57
(g58
g59
NtRp822
(dp823
g62
(dp824
g70
I3
ssg71
g818
sg64
(lp825
S''
asbasbasbasbasbasbasbasbasbasbasbag57
(g73
g59
NtRp826
(dp827
g62
(dp828
sg71
g67
sg64
(lp829
g57
(g78
g59
NtRp830
(dp831
g62
(dp832
g82
g83
ssg71
g826
sg64
(lp833
S'env'
p834
asbag57
(g78
g59
NtRp835
(dp836
g62
(dp837
g89
g90
ssg71
g826
sg64
(lp838
S':'
asbag57
(g78
g59
NtRp839
(dp840
g62
(dp841
sg71
g826
sg64
(lp842
g57
(g58
g59
NtRp843
(dp844
g62
(dp845
g70
I5
ssg71
g839
sg64
(lp846
g57
(g66
g59
NtRp847
(dp848
g62
(dp849
g70
I4
ssg71
Nsg64
(lp850
g57
(g73
g59
NtRp851
(dp852
g62
(dp853
sg71
g847
sg64
(lp854
g57
(g78
g59
NtRp855
(dp856
g62
(dp857
g82
g83
ssg71
g851
sg64
(lp858
S'app_folders'
p859
asbag57
(g78
g59
NtRp860
(dp861
g62
(dp862
g89
g90
ssg71
g851
sg64
(lp863
S':'
asbag57
(g78
g59
NtRp864
(dp865
g62
(dp866
sg71
g851
sg64
(lp867
g57
(g58
g59
NtRp868
(dp869
g62
(dp870
g70
I4
ssg71
g864
sg64
(lp871
S"set(['/home/aditi/Desktop/web2py/applications/assignment2/', '/home/aditi/Desktop/web2py/applications/admin/', '/home/aditi/Desktop/web2py/applications/welcome/'])"
p872
asbasbasbag57
(g73
g59
NtRp873
(dp874
g62
(dp875
sg71
g847
sg64
(lp876
g57
(g78
g59
NtRp877
(dp878
g62
(dp879
g82
g83
ssg71
g873
sg64
(lp880
S'applications_parent'
p881
asbag57
(g78
g59
NtRp882
(dp883
g62
(dp884
g89
g90
ssg71
g873
sg64
(lp885
S':'
asbag57
(g78
g59
NtRp886
(dp887
g62
(dp888
sg71
g873
sg64
(lp889
g57
(g58
g59
NtRp890
(dp891
g62
(dp892
g70
I4
ssg71
g886
sg64
(lp893
S'/home/aditi/Desktop/web2py'
p894
asbasbasbag57
(g73
g59
NtRp895
(dp896
g62
(dp897
sg71
g847
sg64
(lp898
g57
(g78
g59
NtRp899
(dp900
g62
(dp901
g82
g83
ssg71
g895
sg64
(lp902
S'cmd_args'
p903
asbag57
(g78
g59
NtRp904
(dp905
g62
(dp906
g89
g90
ssg71
g895
sg64
(lp907
S':'
asbag57
(g78
g59
NtRp908
(dp909
g62
(dp910
sg71
g895
sg64
(lp911
g57
(g58
g59
NtRp912
(dp913
g62
(dp914
g70
I4
ssg71
g908
sg64
(lp915
g57
(g66
g59
NtRp916
(dp917
g62
(dp918
g70
I3
ssg71
Nsg64
(lp919
sbasbasbasbag57
(g73
g59
NtRp920
(dp921
g62
(dp922
sg71
g847
sg64
(lp923
g57
(g78
g59
NtRp924
(dp925
g62
(dp926
g82
g83
ssg71
g920
sg64
(lp927
S'cmd_options'
p928
asbag57
(g78
g59
NtRp929
(dp930
g62
(dp931
g89
g90
ssg71
g920
sg64
(lp932
S':'
asbag57
(g78
g59
NtRp933
(dp934
g62
(dp935
sg71
g920
sg64
(lp936
g57
(g58
g59
NtRp937
(dp938
g62
(dp939
g70
I4
ssg71
g933
sg64
(lp940
S"<Values at 0x9ad8a0c: {'verbose': False, 'ip': '127.0.0.1', 'with_scheduler': False, 'ips': [], 'shutdown_timeout': 5, 'taskbar': False, 'port': 8000, 'maxthreads': None, 'softcron': False, 'server_name': 'ubuntu', 'bpython': False, 'nogui': False, 'pid_filename': 'httpserver.pid', 'extcron': False, 'runcron': False, 'run_system_tests': False, 'test': None, 'folder': '/home/aditi/Desktop/web2py', 'config': '', 'import_models': False, 'winservice': '', 'shell': None, 'run': '', 'log_filename': 'httpserver.log', 'debuglevel': 30, 'args': [''], 'socket_timeout': 5, 'ssl_ca_certificate': None, 'scheduler': None, 'profiler_filename': None, 'ssl_private_key': '', 'scheduler_groups': None, 'password': '<ask>', 'request_queue_size': 5, 'ssl_certificate': '', 'cronjob': False, 'numthreads': None, 'quiet': False, 'interfaces': None, 'minthreads': None, 'timeout': 10, 'plain': False, 'nobanner': False}>"
p941
asbasbasbag57
(g73
g59
NtRp942
(dp943
g62
(dp944
sg71
g847
sg64
(lp945
g57
(g78
g59
NtRp946
(dp947
g62
(dp948
g82
g83
ssg71
g942
sg64
(lp949
S'db_sessions'
p950
asbag57
(g78
g59
NtRp951
(dp952
g62
(dp953
g89
g90
ssg71
g942
sg64
(lp954
S':'
asbag57
(g78
g59
NtRp955
(dp956
g62
(dp957
sg71
g942
sg64
(lp958
g57
(g58
g59
NtRp959
(dp960
g62
(dp961
g70
I4
ssg71
g955
sg64
(lp962
S'set([])'
p963
asbasbasbag57
(g73
g59
NtRp964
(dp965
g62
(dp966
sg71
g847
sg64
(lp967
g57
(g78
g59
NtRp968
(dp969
g62
(dp970
g82
g83
ssg71
g964
sg64
(lp971
S'debugging'
p972
asbag57
(g78
g59
NtRp973
(dp974
g62
(dp975
g89
g90
ssg71
g964
sg64
(lp976
S':'
asbag57
(g78
g59
NtRp977
(dp978
g62
(dp979
sg71
g964
sg64
(lp980
g57
(g58
g59
NtRp981
(dp982
g62
(dp983
g70
I4
ssg71
g977
sg64
(lp984
g100
asbasbasbag57
(g73
g59
NtRp985
(dp986
g62
(dp987
sg71
g847
sg64
(lp988
g57
(g78
g59
NtRp989
(dp990
g62
(dp991
g82
g83
ssg71
g985
sg64
(lp992
S'gluon_parent'
p993
asbag57
(g78
g59
NtRp994
(dp995
g62
(dp996
g89
g90
ssg71
g985
sg64
(lp997
S':'
asbag57
(g78
g59
NtRp998
(dp999
g62
(dp1000
sg71
g985
sg64
(lp1001
g57
(g58
g59
NtRp1002
(dp1003
g62
(dp1004
g70
I4
ssg71
g998
sg64
(lp1005
S'/home/aditi/Desktop/web2py'
p1006
asbasbasbag57
(g73
g59
NtRp1007
(dp1008
g62
(dp1009
sg71
g847
sg64
(lp1010
g57
(g78
g59
NtRp1011
(dp1012
g62
(dp1013
g82
g83
ssg71
g1007
sg64
(lp1014
S'http_accept'
p1015
asbag57
(g78
g59
NtRp1016
(dp1017
g62
(dp1018
g89
g90
ssg71
g1007
sg64
(lp1019
S':'
asbag57
(g78
g59
NtRp1020
(dp1021
g62
(dp1022
sg71
g1007
sg64
(lp1023
g57
(g58
g59
NtRp1024
(dp1025
g62
(dp1026
g70
I4
ssg71
g1020
sg64
(lp1027
S'text/html,application/xhtml+xml,application/xml;q=0.9,*/*;q=0.8'
p1028
asbasbasbag57
(g73
g59
NtRp1029
(dp1030
g62
(dp1031
sg71
g847
sg64
(lp1032
g57
(g78
g59
NtRp1033
(dp1034
g62
(dp1035
g82
g83
ssg71
g1029
sg64
(lp1036
S'http_accept_encoding'
p1037
asbag57
(g78
g59
NtRp1038
(dp1039
g62
(dp1040
g89
g90
ssg71
g1029
sg64
(lp1041
S':'
asbag57
(g78
g59
NtRp1042
(dp1043
g62
(dp1044
sg71
g1029
sg64
(lp1045
g57
(g58
g59
NtRp1046
(dp1047
g62
(dp1048
g70
I4
ssg71
g1042
sg64
(lp1049
S'gzip, deflate'
p1050
asbasbasbag57
(g73
g59
NtRp1051
(dp1052
g62
(dp1053
sg71
g847
sg64
(lp1054
g57
(g78
g59
NtRp1055
(dp1056
g62
(dp1057
g82
g83
ssg71
g1051
sg64
(lp1058
S'http_accept_language'
p1059
asbag57
(g78
g59
NtRp1060
(dp1061
g62
(dp1062
g89
g90
ssg71
g1051
sg64
(lp1063
S':'
asbag57
(g78
g59
NtRp1064
(dp1065
g62
(dp1066
sg71
g1051
sg64
(lp1067
g57
(g58
g59
NtRp1068
(dp1069
g62
(dp1070
g70
I4
ssg71
g1064
sg64
(lp1071
S'en-US,en;q=0.5'
p1072
asbasbasbag57
(g73
g59
NtRp1073
(dp1074
g62
(dp1075
sg71
g847
sg64
(lp1076
g57
(g78
g59
NtRp1077
(dp1078
g62
(dp1079
g82
g83
ssg71
g1073
sg64
(lp1080
S'http_cache_control'
p1081
asbag57
(g78
g59
NtRp1082
(dp1083
g62
(dp1084
g89
g90
ssg71
g1073
sg64
(lp1085
S':'
asbag57
(g78
g59
NtRp1086
(dp1087
g62
(dp1088
sg71
g1073
sg64
(lp1089
g57
(g58
g59
NtRp1090
(dp1091
g62
(dp1092
g70
I4
ssg71
g1086
sg64
(lp1093
S'max-age=0'
p1094
asbasbasbag57
(g73
g59
NtRp1095
(dp1096
g62
(dp1097
sg71
g847
sg64
(lp1098
g57
(g78
g59
NtRp1099
(dp1100
g62
(dp1101
g82
g83
ssg71
g1095
sg64
(lp1102
S'http_connection'
p1103
asbag57
(g78
g59
NtRp1104
(dp1105
g62
(dp1106
g89
g90
ssg71
g1095
sg64
(lp1107
S':'
asbag57
(g78
g59
NtRp1108
(dp1109
g62
(dp1110
sg71
g1095
sg64
(lp1111
g57
(g58
g59
NtRp1112
(dp1113
g62
(dp1114
g70
I4
ssg71
g1108
sg64
(lp1115
S'keep-alive'
p1116
asbasbasbag57
(g73
g59
NtRp1117
(dp1118
g62
(dp1119
sg71
g847
sg64
(lp1120
g57
(g78
g59
NtRp1121
(dp1122
g62
(dp1123
g82
g83
ssg71
g1117
sg64
(lp1124
S'http_cookie'
p1125
asbag57
(g78
g59
NtRp1126
(dp1127
g62
(dp1128
g89
g90
ssg71
g1117
sg64
(lp1129
S':'
asbag57
(g78
g59
NtRp1130
(dp1131
g62
(dp1132
sg71
g1117
sg64
(lp1133
g57
(g58
g59
NtRp1134
(dp1135
g62
(dp1136
g70
I4
ssg71
g1130
sg64
(lp1137
S'session_id_welcome=127.0.0.1-2a3f0a40-83b1-4e73-811e-c902f1f09304; session_id_admin=127.0.0.1-8963b168-effa-4dc0-8b35-fdcdb207fa30; session_id_assignment2=127.0.0.1-f901c239-914d-4817-baae-ae5793bf884f'
p1138
asbasbasbag57
(g73
g59
NtRp1139
(dp1140
g62
(dp1141
sg71
g847
sg64
(lp1142
g57
(g78
g59
NtRp1143
(dp1144
g62
(dp1145
g82
g83
ssg71
g1139
sg64
(lp1146
S'http_host'
p1147
asbag57
(g78
g59
NtRp1148
(dp1149
g62
(dp1150
g89
g90
ssg71
g1139
sg64
(lp1151
S':'
asbag57
(g78
g59
NtRp1152
(dp1153
g62
(dp1154
sg71
g1139
sg64
(lp1155
g57
(g58
g59
NtRp1156
(dp1157
g62
(dp1158
g70
I4
ssg71
g1152
sg64
(lp1159
S'127.0.0.1:8000'
p1160
asbasbasbag57
(g73
g59
NtRp1161
(dp1162
g62
(dp1163
sg71
g847
sg64
(lp1164
g57
(g78
g59
NtRp1165
(dp1166
g62
(dp1167
g82
g83
ssg71
g1161
sg64
(lp1168
S'http_referer'
p1169
asbag57
(g78
g59
NtRp1170
(dp1171
g62
(dp1172
g89
g90
ssg71
g1161
sg64
(lp1173
S':'
asbag57
(g78
g59
NtRp1174
(dp1175
g62
(dp1176
sg71
g1161
sg64
(lp1177
g57
(g58
g59
NtRp1178
(dp1179
g62
(dp1180
g70
I4
ssg71
g1174
sg64
(lp1181
S'http://127.0.0.1:8000/assignment2/default/user/login?_next=/assignment2/default/index'
p1182
asbasbasbag57
(g73
g59
NtRp1183
(dp1184
g62
(dp1185
sg71
g847
sg64
(lp1186
g57
(g78
g59
NtRp1187
(dp1188
g62
(dp1189
g82
g83
ssg71
g1183
sg64
(lp1190
S'http_user_agent'
p1191
asbag57
(g78
g59
NtRp1192
(dp1193
g62
(dp1194
g89
g90
ssg71
g1183
sg64
(lp1195
S':'
asbag57
(g78
g59
NtRp1196
(dp1197
g62
(dp1198
sg71
g1183
sg64
(lp1199
g57
(g58
g59
NtRp1200
(dp1201
g62
(dp1202
g70
I4
ssg71
g1196
sg64
(lp1203
S'Mozilla/5.0 (X11; Ubuntu; Linux i686; rv:23.0) Gecko/20100101 Firefox/23.0'
p1204
asbasbasbag57
(g73
g59
NtRp1205
(dp1206
g62
(dp1207
sg71
g847
sg64
(lp1208
g57
(g78
g59
NtRp1209
(dp1210
g62
(dp1211
g82
g83
ssg71
g1205
sg64
(lp1212
S'is_jython'
p1213
asbag57
(g78
g59
NtRp1214
(dp1215
g62
(dp1216
g89
g90
ssg71
g1205
sg64
(lp1217
S':'
asbag57
(g78
g59
NtRp1218
(dp1219
g62
(dp1220
sg71
g1205
sg64
(lp1221
g57
(g58
g59
NtRp1222
(dp1223
g62
(dp1224
g70
I4
ssg71
g1218
sg64
(lp1225
g100
asbasbasbag57
(g73
g59
NtRp1226
(dp1227
g62
(dp1228
sg71
g847
sg64
(lp1229
g57
(g78
g59
NtRp1230
(dp1231
g62
(dp1232
g82
g83
ssg71
g1226
sg64
(lp1233
S'is_pypy'
p1234
asbag57
(g78
g59
NtRp1235
(dp1236
g62
(dp1237
g89
g90
ssg71
g1226
sg64
(lp1238
S':'
asbag57
(g78
g59
NtRp1239
(dp1240
g62
(dp1241
sg71
g1226
sg64
(lp1242
g57
(g58
g59
NtRp1243
(dp1244
g62
(dp1245
g70
I4
ssg71
g1239
sg64
(lp1246
g100
asbasbasbag57
(g73
g59
NtRp1247
(dp1248
g62
(dp1249
sg71
g847
sg64
(lp1250
g57
(g78
g59
NtRp1251
(dp1252
g62
(dp1253
g82
g83
ssg71
g1247
sg64
(lp1254
S'local_hosts'
p1255
asbag57
(g78
g59
NtRp1256
(dp1257
g62
(dp1258
g89
g90
ssg71
g1247
sg64
(lp1259
S':'
asbag57
(g78
g59
NtRp1260
(dp1261
g62
(dp1262
sg71
g1247
sg64
(lp1263
g57
(g58
g59
NtRp1264
(dp1265
g62
(dp1266
g70
I4
ssg71
g1260
sg64
(lp1267
g57
(g66
g59
NtRp1268
(dp1269
g62
(dp1270
g70
I3
ssg71
Nsg64
(lp1271
g57
(g73
g59
NtRp1272
(dp1273
g62
(dp1274
sg71
g1268
sg64
(lp1275
g57
(g78
g59
NtRp1276
(dp1277
g62
(dp1278
sg71
g1272
sg64
(lp1279
g57
(g58
g59
NtRp1280
(dp1281
g62
(dp1282
g70
I3
ssg71
g1276
sg64
(lp1283
S'ubuntu.ubuntu-domain'
p1284
asbasbasbag57
(g73
g59
NtRp1285
(dp1286
g62
(dp1287
sg71
g1268
sg64
(lp1288
g57
(g78
g59
NtRp1289
(dp1290
g62
(dp1291
sg71
g1285
sg64
(lp1292
g57
(g58
g59
NtRp1293
(dp1294
g62
(dp1295
g70
I3
ssg71
g1289
sg64
(lp1296
S'::ffff:127.0.0.1'
p1297
asbasbasbag57
(g73
g59
NtRp1298
(dp1299
g62
(dp1300
sg71
g1268
sg64
(lp1301
g57
(g78
g59
NtRp1302
(dp1303
g62
(dp1304
sg71
g1298
sg64
(lp1305
g57
(g58
g59
NtRp1306
(dp1307
g62
(dp1308
g70
I3
ssg71
g1302
sg64
(lp1309
S'::1'
p1310
asbasbasbag57
(g73
g59
NtRp1311
(dp1312
g62
(dp1313
sg71
g1268
sg64
(lp1314
g57
(g78
g59
NtRp1315
(dp1316
g62
(dp1317
sg71
g1311
sg64
(lp1318
g57
(g58
g59
NtRp1319
(dp1320
g62
(dp1321
g70
I3
ssg71
g1315
sg64
(lp1322
S'ubuntu'
p1323
asbasbasbag57
(g73
g59
NtRp1324
(dp1325
g62
(dp1326
sg71
g1268
sg64
(lp1327
g57
(g78
g59
NtRp1328
(dp1329
g62
(dp1330
sg71
g1324
sg64
(lp1331
g57
(g58
g59
NtRp1332
(dp1333
g62
(dp1334
g70
I3
ssg71
g1328
sg64
(lp1335
S'127.0.1.1'
p1336
asbasbasbag57
(g73
g59
NtRp1337
(dp1338
g62
(dp1339
sg71
g1268
sg64
(lp1340
g57
(g78
g59
NtRp1341
(dp1342
g62
(dp1343
sg71
g1337
sg64
(lp1344
g57
(g58
g59
NtRp1345
(dp1346
g62
(dp1347
g70
I3
ssg71
g1341
sg64
(lp1348
S'127.0.0.1'
p1349
asbasbasbasbasbasbasbag57
(g73
g59
NtRp1350
(dp1351
g62
(dp1352
sg71
g847
sg64
(lp1353
g57
(g78
g59
NtRp1354
(dp1355
g62
(dp1356
g82
g83
ssg71
g1350
sg64
(lp1357
S'path_info'
p1358
asbag57
(g78
g59
NtRp1359
(dp1360
g62
(dp1361
g89
g90
ssg71
g1350
sg64
(lp1362
S':'
asbag57
(g78
g59
NtRp1363
(dp1364
g62
(dp1365
sg71
g1350
sg64
(lp1366
g57
(g58
g59
NtRp1367
(dp1368
g62
(dp1369
g70
I4
ssg71
g1363
sg64
(lp1370
S'/assignment2/default/user_homepage'
p1371
asbasbasbag57
(g73
g59
NtRp1372
(dp1373
g62
(dp1374
sg71
g847
sg64
(lp1375
g57
(g78
g59
NtRp1376
(dp1377
g62
(dp1378
g82
g83
ssg71
g1372
sg64
(lp1379
S'query_string'
p1380
asbag57
(g78
g59
NtRp1381
(dp1382
g62
(dp1383
g89
g90
ssg71
g1372
sg64
(lp1384
S':'
asbag57
(g78
g59
NtRp1385
(dp1386
g62
(dp1387
sg71
g1372
sg64
(lp1388
g57
(g58
g59
NtRp1389
(dp1390
g62
(dp1391
g70
I4
ssg71
g1385
sg64
(lp1392
S''
asbasbasbag57
(g73
g59
NtRp1393
(dp1394
g62
(dp1395
sg71
g847
sg64
(lp1396
g57
(g78
g59
NtRp1397
(dp1398
g62
(dp1399
g82
g83
ssg71
g1393
sg64
(lp1400
S'remote_addr'
p1401
asbag57
(g78
g59
NtRp1402
(dp1403
g62
(dp1404
g89
g90
ssg71
g1393
sg64
(lp1405
S':'
asbag57
(g78
g59
NtRp1406
(dp1407
g62
(dp1408
sg71
g1393
sg64
(lp1409
g57
(g58
g59
NtRp1410
(dp1411
g62
(dp1412
g70
I4
ssg71
g1406
sg64
(lp1413
g212
asbasbasbag57
(g73
g59
NtRp1414
(dp1415
g62
(dp1416
sg71
g847
sg64
(lp1417
g57
(g78
g59
NtRp1418
(dp1419
g62
(dp1420
g82
g83
ssg71
g1414
sg64
(lp1421
S'remote_port'
p1422
asbag57
(g78
g59
NtRp1423
(dp1424
g62
(dp1425
g89
g90
ssg71
g1414
sg64
(lp1426
S':'
asbag57
(g78
g59
NtRp1427
(dp1428
g62
(dp1429
sg71
g1414
sg64
(lp1430
g57
(g58
g59
NtRp1431
(dp1432
g62
(dp1433
g70
I4
ssg71
g1427
sg64
(lp1434
S'60257'
p1435
asbasbasbag57
(g73
g59
NtRp1436
(dp1437
g62
(dp1438
sg71
g847
sg64
(lp1439
g57
(g78
g59
NtRp1440
(dp1441
g62
(dp1442
g82
g83
ssg71
g1436
sg64
(lp1443
S'request_method'
p1444
asbag57
(g78
g59
NtRp1445
(dp1446
g62
(dp1447
g89
g90
ssg71
g1436
sg64
(lp1448
S':'
asbag57
(g78
g59
NtRp1449
(dp1450
g62
(dp1451
sg71
g1436
sg64
(lp1452
g57
(g58
g59
NtRp1453
(dp1454
g62
(dp1455
g70
I4
ssg71
g1449
sg64
(lp1456
S'GET'
p1457
asbasbasbag57
(g73
g59
NtRp1458
(dp1459
g62
(dp1460
sg71
g847
sg64
(lp1461
g57
(g78
g59
NtRp1462
(dp1463
g62
(dp1464
g82
g83
ssg71
g1458
sg64
(lp1465
S'request_uri'
p1466
asbag57
(g78
g59
NtRp1467
(dp1468
g62
(dp1469
g89
g90
ssg71
g1458
sg64
(lp1470
S':'
asbag57
(g78
g59
NtRp1471
(dp1472
g62
(dp1473
sg71
g1458
sg64
(lp1474
g57
(g58
g59
NtRp1475
(dp1476
g62
(dp1477
g70
I4
ssg71
g1471
sg64
(lp1478
g1371
asbasbasbag57
(g73
g59
NtRp1479
(dp1480
g62
(dp1481
sg71
g847
sg64
(lp1482
g57
(g78
g59
NtRp1483
(dp1484
g62
(dp1485
g82
g83
ssg71
g1479
sg64
(lp1486
S'script_name'
p1487
asbag57
(g78
g59
NtRp1488
(dp1489
g62
(dp1490
g89
g90
ssg71
g1479
sg64
(lp1491
S':'
asbag57
(g78
g59
NtRp1492
(dp1493
g62
(dp1494
sg71
g1479
sg64
(lp1495
g57
(g58
g59
NtRp1496
(dp1497
g62
(dp1498
g70
I4
ssg71
g1492
sg64
(lp1499
S''
asbasbasbag57
(g73
g59
NtRp1500
(dp1501
g62
(dp1502
sg71
g847
sg64
(lp1503
g57
(g78
g59
NtRp1504
(dp1505
g62
(dp1506
g82
g83
ssg71
g1500
sg64
(lp1507
S'server_name'
p1508
asbag57
(g78
g59
NtRp1509
(dp1510
g62
(dp1511
g89
g90
ssg71
g1500
sg64
(lp1512
S':'
asbag57
(g78
g59
NtRp1513
(dp1514
g62
(dp1515
sg71
g1500
sg64
(lp1516
g57
(g58
g59
NtRp1517
(dp1518
g62
(dp1519
g70
I4
ssg71
g1513
sg64
(lp1520
S'ubuntu'
p1521
asbasbasbag57
(g73
g59
NtRp1522
(dp1523
g62
(dp1524
sg71
g847
sg64
(lp1525
g57
(g78
g59
NtRp1526
(dp1527
g62
(dp1528
g82
g83
ssg71
g1522
sg64
(lp1529
S'server_port'
p1530
asbag57
(g78
g59
NtRp1531
(dp1532
g62
(dp1533
g89
g90
ssg71
g1522
sg64
(lp1534
S':'
asbag57
(g78
g59
NtRp1535
(dp1536
g62
(dp1537
sg71
g1522
sg64
(lp1538
g57
(g58
g59
NtRp1539
(dp1540
g62
(dp1541
g70
I4
ssg71
g1535
sg64
(lp1542
S'8000'
p1543
asbasbasbag57
(g73
g59
NtRp1544
(dp1545
g62
(dp1546
sg71
g847
sg64
(lp1547
g57
(g78
g59
NtRp1548
(dp1549
g62
(dp1550
g82
g83
ssg71
g1544
sg64
(lp1551
S'server_protocol'
p1552
asbag57
(g78
g59
NtRp1553
(dp1554
g62
(dp1555
g89
g90
ssg71
g1544
sg64
(lp1556
S':'
asbag57
(g78
g59
NtRp1557
(dp1558
g62
(dp1559
sg71
g1544
sg64
(lp1560
g57
(g58
g59
NtRp1561
(dp1562
g62
(dp1563
g70
I4
ssg71
g1557
sg64
(lp1564
S'HTTP/1.1'
p1565
asbasbasbag57
(g73
g59
NtRp1566
(dp1567
g62
(dp1568
sg71
g847
sg64
(lp1569
g57
(g78
g59
NtRp1570
(dp1571
g62
(dp1572
g82
g83
ssg71
g1566
sg64
(lp1573
S'server_software'
p1574
asbag57
(g78
g59
NtRp1575
(dp1576
g62
(dp1577
g89
g90
ssg71
g1566
sg64
(lp1578
S':'
asbag57
(g78
g59
NtRp1579
(dp1580
g62
(dp1581
sg71
g1566
sg64
(lp1582
g57
(g58
g59
NtRp1583
(dp1584
g62
(dp1585
g70
I4
ssg71
g1579
sg64
(lp1586
S'Rocket 1.2.6'
p1587
asbasbasbag57
(g73
g59
NtRp1588
(dp1589
g62
(dp1590
sg71
g847
sg64
(lp1591
g57
(g78
g59
NtRp1592
(dp1593
g62
(dp1594
g82
g83
ssg71
g1588
sg64
(lp1595
S'web2py_path'
p1596
asbag57
(g78
g59
NtRp1597
(dp1598
g62
(dp1599
g89
g90
ssg71
g1588
sg64
(lp1600
S':'
asbag57
(g78
g59
NtRp1601
(dp1602
g62
(dp1603
sg71
g1588
sg64
(lp1604
g57
(g58
g59
NtRp1605
(dp1606
g62
(dp1607
g70
I4
ssg71
g1601
sg64
(lp1608
g894
asbasbasbag57
(g73
g59
NtRp1609
(dp1610
g62
(dp1611
sg71
g847
sg64
(lp1612
g57
(g78
g59
NtRp1613
(dp1614
g62
(dp1615
g82
g83
ssg71
g1609
sg64
(lp1616
S'web2py_version'
p1617
asbag57
(g78
g59
NtRp1618
(dp1619
g62
(dp1620
g89
g90
ssg71
g1609
sg64
(lp1621
S':'
asbag57
(g78
g59
NtRp1622
(dp1623
g62
(dp1624
sg71
g1609
sg64
(lp1625
g57
(g58
g59
NtRp1626
(dp1627
g62
(dp1628
g70
I4
ssg71
g1622
sg64
(lp1629
g57
(g66
g59
NtRp1630
(dp1631
g62
(dp1632
g70
I3
ssg71
Nsg64
(lp1633
g57
(g73
g59
NtRp1634
(dp1635
g62
(dp1636
sg71
g1630
sg64
(lp1637
g57
(g78
g59
NtRp1638
(dp1639
g62
(dp1640
sg71
g1634
sg64
(lp1641
g57
(g58
g59
NtRp1642
(dp1643
g62
(dp1644
g70
I3
ssg71
g1638
sg64
(lp1645
S'2'
asbasbasbag57
(g73
g59
NtRp1646
(dp1647
g62
(dp1648
sg71
g1630
sg64
(lp1649
g57
(g78
g59
NtRp1650
(dp1651
g62
(dp1652
sg71
g1646
sg64
(lp1653
g57
(g58
g59
NtRp1654
(dp1655
g62
(dp1656
g70
I3
ssg71
g1650
sg64
(lp1657
S'3'
asbasbasbag57
(g73
g59
NtRp1658
(dp1659
g62
(dp1660
sg71
g1630
sg64
(lp1661
g57
(g78
g59
NtRp1662
(dp1663
g62
(dp1664
sg71
g1658
sg64
(lp1665
g57
(g58
g59
NtRp1666
(dp1667
g62
(dp1668
g70
I3
ssg71
g1662
sg64
(lp1669
S'2'
asbasbasbag57
(g73
g59
NtRp1670
(dp1671
g62
(dp1672
sg71
g1630
sg64
(lp1673
g57
(g78
g59
NtRp1674
(dp1675
g62
(dp1676
sg71
g1670
sg64
(lp1677
g57
(g58
g59
NtRp1678
(dp1679
g62
(dp1680
g70
I3
ssg71
g1674
sg64
(lp1681
S'datetime.datetime(2012, 12, 17, 15, 3, 30)'
p1682
asbasbasbag57
(g73
g59
NtRp1683
(dp1684
g62
(dp1685
sg71
g1630
sg64
(lp1686
g57
(g78
g59
NtRp1687
(dp1688
g62
(dp1689
sg71
g1683
sg64
(lp1690
g57
(g58
g59
NtRp1691
(dp1692
g62
(dp1693
g70
I3
ssg71
g1687
sg64
(lp1694
S'stable'
p1695
asbasbasbasbasbasbasbag57
(g73
g59
NtRp1696
(dp1697
g62
(dp1698
sg71
g847
sg64
(lp1699
g57
(g78
g59
NtRp1700
(dp1701
g62
(dp1702
g82
g83
ssg71
g1696
sg64
(lp1703
S'wsgi_errors'
p1704
asbag57
(g78
g59
NtRp1705
(dp1706
g62
(dp1707
g89
g90
ssg71
g1696
sg64
(lp1708
S':'
asbag57
(g78
g59
NtRp1709
(dp1710
g62
(dp1711
sg71
g1696
sg64
(lp1712
g57
(g58
g59
NtRp1713
(dp1714
g62
(dp1715
g70
I4
ssg71
g1709
sg64
(lp1716
S"<open file '<stderr>', mode 'w' at 0xb727d0d0>"
p1717
asbasbasbag57
(g73
g59
NtRp1718
(dp1719
g62
(dp1720
sg71
g847
sg64
(lp1721
g57
(g78
g59
NtRp1722
(dp1723
g62
(dp1724
g82
g83
ssg71
g1718
sg64
(lp1725
S'wsgi_file_wrapper'
p1726
asbag57
(g78
g59
NtRp1727
(dp1728
g62
(dp1729
g89
g90
ssg71
g1718
sg64
(lp1730
S':'
asbag57
(g78
g59
NtRp1731
(dp1732
g62
(dp1733
sg71
g1718
sg64
(lp1734
g57
(g58
g59
NtRp1735
(dp1736
g62
(dp1737
g70
I4
ssg71
g1731
sg64
(lp1738
S'<class wsgiref.util.FileWrapper at 0x9a9465c>'
p1739
asbasbasbag57
(g73
g59
NtRp1740
(dp1741
g62
(dp1742
sg71
g847
sg64
(lp1743
g57
(g78
g59
NtRp1744
(dp1745
g62
(dp1746
g82
g83
ssg71
g1740
sg64
(lp1747
S'wsgi_input'
p1748
asbag57
(g78
g59
NtRp1749
(dp1750
g62
(dp1751
g89
g90
ssg71
g1740
sg64
(lp1752
S':'
asbag57
(g78
g59
NtRp1753
(dp1754
g62
(dp1755
sg71
g1740
sg64
(lp1756
g57
(g58
g59
NtRp1757
(dp1758
g62
(dp1759
g70
I4
ssg71
g1753
sg64
(lp1760
S'<socket._fileobject object at 0xad00f0ac>'
p1761
asbasbasbag57
(g73
g59
NtRp1762
(dp1763
g62
(dp1764
sg71
g847
sg64
(lp1765
g57
(g78
g59
NtRp1766
(dp1767
g62
(dp1768
g82
g83
ssg71
g1762
sg64
(lp1769
S'wsgi_multiprocess'
p1770
asbag57
(g78
g59
NtRp1771
(dp1772
g62
(dp1773
g89
g90
ssg71
g1762
sg64
(lp1774
S':'
asbag57
(g78
g59
NtRp1775
(dp1776
g62
(dp1777
sg71
g1762
sg64
(lp1778
g57
(g58
g59
NtRp1779
(dp1780
g62
(dp1781
g70
I4
ssg71
g1775
sg64
(lp1782
g100
asbasbasbag57
(g73
g59
NtRp1783
(dp1784
g62
(dp1785
sg71
g847
sg64
(lp1786
g57
(g78
g59
NtRp1787
(dp1788
g62
(dp1789
g82
g83
ssg71
g1783
sg64
(lp1790
S'wsgi_multithread'
p1791
asbag57
(g78
g59
NtRp1792
(dp1793
g62
(dp1794
g89
g90
ssg71
g1783
sg64
(lp1795
S':'
asbag57
(g78
g59
NtRp1796
(dp1797
g62
(dp1798
sg71
g1783
sg64
(lp1799
g57
(g58
g59
NtRp1800
(dp1801
g62
(dp1802
g70
I4
ssg71
g1796
sg64
(lp1803
S'True'
p1804
asbasbasbag57
(g73
g59
NtRp1805
(dp1806
g62
(dp1807
sg71
g847
sg64
(lp1808
g57
(g78
g59
NtRp1809
(dp1810
g62
(dp1811
g82
g83
ssg71
g1805
sg64
(lp1812
S'wsgi_run_once'
p1813
asbag57
(g78
g59
NtRp1814
(dp1815
g62
(dp1816
g89
g90
ssg71
g1805
sg64
(lp1817
S':'
asbag57
(g78
g59
NtRp1818
(dp1819
g62
(dp1820
sg71
g1805
sg64
(lp1821
g57
(g58
g59
NtRp1822
(dp1823
g62
(dp1824
g70
I4
ssg71
g1818
sg64
(lp1825
g100
asbasbasbag57
(g73
g59
NtRp1826
(dp1827
g62
(dp1828
sg71
g847
sg64
(lp1829
g57
(g78
g59
NtRp1830
(dp1831
g62
(dp1832
g82
g83
ssg71
g1826
sg64
(lp1833
S'wsgi_url_scheme'
p1834
asbag57
(g78
g59
NtRp1835
(dp1836
g62
(dp1837
g89
g90
ssg71
g1826
sg64
(lp1838
S':'
asbag57
(g78
g59
NtRp1839
(dp1840
g62
(dp1841
sg71
g1826
sg64
(lp1842
g57
(g58
g59
NtRp1843
(dp1844
g62
(dp1845
g70
I4
ssg71
g1839
sg64
(lp1846
S'http'
p1847
asbasbasbag57
(g73
g59
NtRp1848
(dp1849
g62
(dp1850
sg71
g847
sg64
(lp1851
g57
(g78
g59
NtRp1852
(dp1853
g62
(dp1854
g82
g83
ssg71
g1848
sg64
(lp1855
S'wsgi_version'
p1856
asbag57
(g78
g59
NtRp1857
(dp1858
g62
(dp1859
g89
g90
ssg71
g1848
sg64
(lp1860
S':'
asbag57
(g78
g59
NtRp1861
(dp1862
g62
(dp1863
sg71
g1848
sg64
(lp1864
g57
(g58
g59
NtRp1865
(dp1866
g62
(dp1867
g70
I4
ssg71
g1861
sg64
(lp1868
g57
(g66
g59
NtRp1869
(dp1870
g62
(dp1871
g70
I3
ssg71
Nsg64
(lp1872
g57
(g73
g59
NtRp1873
(dp1874
g62
(dp1875
sg71
g1869
sg64
(lp1876
g57
(g78
g59
NtRp1877
(dp1878
g62
(dp1879
sg71
g1873
sg64
(lp1880
g57
(g58
g59
NtRp1881
(dp1882
g62
(dp1883
g70
I3
ssg71
g1877
sg64
(lp1884
S'1'
asbasbasbag57
(g73
g59
NtRp1885
(dp1886
g62
(dp1887
sg71
g1869
sg64
(lp1888
g57
(g78
g59
NtRp1889
(dp1890
g62
(dp1891
sg71
g1885
sg64
(lp1892
g57
(g58
g59
NtRp1893
(dp1894
g62
(dp1895
g70
I3
ssg71
g1889
sg64
(lp1896
S'0'
asbasbasbasbasbasbasbasbasbasbasbag57
(g73
g59
NtRp1897
(dp1898
g62
(dp1899
sg71
g67
sg64
(lp1900
g57
(g78
g59
NtRp1901
(dp1902
g62
(dp1903
g82
g83
ssg71
g1897
sg64
(lp1904
S'extension'
p1905
asbag57
(g78
g59
NtRp1906
(dp1907
g62
(dp1908
g89
g90
ssg71
g1897
sg64
(lp1909
S':'
asbag57
(g78
g59
NtRp1910
(dp1911
g62
(dp1912
sg71
g1897
sg64
(lp1913
g57
(g58
g59
NtRp1914
(dp1915
g62
(dp1916
g70
I5
ssg71
g1910
sg64
(lp1917
S'html'
p1918
asbasbasbag57
(g73
g59
NtRp1919
(dp1920
g62
(dp1921
sg71
g67
sg64
(lp1922
g57
(g78
g59
NtRp1923
(dp1924
g62
(dp1925
g82
g83
ssg71
g1919
sg64
(lp1926
S'folder'
p1927
asbag57
(g78
g59
NtRp1928
(dp1929
g62
(dp1930
g89
g90
ssg71
g1919
sg64
(lp1931
S':'
asbag57
(g78
g59
NtRp1932
(dp1933
g62
(dp1934
sg71
g1919
sg64
(lp1935
g57
(g58
g59
NtRp1936
(dp1937
g62
(dp1938
g70
I5
ssg71
g1932
sg64
(lp1939
S'/home/aditi/Desktop/web2py/applications/assignment2/'
p1940
asbasbasbag57
(g73
g59
NtRp1941
(dp1942
g62
(dp1943
sg71
g67
sg64
(lp1944
g57
(g78
g59
NtRp1945
(dp1946
g62
(dp1947
g82
g83
ssg71
g1941
sg64
(lp1948
S'function'
p1949
asbag57
(g78
g59
NtRp1950
(dp1951
g62
(dp1952
g89
g90
ssg71
g1941
sg64
(lp1953
S':'
asbag57
(g78
g59
NtRp1954
(dp1955
g62
(dp1956
sg71
g1941
sg64
(lp1957
g57
(g58
g59
NtRp1958
(dp1959
g62
(dp1960
g70
I5
ssg71
g1954
sg64
(lp1961
S'user_homepage'
p1962
asbasbasbag57
(g73
g59
NtRp1963
(dp1964
g62
(dp1965
sg71
g67
sg64
(lp1966
g57
(g78
g59
NtRp1967
(dp1968
g62
(dp1969
g82
g83
ssg71
g1963
sg64
(lp1970
S'get_vars'
p1971
asbag57
(g78
g59
NtRp1972
(dp1973
g62
(dp1974
g89
g90
ssg71
g1963
sg64
(lp1975
S':'
asbag57
(g78
g59
NtRp1976
(dp1977
g62
(dp1978
sg71
g1963
sg64
(lp1979
g57
(g58
g59
NtRp1980
(dp1981
g62
(dp1982
g70
I5
ssg71
g1976
sg64
(lp1983
g57
(g66
g59
NtRp1984
(dp1985
g62
(dp1986
g70
I4
ssg71
Nsg64
(lp1987
sbasbasbasbag57
(g73
g59
NtRp1988
(dp1989
g62
(dp1990
sg71
g67
sg64
(lp1991
g57
(g78
g59
NtRp1992
(dp1993
g62
(dp1994
g82
g83
ssg71
g1988
sg64
(lp1995
S'global_settings'
p1996
asbag57
(g78
g59
NtRp1997
(dp1998
g62
(dp1999
g89
g90
ssg71
g1988
sg64
(lp2000
S':'
asbag57
(g78
g59
NtRp2001
(dp2002
g62
(dp2003
sg71
g1988
sg64
(lp2004
g57
(g58
g59
NtRp2005
(dp2006
g62
(dp2007
g70
I5
ssg71
g2001
sg64
(lp2008
g57
(g66
g59
NtRp2009
(dp2010
g62
(dp2011
g70
I4
ssg71
Nsg64
(lp2012
g57
(g73
g59
NtRp2013
(dp2014
g62
(dp2015
sg71
g2009
sg64
(lp2016
g57
(g78
g59
NtRp2017
(dp2018
g62
(dp2019
g82
g83
ssg71
g2013
sg64
(lp2020
g859
asbag57
(g78
g59
NtRp2021
(dp2022
g62
(dp2023
g89
g90
ssg71
g2013
sg64
(lp2024
S':'
asbag57
(g78
g59
NtRp2025
(dp2026
g62
(dp2027
sg71
g2013
sg64
(lp2028
g57
(g58
g59
NtRp2029
(dp2030
g62
(dp2031
g70
I4
ssg71
g2025
sg64
(lp2032
S"set(['/home/aditi/Desktop/web2py/applications/assignment2/', '/home/aditi/Desktop/web2py/applications/admin/', '/home/aditi/Desktop/web2py/applications/welcome/'])"
p2033
asbasbasbag57
(g73
g59
NtRp2034
(dp2035
g62
(dp2036
sg71
g2009
sg64
(lp2037
g57
(g78
g59
NtRp2038
(dp2039
g62
(dp2040
g82
g83
ssg71
g2034
sg64
(lp2041
g881
asbag57
(g78
g59
NtRp2042
(dp2043
g62
(dp2044
g89
g90
ssg71
g2034
sg64
(lp2045
S':'
asbag57
(g78
g59
NtRp2046
(dp2047
g62
(dp2048
sg71
g2034
sg64
(lp2049
g57
(g58
g59
NtRp2050
(dp2051
g62
(dp2052
g70
I4
ssg71
g2046
sg64
(lp2053
g894
asbasbasbag57
(g73
g59
NtRp2054
(dp2055
g62
(dp2056
sg71
g2009
sg64
(lp2057
g57
(g78
g59
NtRp2058
(dp2059
g62
(dp2060
g82
g83
ssg71
g2054
sg64
(lp2061
g903
asbag57
(g78
g59
NtRp2062
(dp2063
g62
(dp2064
g89
g90
ssg71
g2054
sg64
(lp2065
S':'
asbag57
(g78
g59
NtRp2066
(dp2067
g62
(dp2068
sg71
g2054
sg64
(lp2069
g57
(g58
g59
NtRp2070
(dp2071
g62
(dp2072
g70
I4
ssg71
g2066
sg64
(lp2073
g57
(g66
g59
NtRp2074
(dp2075
g62
(dp2076
g70
I3
ssg71
Nsg64
(lp2077
sbasbasbasbag57
(g73
g59
NtRp2078
(dp2079
g62
(dp2080
sg71
g2009
sg64
(lp2081
g57
(g78
g59
NtRp2082
(dp2083
g62
(dp2084
g82
g83
ssg71
g2078
sg64
(lp2085
g928
asbag57
(g78
g59
NtRp2086
(dp2087
g62
(dp2088
g89
g90
ssg71
g2078
sg64
(lp2089
S':'
asbag57
(g78
g59
NtRp2090
(dp2091
g62
(dp2092
sg71
g2078
sg64
(lp2093
g57
(g58
g59
NtRp2094
(dp2095
g62
(dp2096
g70
I4
ssg71
g2090
sg64
(lp2097
S"<Values at 0x9ad8a0c: {'verbose': False, 'ip': '127.0.0.1', 'with_scheduler': False, 'ips': [], 'shutdown_timeout': 5, 'taskbar': False, 'port': 8000, 'maxthreads': None, 'softcron': False, 'server_name': 'ubuntu', 'bpython': False, 'nogui': False, 'pid_filename': 'httpserver.pid', 'extcron': False, 'runcron': False, 'run_system_tests': False, 'test': None, 'folder': '/home/aditi/Desktop/web2py', 'config': '', 'import_models': False, 'winservice': '', 'shell': None, 'run': '', 'log_filename': 'httpserver.log', 'debuglevel': 30, 'args': [''], 'socket_timeout': 5, 'ssl_ca_certificate': None, 'scheduler': None, 'profiler_filename': None, 'ssl_private_key': '', 'scheduler_groups': None, 'password': '<ask>', 'request_queue_size': 5, 'ssl_certificate': '', 'cronjob': False, 'numthreads': None, 'quiet': False, 'interfaces': None, 'minthreads': None, 'timeout': 10, 'plain': False, 'nobanner': False}>"
p2098
asbasbasbag57
(g73
g59
NtRp2099
(dp2100
g62
(dp2101
sg71
g2009
sg64
(lp2102
g57
(g78
g59
NtRp2103
(dp2104
g62
(dp2105
g82
g83
ssg71
g2099
sg64
(lp2106
g950
asbag57
(g78
g59
NtRp2107
(dp2108
g62
(dp2109
g89
g90
ssg71
g2099
sg64
(lp2110
S':'
asbag57
(g78
g59
NtRp2111
(dp2112
g62
(dp2113
sg71
g2099
sg64
(lp2114
g57
(g58
g59
NtRp2115
(dp2116
g62
(dp2117
g70
I4
ssg71
g2111
sg64
(lp2118
S'set([])'
p2119
asbasbasbag57
(g73
g59
NtRp2120
(dp2121
g62
(dp2122
sg71
g2009
sg64
(lp2123
g57
(g78
g59
NtRp2124
(dp2125
g62
(dp2126
g82
g83
ssg71
g2120
sg64
(lp2127
g972
asbag57
(g78
g59
NtRp2128
(dp2129
g62
(dp2130
g89
g90
ssg71
g2120
sg64
(lp2131
S':'
asbag57
(g78
g59
NtRp2132
(dp2133
g62
(dp2134
sg71
g2120
sg64
(lp2135
g57
(g58
g59
NtRp2136
(dp2137
g62
(dp2138
g70
I4
ssg71
g2132
sg64
(lp2139
g100
asbasbasbag57
(g73
g59
NtRp2140
(dp2141
g62
(dp2142
sg71
g2009
sg64
(lp2143
g57
(g78
g59
NtRp2144
(dp2145
g62
(dp2146
g82
g83
ssg71
g2140
sg64
(lp2147
g993
asbag57
(g78
g59
NtRp2148
(dp2149
g62
(dp2150
g89
g90
ssg71
g2140
sg64
(lp2151
S':'
asbag57
(g78
g59
NtRp2152
(dp2153
g62
(dp2154
sg71
g2140
sg64
(lp2155
g57
(g58
g59
NtRp2156
(dp2157
g62
(dp2158
g70
I4
ssg71
g2152
sg64
(lp2159
g1006
asbasbasbag57
(g73
g59
NtRp2160
(dp2161
g62
(dp2162
sg71
g2009
sg64
(lp2163
g57
(g78
g59
NtRp2164
(dp2165
g62
(dp2166
g82
g83
ssg71
g2160
sg64
(lp2167
g1213
asbag57
(g78
g59
NtRp2168
(dp2169
g62
(dp2170
g89
g90
ssg71
g2160
sg64
(lp2171
S':'
asbag57
(g78
g59
NtRp2172
(dp2173
g62
(dp2174
sg71
g2160
sg64
(lp2175
g57
(g58
g59
NtRp2176
(dp2177
g62
(dp2178
g70
I4
ssg71
g2172
sg64
(lp2179
g100
asbasbasbag57
(g73
g59
NtRp2180
(dp2181
g62
(dp2182
sg71
g2009
sg64
(lp2183
g57
(g78
g59
NtRp2184
(dp2185
g62
(dp2186
g82
g83
ssg71
g2180
sg64
(lp2187
g1234
asbag57
(g78
g59
NtRp2188
(dp2189
g62
(dp2190
g89
g90
ssg71
g2180
sg64
(lp2191
S':'
asbag57
(g78
g59
NtRp2192
(dp2193
g62
(dp2194
sg71
g2180
sg64
(lp2195
g57
(g58
g59
NtRp2196
(dp2197
g62
(dp2198
g70
I4
ssg71
g2192
sg64
(lp2199
g100
asbasbasbag57
(g73
g59
NtRp2200
(dp2201
g62
(dp2202
sg71
g2009
sg64
(lp2203
g57
(g78
g59
NtRp2204
(dp2205
g62
(dp2206
g82
g83
ssg71
g2200
sg64
(lp2207
g1255
asbag57
(g78
g59
NtRp2208
(dp2209
g62
(dp2210
g89
g90
ssg71
g2200
sg64
(lp2211
S':'
asbag57
(g78
g59
NtRp2212
(dp2213
g62
(dp2214
sg71
g2200
sg64
(lp2215
g57
(g58
g59
NtRp2216
(dp2217
g62
(dp2218
g70
I4
ssg71
g2212
sg64
(lp2219
g57
(g66
g59
NtRp2220
(dp2221
g62
(dp2222
g70
I3
ssg71
Nsg64
(lp2223
g57
(g73
g59
NtRp2224
(dp2225
g62
(dp2226
sg71
g2220
sg64
(lp2227
g57
(g78
g59
NtRp2228
(dp2229
g62
(dp2230
sg71
g2224
sg64
(lp2231
g57
(g58
g59
NtRp2232
(dp2233
g62
(dp2234
g70
I3
ssg71
g2228
sg64
(lp2235
g1284
asbasbasbag57
(g73
g59
NtRp2236
(dp2237
g62
(dp2238
sg71
g2220
sg64
(lp2239
g57
(g78
g59
NtRp2240
(dp2241
g62
(dp2242
sg71
g2236
sg64
(lp2243
g57
(g58
g59
NtRp2244
(dp2245
g62
(dp2246
g70
I3
ssg71
g2240
sg64
(lp2247
g1297
asbasbasbag57
(g73
g59
NtRp2248
(dp2249
g62
(dp2250
sg71
g2220
sg64
(lp2251
g57
(g78
g59
NtRp2252
(dp2253
g62
(dp2254
sg71
g2248
sg64
(lp2255
g57
(g58
g59
NtRp2256
(dp2257
g62
(dp2258
g70
I3
ssg71
g2252
sg64
(lp2259
g1310
asbasbasbag57
(g73
g59
NtRp2260
(dp2261
g62
(dp2262
sg71
g2220
sg64
(lp2263
g57
(g78
g59
NtRp2264
(dp2265
g62
(dp2266
sg71
g2260
sg64
(lp2267
g57
(g58
g59
NtRp2268
(dp2269
g62
(dp2270
g70
I3
ssg71
g2264
sg64
(lp2271
g1323
asbasbasbag57
(g73
g59
NtRp2272
(dp2273
g62
(dp2274
sg71
g2220
sg64
(lp2275
g57
(g78
g59
NtRp2276
(dp2277
g62
(dp2278
sg71
g2272
sg64
(lp2279
g57
(g58
g59
NtRp2280
(dp2281
g62
(dp2282
g70
I3
ssg71
g2276
sg64
(lp2283
g1336
asbasbasbag57
(g73
g59
NtRp2284
(dp2285
g62
(dp2286
sg71
g2220
sg64
(lp2287
g57
(g78
g59
NtRp2288
(dp2289
g62
(dp2290
sg71
g2284
sg64
(lp2291
g57
(g58
g59
NtRp2292
(dp2293
g62
(dp2294
g70
I3
ssg71
g2288
sg64
(lp2295
g1349
asbasbasbasbasbasbasbag57
(g73
g59
NtRp2296
(dp2297
g62
(dp2298
sg71
g2009
sg64
(lp2299
g57
(g78
g59
NtRp2300
(dp2301
g62
(dp2302
g82
g83
ssg71
g2296
sg64
(lp2303
g1617
asbag57
(g78
g59
NtRp2304
(dp2305
g62
(dp2306
g89
g90
ssg71
g2296
sg64
(lp2307
S':'
asbag57
(g78
g59
NtRp2308
(dp2309
g62
(dp2310
sg71
g2296
sg64
(lp2311
g57
(g58
g59
NtRp2312
(dp2313
g62
(dp2314
g70
I4
ssg71
g2308
sg64
(lp2315
g57
(g66
g59
NtRp2316
(dp2317
g62
(dp2318
g70
I3
ssg71
Nsg64
(lp2319
g57
(g73
g59
NtRp2320
(dp2321
g62
(dp2322
sg71
g2316
sg64
(lp2323
g57
(g78
g59
NtRp2324
(dp2325
g62
(dp2326
sg71
g2320
sg64
(lp2327
g57
(g58
g59
NtRp2328
(dp2329
g62
(dp2330
g70
I3
ssg71
g2324
sg64
(lp2331
S'2'
asbasbasbag57
(g73
g59
NtRp2332
(dp2333
g62
(dp2334
sg71
g2316
sg64
(lp2335
g57
(g78
g59
NtRp2336
(dp2337
g62
(dp2338
sg71
g2332
sg64
(lp2339
g57
(g58
g59
NtRp2340
(dp2341
g62
(dp2342
g70
I3
ssg71
g2336
sg64
(lp2343
S'3'
asbasbasbag57
(g73
g59
NtRp2344
(dp2345
g62
(dp2346
sg71
g2316
sg64
(lp2347
g57
(g78
g59
NtRp2348
(dp2349
g62
(dp2350
sg71
g2344
sg64
(lp2351
g57
(g58
g59
NtRp2352
(dp2353
g62
(dp2354
g70
I3
ssg71
g2348
sg64
(lp2355
S'2'
asbasbasbag57
(g73
g59
NtRp2356
(dp2357
g62
(dp2358
sg71
g2316
sg64
(lp2359
g57
(g78
g59
NtRp2360
(dp2361
g62
(dp2362
sg71
g2356
sg64
(lp2363
g57
(g58
g59
NtRp2364
(dp2365
g62
(dp2366
g70
I3
ssg71
g2360
sg64
(lp2367
S'datetime.datetime(2012, 12, 17, 15, 3, 30)'
p2368
asbasbasbag57
(g73
g59
NtRp2369
(dp2370
g62
(dp2371
sg71
g2316
sg64
(lp2372
g57
(g78
g59
NtRp2373
(dp2374
g62
(dp2375
sg71
g2369
sg64
(lp2376
g57
(g58
g59
NtRp2377
(dp2378
g62
(dp2379
g70
I3
ssg71
g2373
sg64
(lp2380
g1695
asbasbasbasbasbasbasbasbasbasbasbag57
(g73
g59
NtRp2381
(dp2382
g62
(dp2383
sg71
g67
sg64
(lp2384
g57
(g78
g59
NtRp2385
(dp2386
g62
(dp2387
g82
g83
ssg71
g2381
sg64
(lp2388
S'is_https'
p2389
asbag57
(g78
g59
NtRp2390
(dp2391
g62
(dp2392
g89
g90
ssg71
g2381
sg64
(lp2393
S':'
asbag57
(g78
g59
NtRp2394
(dp2395
g62
(dp2396
sg71
g2381
sg64
(lp2397
g57
(g58
g59
NtRp2398
(dp2399
g62
(dp2400
g70
I5
ssg71
g2394
sg64
(lp2401
g100
asbasbasbag57
(g73
g59
NtRp2402
(dp2403
g62
(dp2404
sg71
g67
sg64
(lp2405
g57
(g78
g59
NtRp2406
(dp2407
g62
(dp2408
g82
g83
ssg71
g2402
sg64
(lp2409
S'is_local'
p2410
asbag57
(g78
g59
NtRp2411
(dp2412
g62
(dp2413
g89
g90
ssg71
g2402
sg64
(lp2414
S':'
asbag57
(g78
g59
NtRp2415
(dp2416
g62
(dp2417
sg71
g2402
sg64
(lp2418
g57
(g58
g59
NtRp2419
(dp2420
g62
(dp2421
g70
I5
ssg71
g2415
sg64
(lp2422
g1804
asbasbasbag57
(g73
g59
NtRp2423
(dp2424
g62
(dp2425
sg71
g67
sg64
(lp2426
g57
(g78
g59
NtRp2427
(dp2428
g62
(dp2429
g82
g83
ssg71
g2423
sg64
(lp2430
S'is_restful'
p2431
asbag57
(g78
g59
NtRp2432
(dp2433
g62
(dp2434
g89
g90
ssg71
g2423
sg64
(lp2435
S':'
asbag57
(g78
g59
NtRp2436
(dp2437
g62
(dp2438
sg71
g2423
sg64
(lp2439
g57
(g58
g59
NtRp2440
(dp2441
g62
(dp2442
g70
I5
ssg71
g2436
sg64
(lp2443
g100
asbasbasbag57
(g73
g59
NtRp2444
(dp2445
g62
(dp2446
sg71
g67
sg64
(lp2447
g57
(g78
g59
NtRp2448
(dp2449
g62
(dp2450
g82
g83
ssg71
g2444
sg64
(lp2451
S'now'
p2452
asbag57
(g78
g59
NtRp2453
(dp2454
g62
(dp2455
g89
g90
ssg71
g2444
sg64
(lp2456
S':'
asbag57
(g78
g59
NtRp2457
(dp2458
g62
(dp2459
sg71
g2444
sg64
(lp2460
g57
(g58
g59
NtRp2461
(dp2462
g62
(dp2463
g70
I5
ssg71
g2457
sg64
(lp2464
S'datetime.datetime(2013, 8, 27, 19, 48, 57, 50841)'
p2465
asbasbasbag57
(g73
g59
NtRp2466
(dp2467
g62
(dp2468
sg71
g67
sg64
(lp2469
g57
(g78
g59
NtRp2470
(dp2471
g62
(dp2472
g82
g83
ssg71
g2466
sg64
(lp2473
S'post_vars'
p2474
asbag57
(g78
g59
NtRp2475
(dp2476
g62
(dp2477
g89
g90
ssg71
g2466
sg64
(lp2478
S':'
asbag57
(g78
g59
NtRp2479
(dp2480
g62
(dp2481
sg71
g2466
sg64
(lp2482
g57
(g58
g59
NtRp2483
(dp2484
g62
(dp2485
g70
I5
ssg71
g2479
sg64
(lp2486
g57
(g66
g59
NtRp2487
(dp2488
g62
(dp2489
g70
I4
ssg71
Nsg64
(lp2490
sbasbasbasbag57
(g73
g59
NtRp2491
(dp2492
g62
(dp2493
sg71
g67
sg64
(lp2494
g57
(g78
g59
NtRp2495
(dp2496
g62
(dp2497
g82
g83
ssg71
g2491
sg64
(lp2498
S'raw_args'
p2499
asbag57
(g78
g59
NtRp2500
(dp2501
g62
(dp2502
g89
g90
ssg71
g2491
sg64
(lp2503
S':'
asbag57
(g78
g59
NtRp2504
(dp2505
g62
(dp2506
sg71
g2491
sg64
(lp2507
g57
(g58
g59
NtRp2508
(dp2509
g62
(dp2510
g70
I5
ssg71
g2504
sg64
(lp2511
S''
asbasbasbag57
(g73
g59
NtRp2512
(dp2513
g62
(dp2514
sg71
g67
sg64
(lp2515
g57
(g78
g59
NtRp2516
(dp2517
g62
(dp2518
g82
g83
ssg71
g2512
sg64
(lp2519
S'raw_extension'
p2520
asbag57
(g78
g59
NtRp2521
(dp2522
g62
(dp2523
g89
g90
ssg71
g2512
sg64
(lp2524
S':'
asbag57
(g78
g59
NtRp2525
(dp2526
g62
(dp2527
sg71
g2512
sg64
(lp2528
g57
(g58
g59
NtRp2529
(dp2530
g62
(dp2531
g70
I5
ssg71
g2525
sg64
(lp2532
S'None'
p2533
asbasbasbag57
(g73
g59
NtRp2534
(dp2535
g62
(dp2536
sg71
g67
sg64
(lp2537
g57
(g78
g59
NtRp2538
(dp2539
g62
(dp2540
g82
g83
ssg71
g2534
sg64
(lp2541
S'url'
p2542
asbag57
(g78
g59
NtRp2543
(dp2544
g62
(dp2545
g89
g90
ssg71
g2534
sg64
(lp2546
S':'
asbag57
(g78
g59
NtRp2547
(dp2548
g62
(dp2549
sg71
g2534
sg64
(lp2550
g57
(g58
g59
NtRp2551
(dp2552
g62
(dp2553
g70
I5
ssg71
g2547
sg64
(lp2554
g1371
asbasbasbag57
(g73
g59
NtRp2555
(dp2556
g62
(dp2557
sg71
g67
sg64
(lp2558
g57
(g78
g59
NtRp2559
(dp2560
g62
(dp2561
g82
g83
ssg71
g2555
sg64
(lp2562
S'utcnow'
p2563
asbag57
(g78
g59
NtRp2564
(dp2565
g62
(dp2566
g89
g90
ssg71
g2555
sg64
(lp2567
S':'
asbag57
(g78
g59
NtRp2568
(dp2569
g62
(dp2570
sg71
g2555
sg64
(lp2571
g57
(g58
g59
NtRp2572
(dp2573
g62
(dp2574
g70
I5
ssg71
g2568
sg64
(lp2575
S'datetime.datetime(2013, 8, 27, 14, 18, 57, 50905)'
p2576
asbasbasbag57
(g73
g59
NtRp2577
(dp2578
g62
(dp2579
sg71
g67
sg64
(lp2580
g57
(g78
g59
NtRp2581
(dp2582
g62
(dp2583
g82
g83
ssg71
g2577
sg64
(lp2584
S'uuid'
p2585
asbag57
(g78
g59
NtRp2586
(dp2587
g62
(dp2588
g89
g90
ssg71
g2577
sg64
(lp2589
S':'
asbag57
(g78
g59
NtRp2590
(dp2591
g62
(dp2592
sg71
g2577
sg64
(lp2593
g57
(g58
g59
NtRp2594
(dp2595
g62
(dp2596
g70
I5
ssg71
g2590
sg64
(lp2597
S'assignment2/127.0.0.1.2013-08-27.19-48-57.71b35df3-f2a5-476e-8654-0eb8f8947271'
p2598
asbasbasbag57
(g73
g59
NtRp2599
(dp2600
g62
(dp2601
sg71
g67
sg64
(lp2602
g57
(g78
g59
NtRp2603
(dp2604
g62
(dp2605
g82
g83
ssg71
g2599
sg64
(lp2606
S'vars'
p2607
asbag57
(g78
g59
NtRp2608
(dp2609
g62
(dp2610
g89
g90
ssg71
g2599
sg64
(lp2611
S':'
asbag57
(g78
g59
NtRp2612
(dp2613
g62
(dp2614
sg71
g2599
sg64
(lp2615
g57
(g58
g59
NtRp2616
(dp2617
g62
(dp2618
g70
I5
ssg71
g2612
sg64
(lp2619
g57
(g66
g59
NtRp2620
(dp2621
g62
(dp2622
g70
I4
ssg71
Nsg64
(lp2623
sbasbasbasbag57
(g73
g59
NtRp2624
(dp2625
g62
(dp2626
sg71
g67
sg64
(lp2627
g57
(g78
g59
NtRp2628
(dp2629
g62
(dp2630
g82
g83
ssg71
g2624
sg64
(lp2631
S'wsgi'
p2632
asbag57
(g78
g59
NtRp2633
(dp2634
g62
(dp2635
g89
g90
ssg71
g2624
sg64
(lp2636
S':'
asbag57
(g78
g59
NtRp2637
(dp2638
g62
(dp2639
sg71
g2624
sg64
(lp2640
g57
(g58
g59
NtRp2641
(dp2642
g62
(dp2643
g70
I5
ssg71
g2637
sg64
(lp2644
g57
(g66
g59
NtRp2645
(dp2646
g62
(dp2647
g70
I4
ssg71
Nsg64
(lp2648
g57
(g73
g59
NtRp2649
(dp2650
g62
(dp2651
sg71
g2645
sg64
(lp2652
g57
(g78
g59
NtRp2653
(dp2654
g62
(dp2655
g82
g83
ssg71
g2649
sg64
(lp2656
S'environ'
p2657
asbag57
(g78
g59
NtRp2658
(dp2659
g62
(dp2660
g89
g90
ssg71
g2649
sg64
(lp2661
S':'
asbag57
(g78
g59
NtRp2662
(dp2663
g62
(dp2664
sg71
g2649
sg64
(lp2665
g57
(g58
g59
NtRp2666
(dp2667
g62
(dp2668
g70
I4
ssg71
g2662
sg64
(lp2669
g57
(g66
g59
NtRp2670
(dp2671
g62
(dp2672
g70
I3
ssg71
Nsg64
(lp2673
g57
(g73
g59
NtRp2674
(dp2675
g62
(dp2676
sg71
g2670
sg64
(lp2677
g57
(g78
g59
NtRp2678
(dp2679
g62
(dp2680
g82
g83
ssg71
g2674
sg64
(lp2681
S'HTTP_ACCEPT'
p2682
asbag57
(g78
g59
NtRp2683
(dp2684
g62
(dp2685
g89
g90
ssg71
g2674
sg64
(lp2686
S':'
asbag57
(g78
g59
NtRp2687
(dp2688
g62
(dp2689
sg71
g2674
sg64
(lp2690
g57
(g58
g59
NtRp2691
(dp2692
g62
(dp2693
g70
I3
ssg71
g2687
sg64
(lp2694
g1028
asbasbasbag57
(g73
g59
NtRp2695
(dp2696
g62
(dp2697
sg71
g2670
sg64
(lp2698
g57
(g78
g59
NtRp2699
(dp2700
g62
(dp2701
g82
g83
ssg71
g2695
sg64
(lp2702
S'HTTP_ACCEPT_ENCODING'
p2703
asbag57
(g78
g59
NtRp2704
(dp2705
g62
(dp2706
g89
g90
ssg71
g2695
sg64
(lp2707
S':'
asbag57
(g78
g59
NtRp2708
(dp2709
g62
(dp2710
sg71
g2695
sg64
(lp2711
g57
(g58
g59
NtRp2712
(dp2713
g62
(dp2714
g70
I3
ssg71
g2708
sg64
(lp2715
g1050
asbasbasbag57
(g73
g59
NtRp2716
(dp2717
g62
(dp2718
sg71
g2670
sg64
(lp2719
g57
(g78
g59
NtRp2720
(dp2721
g62
(dp2722
g82
g83
ssg71
g2716
sg64
(lp2723
S'HTTP_ACCEPT_LANGUAGE'
p2724
asbag57
(g78
g59
NtRp2725
(dp2726
g62
(dp2727
g89
g90
ssg71
g2716
sg64
(lp2728
S':'
asbag57
(g78
g59
NtRp2729
(dp2730
g62
(dp2731
sg71
g2716
sg64
(lp2732
g57
(g58
g59
NtRp2733
(dp2734
g62
(dp2735
g70
I3
ssg71
g2729
sg64
(lp2736
g1072
asbasbasbag57
(g73
g59
NtRp2737
(dp2738
g62
(dp2739
sg71
g2670
sg64
(lp2740
g57
(g78
g59
NtRp2741
(dp2742
g62
(dp2743
g82
g83
ssg71
g2737
sg64
(lp2744
S'HTTP_CACHE_CONTROL'
p2745
asbag57
(g78
g59
NtRp2746
(dp2747
g62
(dp2748
g89
g90
ssg71
g2737
sg64
(lp2749
S':'
asbag57
(g78
g59
NtRp2750
(dp2751
g62
(dp2752
sg71
g2737
sg64
(lp2753
g57
(g58
g59
NtRp2754
(dp2755
g62
(dp2756
g70
I3
ssg71
g2750
sg64
(lp2757
g1094
asbasbasbag57
(g73
g59
NtRp2758
(dp2759
g62
(dp2760
sg71
g2670
sg64
(lp2761
g57
(g78
g59
NtRp2762
(dp2763
g62
(dp2764
g82
g83
ssg71
g2758
sg64
(lp2765
S'HTTP_CONNECTION'
p2766
asbag57
(g78
g59
NtRp2767
(dp2768
g62
(dp2769
g89
g90
ssg71
g2758
sg64
(lp2770
S':'
asbag57
(g78
g59
NtRp2771
(dp2772
g62
(dp2773
sg71
g2758
sg64
(lp2774
g57
(g58
g59
NtRp2775
(dp2776
g62
(dp2777
g70
I3
ssg71
g2771
sg64
(lp2778
g1116
asbasbasbag57
(g73
g59
NtRp2779
(dp2780
g62
(dp2781
sg71
g2670
sg64
(lp2782
g57
(g78
g59
NtRp2783
(dp2784
g62
(dp2785
g82
g83
ssg71
g2779
sg64
(lp2786
S'HTTP_COOKIE'
p2787
asbag57
(g78
g59
NtRp2788
(dp2789
g62
(dp2790
g89
g90
ssg71
g2779
sg64
(lp2791
S':'
asbag57
(g78
g59
NtRp2792
(dp2793
g62
(dp2794
sg71
g2779
sg64
(lp2795
g57
(g58
g59
NtRp2796
(dp2797
g62
(dp2798
g70
I3
ssg71
g2792
sg64
(lp2799
g1138
asbasbasbag57
(g73
g59
NtRp2800
(dp2801
g62
(dp2802
sg71
g2670
sg64
(lp2803
g57
(g78
g59
NtRp2804
(dp2805
g62
(dp2806
g82
g83
ssg71
g2800
sg64
(lp2807
S'HTTP_HOST'
p2808
asbag57
(g78
g59
NtRp2809
(dp2810
g62
(dp2811
g89
g90
ssg71
g2800
sg64
(lp2812
S':'
asbag57
(g78
g59
NtRp2813
(dp2814
g62
(dp2815
sg71
g2800
sg64
(lp2816
g57
(g58
g59
NtRp2817
(dp2818
g62
(dp2819
g70
I3
ssg71
g2813
sg64
(lp2820
g1160
asbasbasbag57
(g73
g59
NtRp2821
(dp2822
g62
(dp2823
sg71
g2670
sg64
(lp2824
g57
(g78
g59
NtRp2825
(dp2826
g62
(dp2827
g82
g83
ssg71
g2821
sg64
(lp2828
S'HTTP_REFERER'
p2829
asbag57
(g78
g59
NtRp2830
(dp2831
g62
(dp2832
g89
g90
ssg71
g2821
sg64
(lp2833
S':'
asbag57
(g78
g59
NtRp2834
(dp2835
g62
(dp2836
sg71
g2821
sg64
(lp2837
g57
(g58
g59
NtRp2838
(dp2839
g62
(dp2840
g70
I3
ssg71
g2834
sg64
(lp2841
g1182
asbasbasbag57
(g73
g59
NtRp2842
(dp2843
g62
(dp2844
sg71
g2670
sg64
(lp2845
g57
(g78
g59
NtRp2846
(dp2847
g62
(dp2848
g82
g83
ssg71
g2842
sg64
(lp2849
S'HTTP_USER_AGENT'
p2850
asbag57
(g78
g59
NtRp2851
(dp2852
g62
(dp2853
g89
g90
ssg71
g2842
sg64
(lp2854
S':'
asbag57
(g78
g59
NtRp2855
(dp2856
g62
(dp2857
sg71
g2842
sg64
(lp2858
g57
(g58
g59
NtRp2859
(dp2860
g62
(dp2861
g70
I3
ssg71
g2855
sg64
(lp2862
g1204
asbasbasbag57
(g73
g59
NtRp2863
(dp2864
g62
(dp2865
sg71
g2670
sg64
(lp2866
g57
(g78
g59
NtRp2867
(dp2868
g62
(dp2869
g82
g83
ssg71
g2863
sg64
(lp2870
S'PATH_INFO'
p2871
asbag57
(g78
g59
NtRp2872
(dp2873
g62
(dp2874
g89
g90
ssg71
g2863
sg64
(lp2875
S':'
asbag57
(g78
g59
NtRp2876
(dp2877
g62
(dp2878
sg71
g2863
sg64
(lp2879
g57
(g58
g59
NtRp2880
(dp2881
g62
(dp2882
g70
I3
ssg71
g2876
sg64
(lp2883
g1371
asbasbasbag57
(g73
g59
NtRp2884
(dp2885
g62
(dp2886
sg71
g2670
sg64
(lp2887
g57
(g78
g59
NtRp2888
(dp2889
g62
(dp2890
g82
g83
ssg71
g2884
sg64
(lp2891
S'QUERY_STRING'
p2892
asbag57
(g78
g59
NtRp2893
(dp2894
g62
(dp2895
g89
g90
ssg71
g2884
sg64
(lp2896
S':'
asbag57
(g78
g59
NtRp2897
(dp2898
g62
(dp2899
sg71
g2884
sg64
(lp2900
g57
(g58
g59
NtRp2901
(dp2902
g62
(dp2903
g70
I3
ssg71
g2897
sg64
(lp2904
S''
asbasbasbag57
(g73
g59
NtRp2905
(dp2906
g62
(dp2907
sg71
g2670
sg64
(lp2908
g57
(g78
g59
NtRp2909
(dp2910
g62
(dp2911
g82
g83
ssg71
g2905
sg64
(lp2912
S'REMOTE_ADDR'
p2913
asbag57
(g78
g59
NtRp2914
(dp2915
g62
(dp2916
g89
g90
ssg71
g2905
sg64
(lp2917
S':'
asbag57
(g78
g59
NtRp2918
(dp2919
g62
(dp2920
sg71
g2905
sg64
(lp2921
g57
(g58
g59
NtRp2922
(dp2923
g62
(dp2924
g70
I3
ssg71
g2918
sg64
(lp2925
g212
asbasbasbag57
(g73
g59
NtRp2926
(dp2927
g62
(dp2928
sg71
g2670
sg64
(lp2929
g57
(g78
g59
NtRp2930
(dp2931
g62
(dp2932
g82
g83
ssg71
g2926
sg64
(lp2933
S'REMOTE_PORT'
p2934
asbag57
(g78
g59
NtRp2935
(dp2936
g62
(dp2937
g89
g90
ssg71
g2926
sg64
(lp2938
S':'
asbag57
(g78
g59
NtRp2939
(dp2940
g62
(dp2941
sg71
g2926
sg64
(lp2942
g57
(g58
g59
NtRp2943
(dp2944
g62
(dp2945
g70
I3
ssg71
g2939
sg64
(lp2946
g1435
asbasbasbag57
(g73
g59
NtRp2947
(dp2948
g62
(dp2949
sg71
g2670
sg64
(lp2950
g57
(g78
g59
NtRp2951
(dp2952
g62
(dp2953
g82
g83
ssg71
g2947
sg64
(lp2954
S'REQUEST_METHOD'
p2955
asbag57
(g78
g59
NtRp2956
(dp2957
g62
(dp2958
g89
g90
ssg71
g2947
sg64
(lp2959
S':'
asbag57
(g78
g59
NtRp2960
(dp2961
g62
(dp2962
sg71
g2947
sg64
(lp2963
g57
(g58
g59
NtRp2964
(dp2965
g62
(dp2966
g70
I3
ssg71
g2960
sg64
(lp2967
g1457
asbasbasbag57
(g73
g59
NtRp2968
(dp2969
g62
(dp2970
sg71
g2670
sg64
(lp2971
g57
(g78
g59
NtRp2972
(dp2973
g62
(dp2974
g82
g83
ssg71
g2968
sg64
(lp2975
S'REQUEST_URI'
p2976
asbag57
(g78
g59
NtRp2977
(dp2978
g62
(dp2979
g89
g90
ssg71
g2968
sg64
(lp2980
S':'
asbag57
(g78
g59
NtRp2981
(dp2982
g62
(dp2983
sg71
g2968
sg64
(lp2984
g57
(g58
g59
NtRp2985
(dp2986
g62
(dp2987
g70
I3
ssg71
g2981
sg64
(lp2988
g1371
asbasbasbag57
(g73
g59
NtRp2989
(dp2990
g62
(dp2991
sg71
g2670
sg64
(lp2992
g57
(g78
g59
NtRp2993
(dp2994
g62
(dp2995
g82
g83
ssg71
g2989
sg64
(lp2996
S'SCRIPT_NAME'
p2997
asbag57
(g78
g59
NtRp2998
(dp2999
g62
(dp3000
g89
g90
ssg71
g2989
sg64
(lp3001
S':'
asbag57
(g78
g59
NtRp3002
(dp3003
g62
(dp3004
sg71
g2989
sg64
(lp3005
g57
(g58
g59
NtRp3006
(dp3007
g62
(dp3008
g70
I3
ssg71
g3002
sg64
(lp3009
S''
asbasbasbag57
(g73
g59
NtRp3010
(dp3011
g62
(dp3012
sg71
g2670
sg64
(lp3013
g57
(g78
g59
NtRp3014
(dp3015
g62
(dp3016
g82
g83
ssg71
g3010
sg64
(lp3017
S'SERVER_NAME'
p3018
asbag57
(g78
g59
NtRp3019
(dp3020
g62
(dp3021
g89
g90
ssg71
g3010
sg64
(lp3022
S':'
asbag57
(g78
g59
NtRp3023
(dp3024
g62
(dp3025
sg71
g3010
sg64
(lp3026
g57
(g58
g59
NtRp3027
(dp3028
g62
(dp3029
g70
I3
ssg71
g3023
sg64
(lp3030
g1521
asbasbasbag57
(g73
g59
NtRp3031
(dp3032
g62
(dp3033
sg71
g2670
sg64
(lp3034
g57
(g78
g59
NtRp3035
(dp3036
g62
(dp3037
g82
g83
ssg71
g3031
sg64
(lp3038
S'SERVER_PORT'
p3039
asbag57
(g78
g59
NtRp3040
(dp3041
g62
(dp3042
g89
g90
ssg71
g3031
sg64
(lp3043
S':'
asbag57
(g78
g59
NtRp3044
(dp3045
g62
(dp3046
sg71
g3031
sg64
(lp3047
g57
(g58
g59
NtRp3048
(dp3049
g62
(dp3050
g70
I3
ssg71
g3044
sg64
(lp3051
g1543
asbasbasbag57
(g73
g59
NtRp3052
(dp3053
g62
(dp3054
sg71
g2670
sg64
(lp3055
g57
(g78
g59
NtRp3056
(dp3057
g62
(dp3058
g82
g83
ssg71
g3052
sg64
(lp3059
S'SERVER_PROTOCOL'
p3060
asbag57
(g78
g59
NtRp3061
(dp3062
g62
(dp3063
g89
g90
ssg71
g3052
sg64
(lp3064
S':'
asbag57
(g78
g59
NtRp3065
(dp3066
g62
(dp3067
sg71
g3052
sg64
(lp3068
g57
(g58
g59
NtRp3069
(dp3070
g62
(dp3071
g70
I3
ssg71
g3065
sg64
(lp3072
g1565
asbasbasbag57
(g73
g59
NtRp3073
(dp3074
g62
(dp3075
sg71
g2670
sg64
(lp3076
g57
(g78
g59
NtRp3077
(dp3078
g62
(dp3079
g82
g83
ssg71
g3073
sg64
(lp3080
S'SERVER_SOFTWARE'
p3081
asbag57
(g78
g59
NtRp3082
(dp3083
g62
(dp3084
g89
g90
ssg71
g3073
sg64
(lp3085
S':'
asbag57
(g78
g59
NtRp3086
(dp3087
g62
(dp3088
sg71
g3073
sg64
(lp3089
g57
(g58
g59
NtRp3090
(dp3091
g62
(dp3092
g70
I3
ssg71
g3086
sg64
(lp3093
g1587
asbasbasbag57
(g73
g59
NtRp3094
(dp3095
g62
(dp3096
sg71
g2670
sg64
(lp3097
g57
(g78
g59
NtRp3098
(dp3099
g62
(dp3100
g82
g83
ssg71
g3094
sg64
(lp3101
S'wsgi.errors'
p3102
asbag57
(g78
g59
NtRp3103
(dp3104
g62
(dp3105
g89
g90
ssg71
g3094
sg64
(lp3106
S':'
asbag57
(g78
g59
NtRp3107
(dp3108
g62
(dp3109
sg71
g3094
sg64
(lp3110
g57
(g58
g59
NtRp3111
(dp3112
g62
(dp3113
g70
I3
ssg71
g3107
sg64
(lp3114
S"<open file '<stderr>', mode 'w' at 0xb727d0d0>"
p3115
asbasbasbag57
(g73
g59
NtRp3116
(dp3117
g62
(dp3118
sg71
g2670
sg64
(lp3119
g57
(g78
g59
NtRp3120
(dp3121
g62
(dp3122
g82
g83
ssg71
g3116
sg64
(lp3123
S'wsgi.file_wrapper'
p3124
asbag57
(g78
g59
NtRp3125
(dp3126
g62
(dp3127
g89
g90
ssg71
g3116
sg64
(lp3128
S':'
asbag57
(g78
g59
NtRp3129
(dp3130
g62
(dp3131
sg71
g3116
sg64
(lp3132
g57
(g58
g59
NtRp3133
(dp3134
g62
(dp3135
g70
I3
ssg71
g3129
sg64
(lp3136
S'<class wsgiref.util.FileWrapper at 0x9a9465c>'
p3137
asbasbasbag57
(g73
g59
NtRp3138
(dp3139
g62
(dp3140
sg71
g2670
sg64
(lp3141
g57
(g78
g59
NtRp3142
(dp3143
g62
(dp3144
g82
g83
ssg71
g3138
sg64
(lp3145
S'wsgi.input'
p3146
asbag57
(g78
g59
NtRp3147
(dp3148
g62
(dp3149
g89
g90
ssg71
g3138
sg64
(lp3150
S':'
asbag57
(g78
g59
NtRp3151
(dp3152
g62
(dp3153
sg71
g3138
sg64
(lp3154
g57
(g58
g59
NtRp3155
(dp3156
g62
(dp3157
g70
I3
ssg71
g3151
sg64
(lp3158
S'<cStringIO.StringO object at 0xad52ea80>'
p3159
asbasbasbag57
(g73
g59
NtRp3160
(dp3161
g62
(dp3162
sg71
g2670
sg64
(lp3163
g57
(g78
g59
NtRp3164
(dp3165
g62
(dp3166
g82
g83
ssg71
g3160
sg64
(lp3167
S'wsgi.multiprocess'
p3168
asbag57
(g78
g59
NtRp3169
(dp3170
g62
(dp3171
g89
g90
ssg71
g3160
sg64
(lp3172
S':'
asbag57
(g78
g59
NtRp3173
(dp3174
g62
(dp3175
sg71
g3160
sg64
(lp3176
g57
(g58
g59
NtRp3177
(dp3178
g62
(dp3179
g70
I3
ssg71
g3173
sg64
(lp3180
g100
asbasbasbag57
(g73
g59
NtRp3181
(dp3182
g62
(dp3183
sg71
g2670
sg64
(lp3184
g57
(g78
g59
NtRp3185
(dp3186
g62
(dp3187
g82
g83
ssg71
g3181
sg64
(lp3188
S'wsgi.multithread'
p3189
asbag57
(g78
g59
NtRp3190
(dp3191
g62
(dp3192
g89
g90
ssg71
g3181
sg64
(lp3193
S':'
asbag57
(g78
g59
NtRp3194
(dp3195
g62
(dp3196
sg71
g3181
sg64
(lp3197
g57
(g58
g59
NtRp3198
(dp3199
g62
(dp3200
g70
I3
ssg71
g3194
sg64
(lp3201
g1804
asbasbasbag57
(g73
g59
NtRp3202
(dp3203
g62
(dp3204
sg71
g2670
sg64
(lp3205
g57
(g78
g59
NtRp3206
(dp3207
g62
(dp3208
g82
g83
ssg71
g3202
sg64
(lp3209
S'wsgi.run_once'
p3210
asbag57
(g78
g59
NtRp3211
(dp3212
g62
(dp3213
g89
g90
ssg71
g3202
sg64
(lp3214
S':'
asbag57
(g78
g59
NtRp3215
(dp3216
g62
(dp3217
sg71
g3202
sg64
(lp3218
g57
(g58
g59
NtRp3219
(dp3220
g62
(dp3221
g70
I3
ssg71
g3215
sg64
(lp3222
g100
asbasbasbag57
(g73
g59
NtRp3223
(dp3224
g62
(dp3225
sg71
g2670
sg64
(lp3226
g57
(g78
g59
NtRp3227
(dp3228
g62
(dp3229
g82
g83
ssg71
g3223
sg64
(lp3230
S'wsgi.url_scheme'
p3231
asbag57
(g78
g59
NtRp3232
(dp3233
g62
(dp3234
g89
g90
ssg71
g3223
sg64
(lp3235
S':'
asbag57
(g78
g59
NtRp3236
(dp3237
g62
(dp3238
sg71
g3223
sg64
(lp3239
g57
(g58
g59
NtRp3240
(dp3241
g62
(dp3242
g70
I3
ssg71
g3236
sg64
(lp3243
g1847
asbasbasbag57
(g73
g59
NtRp3244
(dp3245
g62
(dp3246
sg71
g2670
sg64
(lp3247
g57
(g78
g59
NtRp3248
(dp3249
g62
(dp3250
g82
g83
ssg71
g3244
sg64
(lp3251
S'wsgi.version'
p3252
asbag57
(g78
g59
NtRp3253
(dp3254
g62
(dp3255
g89
g90
ssg71
g3244
sg64
(lp3256
S':'
asbag57
(g78
g59
NtRp3257
(dp3258
g62
(dp3259
sg71
g3244
sg64
(lp3260
g57
(g58
g59
NtRp3261
(dp3262
g62
(dp3263
g70
I3
ssg71
g3257
sg64
(lp3264
S'1'
asbasbasbasbasbasbasbasbasbasbasbasbasbsS'frames'
p3265
(lp3266
(dp3267
S'file'
p3268
S'/home/aditi/Desktop/web2py/gluon/restricted.py'
p3269
sS'dump'
p3270
(dp3271
S'environment'
p3272
S"{'A': <class 'gluon.html.A'>, 'Auth': <class 'gluon.tools.Auth'>, 'B': <class 'gluon.html.B'>, 'BEAUTIFY': <class 'gluon.html.BEAUTIFY'>, 'BODY': <class 'gluon.html.BODY'>, 'BR': <class 'gluon.html.BR'>, 'BUTTON': <class 'gluon.html.BUTTON'>, 'CAT': <class 'gluon.html.CAT'>, 'CENTER': <class 'gluon.html.CENTER'>, 'CLEANUP': <class 'gluon.validators.CLEANUP'>, ...}"
p3273
sS'ccode'
p3274
S'<code object <module> at 0xac688f08, file "/home...ons/assignment2/controllers/default.py", line 13>'
p3275
ssS'lnum'
p3276
I212
sS'lines'
p3277
(dp3278
I207
S'    try:'
p3279
sI208
S'        if isinstance(code, types.CodeType):'
p3280
sI209
S'            ccode = code'
p3281
sI210
S'        else:'
p3282
sI211
S'            ccode = compile2(code, layer)'
p3283
sI212
S'        exec ccode in environment'
p3284
sI213
S'    except HTTP:'
p3285
sI214
S'        raise'
p3286
sI215
S'    except RestrictedError:'
p3287
sI216
S'        # do not encapsulate (obfuscate) the original RestrictedError'
p3288
ssS'call'
p3289
S"(code='# -*- coding: utf-8 -*-\\n# this file is released ...\\n\\nresponse._vars=response._caller(user_homepage)\\n', environment={'A': <class 'gluon.html.A'>, 'Auth': <class 'gluon.tools.Auth'>, 'B': <class 'gluon.html.B'>, 'BEAUTIFY': <class 'gluon.html.BEAUTIFY'>, 'BODY': <class 'gluon.html.BODY'>, 'BR': <class 'gluon.html.BR'>, 'BUTTON': <class 'gluon.html.BUTTON'>, 'CAT': <class 'gluon.html.CAT'>, 'CENTER': <class 'gluon.html.CENTER'>, 'CLEANUP': <class 'gluon.validators.CLEANUP'>, ...}, layer='/home/aditi/Desktop/web2py/applications/assignment2/controllers/default.py')"
p3290
sS'func'
p3291
S'restricted'
p3292
sa(dp3293
g3268
S'/home/aditi/Desktop/web2py/applications/assignment2/controllers/default.py'
p3294
sg3270
(dp3295
sg3276
I263
sg3277
(dp3296
I256
S'    but URLs must be signed, i.e. linked with'
p3297
sI257
S"      A('table',_href=URL('data/tables',user_signature=True))"
p3298
sI258
S'    or with the signed load operator'
p3299
sI259
S"      LOAD('default','data.load',args='tables',ajax=True,user_signature=True)"
p3300
sI260
S'    """'
p3301
sI261
S'    return dict(form=crud())'
p3302
sI252
S'    http://..../[app]/default/data/update/[table]/[id]'
p3303
sI253
S'    http://..../[app]/default/data/delete/[table]/[id]'
p3304
sI254
S'    http://..../[app]/default/data/select/[table]'
p3305
sI255
S'    http://..../[app]/default/data/search/[table]'
p3306
ssg3289
S'()'
p3307
sg3291
S'<module>'
p3308
sa(dp3309
g3268
S'/home/aditi/Desktop/web2py/gluon/globals.py'
p3310
sg3270
(dp3311
S'self'
p3312
S'undefined'
p3313
sS'f'
S'<function user_homepage>'
p3314
ssg3276
I193
sg3277
(dp3315
I192
S'        self._vars = None'
p3316
sI193
S'        self._caller = lambda f: f()'
p3317
sI194
S'        self._view_environment = None'
p3318
sI195
S'        self._custom_commit = None'
p3319
sI196
S'        self._custom_rollback = None'
p3320
sI197
S''
sI188
S'        self.menu = []             # used by the default view layout'
p3321
sI189
S'        self.files = []            # used by web2py_ajax.html'
p3322
sI190
S'        self.generic_patterns = []  # patterns to allow generic views'
p3323
sI191
S"        self.delimiters = ('{{', '}}')"
p3324
ssg3289
S'(f=<function user_homepage>)'
p3325
sg3291
S'<lambda>'
p3326
sa(dp3327
g3268
S'/home/aditi/Desktop/web2py/applications/assignment2/controllers/default.py'
p3328
sg3270
(dp3329
S'count'
p3330
S'1'
sS'deleteform'
p3331
S'[<gluon.sqlhtml.SQLFORM object>]'
p3332
sS'formname'
p3333
g3313
sS').accepted'
p3334
g3313
sS'].process'
p3335
g3313
ssg3276
I65
sg3277
(dp3336
I64
S'                    dislikeform.append(SQLFORM.factory(submit_button="Dislike post"))'
p3337
sI65
S"                    if deleteform[count].process(formname='deleteform[%d]'%count).accepted:"
p3338
sI66
S'                        db(db.newsitem.id==p).delete()'
p3339
sI67
S"                        redirect(URL(r=request,f='user_homepage'))"
p3340
sI68
S"                    if editform[count].process(formname='editform[%d]'%count).accepted:"
p3341
sI69
S"                        redirect(URL(r=request,f='changedetails?id=%d'%p))"
p3342
sI60
S"                    p=n[j]['id']"
p3343
sI61
S'                    deleteform.append(SQLFORM.factory(submit_button="Delete post"))'
p3344
sI62
S'                    editform.append(SQLFORM.factory(submit_button="Edit post"))'
p3345
sI63
S'                    likeform.append(SQLFORM.factory(submit_button="Like post"))'
p3346
ssg3289
S'()'
p3347
sg3291
S'user_homepage'
p3348
sasS'pyver'
p3349
S'Python 2.7.3: /usr/bin/python'
p3350
sS'session'
p3351
g57
(g58
g59
NtRp3352
(dp3353
g62
(dp3354
sg64
(lp3355
g57
(g66
g59
NtRp3356
(dp3357
g62
(dp3358
g70
I5
ssg71
Nsg64
(lp3359
g57
(g73
g59
NtRp3360
(dp3361
g62
(dp3362
sg71
g3356
sg64
(lp3363
g57
(g78
g59
NtRp3364
(dp3365
g62
(dp3366
g82
g83
ssg71
g3360
sg64
(lp3367
S'auth'
p3368
asbag57
(g78
g59
NtRp3369
(dp3370
g62
(dp3371
g89
g90
ssg71
g3360
sg64
(lp3372
S':'
asbag57
(g78
g59
NtRp3373
(dp3374
g62
(dp3375
sg71
g3360
sg64
(lp3376
g57
(g58
g59
NtRp3377
(dp3378
g62
(dp3379
g70
I5
ssg71
g3373
sg64
(lp3380
g57
(g66
g59
NtRp3381
(dp3382
g62
(dp3383
g70
I4
ssg71
Nsg64
(lp3384
g57
(g73
g59
NtRp3385
(dp3386
g62
(dp3387
sg71
g3381
sg64
(lp3388
g57
(g78
g59
NtRp3389
(dp3390
g62
(dp3391
g82
g83
ssg71
g3385
sg64
(lp3392
S'expiration'
p3393
asbag57
(g78
g59
NtRp3394
(dp3395
g62
(dp3396
g89
g90
ssg71
g3385
sg64
(lp3397
S':'
asbag57
(g78
g59
NtRp3398
(dp3399
g62
(dp3400
sg71
g3385
sg64
(lp3401
g57
(g58
g59
NtRp3402
(dp3403
g62
(dp3404
g70
I4
ssg71
g3398
sg64
(lp3405
S'3600'
p3406
asbasbasbag57
(g73
g59
NtRp3407
(dp3408
g62
(dp3409
sg71
g3381
sg64
(lp3410
g57
(g78
g59
NtRp3411
(dp3412
g62
(dp3413
g82
g83
ssg71
g3407
sg64
(lp3414
S'hmac_key'
p3415
asbag57
(g78
g59
NtRp3416
(dp3417
g62
(dp3418
g89
g90
ssg71
g3407
sg64
(lp3419
S':'
asbag57
(g78
g59
NtRp3420
(dp3421
g62
(dp3422
sg71
g3407
sg64
(lp3423
g57
(g58
g59
NtRp3424
(dp3425
g62
(dp3426
g70
I4
ssg71
g3420
sg64
(lp3427
S'414d3101-085b-425a-8650-634bed31c51a'
p3428
asbasbasbag57
(g73
g59
NtRp3429
(dp3430
g62
(dp3431
sg71
g3381
sg64
(lp3432
g57
(g78
g59
NtRp3433
(dp3434
g62
(dp3435
g82
g83
ssg71
g3429
sg64
(lp3436
S'last_visit'
p3437
asbag57
(g78
g59
NtRp3438
(dp3439
g62
(dp3440
g89
g90
ssg71
g3429
sg64
(lp3441
S':'
asbag57
(g78
g59
NtRp3442
(dp3443
g62
(dp3444
sg71
g3429
sg64
(lp3445
g57
(g58
g59
NtRp3446
(dp3447
g62
(dp3448
g70
I4
ssg71
g3442
sg64
(lp3449
S'datetime.datetime(2013, 8, 27, 19, 44, 44, 904875)'
p3450
asbasbasbag57
(g73
g59
NtRp3451
(dp3452
g62
(dp3453
sg71
g3381
sg64
(lp3454
g57
(g78
g59
NtRp3455
(dp3456
g62
(dp3457
g82
g83
ssg71
g3451
sg64
(lp3458
S'remember'
p3459
asbag57
(g78
g59
NtRp3460
(dp3461
g62
(dp3462
g89
g90
ssg71
g3451
sg64
(lp3463
S':'
asbag57
(g78
g59
NtRp3464
(dp3465
g62
(dp3466
sg71
g3451
sg64
(lp3467
g57
(g58
g59
NtRp3468
(dp3469
g62
(dp3470
g70
I4
ssg71
g3464
sg64
(lp3471
g100
asbasbasbag57
(g73
g59
NtRp3472
(dp3473
g62
(dp3474
sg71
g3381
sg64
(lp3475
g57
(g78
g59
NtRp3476
(dp3477
g62
(dp3478
g82
g83
ssg71
g3472
sg64
(lp3479
S'user'
p3480
asbag57
(g78
g59
NtRp3481
(dp3482
g62
(dp3483
g89
g90
ssg71
g3472
sg64
(lp3484
S':'
asbag57
(g78
g59
NtRp3485
(dp3486
g62
(dp3487
sg71
g3472
sg64
(lp3488
g57
(g58
g59
NtRp3489
(dp3490
g62
(dp3491
g70
I4
ssg71
g3485
sg64
(lp3492
g57
(g66
g59
NtRp3493
(dp3494
g62
(dp3495
g70
I3
ssg71
Nsg64
(lp3496
g57
(g73
g59
NtRp3497
(dp3498
g62
(dp3499
sg71
g3493
sg64
(lp3500
g57
(g78
g59
NtRp3501
(dp3502
g62
(dp3503
g82
g83
ssg71
g3497
sg64
(lp3504
S'account_type'
p3505
asbag57
(g78
g59
NtRp3506
(dp3507
g62
(dp3508
g89
g90
ssg71
g3497
sg64
(lp3509
S':'
asbag57
(g78
g59
NtRp3510
(dp3511
g62
(dp3512
sg71
g3497
sg64
(lp3513
g57
(g58
g59
NtRp3514
(dp3515
g62
(dp3516
g70
I3
ssg71
g3510
sg64
(lp3517
S'user'
p3518
asbasbasbag57
(g73
g59
NtRp3519
(dp3520
g62
(dp3521
sg71
g3493
sg64
(lp3522
g57
(g78
g59
NtRp3523
(dp3524
g62
(dp3525
g82
g83
ssg71
g3519
sg64
(lp3526
S'alt_email'
p3527
asbag57
(g78
g59
NtRp3528
(dp3529
g62
(dp3530
g89
g90
ssg71
g3519
sg64
(lp3531
S':'
asbag57
(g78
g59
NtRp3532
(dp3533
g62
(dp3534
sg71
g3519
sg64
(lp3535
g57
(g58
g59
NtRp3536
(dp3537
g62
(dp3538
g70
I3
ssg71
g3532
sg64
(lp3539
S'amavalan@syr.edu'
p3540
asbasbasbag57
(g73
g59
NtRp3541
(dp3542
g62
(dp3543
sg71
g3493
sg64
(lp3544
g57
(g78
g59
NtRp3545
(dp3546
g62
(dp3547
g82
g83
ssg71
g3541
sg64
(lp3548
S'dob'
p3549
asbag57
(g78
g59
NtRp3550
(dp3551
g62
(dp3552
g89
g90
ssg71
g3541
sg64
(lp3553
S':'
asbag57
(g78
g59
NtRp3554
(dp3555
g62
(dp3556
sg71
g3541
sg64
(lp3557
g57
(g58
g59
NtRp3558
(dp3559
g62
(dp3560
g70
I3
ssg71
g3554
sg64
(lp3561
S'datetime.date(1991, 9, 8)'
p3562
asbasbasbag57
(g73
g59
NtRp3563
(dp3564
g62
(dp3565
sg71
g3493
sg64
(lp3566
g57
(g78
g59
NtRp3567
(dp3568
g62
(dp3569
g82
g83
ssg71
g3563
sg64
(lp3570
S'email'
p3571
asbag57
(g78
g59
NtRp3572
(dp3573
g62
(dp3574
g89
g90
ssg71
g3563
sg64
(lp3575
S':'
asbag57
(g78
g59
NtRp3576
(dp3577
g62
(dp3578
sg71
g3563
sg64
(lp3579
g57
(g58
g59
NtRp3580
(dp3581
g62
(dp3582
g70
I3
ssg71
g3576
sg64
(lp3583
S'amishi.mavalankar@gmail.com'
p3584
asbasbasbag57
(g73
g59
NtRp3585
(dp3586
g62
(dp3587
sg71
g3493
sg64
(lp3588
g57
(g78
g59
NtRp3589
(dp3590
g62
(dp3591
g82
g83
ssg71
g3585
sg64
(lp3592
S'first_name'
p3593
asbag57
(g78
g59
NtRp3594
(dp3595
g62
(dp3596
g89
g90
ssg71
g3585
sg64
(lp3597
S':'
asbag57
(g78
g59
NtRp3598
(dp3599
g62
(dp3600
sg71
g3585
sg64
(lp3601
g57
(g58
g59
NtRp3602
(dp3603
g62
(dp3604
g70
I3
ssg71
g3598
sg64
(lp3605
S'amishi'
p3606
asbasbasbag57
(g73
g59
NtRp3607
(dp3608
g62
(dp3609
sg71
g3493
sg64
(lp3610
g57
(g78
g59
NtRp3611
(dp3612
g62
(dp3613
g82
g83
ssg71
g3607
sg64
(lp3614
S'id'
p3615
asbag57
(g78
g59
NtRp3616
(dp3617
g62
(dp3618
g89
g90
ssg71
g3607
sg64
(lp3619
S':'
asbag57
(g78
g59
NtRp3620
(dp3621
g62
(dp3622
sg71
g3607
sg64
(lp3623
g57
(g58
g59
NtRp3624
(dp3625
g62
(dp3626
g70
I3
ssg71
g3620
sg64
(lp3627
S'3'
asbasbasbag57
(g73
g59
NtRp3628
(dp3629
g62
(dp3630
sg71
g3493
sg64
(lp3631
g57
(g78
g59
NtRp3632
(dp3633
g62
(dp3634
g82
g83
ssg71
g3628
sg64
(lp3635
S'last_name'
p3636
asbag57
(g78
g59
NtRp3637
(dp3638
g62
(dp3639
g89
g90
ssg71
g3628
sg64
(lp3640
S':'
asbag57
(g78
g59
NtRp3641
(dp3642
g62
(dp3643
sg71
g3628
sg64
(lp3644
g57
(g58
g59
NtRp3645
(dp3646
g62
(dp3647
g70
I3
ssg71
g3641
sg64
(lp3648
S'mavalankar'
p3649
asbasbasbag57
(g73
g59
NtRp3650
(dp3651
g62
(dp3652
sg71
g3493
sg64
(lp3653
g57
(g78
g59
NtRp3654
(dp3655
g62
(dp3656
g82
g83
ssg71
g3650
sg64
(lp3657
S'registration_id'
p3658
asbag57
(g78
g59
NtRp3659
(dp3660
g62
(dp3661
g89
g90
ssg71
g3650
sg64
(lp3662
S':'
asbag57
(g78
g59
NtRp3663
(dp3664
g62
(dp3665
sg71
g3650
sg64
(lp3666
g57
(g58
g59
NtRp3667
(dp3668
g62
(dp3669
g70
I3
ssg71
g3663
sg64
(lp3670
S''
asbasbasbag57
(g73
g59
NtRp3671
(dp3672
g62
(dp3673
sg71
g3493
sg64
(lp3674
g57
(g78
g59
NtRp3675
(dp3676
g62
(dp3677
g82
g83
ssg71
g3671
sg64
(lp3678
S'registration_key'
p3679
asbag57
(g78
g59
NtRp3680
(dp3681
g62
(dp3682
g89
g90
ssg71
g3671
sg64
(lp3683
S':'
asbag57
(g78
g59
NtRp3684
(dp3685
g62
(dp3686
sg71
g3671
sg64
(lp3687
g57
(g58
g59
NtRp3688
(dp3689
g62
(dp3690
g70
I3
ssg71
g3684
sg64
(lp3691
S''
asbasbasbag57
(g73
g59
NtRp3692
(dp3693
g62
(dp3694
sg71
g3493
sg64
(lp3695
g57
(g78
g59
NtRp3696
(dp3697
g62
(dp3698
g82
g83
ssg71
g3692
sg64
(lp3699
S'reset_password_key'
p3700
asbag57
(g78
g59
NtRp3701
(dp3702
g62
(dp3703
g89
g90
ssg71
g3692
sg64
(lp3704
S':'
asbag57
(g78
g59
NtRp3705
(dp3706
g62
(dp3707
sg71
g3692
sg64
(lp3708
g57
(g58
g59
NtRp3709
(dp3710
g62
(dp3711
g70
I3
ssg71
g3705
sg64
(lp3712
S''
asbasbasbag57
(g73
g59
NtRp3713
(dp3714
g62
(dp3715
sg71
g3493
sg64
(lp3716
g57
(g78
g59
NtRp3717
(dp3718
g62
(dp3719
g82
g83
ssg71
g3713
sg64
(lp3720
S'username'
p3721
asbag57
(g78
g59
NtRp3722
(dp3723
g62
(dp3724
g89
g90
ssg71
g3713
sg64
(lp3725
S':'
asbag57
(g78
g59
NtRp3726
(dp3727
g62
(dp3728
sg71
g3713
sg64
(lp3729
g57
(g58
g59
NtRp3730
(dp3731
g62
(dp3732
g70
I3
ssg71
g3726
sg64
(lp3733
S'amishi.mavalankar'
p3734
asbasbasbasbasbasbasbag57
(g73
g59
NtRp3735
(dp3736
g62
(dp3737
sg71
g3381
sg64
(lp3738
g57
(g78
g59
NtRp3739
(dp3740
g62
(dp3741
g82
g83
ssg71
g3735
sg64
(lp3742
S'user_groups'
p3743
asbag57
(g78
g59
NtRp3744
(dp3745
g62
(dp3746
g89
g90
ssg71
g3735
sg64
(lp3747
S':'
asbag57
(g78
g59
NtRp3748
(dp3749
g62
(dp3750
sg71
g3735
sg64
(lp3751
g57
(g58
g59
NtRp3752
(dp3753
g62
(dp3754
g70
I4
ssg71
g3748
sg64
(lp3755
g57
(g66
g59
NtRp3756
(dp3757
g62
(dp3758
g70
I3
ssg71
Nsg64
(lp3759
g57
(g73
g59
NtRp3760
(dp3761
g62
(dp3762
sg71
g3756
sg64
(lp3763
g57
(g78
g59
NtRp3764
(dp3765
g62
(dp3766
g82
g83
ssg71
g3760
sg64
(lp3767
S'3'
asbag57
(g78
g59
NtRp3768
(dp3769
g62
(dp3770
g89
g90
ssg71
g3760
sg64
(lp3771
S':'
asbag57
(g78
g59
NtRp3772
(dp3773
g62
(dp3774
sg71
g3760
sg64
(lp3775
g57
(g58
g59
NtRp3776
(dp3777
g62
(dp3778
g70
I3
ssg71
g3772
sg64
(lp3779
S'user_3'
p3780
asbasbasbasbasbasbasbasbasbasbasbag57
(g73
g59
NtRp3781
(dp3782
g62
(dp3783
sg71
g3356
sg64
(lp3784
g57
(g78
g59
NtRp3785
(dp3786
g62
(dp3787
g82
g83
ssg71
g3781
sg64
(lp3788
S'flash'
p3789
asbag57
(g78
g59
NtRp3790
(dp3791
g62
(dp3792
g89
g90
ssg71
g3781
sg64
(lp3793
S':'
asbag57
(g78
g59
NtRp3794
(dp3795
g62
(dp3796
sg71
g3781
sg64
(lp3797
g57
(g58
g59
NtRp3798
(dp3799
g62
(dp3800
g70
I5
ssg71
g3794
sg64
(lp3801
S'None'
p3802
asbasbasbag57
(g73
g59
NtRp3803
(dp3804
g62
(dp3805
sg71
g3356
sg64
(lp3806
g57
(g78
g59
NtRp3807
(dp3808
g62
(dp3809
g82
g83
ssg71
g3803
sg64
(lp3810
S'last_orderby'
p3811
asbag57
(g78
g59
NtRp3812
(dp3813
g62
(dp3814
g89
g90
ssg71
g3803
sg64
(lp3815
S':'
asbag57
(g78
g59
NtRp3816
(dp3817
g62
(dp3818
sg71
g3803
sg64
(lp3819
g57
(g58
g59
NtRp3820
(dp3821
g62
(dp3822
g70
I5
ssg71
g3816
sg64
(lp3823
S'None'
p3824
asbasbasbag57
(g73
g59
NtRp3825
(dp3826
g62
(dp3827
sg71
g3356
sg64
(lp3828
g57
(g78
g59
NtRp3829
(dp3830
g62
(dp3831
g82
g83
ssg71
g3825
sg64
(lp3832
S'last_query'
p3833
asbag57
(g78
g59
NtRp3834
(dp3835
g62
(dp3836
g89
g90
ssg71
g3825
sg64
(lp3837
S':'
asbag57
(g78
g59
NtRp3838
(dp3839
g62
(dp3840
sg71
g3825
sg64
(lp3841
g57
(g58
g59
NtRp3842
(dp3843
g62
(dp3844
g70
I5
ssg71
g3838
sg64
(lp3845
S'db.dislikedposts.id>0'
p3846
asbasbasbasbasbsS'etype'
p3847
S"<type 'exceptions.IndexError'>"
p3848
sS'date'
p3849
S'Tue Aug 27 19:48:57 2013'
p3850
sS'response'
p3851
g57
(g58
g59
NtRp3852
(dp3853
g62
(dp3854
sg64
(lp3855
g57
(g66
g59
NtRp3856
(dp3857
g62
(dp3858
g70
I5
ssg71
Nsg64
(lp3859
g57
(g73
g59
NtRp3860
(dp3861
g62
(dp3862
sg71
g3856
sg64
(lp3863
g57
(g78
g59
NtRp3864
(dp3865
g62
(dp3866
g82
g83
ssg71
g3860
sg64
(lp3867
g155
asbag57
(g78
g59
NtRp3868
(dp3869
g62
(dp3870
g89
g90
ssg71
g3860
sg64
(lp3871
S':'
asbag57
(g78
g59
NtRp3872
(dp3873
g62
(dp3874
sg71
g3860
sg64
(lp3875
g57
(g58
g59
NtRp3876
(dp3877
g62
(dp3878
g70
I5
ssg71
g3872
sg64
(lp3879
S'<cStringIO.StringO object at 0xad6332e0>'
p3880
asbasbasbag57
(g73
g59
NtRp3881
(dp3882
g62
(dp3883
sg71
g3856
sg64
(lp3884
g57
(g78
g59
NtRp3885
(dp3886
g62
(dp3887
g82
g83
ssg71
g3881
sg64
(lp3888
g243
asbag57
(g78
g59
NtRp3889
(dp3890
g62
(dp3891
g89
g90
ssg71
g3881
sg64
(lp3892
S':'
asbag57
(g78
g59
NtRp3893
(dp3894
g62
(dp3895
sg71
g3881
sg64
(lp3896
g57
(g58
g59
NtRp3897
(dp3898
g62
(dp3899
g70
I5
ssg71
g3893
sg64
(lp3900
g57
(g66
g59
NtRp3901
(dp3902
g62
(dp3903
g70
I4
ssg71
Nsg64
(lp3904
g57
(g73
g59
NtRp3905
(dp3906
g62
(dp3907
sg71
g3901
sg64
(lp3908
g57
(g78
g59
NtRp3909
(dp3910
g62
(dp3911
g82
g83
ssg71
g3905
sg64
(lp3912
S'session_id_assignment2'
p3913
asbag57
(g78
g59
NtRp3914
(dp3915
g62
(dp3916
g89
g90
ssg71
g3905
sg64
(lp3917
S':'
asbag57
(g78
g59
NtRp3918
(dp3919
g62
(dp3920
sg71
g3905
sg64
(lp3921
g57
(g58
g59
NtRp3922
(dp3923
g62
(dp3924
g70
I4
ssg71
g3918
sg64
(lp3925
g475
ag57
(g66
g59
NtRp3926
(dp3927
g62
(dp3928
g70
I3
ssg71
Nsg64
(lp3929
g57
(g73
g59
NtRp3930
(dp3931
g62
(dp3932
sg71
g3926
sg64
(lp3933
g57
(g78
g59
NtRp3934
(dp3935
g62
(dp3936
g82
g83
ssg71
g3930
sg64
(lp3937
g294
asbag57
(g78
g59
NtRp3938
(dp3939
g62
(dp3940
g89
g90
ssg71
g3930
sg64
(lp3941
S':'
asbag57
(g78
g59
NtRp3942
(dp3943
g62
(dp3944
sg71
g3930
sg64
(lp3945
g57
(g58
g59
NtRp3946
(dp3947
g62
(dp3948
g70
I3
ssg71
g3942
sg64
(lp3949
S''
asbasbasbag57
(g73
g59
NtRp3950
(dp3951
g62
(dp3952
sg71
g3926
sg64
(lp3953
g57
(g78
g59
NtRp3954
(dp3955
g62
(dp3956
g82
g83
ssg71
g3950
sg64
(lp3957
g315
asbag57
(g78
g59
NtRp3958
(dp3959
g62
(dp3960
g89
g90
ssg71
g3950
sg64
(lp3961
S':'
asbag57
(g78
g59
NtRp3962
(dp3963
g62
(dp3964
sg71
g3950
sg64
(lp3965
g57
(g58
g59
NtRp3966
(dp3967
g62
(dp3968
g70
I3
ssg71
g3962
sg64
(lp3969
S''
asbasbasbag57
(g73
g59
NtRp3970
(dp3971
g62
(dp3972
sg71
g3926
sg64
(lp3973
g57
(g78
g59
NtRp3974
(dp3975
g62
(dp3976
g82
g83
ssg71
g3970
sg64
(lp3977
g336
asbag57
(g78
g59
NtRp3978
(dp3979
g62
(dp3980
g89
g90
ssg71
g3970
sg64
(lp3981
S':'
asbag57
(g78
g59
NtRp3982
(dp3983
g62
(dp3984
sg71
g3970
sg64
(lp3985
g57
(g58
g59
NtRp3986
(dp3987
g62
(dp3988
g70
I3
ssg71
g3982
sg64
(lp3989
S''
asbasbasbag57
(g73
g59
NtRp3990
(dp3991
g62
(dp3992
sg71
g3926
sg64
(lp3993
g57
(g78
g59
NtRp3994
(dp3995
g62
(dp3996
g82
g83
ssg71
g3990
sg64
(lp3997
g357
asbag57
(g78
g59
NtRp3998
(dp3999
g62
(dp4000
g89
g90
ssg71
g3990
sg64
(lp4001
S':'
asbag57
(g78
g59
NtRp4002
(dp4003
g62
(dp4004
sg71
g3990
sg64
(lp4005
g57
(g58
g59
NtRp4006
(dp4007
g62
(dp4008
g70
I3
ssg71
g4002
sg64
(lp4009
S''
asbasbasbag57
(g73
g59
NtRp4010
(dp4011
g62
(dp4012
sg71
g3926
sg64
(lp4013
g57
(g78
g59
NtRp4014
(dp4015
g62
(dp4016
g82
g83
ssg71
g4010
sg64
(lp4017
g378
asbag57
(g78
g59
NtRp4018
(dp4019
g62
(dp4020
g89
g90
ssg71
g4010
sg64
(lp4021
S':'
asbag57
(g78
g59
NtRp4022
(dp4023
g62
(dp4024
sg71
g4010
sg64
(lp4025
g57
(g58
g59
NtRp4026
(dp4027
g62
(dp4028
g70
I3
ssg71
g4022
sg64
(lp4029
S''
asbasbasbag57
(g73
g59
NtRp4030
(dp4031
g62
(dp4032
sg71
g3926
sg64
(lp4033
g57
(g78
g59
NtRp4034
(dp4035
g62
(dp4036
g82
g83
ssg71
g4030
sg64
(lp4037
g399
asbag57
(g78
g59
NtRp4038
(dp4039
g62
(dp4040
g89
g90
ssg71
g4030
sg64
(lp4041
S':'
asbag57
(g78
g59
NtRp4042
(dp4043
g62
(dp4044
sg71
g4030
sg64
(lp4045
g57
(g58
g59
NtRp4046
(dp4047
g62
(dp4048
g70
I3
ssg71
g4042
sg64
(lp4049
S'/'
asbasbasbag57
(g73
g59
NtRp4050
(dp4051
g62
(dp4052
sg71
g3926
sg64
(lp4053
g57
(g78
g59
NtRp4054
(dp4055
g62
(dp4056
g82
g83
ssg71
g4050
sg64
(lp4057
g420
asbag57
(g78
g59
NtRp4058
(dp4059
g62
(dp4060
g89
g90
ssg71
g4050
sg64
(lp4061
S':'
asbag57
(g78
g59
NtRp4062
(dp4063
g62
(dp4064
sg71
g4050
sg64
(lp4065
g57
(g58
g59
NtRp4066
(dp4067
g62
(dp4068
g70
I3
ssg71
g4062
sg64
(lp4069
S''
asbasbasbag57
(g73
g59
NtRp4070
(dp4071
g62
(dp4072
sg71
g3926
sg64
(lp4073
g57
(g78
g59
NtRp4074
(dp4075
g62
(dp4076
g82
g83
ssg71
g4070
sg64
(lp4077
g441
asbag57
(g78
g59
NtRp4078
(dp4079
g62
(dp4080
g89
g90
ssg71
g4070
sg64
(lp4081
S':'
asbag57
(g78
g59
NtRp4082
(dp4083
g62
(dp4084
sg71
g4070
sg64
(lp4085
g57
(g58
g59
NtRp4086
(dp4087
g62
(dp4088
g70
I3
ssg71
g4082
sg64
(lp4089
S''
asbasbasbasbasbasbasbasbasbasbasbag57
(g73
g59
NtRp4090
(dp4091
g62
(dp4092
sg71
g3856
sg64
(lp4093
g57
(g78
g59
NtRp4094
(dp4095
g62
(dp4096
g82
g83
ssg71
g4090
sg64
(lp4097
S'delimiters'
p4098
asbag57
(g78
g59
NtRp4099
(dp4100
g62
(dp4101
g89
g90
ssg71
g4090
sg64
(lp4102
S':'
asbag57
(g78
g59
NtRp4103
(dp4104
g62
(dp4105
sg71
g4090
sg64
(lp4106
g57
(g58
g59
NtRp4107
(dp4108
g62
(dp4109
g70
I5
ssg71
g4103
sg64
(lp4110
g57
(g66
g59
NtRp4111
(dp4112
g62
(dp4113
g70
I4
ssg71
Nsg64
(lp4114
g57
(g73
g59
NtRp4115
(dp4116
g62
(dp4117
sg71
g4111
sg64
(lp4118
g57
(g78
g59
NtRp4119
(dp4120
g62
(dp4121
sg71
g4115
sg64
(lp4122
g57
(g58
g59
NtRp4123
(dp4124
g62
(dp4125
g70
I4
ssg71
g4119
sg64
(lp4126
S'{{'
p4127
asbasbasbag57
(g73
g59
NtRp4128
(dp4129
g62
(dp4130
sg71
g4111
sg64
(lp4131
g57
(g78
g59
NtRp4132
(dp4133
g62
(dp4134
sg71
g4128
sg64
(lp4135
g57
(g58
g59
NtRp4136
(dp4137
g62
(dp4138
g70
I4
ssg71
g4132
sg64
(lp4139
S'}}'
p4140
asbasbasbasbasbasbasbag57
(g73
g59
NtRp4141
(dp4142
g62
(dp4143
sg71
g3856
sg64
(lp4144
g57
(g78
g59
NtRp4145
(dp4146
g62
(dp4147
g82
g83
ssg71
g4141
sg64
(lp4148
S'files'
p4149
asbag57
(g78
g59
NtRp4150
(dp4151
g62
(dp4152
g89
g90
ssg71
g4141
sg64
(lp4153
S':'
asbag57
(g78
g59
NtRp4154
(dp4155
g62
(dp4156
sg71
g4141
sg64
(lp4157
g57
(g58
g59
NtRp4158
(dp4159
g62
(dp4160
g70
I5
ssg71
g4154
sg64
(lp4161
g57
(g66
g59
NtRp4162
(dp4163
g62
(dp4164
g70
I4
ssg71
Nsg64
(lp4165
sbasbasbasbag57
(g73
g59
NtRp4166
(dp4167
g62
(dp4168
sg71
g3856
sg64
(lp4169
g57
(g78
g59
NtRp4170
(dp4171
g62
(dp4172
g82
g83
ssg71
g4166
sg64
(lp4173
S'flash'
p4174
asbag57
(g78
g59
NtRp4175
(dp4176
g62
(dp4177
g89
g90
ssg71
g4166
sg64
(lp4178
S':'
asbag57
(g78
g59
NtRp4179
(dp4180
g62
(dp4181
sg71
g4166
sg64
(lp4182
g57
(g58
g59
NtRp4183
(dp4184
g62
(dp4185
g70
I5
ssg71
g4179
sg64
(lp4186
S''
asbasbasbag57
(g73
g59
NtRp4187
(dp4188
g62
(dp4189
sg71
g3856
sg64
(lp4190
g57
(g78
g59
NtRp4191
(dp4192
g62
(dp4193
g82
g83
ssg71
g4187
sg64
(lp4194
S'generic_patterns'
p4195
asbag57
(g78
g59
NtRp4196
(dp4197
g62
(dp4198
g89
g90
ssg71
g4187
sg64
(lp4199
S':'
asbag57
(g78
g59
NtRp4200
(dp4201
g62
(dp4202
sg71
g4187
sg64
(lp4203
g57
(g58
g59
NtRp4204
(dp4205
g62
(dp4206
g70
I5
ssg71
g4200
sg64
(lp4207
g57
(g66
g59
NtRp4208
(dp4209
g62
(dp4210
g70
I4
ssg71
Nsg64
(lp4211
g57
(g73
g59
NtRp4212
(dp4213
g62
(dp4214
sg71
g4208
sg64
(lp4215
g57
(g78
g59
NtRp4216
(dp4217
g62
(dp4218
sg71
g4212
sg64
(lp4219
g57
(g58
g59
NtRp4220
(dp4221
g62
(dp4222
g70
I4
ssg71
g4216
sg64
(lp4223
S'*'
asbasbasbasbasbasbasbag57
(g73
g59
NtRp4224
(dp4225
g62
(dp4226
sg71
g3856
sg64
(lp4227
g57
(g78
g59
NtRp4228
(dp4229
g62
(dp4230
g82
g83
ssg71
g4224
sg64
(lp4231
S'google_analytics_id'
p4232
asbag57
(g78
g59
NtRp4233
(dp4234
g62
(dp4235
g89
g90
ssg71
g4224
sg64
(lp4236
S':'
asbag57
(g78
g59
NtRp4237
(dp4238
g62
(dp4239
sg71
g4224
sg64
(lp4240
g57
(g58
g59
NtRp4241
(dp4242
g62
(dp4243
g70
I5
ssg71
g4237
sg64
(lp4244
S'None'
p4245
asbasbasbag57
(g73
g59
NtRp4246
(dp4247
g62
(dp4248
sg71
g3856
sg64
(lp4249
g57
(g78
g59
NtRp4250
(dp4251
g62
(dp4252
g82
g83
ssg71
g4246
sg64
(lp4253
S'headers'
p4254
asbag57
(g78
g59
NtRp4255
(dp4256
g62
(dp4257
g89
g90
ssg71
g4246
sg64
(lp4258
S':'
asbag57
(g78
g59
NtRp4259
(dp4260
g62
(dp4261
sg71
g4246
sg64
(lp4262
g57
(g58
g59
NtRp4263
(dp4264
g62
(dp4265
g70
I5
ssg71
g4259
sg64
(lp4266
g57
(g66
g59
NtRp4267
(dp4268
g62
(dp4269
g70
I4
ssg71
Nsg64
(lp4270
g57
(g73
g59
NtRp4271
(dp4272
g62
(dp4273
sg71
g4267
sg64
(lp4274
g57
(g78
g59
NtRp4275
(dp4276
g62
(dp4277
g82
g83
ssg71
g4271
sg64
(lp4278
S'X-Powered-By'
p4279
asbag57
(g78
g59
NtRp4280
(dp4281
g62
(dp4282
g89
g90
ssg71
g4271
sg64
(lp4283
S':'
asbag57
(g78
g59
NtRp4284
(dp4285
g62
(dp4286
sg71
g4271
sg64
(lp4287
g57
(g58
g59
NtRp4288
(dp4289
g62
(dp4290
g70
I4
ssg71
g4284
sg64
(lp4291
S'web2py'
p4292
asbasbasbasbasbasbasbag57
(g73
g59
NtRp4293
(dp4294
g62
(dp4295
sg71
g3856
sg64
(lp4296
g57
(g78
g59
NtRp4297
(dp4298
g62
(dp4299
g82
g83
ssg71
g4293
sg64
(lp4300
S'logo'
p4301
asbag57
(g78
g59
NtRp4302
(dp4303
g62
(dp4304
g89
g90
ssg71
g4293
sg64
(lp4305
S':'
asbag57
(g78
g59
NtRp4306
(dp4307
g62
(dp4308
sg71
g4293
sg64
(lp4309
g57
(g58
g59
NtRp4310
(dp4311
g62
(dp4312
g70
I5
ssg71
g4306
sg64
(lp4313
g57
(cgluon.html
A
p4314
g59
NtRp4315
(dp4316
g62
(dp4317
S'_class'
p4318
S'brand'
p4319
sS'_href'
p4320
S'http://www.web2py.com/'
p4321
ssg71
Nsg64
(lp4322
g57
(cgluon.html
B
p4323
g59
NtRp4324
(dp4325
g62
(dp4326
sg71
g4315
sg64
(lp4327
S'web'
p4328
ag57
(cgluon.html
SPAN
p4329
g59
NtRp4330
(dp4331
g62
(dp4332
sg71
g4324
sg64
(lp4333
I2
asbaS'py'
p4334
asbacgluon.html
XML_unpickle
p4335
(S's\r\x00\x00\x00&trade;&nbsp;'
tRp4336
asbasbasbasbag57
(g73
g59
NtRp4337
(dp4338
g62
(dp4339
sg71
g3856
sg64
(lp4340
g57
(g78
g59
NtRp4341
(dp4342
g62
(dp4343
g82
g83
ssg71
g4337
sg64
(lp4344
S'menu'
p4345
asbag57
(g78
g59
NtRp4346
(dp4347
g62
(dp4348
g89
g90
ssg71
g4337
sg64
(lp4349
S':'
asbag57
(g78
g59
NtRp4350
(dp4351
g62
(dp4352
sg71
g4337
sg64
(lp4353
g57
(g58
g59
NtRp4354
(dp4355
g62
(dp4356
g70
I5
ssg71
g4350
sg64
(lp4357
g57
(g66
g59
NtRp4358
(dp4359
g62
(dp4360
g70
I4
ssg71
Nsg64
(lp4361
g57
(g73
g59
NtRp4362
(dp4363
g62
(dp4364
sg71
g4358
sg64
(lp4365
g57
(g78
g59
NtRp4366
(dp4367
g62
(dp4368
sg71
g4362
sg64
(lp4369
g57
(g58
g59
NtRp4370
(dp4371
g62
(dp4372
g70
I4
ssg71
g4366
sg64
(lp4373
g57
(g66
g59
NtRp4374
(dp4375
g62
(dp4376
g70
I3
ssg71
Nsg64
(lp4377
g57
(g73
g59
NtRp4378
(dp4379
g62
(dp4380
sg71
g4374
sg64
(lp4381
g57
(g78
g59
NtRp4382
(dp4383
g62
(dp4384
sg71
g4378
sg64
(lp4385
g57
(g58
g59
NtRp4386
(dp4387
g62
(dp4388
g70
I3
ssg71
g4382
sg64
(lp4389
cgluon.languages
lazyT_unpickle
p4390
(S's\x04\x00\x00\x00Home'
tRp4391
asbasbasbag57
(g73
g59
NtRp4392
(dp4393
g62
(dp4394
sg71
g4374
sg64
(lp4395
g57
(g78
g59
NtRp4396
(dp4397
g62
(dp4398
sg71
g4392
sg64
(lp4399
g57
(g58
g59
NtRp4400
(dp4401
g62
(dp4402
g70
I3
ssg71
g4396
sg64
(lp4403
g100
asbasbasbag57
(g73
g59
NtRp4404
(dp4405
g62
(dp4406
sg71
g4374
sg64
(lp4407
g57
(g78
g59
NtRp4408
(dp4409
g62
(dp4410
sg71
g4404
sg64
(lp4411
g57
(g58
g59
NtRp4412
(dp4413
g62
(dp4414
g70
I3
ssg71
g4408
sg64
(lp4415
S'/assignment2/default/index'
p4416
asbasbasbag57
(g73
g59
NtRp4417
(dp4418
g62
(dp4419
sg71
g4374
sg64
(lp4420
g57
(g78
g59
NtRp4421
(dp4422
g62
(dp4423
sg71
g4417
sg64
(lp4424
g57
(g58
g59
NtRp4425
(dp4426
g62
(dp4427
g70
I3
ssg71
g4421
sg64
(lp4428
g57
(g66
g59
NtRp4429
(dp4430
g62
(dp4431
g70
I2
ssg71
Nsg64
(lp4432
sbasbasbasbasbasbasbasbag57
(g73
g59
NtRp4433
(dp4434
g62
(dp4435
sg71
g4358
sg64
(lp4436
g57
(g78
g59
NtRp4437
(dp4438
g62
(dp4439
sg71
g4433
sg64
(lp4440
g57
(g58
g59
NtRp4441
(dp4442
g62
(dp4443
g70
I4
ssg71
g4437
sg64
(lp4444
g57
(g66
g59
NtRp4445
(dp4446
g62
(dp4447
g70
I3
ssg71
Nsg64
(lp4448
g57
(g73
g59
NtRp4449
(dp4450
g62
(dp4451
sg71
g4445
sg64
(lp4452
g57
(g78
g59
NtRp4453
(dp4454
g62
(dp4455
sg71
g4449
sg64
(lp4456
g57
(g58
g59
NtRp4457
(dp4458
g62
(dp4459
g70
I3
ssg71
g4453
sg64
(lp4460
g57
(g4329
g59
NtRp4461
(dp4462
g62
(dp4463
g4318
S'highlighted'
p4464
ssg71
Nsg64
(lp4465
g4292
asbasbasbasbag57
(g73
g59
NtRp4466
(dp4467
g62
(dp4468
sg71
g4445
sg64
(lp4469
g57
(g78
g59
NtRp4470
(dp4471
g62
(dp4472
sg71
g4466
sg64
(lp4473
g57
(g58
g59
NtRp4474
(dp4475
g62
(dp4476
g70
I3
ssg71
g4470
sg64
(lp4477
g100
asbasbasbag57
(g73
g59
NtRp4478
(dp4479
g62
(dp4480
sg71
g4445
sg64
(lp4481
g57
(g78
g59
NtRp4482
(dp4483
g62
(dp4484
sg71
g4478
sg64
(lp4485
g57
(g58
g59
NtRp4486
(dp4487
g62
(dp4488
g70
I3
ssg71
g4482
sg64
(lp4489
S'http://web2py.com'
p4490
asbasbasbag57
(g73
g59
NtRp4491
(dp4492
g62
(dp4493
sg71
g4445
sg64
(lp4494
g57
(g78
g59
NtRp4495
(dp4496
g62
(dp4497
sg71
g4491
sg64
(lp4498
g57
(g58
g59
NtRp4499
(dp4500
g62
(dp4501
g70
I3
ssg71
g4495
sg64
(lp4502
g57
(g66
g59
NtRp4503
(dp4504
g62
(dp4505
g70
I2
ssg71
Nsg64
(lp4506
g57
(g73
g59
NtRp4507
(dp4508
g62
(dp4509
sg71
g4503
sg64
(lp4510
g57
(g78
g59
NtRp4511
(dp4512
g62
(dp4513
sg71
g4507
sg64
(lp4514
g57
(g58
g59
NtRp4515
(dp4516
g62
(dp4517
g70
I2
ssg71
g4511
sg64
(lp4518
g57
(g66
g59
NtRp4519
(dp4520
g62
(dp4521
g70
I1
ssg71
Nsg64
(lp4522
g57
(g73
g59
NtRp4523
(dp4524
g62
(dp4525
sg71
g4519
sg64
(lp4526
g57
(g78
g59
NtRp4527
(dp4528
g62
(dp4529
sg71
g4523
sg64
(lp4530
g57
(g58
g59
NtRp4531
(dp4532
g62
(dp4533
g70
I1
ssg71
g4527
sg64
(lp4534
g4390
(S's\x08\x00\x00\x00My Sites'
tRp4535
asbasbasbag57
(g73
g59
NtRp4536
(dp4537
g62
(dp4538
sg71
g4519
sg64
(lp4539
g57
(g78
g59
NtRp4540
(dp4541
g62
(dp4542
sg71
g4536
sg64
(lp4543
g57
(g58
g59
NtRp4544
(dp4545
g62
(dp4546
g70
I1
ssg71
g4540
sg64
(lp4547
I00
asbasbasbag57
(g73
g59
NtRp4548
(dp4549
g62
(dp4550
sg71
g4519
sg64
(lp4551
g57
(g78
g59
NtRp4552
(dp4553
g62
(dp4554
sg71
g4548
sg64
(lp4555
g57
(g58
g59
NtRp4556
(dp4557
g62
(dp4558
g70
I1
ssg71
g4552
sg64
(lp4559
S'/admin/default/site'
p4560
asbasbasbasbasbasbasbag57
(g73
g59
NtRp4561
(dp4562
g62
(dp4563
sg71
g4503
sg64
(lp4564
g57
(g78
g59
NtRp4565
(dp4566
g62
(dp4567
sg71
g4561
sg64
(lp4568
g57
(g58
g59
NtRp4569
(dp4570
g62
(dp4571
g70
I2
ssg71
g4565
sg64
(lp4572
g57
(g66
g59
NtRp4573
(dp4574
g62
(dp4575
g70
I1
ssg71
Nsg64
(lp4576
g57
(g73
g59
NtRp4577
(dp4578
g62
(dp4579
sg71
g4573
sg64
(lp4580
g57
(g78
g59
NtRp4581
(dp4582
g62
(dp4583
sg71
g4577
sg64
(lp4584
g57
(g58
g59
NtRp4585
(dp4586
g62
(dp4587
g70
I1
ssg71
g4581
sg64
(lp4588
g4390
(S's\x08\x00\x00\x00This App'
tRp4589
asbasbasbag57
(g73
g59
NtRp4590
(dp4591
g62
(dp4592
sg71
g4573
sg64
(lp4593
g57
(g78
g59
NtRp4594
(dp4595
g62
(dp4596
sg71
g4590
sg64
(lp4597
g57
(g58
g59
NtRp4598
(dp4599
g62
(dp4600
g70
I1
ssg71
g4594
sg64
(lp4601
I00
asbasbasbag57
(g73
g59
NtRp4602
(dp4603
g62
(dp4604
sg71
g4573
sg64
(lp4605
g57
(g78
g59
NtRp4606
(dp4607
g62
(dp4608
sg71
g4602
sg64
(lp4609
g57
(g58
g59
NtRp4610
(dp4611
g62
(dp4612
g70
I1
ssg71
g4606
sg64
(lp4613
S'/admin/default/design/assignment2'
p4614
asbasbasbag57
(g73
g59
NtRp4615
(dp4616
g62
(dp4617
sg71
g4573
sg64
(lp4618
g57
(g78
g59
NtRp4619
(dp4620
g62
(dp4621
sg71
g4615
sg64
(lp4622
g57
(g58
g59
NtRp4623
(dp4624
g62
(dp4625
g70
I1
ssg71
g4619
sg64
(lp4626
(lp4627
(g4390
(S's\n\x00\x00\x00Controller'
tRp4628
I00
S'/admin/default/edit/assignment2/controllers/default.py'
tp4629
a(g4390
(S's\x04\x00\x00\x00View'
tRp4630
I00
S'/admin/default/edit/assignment2/views/default/user_homepage.html'
tp4631
a(g4390
(S's\x06\x00\x00\x00Layout'
tRp4632
I00
S'/admin/default/edit/assignment2/views/layout.html'
tp4633
a(g4390
(S's\n\x00\x00\x00Stylesheet'
tRp4634
I00
S'/admin/default/edit/assignment2/static/css/web2py.css'
tp4635
a(g4390
(S's\x08\x00\x00\x00DB Model'
tRp4636
I00
S'/admin/default/edit/assignment2/models/db.py'
tp4637
a(g4390
(S's\n\x00\x00\x00Menu Model'
tRp4638
I00
S'/admin/default/edit/assignment2/models/menu.py'
tp4639
a(g4390
(S's\x08\x00\x00\x00Database'
tRp4640
I00
S'/assignment2/appadmin/index'
tp4641
a(g4390
(S's\x06\x00\x00\x00Errors'
tRp4642
I00
S'/admin/default/errors/assignment2'
tp4643
a(g4390
(S's\x05\x00\x00\x00About'
tRp4644
I00
S'/admin/default/about/assignment2'
tp4645
aasbasbasbasbasbasbasbag57
(g73
g59
NtRp4646
(dp4647
g62
(dp4648
sg71
g4503
sg64
(lp4649
g57
(g78
g59
NtRp4650
(dp4651
g62
(dp4652
sg71
g4646
sg64
(lp4653
g57
(g58
g59
NtRp4654
(dp4655
g62
(dp4656
g70
I2
ssg71
g4650
sg64
(lp4657
g57
(g66
g59
NtRp4658
(dp4659
g62
(dp4660
g70
I1
ssg71
Nsg64
(lp4661
g57
(g73
g59
NtRp4662
(dp4663
g62
(dp4664
sg71
g4658
sg64
(lp4665
g57
(g78
g59
NtRp4666
(dp4667
g62
(dp4668
sg71
g4662
sg64
(lp4669
g57
(g58
g59
NtRp4670
(dp4671
g62
(dp4672
g70
I1
ssg71
g4666
sg64
(lp4673
S'web2py.com'
p4674
asbasbasbag57
(g73
g59
NtRp4675
(dp4676
g62
(dp4677
sg71
g4658
sg64
(lp4678
g57
(g78
g59
NtRp4679
(dp4680
g62
(dp4681
sg71
g4675
sg64
(lp4682
g57
(g58
g59
NtRp4683
(dp4684
g62
(dp4685
g70
I1
ssg71
g4679
sg64
(lp4686
I00
asbasbasbag57
(g73
g59
NtRp4687
(dp4688
g62
(dp4689
sg71
g4658
sg64
(lp4690
g57
(g78
g59
NtRp4691
(dp4692
g62
(dp4693
sg71
g4687
sg64
(lp4694
g57
(g58
g59
NtRp4695
(dp4696
g62
(dp4697
g70
I1
ssg71
g4691
sg64
(lp4698
S'http://www.web2py.com'
p4699
asbasbasbag57
(g73
g59
NtRp4700
(dp4701
g62
(dp4702
sg71
g4658
sg64
(lp4703
g57
(g78
g59
NtRp4704
(dp4705
g62
(dp4706
sg71
g4700
sg64
(lp4707
g57
(g58
g59
NtRp4708
(dp4709
g62
(dp4710
g70
I1
ssg71
g4704
sg64
(lp4711
(lp4712
(g4390
(S's\x08\x00\x00\x00Download'
tRp4713
I00
S'http://www.web2py.com/examples/default/download'
p4714
tp4715
a(g4390
(S's\x07\x00\x00\x00Support'
tRp4716
I00
S'http://www.web2py.com/examples/default/support'
p4717
tp4718
a(g4390
(S's\x04\x00\x00\x00Demo'
tRp4719
I00
S'http://web2py.com/demo_admin'
p4720
tp4721
a(g4390
(S's\x0e\x00\x00\x00Quick Examples'
tRp4722
I00
S'http://web2py.com/examples/default/examples'
p4723
tp4724
a(g4390
(S's\x03\x00\x00\x00FAQ'
tRp4725
I00
S'http://web2py.com/AlterEgo'
p4726
tp4727
a(g4390
(S's\x06\x00\x00\x00Videos'
tRp4728
I00
S'http://www.web2py.com/examples/default/videos/'
p4729
tp4730
a(g4390
(S's\x11\x00\x00\x00Free Applications'
tRp4731
I00
S'http://web2py.com/appliances'
p4732
tp4733
a(g4390
(S's\x07\x00\x00\x00Plugins'
tRp4734
I00
S'http://web2py.com/plugins'
p4735
tp4736
a(g4390
(S's\x07\x00\x00\x00Layouts'
tRp4737
I00
S'http://web2py.com/layouts'
p4738
tp4739
a(g4390
(S's\x07\x00\x00\x00Recipes'
tRp4740
I00
S'http://web2pyslices.com/'
p4741
tp4742
a(g4390
(S's\x08\x00\x00\x00Semantic'
tRp4743
I00
S'http://web2py.com/semantic'
p4744
tp4745
aasbasbasbasbasbasbasbag57
(g73
g59
NtRp4746
(dp4747
g62
(dp4748
sg71
g4503
sg64
(lp4749
g57
(g78
g59
NtRp4750
(dp4751
g62
(dp4752
sg71
g4746
sg64
(lp4753
g57
(g58
g59
NtRp4754
(dp4755
g62
(dp4756
g70
I2
ssg71
g4750
sg64
(lp4757
g57
(g66
g59
NtRp4758
(dp4759
g62
(dp4760
g70
I1
ssg71
Nsg64
(lp4761
g57
(g73
g59
NtRp4762
(dp4763
g62
(dp4764
sg71
g4758
sg64
(lp4765
g57
(g78
g59
NtRp4766
(dp4767
g62
(dp4768
sg71
g4762
sg64
(lp4769
g57
(g58
g59
NtRp4770
(dp4771
g62
(dp4772
g70
I1
ssg71
g4766
sg64
(lp4773
g4390
(S's\r\x00\x00\x00Documentation'
tRp4774
asbasbasbag57
(g73
g59
NtRp4775
(dp4776
g62
(dp4777
sg71
g4758
sg64
(lp4778
g57
(g78
g59
NtRp4779
(dp4780
g62
(dp4781
sg71
g4775
sg64
(lp4782
g57
(g58
g59
NtRp4783
(dp4784
g62
(dp4785
g70
I1
ssg71
g4779
sg64
(lp4786
I00
asbasbasbag57
(g73
g59
NtRp4787
(dp4788
g62
(dp4789
sg71
g4758
sg64
(lp4790
g57
(g78
g59
NtRp4791
(dp4792
g62
(dp4793
sg71
g4787
sg64
(lp4794
g57
(g58
g59
NtRp4795
(dp4796
g62
(dp4797
g70
I1
ssg71
g4791
sg64
(lp4798
S'http://www.web2py.com/book'
p4799
asbasbasbag57
(g73
g59
NtRp4800
(dp4801
g62
(dp4802
sg71
g4758
sg64
(lp4803
g57
(g78
g59
NtRp4804
(dp4805
g62
(dp4806
sg71
g4800
sg64
(lp4807
g57
(g58
g59
NtRp4808
(dp4809
g62
(dp4810
g70
I1
ssg71
g4804
sg64
(lp4811
(lp4812
(g4390
(S's\x07\x00\x00\x00Preface'
tRp4813
I00
S'http://www.web2py.com/book/default/chapter/00'
p4814
tp4815
a(g4390
(S's\x0c\x00\x00\x00Introduction'
tRp4816
I00
S'http://www.web2py.com/book/default/chapter/01'
p4817
tp4818
a(g4390
(S's\x06\x00\x00\x00Python'
tRp4819
I00
S'http://www.web2py.com/book/default/chapter/02'
p4820
tp4821
a(g4390
(S's\x08\x00\x00\x00Overview'
tRp4822
I00
S'http://www.web2py.com/book/default/chapter/03'
p4823
tp4824
a(g4390
(S's\x08\x00\x00\x00The Core'
tRp4825
I00
S'http://www.web2py.com/book/default/chapter/04'
p4826
tp4827
a(g4390
(S's\t\x00\x00\x00The Views'
tRp4828
I00
S'http://www.web2py.com/book/default/chapter/05'
p4829
tp4830
a(g4390
(S's\x08\x00\x00\x00Database'
tRp4831
I00
S'http://www.web2py.com/book/default/chapter/06'
p4832
tp4833
a(g4390
(S's\x14\x00\x00\x00Forms and Validators'
tRp4834
I00
S'http://www.web2py.com/book/default/chapter/07'
p4835
tp4836
a(g4390
(S's\r\x00\x00\x00Email and SMS'
tRp4837
I00
S'http://www.web2py.com/book/default/chapter/08'
p4838
tp4839
a(g4390
(S's\x0e\x00\x00\x00Access Control'
tRp4840
I00
S'http://www.web2py.com/book/default/chapter/09'
p4841
tp4842
a(g4390
(S's\x08\x00\x00\x00Services'
tRp4843
I00
S'http://www.web2py.com/book/default/chapter/10'
p4844
tp4845
a(g4390
(S's\x0c\x00\x00\x00Ajax Recipes'
tRp4846
I00
S'http://www.web2py.com/book/default/chapter/11'
p4847
tp4848
a(g4390
(S's\x16\x00\x00\x00Components and Plugins'
tRp4849
I00
S'http://www.web2py.com/book/default/chapter/12'
p4850
tp4851
a(g4390
(S's\x12\x00\x00\x00Deployment Recipes'
tRp4852
I00
S'http://www.web2py.com/book/default/chapter/13'
p4853
tp4854
a(g4390
(S's\r\x00\x00\x00Other Recipes'
tRp4855
I00
S'http://www.web2py.com/book/default/chapter/14'
p4856
tp4857
a(g4390
(S's\r\x00\x00\x00Buy this book'
tRp4858
I00
S'http://stores.lulu.com/web2py'
p4859
tp4860
aasbasbasbasbasbasbasbag57
(g73
g59
NtRp4861
(dp4862
g62
(dp4863
sg71
g4503
sg64
(lp4864
g57
(g78
g59
NtRp4865
(dp4866
g62
(dp4867
sg71
g4861
sg64
(lp4868
g57
(g58
g59
NtRp4869
(dp4870
g62
(dp4871
g70
I2
ssg71
g4865
sg64
(lp4872
g57
(g66
g59
NtRp4873
(dp4874
g62
(dp4875
g70
I1
ssg71
Nsg64
(lp4876
g57
(g73
g59
NtRp4877
(dp4878
g62
(dp4879
sg71
g4873
sg64
(lp4880
g57
(g78
g59
NtRp4881
(dp4882
g62
(dp4883
sg71
g4877
sg64
(lp4884
g57
(g58
g59
NtRp4885
(dp4886
g62
(dp4887
g70
I1
ssg71
g4881
sg64
(lp4888
g4390
(S's\t\x00\x00\x00Community'
tRp4889
asbasbasbag57
(g73
g59
NtRp4890
(dp4891
g62
(dp4892
sg71
g4873
sg64
(lp4893
g57
(g78
g59
NtRp4894
(dp4895
g62
(dp4896
sg71
g4890
sg64
(lp4897
g57
(g58
g59
NtRp4898
(dp4899
g62
(dp4900
g70
I1
ssg71
g4894
sg64
(lp4901
I00
asbasbasbag57
(g73
g59
NtRp4902
(dp4903
g62
(dp4904
sg71
g4873
sg64
(lp4905
g57
(g78
g59
NtRp4906
(dp4907
g62
(dp4908
sg71
g4902
sg64
(lp4909
g57
(g58
g59
NtRp4910
(dp4911
g62
(dp4912
g70
I1
ssg71
g4906
sg64
(lp4913
Nasbasbasbag57
(g73
g59
NtRp4914
(dp4915
g62
(dp4916
sg71
g4873
sg64
(lp4917
g57
(g78
g59
NtRp4918
(dp4919
g62
(dp4920
sg71
g4914
sg64
(lp4921
g57
(g58
g59
NtRp4922
(dp4923
g62
(dp4924
g70
I1
ssg71
g4918
sg64
(lp4925
(lp4926
(g4390
(S's\x06\x00\x00\x00Groups'
tRp4927
I00
S'http://www.web2py.com/examples/default/usergroups'
p4928
tp4929
a(g4390
(S's\x07\x00\x00\x00Twitter'
tRp4930
I00
S'http://twitter.com/web2py'
p4931
tp4932
a(g4390
(S's\t\x00\x00\x00Live Chat'
tRp4933
I00
S'http://webchat.freenode.net/?channels=web2py'
p4934
tp4935
aasbasbasbasbasbasbasbag57
(g73
g59
NtRp4936
(dp4937
g62
(dp4938
sg71
g4503
sg64
(lp4939
g57
(g78
g59
NtRp4940
(dp4941
g62
(dp4942
sg71
g4936
sg64
(lp4943
g57
(g58
g59
NtRp4944
(dp4945
g62
(dp4946
g70
I2
ssg71
g4940
sg64
(lp4947
g57
(g66
g59
NtRp4948
(dp4949
g62
(dp4950
g70
I1
ssg71
Nsg64
(lp4951
g57
(g73
g59
NtRp4952
(dp4953
g62
(dp4954
sg71
g4948
sg64
(lp4955
g57
(g78
g59
NtRp4956
(dp4957
g62
(dp4958
sg71
g4952
sg64
(lp4959
g57
(g58
g59
NtRp4960
(dp4961
g62
(dp4962
g70
I1
ssg71
g4956
sg64
(lp4963
g4390
(S's\x07\x00\x00\x00Plugins'
tRp4964
asbasbasbag57
(g73
g59
NtRp4965
(dp4966
g62
(dp4967
sg71
g4948
sg64
(lp4968
g57
(g78
g59
NtRp4969
(dp4970
g62
(dp4971
sg71
g4965
sg64
(lp4972
g57
(g58
g59
NtRp4973
(dp4974
g62
(dp4975
g70
I1
ssg71
g4969
sg64
(lp4976
I00
asbasbasbag57
(g73
g59
NtRp4977
(dp4978
g62
(dp4979
sg71
g4948
sg64
(lp4980
g57
(g78
g59
NtRp4981
(dp4982
g62
(dp4983
sg71
g4977
sg64
(lp4984
g57
(g58
g59
NtRp4985
(dp4986
g62
(dp4987
g70
I1
ssg71
g4981
sg64
(lp4988
Nasbasbasbag57
(g73
g59
NtRp4989
(dp4990
g62
(dp4991
sg71
g4948
sg64
(lp4992
g57
(g78
g59
NtRp4993
(dp4994
g62
(dp4995
sg71
g4989
sg64
(lp4996
g57
(g58
g59
NtRp4997
(dp4998
g62
(dp4999
g70
I1
ssg71
g4993
sg64
(lp5000
(lp5001
(S'plugin_wiki'
p5002
I00
S'http://web2py.com/examples/default/download'
p5003
tp5004
a(g4390
(S's\r\x00\x00\x00Other Plugins'
tRp5005
I00
g4735
tp5006
a(g4390
(S's\x0e\x00\x00\x00Layout Plugins'
tRp5007
I00
g4738
tp5008
aasbasbasbasbasbasbasbasbasbasbasbasbasbasbasbasbasbasbasbag57
(g73
g59
NtRp5009
(dp5010
g62
(dp5011
sg71
g3856
sg64
(lp5012
g57
(g78
g59
NtRp5013
(dp5014
g62
(dp5015
g82
g83
ssg71
g5009
sg64
(lp5016
S'meta'
p5017
asbag57
(g78
g59
NtRp5018
(dp5019
g62
(dp5020
g89
g90
ssg71
g5009
sg64
(lp5021
S':'
asbag57
(g78
g59
NtRp5022
(dp5023
g62
(dp5024
sg71
g5009
sg64
(lp5025
g57
(g58
g59
NtRp5026
(dp5027
g62
(dp5028
g70
I5
ssg71
g5022
sg64
(lp5029
g57
(g66
g59
NtRp5030
(dp5031
g62
(dp5032
g70
I4
ssg71
Nsg64
(lp5033
g57
(g73
g59
NtRp5034
(dp5035
g62
(dp5036
sg71
g5030
sg64
(lp5037
g57
(g78
g59
NtRp5038
(dp5039
g62
(dp5040
g82
g83
ssg71
g5034
sg64
(lp5041
S'author'
p5042
asbag57
(g78
g59
NtRp5043
(dp5044
g62
(dp5045
g89
g90
ssg71
g5034
sg64
(lp5046
S':'
asbag57
(g78
g59
NtRp5047
(dp5048
g62
(dp5049
sg71
g5034
sg64
(lp5050
g57
(g58
g59
NtRp5051
(dp5052
g62
(dp5053
g70
I4
ssg71
g5047
sg64
(lp5054
S'Your Name <you@example.com>'
p5055
asbasbasbag57
(g73
g59
NtRp5056
(dp5057
g62
(dp5058
sg71
g5030
sg64
(lp5059
g57
(g78
g59
NtRp5060
(dp5061
g62
(dp5062
g82
g83
ssg71
g5056
sg64
(lp5063
S'description'
p5064
asbag57
(g78
g59
NtRp5065
(dp5066
g62
(dp5067
g89
g90
ssg71
g5056
sg64
(lp5068
S':'
asbag57
(g78
g59
NtRp5069
(dp5070
g62
(dp5071
sg71
g5056
sg64
(lp5072
g57
(g58
g59
NtRp5073
(dp5074
g62
(dp5075
g70
I4
ssg71
g5069
sg64
(lp5076
S'a cool new app'
p5077
asbasbasbag57
(g73
g59
NtRp5078
(dp5079
g62
(dp5080
sg71
g5030
sg64
(lp5081
g57
(g78
g59
NtRp5082
(dp5083
g62
(dp5084
g82
g83
ssg71
g5078
sg64
(lp5085
S'generator'
p5086
asbag57
(g78
g59
NtRp5087
(dp5088
g62
(dp5089
g89
g90
ssg71
g5078
sg64
(lp5090
S':'
asbag57
(g78
g59
NtRp5091
(dp5092
g62
(dp5093
sg71
g5078
sg64
(lp5094
g57
(g58
g59
NtRp5095
(dp5096
g62
(dp5097
g70
I4
ssg71
g5091
sg64
(lp5098
S'Web2py Web Framework'
p5099
asbasbasbag57
(g73
g59
NtRp5100
(dp5101
g62
(dp5102
sg71
g5030
sg64
(lp5103
g57
(g78
g59
NtRp5104
(dp5105
g62
(dp5106
g82
g83
ssg71
g5100
sg64
(lp5107
S'keywords'
p5108
asbag57
(g78
g59
NtRp5109
(dp5110
g62
(dp5111
g89
g90
ssg71
g5100
sg64
(lp5112
S':'
asbag57
(g78
g59
NtRp5113
(dp5114
g62
(dp5115
sg71
g5100
sg64
(lp5116
g57
(g58
g59
NtRp5117
(dp5118
g62
(dp5119
g70
I4
ssg71
g5113
sg64
(lp5120
S'web2py, python, framework'
p5121
asbasbasbasbasbasbasbag57
(g73
g59
NtRp5122
(dp5123
g62
(dp5124
sg71
g3856
sg64
(lp5125
g57
(g78
g59
NtRp5126
(dp5127
g62
(dp5128
g82
g83
ssg71
g5122
sg64
(lp5129
S'models_to_run'
p5130
asbag57
(g78
g59
NtRp5131
(dp5132
g62
(dp5133
g89
g90
ssg71
g5122
sg64
(lp5134
S':'
asbag57
(g78
g59
NtRp5135
(dp5136
g62
(dp5137
sg71
g5122
sg64
(lp5138
g57
(g58
g59
NtRp5139
(dp5140
g62
(dp5141
g70
I5
ssg71
g5135
sg64
(lp5142
g57
(g66
g59
NtRp5143
(dp5144
g62
(dp5145
g70
I4
ssg71
Nsg64
(lp5146
g57
(g73
g59
NtRp5147
(dp5148
g62
(dp5149
sg71
g5143
sg64
(lp5150
g57
(g78
g59
NtRp5151
(dp5152
g62
(dp5153
sg71
g5147
sg64
(lp5154
g57
(g58
g59
NtRp5155
(dp5156
g62
(dp5157
g70
I4
ssg71
g5151
sg64
(lp5158
S'^\\w+\\.py$'
p5159
asbasbasbag57
(g73
g59
NtRp5160
(dp5161
g62
(dp5162
sg71
g5143
sg64
(lp5163
g57
(g78
g59
NtRp5164
(dp5165
g62
(dp5166
sg71
g5160
sg64
(lp5167
g57
(g58
g59
NtRp5168
(dp5169
g62
(dp5170
g70
I4
ssg71
g5164
sg64
(lp5171
S'^default/\\w+\\.py$'
p5172
asbasbasbag57
(g73
g59
NtRp5173
(dp5174
g62
(dp5175
sg71
g5143
sg64
(lp5176
g57
(g78
g59
NtRp5177
(dp5178
g62
(dp5179
sg71
g5173
sg64
(lp5180
g57
(g58
g59
NtRp5181
(dp5182
g62
(dp5183
g70
I4
ssg71
g5177
sg64
(lp5184
S'^default/user_homepage/\\w+\\.py$'
p5185
asbasbasbasbasbasbasbag57
(g73
g59
NtRp5186
(dp5187
g62
(dp5188
sg71
g3856
sg64
(lp5189
g57
(g78
g59
NtRp5190
(dp5191
g62
(dp5192
g82
g83
ssg71
g5186
sg64
(lp5193
S'postprocessing'
p5194
asbag57
(g78
g59
NtRp5195
(dp5196
g62
(dp5197
g89
g90
ssg71
g5186
sg64
(lp5198
S':'
asbag57
(g78
g59
NtRp5199
(dp5200
g62
(dp5201
sg71
g5186
sg64
(lp5202
g57
(g58
g59
NtRp5203
(dp5204
g62
(dp5205
g70
I5
ssg71
g5199
sg64
(lp5206
g57
(g66
g59
NtRp5207
(dp5208
g62
(dp5209
g70
I4
ssg71
Nsg64
(lp5210
sbasbasbasbag57
(g73
g59
NtRp5211
(dp5212
g62
(dp5213
sg71
g3856
sg64
(lp5214
g57
(g78
g59
NtRp5215
(dp5216
g62
(dp5217
g82
g83
ssg71
g5211
sg64
(lp5218
S'session_cookie_expires'
p5219
asbag57
(g78
g59
NtRp5220
(dp5221
g62
(dp5222
g89
g90
ssg71
g5211
sg64
(lp5223
S':'
asbag57
(g78
g59
NtRp5224
(dp5225
g62
(dp5226
sg71
g5211
sg64
(lp5227
g57
(g58
g59
NtRp5228
(dp5229
g62
(dp5230
g70
I5
ssg71
g5224
sg64
(lp5231
S'None'
p5232
asbasbasbag57
(g73
g59
NtRp5233
(dp5234
g62
(dp5235
sg71
g3856
sg64
(lp5236
g57
(g78
g59
NtRp5237
(dp5238
g62
(dp5239
g82
g83
ssg71
g5233
sg64
(lp5240
S'session_data_name'
p5241
asbag57
(g78
g59
NtRp5242
(dp5243
g62
(dp5244
g89
g90
ssg71
g5233
sg64
(lp5245
S':'
asbag57
(g78
g59
NtRp5246
(dp5247
g62
(dp5248
sg71
g5233
sg64
(lp5249
g57
(g58
g59
NtRp5250
(dp5251
g62
(dp5252
g70
I5
ssg71
g5246
sg64
(lp5253
S'session_data_assignment2'
p5254
asbasbasbag57
(g73
g59
NtRp5255
(dp5256
g62
(dp5257
sg71
g3856
sg64
(lp5258
g57
(g78
g59
NtRp5259
(dp5260
g62
(dp5261
g82
g83
ssg71
g5255
sg64
(lp5262
S'session_file'
p5263
asbag57
(g78
g59
NtRp5264
(dp5265
g62
(dp5266
g89
g90
ssg71
g5255
sg64
(lp5267
S':'
asbag57
(g78
g59
NtRp5268
(dp5269
g62
(dp5270
sg71
g5255
sg64
(lp5271
g57
(g58
g59
NtRp5272
(dp5273
g62
(dp5274
g70
I5
ssg71
g5268
sg64
(lp5275
S"<open file '/home/aditi/Desktop/web2py/applications/assignment2/sessions/127.0.0.1-f901c239-914d-4817-baae-ae5793bf884f', mode 'rb+' at 0xa103758>"
p5276
asbasbasbag57
(g73
g59
NtRp5277
(dp5278
g62
(dp5279
sg71
g3856
sg64
(lp5280
g57
(g78
g59
NtRp5281
(dp5282
g62
(dp5283
g82
g83
ssg71
g5277
sg64
(lp5284
S'session_filename'
p5285
asbag57
(g78
g59
NtRp5286
(dp5287
g62
(dp5288
g89
g90
ssg71
g5277
sg64
(lp5289
S':'
asbag57
(g78
g59
NtRp5290
(dp5291
g62
(dp5292
sg71
g5277
sg64
(lp5293
g57
(g58
g59
NtRp5294
(dp5295
g62
(dp5296
g70
I5
ssg71
g5290
sg64
(lp5297
S'/home/aditi/Desktop/web2py/applications/assignment2/sessions/127.0.0.1-f901c239-914d-4817-baae-ae5793bf884f'
p5298
asbasbasbag57
(g73
g59
NtRp5299
(dp5300
g62
(dp5301
sg71
g3856
sg64
(lp5302
g57
(g78
g59
NtRp5303
(dp5304
g62
(dp5305
g82
g83
ssg71
g5299
sg64
(lp5306
S'session_id'
p5307
asbag57
(g78
g59
NtRp5308
(dp5309
g62
(dp5310
g89
g90
ssg71
g5299
sg64
(lp5311
S':'
asbag57
(g78
g59
NtRp5312
(dp5313
g62
(dp5314
sg71
g5299
sg64
(lp5315
g57
(g58
g59
NtRp5316
(dp5317
g62
(dp5318
g70
I5
ssg71
g5312
sg64
(lp5319
g475
asbasbasbag57
(g73
g59
NtRp5320
(dp5321
g62
(dp5322
sg71
g3856
sg64
(lp5323
g57
(g78
g59
NtRp5324
(dp5325
g62
(dp5326
g82
g83
ssg71
g5320
sg64
(lp5327
S'session_id_name'
p5328
asbag57
(g78
g59
NtRp5329
(dp5330
g62
(dp5331
g89
g90
ssg71
g5320
sg64
(lp5332
S':'
asbag57
(g78
g59
NtRp5333
(dp5334
g62
(dp5335
sg71
g5320
sg64
(lp5336
g57
(g58
g59
NtRp5337
(dp5338
g62
(dp5339
g70
I5
ssg71
g5333
sg64
(lp5340
g3913
asbasbasbag57
(g73
g59
NtRp5341
(dp5342
g62
(dp5343
sg71
g3856
sg64
(lp5344
g57
(g78
g59
NtRp5345
(dp5346
g62
(dp5347
g82
g83
ssg71
g5341
sg64
(lp5348
S'session_locked'
p5349
asbag57
(g78
g59
NtRp5350
(dp5351
g62
(dp5352
g89
g90
ssg71
g5341
sg64
(lp5353
S':'
asbag57
(g78
g59
NtRp5354
(dp5355
g62
(dp5356
sg71
g5341
sg64
(lp5357
g57
(g58
g59
NtRp5358
(dp5359
g62
(dp5360
g70
I5
ssg71
g5354
sg64
(lp5361
g1804
asbasbasbag57
(g73
g59
NtRp5362
(dp5363
g62
(dp5364
sg71
g3856
sg64
(lp5365
g57
(g78
g59
NtRp5366
(dp5367
g62
(dp5368
g82
g83
ssg71
g5362
sg64
(lp5369
S'session_new'
p5370
asbag57
(g78
g59
NtRp5371
(dp5372
g62
(dp5373
g89
g90
ssg71
g5362
sg64
(lp5374
S':'
asbag57
(g78
g59
NtRp5375
(dp5376
g62
(dp5377
sg71
g5362
sg64
(lp5378
g57
(g58
g59
NtRp5379
(dp5380
g62
(dp5381
g70
I5
ssg71
g5375
sg64
(lp5382
g100
asbasbasbag57
(g73
g59
NtRp5383
(dp5384
g62
(dp5385
sg71
g3856
sg64
(lp5386
g57
(g78
g59
NtRp5387
(dp5388
g62
(dp5389
g82
g83
ssg71
g5383
sg64
(lp5390
S'session_storage_type'
p5391
asbag57
(g78
g59
NtRp5392
(dp5393
g62
(dp5394
g89
g90
ssg71
g5383
sg64
(lp5395
S':'
asbag57
(g78
g59
NtRp5396
(dp5397
g62
(dp5398
sg71
g5383
sg64
(lp5399
g57
(g58
g59
NtRp5400
(dp5401
g62
(dp5402
g70
I5
ssg71
g5396
sg64
(lp5403
g3268
asbasbasbag57
(g73
g59
NtRp5404
(dp5405
g62
(dp5406
sg71
g3856
sg64
(lp5407
g57
(g78
g59
NtRp5408
(dp5409
g62
(dp5410
g82
g83
ssg71
g5404
sg64
(lp5411
S'status'
p5412
asbag57
(g78
g59
NtRp5413
(dp5414
g62
(dp5415
g89
g90
ssg71
g5404
sg64
(lp5416
S':'
asbag57
(g78
g59
NtRp5417
(dp5418
g62
(dp5419
sg71
g5404
sg64
(lp5420
g57
(g58
g59
NtRp5421
(dp5422
g62
(dp5423
g70
I5
ssg71
g5417
sg64
(lp5424
S'200'
p5425
asbasbasbag57
(g73
g59
NtRp5426
(dp5427
g62
(dp5428
sg71
g3856
sg64
(lp5429
g57
(g78
g59
NtRp5430
(dp5431
g62
(dp5432
g82
g83
ssg71
g5426
sg64
(lp5433
S'subtitle'
p5434
asbag57
(g78
g59
NtRp5435
(dp5436
g62
(dp5437
g89
g90
ssg71
g5426
sg64
(lp5438
S':'
asbag57
(g78
g59
NtRp5439
(dp5440
g62
(dp5441
sg71
g5426
sg64
(lp5442
g57
(g58
g59
NtRp5443
(dp5444
g62
(dp5445
g70
I5
ssg71
g5439
sg64
(lp5446
g4390
(S's\r\x00\x00\x00customize me!'
tRp5447
asbasbasbag57
(g73
g59
NtRp5448
(dp5449
g62
(dp5450
sg71
g3856
sg64
(lp5451
g57
(g78
g59
NtRp5452
(dp5453
g62
(dp5454
g82
g83
ssg71
g5448
sg64
(lp5455
S'title'
p5456
asbag57
(g78
g59
NtRp5457
(dp5458
g62
(dp5459
g89
g90
ssg71
g5448
sg64
(lp5460
S':'
asbag57
(g78
g59
NtRp5461
(dp5462
g62
(dp5463
sg71
g5448
sg64
(lp5464
g57
(g58
g59
NtRp5465
(dp5466
g62
(dp5467
g70
I5
ssg71
g5461
sg64
(lp5468
S'Assignment2'
p5469
asbasbasbag57
(g73
g59
NtRp5470
(dp5471
g62
(dp5472
sg71
g3856
sg64
(lp5473
g57
(g78
g59
NtRp5474
(dp5475
g62
(dp5476
g82
g83
ssg71
g5470
sg64
(lp5477
S'view'
p5478
asbag57
(g78
g59
NtRp5479
(dp5480
g62
(dp5481
g89
g90
ssg71
g5470
sg64
(lp5482
S':'
asbag57
(g78
g59
NtRp5483
(dp5484
g62
(dp5485
sg71
g5470
sg64
(lp5486
g57
(g58
g59
NtRp5487
(dp5488
g62
(dp5489
g70
I5
ssg71
g5483
sg64
(lp5490
S'default/user_homepage.html'
p5491
asbasbasbasbasbsS'locals'
p5492
(dp5493
S'count'
p5494
S'1'
sS'a'
S'3'
sS'c'
S'<Rows (2)>'
p5495
sS'j'
S'2'
sS'temp'
p5496
S"['computer science', 'india']"
p5497
sS'form'
p5498
S'<gluon.sqlhtml.SQLFORM object>'
p5499
sS'f'
S'<Rows (1)>'
p5500
sS'i'
S'0'
sS'totaldislike'
p5501
S'[]'
p5502
sS'l'
S'<Rows (1)>'
p5503
sS'n'
S'<Rows (3)>'
p5504
sS'p'
S'5'
sS'totallike'
p5505
S'[]'
p5506
sS'likeform'
p5507
S'[<gluon.sqlhtml.SQLFORM object>, <gluon.sqlhtml.SQLFORM object>]'
p5508
sS'dislikeform'
p5509
S'[<gluon.sqlhtml.SQLFORM object>, <gluon.sqlhtml.SQLFORM object>]'
p5510
sS'deleteform'
p5511
S'[<gluon.sqlhtml.SQLFORM object>]'
p5512
sS'editform'
p5513
S'[<gluon.sqlhtml.SQLFORM object>]'
p5514
sssS'traceback'
p5515
S'Traceback (most recent call last):\n  File "/home/aditi/Desktop/web2py/gluon/restricted.py", line 212, in restricted\n    exec ccode in environment\n  File "/home/aditi/Desktop/web2py/applications/assignment2/controllers/default.py", line 263, in <module>\n  File "/home/aditi/Desktop/web2py/gluon/globals.py", line 193, in <lambda>\n    self._caller = lambda f: f()\n  File "/home/aditi/Desktop/web2py/applications/assignment2/controllers/default.py", line 65, in user_homepage\n    if deleteform[count].process(formname=\'deleteform[%d]\'%count).accepted:\nIndexError: list index out of range\n'
p5516
s.