(dp1
S'output'
p2
S"<type 'exceptions.SyntaxError'> Field dislikes does not belong to the table"
p3
sS'layer'
p4
S'/home/aditi/Desktop/web2py/applications/assignment2/controllers/default.py'
p5
sS'code'
p6
S'# -*- coding: utf-8 -*-\n# this file is released under public domain and you can use without limitations\n\n#########################################################################\n## This is a samples controller\n## - index is the default action of any application\n## - user is required for authentication and authorization\n## - download is for downloading files uploaded in the db (does streaming)\n## - call exposes all registered services (none by default)\n#########################################################################\nimport datetime\n\n@auth.requires_login()\ndef index():\n    """\n    example action using the internationalization operator T and flash\n    rendered by views/default/index.html or views/generic.html\n\n    if you need a simple wiki simple replace the two lines below with:\n    return auth.wiki()\n    """\n    a=auth.user.id\n    b=db(db.auth_user.id==a).select(db.auth_user.username,db.auth_user.account_type)\n    if b[0][\'account_type\']==\'user\':\n        redirect(URL(r=request,f=\'user_homepage\'))\n    elif b[0][\'account_type\']==\'admin\':\n        redirect(URL(r=request,f=\'intermediate\'))\n    else:\n        response.flash="You may not be having an account"\n    return locals()\n\ndef user_homepage():\n    a=auth.user.id\n    f=db(db.auth_user.id==a).select(db.auth_user.first_name)\n    l=db(db.auth_user.id==a).select(db.auth_user.last_name)\n    c=db().select(db.category.name)\n    temp=[]\n    for i in range(len(c)):\n        temp.append(c[i][\'name\'])\n    form=SQLFORM.factory(db.Field(\'category\',\'string\',requires=IS_IN_SET(temp),required=True,label=\'Enter category\'),\n                        Field(\'heading\',\'string\',label=\'Enter heading\',required=True),\n                        Field(\'choice\',\'string\',requires=IS_IN_SET([\'article\',\'video\']),required=True,default=\'article\'),\n                        Field(\'url\',\'string\',requires=IS_URL(),label=\'Enter URL\',required=True))\n    if(form.accepts(request.vars,session)):\n        db.newsitem.insert(userid=a,category=form.vars.category,choice=form.vars.choice,heading=form.vars.heading,url=form.vars.url,points=100,likes=0,dislikes=0,dt=datetime.datetime.today())\n        response.flash=\'News item successfully added\'\n        redirect(URL(r=request,f=\'user_homepage\'))\n    n=db().select(db.newsitem.ALL,orderby=~db.newsitem.points)\n    deleteform=[]\n    editform=[]\n    likeform=[]\n    dislikeform=[]\n    totallike=[]\n    totaldislike=[]\n    dislikes=[]\n    likes=[]\n    commentform=[]\n    for j in range(len(n)):\n        p=n[j][\'id\']\n        likes.append(0)\n        dislikes.append(0)\n        L=db(db.likedposts.postid==p).select(db.likedposts.userid)\n        D=db(db.dislikedposts.postid==p).select(db.dislikedposts.userid)\n        for k in range(len(L)):\n            likes[j]+=1\n        for k in range(len(D)):\n            dislikes[j]+=1\n        if n[j][\'userid\']==a:\n            deleteform.append(SQLFORM.factory(submit_button="Delete post"))\n            if deleteform[j].process(formname=\'deleteform[%d]\' % j).accepted:\n                db(db.newsitem.id==p).delete()\n                db(db.likedposts.postid==p).delete()\n                db(db.dislikedposts.postid==p).delete()\n                db(db.comments.postid==p).delete()\n                redirect(URL(r=request,f=\'user_homepage\'))\n                response.flash="Successfully deleted post"\n            editform.append(SQLFORM.factory(submit_button="Edit post"))\n            likeform.append(SQLFORM.factory(submit_button="Like post"))\n            dislikeform.append(SQLFORM.factory(submit_button="Dislike post"))\n            commentform.append(SQLFORM.factory(db.Field(\'cmt\',\'string\',required=True,label=\'Comment\'),\n                                submit_button="Post comment"))\n            if editform[j].process(formname=\'editform[%d]\'%j).accepted:\n                redirect(URL(r=request,f=\'changedetails?id=%d\'%p))\n            if likeform[j].process(formname=\'likeform[%d]\'%j).accepted:\n                flag=0\n                lk=db(db.likedposts.postid==p).select(db.likedposts.ALL)\n                dlk=db(db.dislikedposts.postid==p).select(db.dislikedposts.ALL)\n                for k in range(len(lk)):\n                    if lk[k][\'userid\']==a and lk[k][\'postid\']==p:\n                        flag=1\n                        likes[j]-=1\n                        db(db.likedposts.id==lk[k][\'id\']).delete()\n                        db(db.newsitem.id==p).update(points=100+(5*likes[j])-(3*dislikes[j]))\n                for k in range(len(dlk)):\n                    if dlk[k][\'userid\']==a and dlk[k][\'postid\']==p:\n                        flag=1\n                        db.likedposts.insert(userid=a,postid=p)\n                        pt=db(db.newsitem.id==p).select(db.newsitem.points)\n                        db(db.dislikedposts.id==dlk[k][\'id\']).delete()\n                        response.flash="Successfully liked post"\n                        likes[j]+=1\n                        dislikes[j]-=1\n                        db(db.newsitem.id==p).update(points=100+(5*likes[j])-(3*dislikes[j]))\n                        redirect(URL(r=request,f=\'user_homepage\'))\n                if flag==0:\n                    db.likedposts.insert(userid=a,postid=p)\n                    pt=db(db.newsitem.id==p).select(db.newsitem.points)\n                    pts=pt[0][\'points\']\n                    likes[j]+=1\n                    db(db.newsitem.id==p).update(points=100+(5*likes[j])-(3*dislikes[j]))\n                    response.flash="Successfully liked post"\n                    redirect(URL(r=request,f=\'user_homepage\'))\n            if dislikeform[j].process(formname=\'dislikeform[%d]\'%j).accepted:\n                lk=db(db.likedposts.postid==p).select(db.likedposts.ALL)\n                dlk=db(db.dislikedposts.postid==p).select(db.dislikedposts.ALL)\n                flag=0\n                for k in range(len(dlk)):\n                    if dlk[k][\'userid\']==a and dlk[k][\'postid\']==p:\n                        flag=1\n                        dislikes[j]-=1\n                        db(db.dislikedposts.id==dlk[k][\'id\']).delete()\n                        db(db.newsitem.id==p).update(points=100+(5*likes[j])-(3*dislikes[j]))\n                for k in range(len(lk)):\n                    if lk[k][\'postid\']==p and lk[k][\'userid\']==a:\n                        flag=1\n                        db.dislikedposts.insert(userid=a,postid=p)\n                        pt=db(db.newsitem.id==p).select(db.newsitem.points)\n                        pts=pt[0][\'points\']\n                        db(db.likedposts.id==lk[k][\'id\']).delete()\n                        likes[j]-=1\n                        dislikes[j]+=1\n                        db(db.newsitem.id==p).update(points=100+(5*likes[j])-(3*dislikes[j]))\n                        response.flash="Successfully disliked post"\n                        redirect(URL(r=request,f=\'user_homepage\'))\n                if flag==0:\n                    db.dislikedposts.insert(userid=a,postid=p)\n                    pt=db(db.newsitem.id==p).select(db.newsitem.points)\n                    pts=pt[0][\'points\']\n                    dislikes[j]+=1\n                    db(db.newsitem.id==p).update(points=100+(5*likes[j])-(3*dislikes[j]))\n                    response.flash="Succesfully disliked post"\n                    redirect(URL(r=request,f=\'user_homepage\'))\n            if commentform[j].process(formname=\'commentform[%d]\'%j).accepted:\n                db.comments.insert(userid=a,postid=p,cmt=commentform.vars.cmt)\n                response.flash="Your comment has been added"\n        else:\n            p=n[j][\'id\']\n            deleteform.append(SQLFORM.factory())\n            editform.append(SQLFORM.factory())\n            likeform.append(SQLFORM.factory(submit_button="Like post"))\n            dislikeform.append(SQLFORM.factory(submit_button="Dislike post"))\n            commentform.append(SQLFORM.factory(db.Field(\'cmt\',\'string\',required=True,label=\'Comment\'),\n                                submit_button="Post comment"))\n            if likeform[j].process(formname=\'likeform[%d]\'%j).accepted:\n                flag=0\n                lk=db(db.likedposts.postid==p).select(db.likedposts.ALL)\n                dlk=db(db.dislikedposts.postid==p).select(db.dislikedposts.ALL)\n                for k in range(len(lk)):\n                    if lk[k][\'userid\']==a and lk[k][\'postid\']==p:\n                        flag=1\n                        likes[j]-=1\n                        db(db.likedposts.id==lk[k][\'id\']).delete()\n                        db(db.newsitem.id==p).update(points=100+(5*likes[j])-(3*dislikes[j]))\n                for k in range(len(dlk)):\n                    if dlk[k][\'userid\']==a and dlk[k][\'postid\']==p:\n                        flag=1\n                        db.likedposts.insert(userid=a,postid=p)\n                        pt=db(db.newsitem.id==p).select(db.newsitem.points)\n                        pts=pt[0][\'points\']\n                        db(db.dislikedposts.id==dlk[k][\'id\']).delete()\n                        likes[j]+=1\n                        dislikes[j]-=1\n                        db(db.newsitem.id==p).update(points=100+(5*likes[j])-(3*dislikes[j]))\n                        response.flash="Successfully liked post"\n                        redirect(URL(r=request,f=\'user_homepage\'))\n                if flag==0:\n                    db.likedposts.insert(userid=a,postid=p)\n                    pt=db(db.newsitem.id==p).select(db.newsitem.points)\n                    pts=pt[0][\'points\']\n                    likes[j]+=1\n                    db(db.newsitem.id==p).update(points=100+(5*likes[j])-(3*dislikes[j]))\n                    response.flash="Successfully liked post"\n                    redirect(URL(r=request,f=\'user_homepage\'))\n            if dislikeform[j].process(formname=\'dislikeform[%d]\'%j).accepted:\n                lk=db(db.likedposts.postid==p).select(db.likedposts.ALL)\n                dlk=db(db.dislikedposts.postid==p).select(db.dislikedposts.ALL)\n                flag=0\n                for k in range(len(dlk)):\n                    if dlk[k][\'userid\']==a and dlk[k][\'postid\']==p:\n                        flag=1\n                        dislikes[j]-=1\n                        db(db.likedposts.id==dlk[k][\'id\']).delete()\n                        db(db.newsitem.id==p).update(points=100+(5*likes[j])-(3*dislikes[j]))\n                for k in range(len(lk)):\n                    if lk[k][\'postid\']==p and lk[k][\'userid\']==a:\n                        flag=1\n                        db.dislikedposts.insert(userid=a,postid=p)\n                        pt=db(db.newsitem.id==p).select(db.newsitem.points)\n                        pts=pt[0][\'points\']\n                        db(db.likedposts.id==lk[k][\'id\']).delete()\n                        likes[j]-=1\n                        dislikes[j]+=1\n                        db(db.newsitem.id==p).update(points=100+(5*likes[j])-(3*dislikes[j]))\n                        response.flash="Successfully disliked post"\n                        redirect(URL(r=request,f=\'user_homepage\'))\n                if flag==0:\n                    db.dislikedposts.insert(userid=a,postid=p)\n                    pt=db(db.newsitem.id==p).select(db.newsitem.points)\n                    pts=pt[0][\'points\']\n                    dislikes[j]+=1\n                    db(db.newsitem.id==p).update(points=100+(5*likes[j])-(3*dislikes[j]))\n                    response.flash="Successfully disliked post"\n                    redirect(URL(r=request,f=\'user_homepage\'))\n            if commentform[j].process(formname=\'commentform[%d]\'%j).accepted:\n                db.comments.insert(userid=a,postid=p,cmt=request.vars.cmt)\n                response.flash="Your comment has been added"\n    cm=db().select(db.comments.ALL)\n    us=db().select(db.auth_user.ALL)\n    return locals()\n\ndef changedetails():\n    p=request.vars.id\n    x=db(db.newsitem.id==p).select(db.newsitem.ALL)\n    c=db().select(db.category.ALL)\n    temp=[]\n    for i in range(len(c)):\n        temp.append(c[i][\'name\'])\n    form=SQLFORM.factory(db.Field(\'category\',\'string\',requires=IS_IN_SET(temp),required=True,default=x[0][\'category\']),\n                        Field(\'heading\',\'string\',required=True,default=x[0][\'heading\']),\n                        Field(\'choice\',\'string\',requires=IS_IN_SET([\'article\',\'video\']),required=True,default=x[0][\'choice\']),\n                        Field(\'url\',\'string\',requires=IS_URL(),required=True,default=x[0][\'url\']))\n    if(form.accepts(request.vars,session)):\n        db(db.newsitem.id==p).update(category=form.vars.category,heading=form.vars.heading,choice=form.vars.choice,url=form.vars.url)\n        redirect(URL(r=request,f=\'user_homepage\'))\n        response.flash="Your news item has been updated successfully!"\n    return locals()\n\ndef intermediate():\n    form=SQLFORM.factory(db.Field(\'key\',\'password\',readable=False,required=True))\n    if(form.accepts(request.vars,session)):\n        if form.vars.key==\'ab%k20*(kd12$\':\n            redirect(URL(r=request,f=\'admin_homepage\'))\n        else:\n            response.flash="Wrong key entered."\n    return locals()\n\ndef admin_homepage():\n    a=auth.user.id\n    count=0\n    f=db(db.auth_user.id==a).select(db.auth_user.first_name)\n    l=db(db.auth_user.id==a).select(db.auth_user.last_name)\n    form1=SQLFORM.factory(db.Field(\'category\',\'string\',label=\'Enter category\',required=True))\n    if(form1.accepts(request.vars,session)):\n        db.category.insert(name=form1.vars.category)\n        response.flash=\'New category successfully added.\'\n    n=db().select(db.newsitem.ALL,orderby=~db.newsitem.points)\n    c=db().select(db.category.name)\n    form2=[]\n    for i in range(len(n)):\n        form2.append(SQLFORM.factory(submit_button="Delete post"))\n        if form2[i].process(formname=\'form2[%d]\'%i).accepted:\n            db(db.newsitem.id==n[i][\'id\']).delete()\n            db(db.likedposts.postid==n[i][\'id\']).delete()\n            db(db.dislikedposts.postid==n[i][\'id\']).delete()\n            db(db.comments.postid==n[i][\'id\']).delete()\n    cm=db().select(db.comments.ALL)\n    us=db().select(db.auth_user.ALL) \n    form=SQLFORM.factory(submit_button="GO")   \n    if form.process(formname=\'form\').accepted:\n        redirect(URL(r=request,f=\'delete_record\'))\n    return locals()\n\ndef delete_record():\n    a=auth.user.id\n    records=db().select(db.auth_user.ALL)\n    form=[]\n    for i in range(len(records)):\n        p=records[i][\'id\']\n        form.append(SQLFORM.factory(submit_button="Delete user"))\n        if form[i].process(formname=\'form[%d]\'%i).accepted:\n            redirect(URL(r=request,f=\'confirmation_page?id=%d\'%p))\n    return locals()\n    \ndef confirmation_page():\n    p=request.vars.id\n    x=db(db.auth_user.id==p).select(db.auth_user.ALL)\n    f1=SQLFORM.factory(submit_button="Yes")\n    f2=SQLFORM.factory(submit_button="No")\n    if f1.process(formname=\'f1\').accepted:\n        db(db.auth_user.id==p).delete()\n        db(db.newsitem.userid==p).delete()\n        db(db.likedposts.userid==p).delete()\n        db(db.dislikedposts.userid==p).delete()\n        db(db.comments.userid==p).delete()\n        redirect(URL(r=request,f=\'admin_homepage\'))\n    elif f2.process(formname=\'f2\').accepted:\n        redirect(URL(r=request,f=\'delete_record\'))\n    return locals()\n\ndef user():\n    """\n    exposes:\n    http://..../[app]/default/user/login\n    http://..../[app]/default/user/logout\n    http://..../[app]/default/user/register\n    http://..../[app]/default/user/profile\n    http://..../[app]/default/user/retrieve_password\n    http://..../[app]/default/user/change_password\n    use @auth.requires_login()\n        @auth.requires_membership(\'group name\')\n        @auth.requires_permission(\'read\',\'table name\',record_id)\n    to decorate functions that need access control\n    """\n    return dict(form=auth())\n\n\ndef download():\n    """\n    allows downloading of uploaded files\n    http://..../[app]/default/download/[filename]\n    """\n    return response.download(request, db)\n\n\ndef call():\n    """\n    exposes services. for example:\n    http://..../[app]/default/call/jsonrpc\n    decorate with @services.jsonrpc the functions to expose\n    supports xml, json, xmlrpc, jsonrpc, amfrpc, rss, csv\n    """\n    return service()\n\n\n@auth.requires_signature()\ndef data():\n    """\n    http://..../[app]/default/data/tables\n    http://..../[app]/default/data/create/[table]\n    http://..../[app]/default/data/read/[table]/[id]\n    http://..../[app]/default/data/update/[table]/[id]\n    http://..../[app]/default/data/delete/[table]/[id]\n    http://..../[app]/default/data/select/[table]\n    http://..../[app]/default/data/search/[table]\n    but URLs must be signed, i.e. linked with\n      A(\'table\',_href=URL(\'data/tables\',user_signature=True))\n    or with the signed load operator\n      LOAD(\'default\',\'data.load\',args=\'tables\',ajax=True,user_signature=True)\n    """\n    return dict(form=crud())\n\nresponse._vars=response._caller(user_homepage)\n'
p7
sS'snapshot'
p8
(dp9
S'exception'
p10
(dp11
S'__getslice__'
p12
S"<method-wrapper '__getslice__' of exceptions.SyntaxError object>"
p13
sS'text'
p14
S'None'
p15
sS'__str__'
p16
S"<method-wrapper '__str__' of exceptions.SyntaxError object>"
p17
sS'__reduce__'
p18
S'<built-in method __reduce__ of exceptions.SyntaxError object>'
p19
sS'__dict__'
p20
S'{}'
p21
sS'__sizeof__'
p22
S'<built-in method __sizeof__ of exceptions.SyntaxError object>'
p23
sS'__init__'
p24
S"<method-wrapper '__init__' of exceptions.SyntaxError object>"
p25
sS'__setattr__'
p26
S"<method-wrapper '__setattr__' of exceptions.SyntaxError object>"
p27
sS'__reduce_ex__'
p28
S'<built-in method __reduce_ex__ of exceptions.SyntaxError object>'
p29
sS'__new__'
p30
S'<built-in method __new__ of type object>'
p31
sS'__format__'
p32
S'<built-in method __format__ of exceptions.SyntaxError object>'
p33
sS'__class__'
p34
S"<type 'exceptions.SyntaxError'>"
p35
sS'filename'
p36
S'None'
p37
sS'lineno'
p38
S'None'
p39
sS'msg'
p40
S"'Field dislikes does not belong to the table'"
p41
sS'__doc__'
p42
S"'Invalid syntax.'"
p43
sS'__getitem__'
p44
S"<method-wrapper '__getitem__' of exceptions.SyntaxError object>"
p45
sS'__setstate__'
p46
S'<built-in method __setstate__ of exceptions.SyntaxError object>'
p47
sS'__getattribute__'
p48
S"<method-wrapper '__getattribute__' of exceptions.SyntaxError object>"
p49
sS'print_file_and_line'
p50
S'None'
p51
sS'args'
p52
S"('Field dislikes does not belong to the table',)"
p53
sS'__subclasshook__'
p54
S'<built-in method __subclasshook__ of type object>'
p55
sS'offset'
p56
S'None'
p57
sS'__unicode__'
p58
S'<built-in method __unicode__ of exceptions.SyntaxError object>'
p59
sS'__delattr__'
p60
S"<method-wrapper '__delattr__' of exceptions.SyntaxError object>"
p61
sS'__repr__'
p62
S"<method-wrapper '__repr__' of exceptions.SyntaxError object>"
p63
sS'__hash__'
p64
S"<method-wrapper '__hash__' of exceptions.SyntaxError object>"
p65
ssS'evalue'
p66
S'Field dislikes does not belong to the table'
p67
sS'request'
p68
ccopy_reg
_reconstructor
p69
(cgluon.html
BEAUTIFY
p70
c__builtin__
object
p71
NtRp72
(dp73
S'attributes'
p74
(dp75
sS'components'
p76
(lp77
g69
(cgluon.html
TABLE
p78
g71
NtRp79
(dp80
g74
(dp81
S'level'
p82
I5
ssS'parent'
p83
Nsg76
(lp84
g69
(cgluon.html
TR
p85
g71
NtRp86
(dp87
g74
(dp88
sg83
g79
sg76
(lp89
g69
(cgluon.html
TD
p90
g71
NtRp91
(dp92
g74
(dp93
S'_style'
p94
S'font-weight:bold;vertical-align:top'
p95
ssg83
g86
sg76
(lp96
S'ajax'
p97
asbag69
(g90
g71
NtRp98
(dp99
g74
(dp100
S'_valign'
p101
S'top'
p102
ssg83
g86
sg76
(lp103
S':'
asbag69
(g90
g71
NtRp104
(dp105
g74
(dp106
sg83
g86
sg76
(lp107
g69
(g70
g71
NtRp108
(dp109
g74
(dp110
g82
I5
ssg83
g104
sg76
(lp111
S'False'
p112
asbasbasbag69
(g85
g71
NtRp113
(dp114
g74
(dp115
sg83
g79
sg76
(lp116
g69
(g90
g71
NtRp117
(dp118
g74
(dp119
g94
g95
ssg83
g113
sg76
(lp120
S'application'
p121
asbag69
(g90
g71
NtRp122
(dp123
g74
(dp124
g101
g102
ssg83
g113
sg76
(lp125
S':'
asbag69
(g90
g71
NtRp126
(dp127
g74
(dp128
sg83
g113
sg76
(lp129
g69
(g70
g71
NtRp130
(dp131
g74
(dp132
g82
I5
ssg83
g126
sg76
(lp133
S'assignment2'
p134
asbasbasbag69
(g85
g71
NtRp135
(dp136
g74
(dp137
sg83
g79
sg76
(lp138
g69
(g90
g71
NtRp139
(dp140
g74
(dp141
g94
g95
ssg83
g135
sg76
(lp142
g52
asbag69
(g90
g71
NtRp143
(dp144
g74
(dp145
g101
g102
ssg83
g135
sg76
(lp146
S':'
asbag69
(g90
g71
NtRp147
(dp148
g74
(dp149
sg83
g135
sg76
(lp150
g69
(g70
g71
NtRp151
(dp152
g74
(dp153
g82
I5
ssg83
g147
sg76
(lp154
g69
(g78
g71
NtRp155
(dp156
g74
(dp157
g82
I4
ssg83
Nsg76
(lp158
sbasbasbasbag69
(g85
g71
NtRp159
(dp160
g74
(dp161
sg83
g79
sg76
(lp162
g69
(g90
g71
NtRp163
(dp164
g74
(dp165
g94
g95
ssg83
g159
sg76
(lp166
S'body'
p167
asbag69
(g90
g71
NtRp168
(dp169
g74
(dp170
g101
g102
ssg83
g159
sg76
(lp171
S':'
asbag69
(g90
g71
NtRp172
(dp173
g74
(dp174
sg83
g159
sg76
(lp175
g69
(g70
g71
NtRp176
(dp177
g74
(dp178
g82
I5
ssg83
g172
sg76
(lp179
S"<open file '<fdopen>', mode 'w+b' at 0xad48df98>"
p180
asbasbasbag69
(g85
g71
NtRp181
(dp182
g74
(dp183
sg83
g79
sg76
(lp184
g69
(g90
g71
NtRp185
(dp186
g74
(dp187
g94
g95
ssg83
g181
sg76
(lp188
S'cid'
p189
asbag69
(g90
g71
NtRp190
(dp191
g74
(dp192
g101
g102
ssg83
g181
sg76
(lp193
S':'
asbag69
(g90
g71
NtRp194
(dp195
g74
(dp196
sg83
g181
sg76
(lp197
g69
(g70
g71
NtRp198
(dp199
g74
(dp200
g82
I5
ssg83
g194
sg76
(lp201
S'None'
p202
asbasbasbag69
(g85
g71
NtRp203
(dp204
g74
(dp205
sg83
g79
sg76
(lp206
g69
(g90
g71
NtRp207
(dp208
g74
(dp209
g94
g95
ssg83
g203
sg76
(lp210
S'client'
p211
asbag69
(g90
g71
NtRp212
(dp213
g74
(dp214
g101
g102
ssg83
g203
sg76
(lp215
S':'
asbag69
(g90
g71
NtRp216
(dp217
g74
(dp218
sg83
g203
sg76
(lp219
g69
(g70
g71
NtRp220
(dp221
g74
(dp222
g82
I5
ssg83
g216
sg76
(lp223
S'127.0.0.1'
p224
asbasbasbag69
(g85
g71
NtRp225
(dp226
g74
(dp227
sg83
g79
sg76
(lp228
g69
(g90
g71
NtRp229
(dp230
g74
(dp231
g94
g95
ssg83
g225
sg76
(lp232
S'controller'
p233
asbag69
(g90
g71
NtRp234
(dp235
g74
(dp236
g101
g102
ssg83
g225
sg76
(lp237
S':'
asbag69
(g90
g71
NtRp238
(dp239
g74
(dp240
sg83
g225
sg76
(lp241
g69
(g70
g71
NtRp242
(dp243
g74
(dp244
g82
I5
ssg83
g238
sg76
(lp245
S'default'
p246
asbasbasbag69
(g85
g71
NtRp247
(dp248
g74
(dp249
sg83
g79
sg76
(lp250
g69
(g90
g71
NtRp251
(dp252
g74
(dp253
g94
g95
ssg83
g247
sg76
(lp254
S'cookies'
p255
asbag69
(g90
g71
NtRp256
(dp257
g74
(dp258
g101
g102
ssg83
g247
sg76
(lp259
S':'
asbag69
(g90
g71
NtRp260
(dp261
g74
(dp262
sg83
g247
sg76
(lp263
g69
(g70
g71
NtRp264
(dp265
g74
(dp266
g82
I5
ssg83
g260
sg76
(lp267
g69
(g78
g71
NtRp268
(dp269
g74
(dp270
g82
I4
ssg83
Nsg76
(lp271
g69
(g85
g71
NtRp272
(dp273
g74
(dp274
sg83
g268
sg76
(lp275
g69
(g90
g71
NtRp276
(dp277
g74
(dp278
g94
g95
ssg83
g272
sg76
(lp279
S'session_id_admin'
p280
asbag69
(g90
g71
NtRp281
(dp282
g74
(dp283
g101
g102
ssg83
g272
sg76
(lp284
S':'
asbag69
(g90
g71
NtRp285
(dp286
g74
(dp287
sg83
g272
sg76
(lp288
g69
(g70
g71
NtRp289
(dp290
g74
(dp291
g82
I4
ssg83
g285
sg76
(lp292
S'127.0.0.1-61f05c6d-a087-4e90-a0dc-0b327c9e53be'
p293
ag69
(g78
g71
NtRp294
(dp295
g74
(dp296
g82
I3
ssg83
Nsg76
(lp297
g69
(g85
g71
NtRp298
(dp299
g74
(dp300
sg83
g294
sg76
(lp301
g69
(g90
g71
NtRp302
(dp303
g74
(dp304
g94
g95
ssg83
g298
sg76
(lp305
S'comment'
p306
asbag69
(g90
g71
NtRp307
(dp308
g74
(dp309
g101
g102
ssg83
g298
sg76
(lp310
S':'
asbag69
(g90
g71
NtRp311
(dp312
g74
(dp313
sg83
g298
sg76
(lp314
g69
(g70
g71
NtRp315
(dp316
g74
(dp317
g82
I3
ssg83
g311
sg76
(lp318
S''
asbasbasbag69
(g85
g71
NtRp319
(dp320
g74
(dp321
sg83
g294
sg76
(lp322
g69
(g90
g71
NtRp323
(dp324
g74
(dp325
g94
g95
ssg83
g319
sg76
(lp326
S'domain'
p327
asbag69
(g90
g71
NtRp328
(dp329
g74
(dp330
g101
g102
ssg83
g319
sg76
(lp331
S':'
asbag69
(g90
g71
NtRp332
(dp333
g74
(dp334
sg83
g319
sg76
(lp335
g69
(g70
g71
NtRp336
(dp337
g74
(dp338
g82
I3
ssg83
g332
sg76
(lp339
S''
asbasbasbag69
(g85
g71
NtRp340
(dp341
g74
(dp342
sg83
g294
sg76
(lp343
g69
(g90
g71
NtRp344
(dp345
g74
(dp346
g94
g95
ssg83
g340
sg76
(lp347
S'expires'
p348
asbag69
(g90
g71
NtRp349
(dp350
g74
(dp351
g101
g102
ssg83
g340
sg76
(lp352
S':'
asbag69
(g90
g71
NtRp353
(dp354
g74
(dp355
sg83
g340
sg76
(lp356
g69
(g70
g71
NtRp357
(dp358
g74
(dp359
g82
I3
ssg83
g353
sg76
(lp360
S''
asbasbasbag69
(g85
g71
NtRp361
(dp362
g74
(dp363
sg83
g294
sg76
(lp364
g69
(g90
g71
NtRp365
(dp366
g74
(dp367
g94
g95
ssg83
g361
sg76
(lp368
S'httponly'
p369
asbag69
(g90
g71
NtRp370
(dp371
g74
(dp372
g101
g102
ssg83
g361
sg76
(lp373
S':'
asbag69
(g90
g71
NtRp374
(dp375
g74
(dp376
sg83
g361
sg76
(lp377
g69
(g70
g71
NtRp378
(dp379
g74
(dp380
g82
I3
ssg83
g374
sg76
(lp381
S''
asbasbasbag69
(g85
g71
NtRp382
(dp383
g74
(dp384
sg83
g294
sg76
(lp385
g69
(g90
g71
NtRp386
(dp387
g74
(dp388
g94
g95
ssg83
g382
sg76
(lp389
S'max-age'
p390
asbag69
(g90
g71
NtRp391
(dp392
g74
(dp393
g101
g102
ssg83
g382
sg76
(lp394
S':'
asbag69
(g90
g71
NtRp395
(dp396
g74
(dp397
sg83
g382
sg76
(lp398
g69
(g70
g71
NtRp399
(dp400
g74
(dp401
g82
I3
ssg83
g395
sg76
(lp402
S''
asbasbasbag69
(g85
g71
NtRp403
(dp404
g74
(dp405
sg83
g294
sg76
(lp406
g69
(g90
g71
NtRp407
(dp408
g74
(dp409
g94
g95
ssg83
g403
sg76
(lp410
S'path'
p411
asbag69
(g90
g71
NtRp412
(dp413
g74
(dp414
g101
g102
ssg83
g403
sg76
(lp415
S':'
asbag69
(g90
g71
NtRp416
(dp417
g74
(dp418
sg83
g403
sg76
(lp419
g69
(g70
g71
NtRp420
(dp421
g74
(dp422
g82
I3
ssg83
g416
sg76
(lp423
S''
asbasbasbag69
(g85
g71
NtRp424
(dp425
g74
(dp426
sg83
g294
sg76
(lp427
g69
(g90
g71
NtRp428
(dp429
g74
(dp430
g94
g95
ssg83
g424
sg76
(lp431
S'secure'
p432
asbag69
(g90
g71
NtRp433
(dp434
g74
(dp435
g101
g102
ssg83
g424
sg76
(lp436
S':'
asbag69
(g90
g71
NtRp437
(dp438
g74
(dp439
sg83
g424
sg76
(lp440
g69
(g70
g71
NtRp441
(dp442
g74
(dp443
g82
I3
ssg83
g437
sg76
(lp444
S''
asbasbasbag69
(g85
g71
NtRp445
(dp446
g74
(dp447
sg83
g294
sg76
(lp448
g69
(g90
g71
NtRp449
(dp450
g74
(dp451
g94
g95
ssg83
g445
sg76
(lp452
S'version'
p453
asbag69
(g90
g71
NtRp454
(dp455
g74
(dp456
g101
g102
ssg83
g445
sg76
(lp457
S':'
asbag69
(g90
g71
NtRp458
(dp459
g74
(dp460
sg83
g445
sg76
(lp461
g69
(g70
g71
NtRp462
(dp463
g74
(dp464
g82
I3
ssg83
g458
sg76
(lp465
S''
asbasbasbasbasbasbasbag69
(g85
g71
NtRp466
(dp467
g74
(dp468
sg83
g268
sg76
(lp469
g69
(g90
g71
NtRp470
(dp471
g74
(dp472
g94
g95
ssg83
g466
sg76
(lp473
S'session_id_assignment2'
p474
asbag69
(g90
g71
NtRp475
(dp476
g74
(dp477
g101
g102
ssg83
g466
sg76
(lp478
S':'
asbag69
(g90
g71
NtRp479
(dp480
g74
(dp481
sg83
g466
sg76
(lp482
g69
(g70
g71
NtRp483
(dp484
g74
(dp485
g82
I4
ssg83
g479
sg76
(lp486
S'127.0.0.1-c5aa1867-8601-4143-a05d-4be3b5889d68'
p487
ag69
(g78
g71
NtRp488
(dp489
g74
(dp490
g82
I3
ssg83
Nsg76
(lp491
g69
(g85
g71
NtRp492
(dp493
g74
(dp494
sg83
g488
sg76
(lp495
g69
(g90
g71
NtRp496
(dp497
g74
(dp498
g94
g95
ssg83
g492
sg76
(lp499
g306
asbag69
(g90
g71
NtRp500
(dp501
g74
(dp502
g101
g102
ssg83
g492
sg76
(lp503
S':'
asbag69
(g90
g71
NtRp504
(dp505
g74
(dp506
sg83
g492
sg76
(lp507
g69
(g70
g71
NtRp508
(dp509
g74
(dp510
g82
I3
ssg83
g504
sg76
(lp511
S''
asbasbasbag69
(g85
g71
NtRp512
(dp513
g74
(dp514
sg83
g488
sg76
(lp515
g69
(g90
g71
NtRp516
(dp517
g74
(dp518
g94
g95
ssg83
g512
sg76
(lp519
g327
asbag69
(g90
g71
NtRp520
(dp521
g74
(dp522
g101
g102
ssg83
g512
sg76
(lp523
S':'
asbag69
(g90
g71
NtRp524
(dp525
g74
(dp526
sg83
g512
sg76
(lp527
g69
(g70
g71
NtRp528
(dp529
g74
(dp530
g82
I3
ssg83
g524
sg76
(lp531
S''
asbasbasbag69
(g85
g71
NtRp532
(dp533
g74
(dp534
sg83
g488
sg76
(lp535
g69
(g90
g71
NtRp536
(dp537
g74
(dp538
g94
g95
ssg83
g532
sg76
(lp539
g348
asbag69
(g90
g71
NtRp540
(dp541
g74
(dp542
g101
g102
ssg83
g532
sg76
(lp543
S':'
asbag69
(g90
g71
NtRp544
(dp545
g74
(dp546
sg83
g532
sg76
(lp547
g69
(g70
g71
NtRp548
(dp549
g74
(dp550
g82
I3
ssg83
g544
sg76
(lp551
S''
asbasbasbag69
(g85
g71
NtRp552
(dp553
g74
(dp554
sg83
g488
sg76
(lp555
g69
(g90
g71
NtRp556
(dp557
g74
(dp558
g94
g95
ssg83
g552
sg76
(lp559
g369
asbag69
(g90
g71
NtRp560
(dp561
g74
(dp562
g101
g102
ssg83
g552
sg76
(lp563
S':'
asbag69
(g90
g71
NtRp564
(dp565
g74
(dp566
sg83
g552
sg76
(lp567
g69
(g70
g71
NtRp568
(dp569
g74
(dp570
g82
I3
ssg83
g564
sg76
(lp571
S''
asbasbasbag69
(g85
g71
NtRp572
(dp573
g74
(dp574
sg83
g488
sg76
(lp575
g69
(g90
g71
NtRp576
(dp577
g74
(dp578
g94
g95
ssg83
g572
sg76
(lp579
g390
asbag69
(g90
g71
NtRp580
(dp581
g74
(dp582
g101
g102
ssg83
g572
sg76
(lp583
S':'
asbag69
(g90
g71
NtRp584
(dp585
g74
(dp586
sg83
g572
sg76
(lp587
g69
(g70
g71
NtRp588
(dp589
g74
(dp590
g82
I3
ssg83
g584
sg76
(lp591
S''
asbasbasbag69
(g85
g71
NtRp592
(dp593
g74
(dp594
sg83
g488
sg76
(lp595
g69
(g90
g71
NtRp596
(dp597
g74
(dp598
g94
g95
ssg83
g592
sg76
(lp599
g411
asbag69
(g90
g71
NtRp600
(dp601
g74
(dp602
g101
g102
ssg83
g592
sg76
(lp603
S':'
asbag69
(g90
g71
NtRp604
(dp605
g74
(dp606
sg83
g592
sg76
(lp607
g69
(g70
g71
NtRp608
(dp609
g74
(dp610
g82
I3
ssg83
g604
sg76
(lp611
S''
asbasbasbag69
(g85
g71
NtRp612
(dp613
g74
(dp614
sg83
g488
sg76
(lp615
g69
(g90
g71
NtRp616
(dp617
g74
(dp618
g94
g95
ssg83
g612
sg76
(lp619
g432
asbag69
(g90
g71
NtRp620
(dp621
g74
(dp622
g101
g102
ssg83
g612
sg76
(lp623
S':'
asbag69
(g90
g71
NtRp624
(dp625
g74
(dp626
sg83
g612
sg76
(lp627
g69
(g70
g71
NtRp628
(dp629
g74
(dp630
g82
I3
ssg83
g624
sg76
(lp631
S''
asbasbasbag69
(g85
g71
NtRp632
(dp633
g74
(dp634
sg83
g488
sg76
(lp635
g69
(g90
g71
NtRp636
(dp637
g74
(dp638
g94
g95
ssg83
g632
sg76
(lp639
g453
asbag69
(g90
g71
NtRp640
(dp641
g74
(dp642
g101
g102
ssg83
g632
sg76
(lp643
S':'
asbag69
(g90
g71
NtRp644
(dp645
g74
(dp646
sg83
g632
sg76
(lp647
g69
(g70
g71
NtRp648
(dp649
g74
(dp650
g82
I3
ssg83
g644
sg76
(lp651
S''
asbasbasbasbasbasbasbag69
(g85
g71
NtRp652
(dp653
g74
(dp654
sg83
g268
sg76
(lp655
g69
(g90
g71
NtRp656
(dp657
g74
(dp658
g94
g95
ssg83
g652
sg76
(lp659
S'session_id_welcome'
p660
asbag69
(g90
g71
NtRp661
(dp662
g74
(dp663
g101
g102
ssg83
g652
sg76
(lp664
S':'
asbag69
(g90
g71
NtRp665
(dp666
g74
(dp667
sg83
g652
sg76
(lp668
g69
(g70
g71
NtRp669
(dp670
g74
(dp671
g82
I4
ssg83
g665
sg76
(lp672
S'127.0.0.1-225e0e59-e1dd-49bd-9d50-785ad211e8a2'
p673
ag69
(g78
g71
NtRp674
(dp675
g74
(dp676
g82
I3
ssg83
Nsg76
(lp677
g69
(g85
g71
NtRp678
(dp679
g74
(dp680
sg83
g674
sg76
(lp681
g69
(g90
g71
NtRp682
(dp683
g74
(dp684
g94
g95
ssg83
g678
sg76
(lp685
g306
asbag69
(g90
g71
NtRp686
(dp687
g74
(dp688
g101
g102
ssg83
g678
sg76
(lp689
S':'
asbag69
(g90
g71
NtRp690
(dp691
g74
(dp692
sg83
g678
sg76
(lp693
g69
(g70
g71
NtRp694
(dp695
g74
(dp696
g82
I3
ssg83
g690
sg76
(lp697
S''
asbasbasbag69
(g85
g71
NtRp698
(dp699
g74
(dp700
sg83
g674
sg76
(lp701
g69
(g90
g71
NtRp702
(dp703
g74
(dp704
g94
g95
ssg83
g698
sg76
(lp705
g327
asbag69
(g90
g71
NtRp706
(dp707
g74
(dp708
g101
g102
ssg83
g698
sg76
(lp709
S':'
asbag69
(g90
g71
NtRp710
(dp711
g74
(dp712
sg83
g698
sg76
(lp713
g69
(g70
g71
NtRp714
(dp715
g74
(dp716
g82
I3
ssg83
g710
sg76
(lp717
S''
asbasbasbag69
(g85
g71
NtRp718
(dp719
g74
(dp720
sg83
g674
sg76
(lp721
g69
(g90
g71
NtRp722
(dp723
g74
(dp724
g94
g95
ssg83
g718
sg76
(lp725
g348
asbag69
(g90
g71
NtRp726
(dp727
g74
(dp728
g101
g102
ssg83
g718
sg76
(lp729
S':'
asbag69
(g90
g71
NtRp730
(dp731
g74
(dp732
sg83
g718
sg76
(lp733
g69
(g70
g71
NtRp734
(dp735
g74
(dp736
g82
I3
ssg83
g730
sg76
(lp737
S''
asbasbasbag69
(g85
g71
NtRp738
(dp739
g74
(dp740
sg83
g674
sg76
(lp741
g69
(g90
g71
NtRp742
(dp743
g74
(dp744
g94
g95
ssg83
g738
sg76
(lp745
g369
asbag69
(g90
g71
NtRp746
(dp747
g74
(dp748
g101
g102
ssg83
g738
sg76
(lp749
S':'
asbag69
(g90
g71
NtRp750
(dp751
g74
(dp752
sg83
g738
sg76
(lp753
g69
(g70
g71
NtRp754
(dp755
g74
(dp756
g82
I3
ssg83
g750
sg76
(lp757
S''
asbasbasbag69
(g85
g71
NtRp758
(dp759
g74
(dp760
sg83
g674
sg76
(lp761
g69
(g90
g71
NtRp762
(dp763
g74
(dp764
g94
g95
ssg83
g758
sg76
(lp765
g390
asbag69
(g90
g71
NtRp766
(dp767
g74
(dp768
g101
g102
ssg83
g758
sg76
(lp769
S':'
asbag69
(g90
g71
NtRp770
(dp771
g74
(dp772
sg83
g758
sg76
(lp773
g69
(g70
g71
NtRp774
(dp775
g74
(dp776
g82
I3
ssg83
g770
sg76
(lp777
S''
asbasbasbag69
(g85
g71
NtRp778
(dp779
g74
(dp780
sg83
g674
sg76
(lp781
g69
(g90
g71
NtRp782
(dp783
g74
(dp784
g94
g95
ssg83
g778
sg76
(lp785
g411
asbag69
(g90
g71
NtRp786
(dp787
g74
(dp788
g101
g102
ssg83
g778
sg76
(lp789
S':'
asbag69
(g90
g71
NtRp790
(dp791
g74
(dp792
sg83
g778
sg76
(lp793
g69
(g70
g71
NtRp794
(dp795
g74
(dp796
g82
I3
ssg83
g790
sg76
(lp797
S''
asbasbasbag69
(g85
g71
NtRp798
(dp799
g74
(dp800
sg83
g674
sg76
(lp801
g69
(g90
g71
NtRp802
(dp803
g74
(dp804
g94
g95
ssg83
g798
sg76
(lp805
g432
asbag69
(g90
g71
NtRp806
(dp807
g74
(dp808
g101
g102
ssg83
g798
sg76
(lp809
S':'
asbag69
(g90
g71
NtRp810
(dp811
g74
(dp812
sg83
g798
sg76
(lp813
g69
(g70
g71
NtRp814
(dp815
g74
(dp816
g82
I3
ssg83
g810
sg76
(lp817
S''
asbasbasbag69
(g85
g71
NtRp818
(dp819
g74
(dp820
sg83
g674
sg76
(lp821
g69
(g90
g71
NtRp822
(dp823
g74
(dp824
g94
g95
ssg83
g818
sg76
(lp825
g453
asbag69
(g90
g71
NtRp826
(dp827
g74
(dp828
g101
g102
ssg83
g818
sg76
(lp829
S':'
asbag69
(g90
g71
NtRp830
(dp831
g74
(dp832
sg83
g818
sg76
(lp833
g69
(g70
g71
NtRp834
(dp835
g74
(dp836
g82
I3
ssg83
g830
sg76
(lp837
S''
asbasbasbasbasbasbasbasbasbasbasbag69
(g85
g71
NtRp838
(dp839
g74
(dp840
sg83
g79
sg76
(lp841
g69
(g90
g71
NtRp842
(dp843
g74
(dp844
g94
g95
ssg83
g838
sg76
(lp845
S'env'
p846
asbag69
(g90
g71
NtRp847
(dp848
g74
(dp849
g101
g102
ssg83
g838
sg76
(lp850
S':'
asbag69
(g90
g71
NtRp851
(dp852
g74
(dp853
sg83
g838
sg76
(lp854
g69
(g70
g71
NtRp855
(dp856
g74
(dp857
g82
I5
ssg83
g851
sg76
(lp858
g69
(g78
g71
NtRp859
(dp860
g74
(dp861
g82
I4
ssg83
Nsg76
(lp862
g69
(g85
g71
NtRp863
(dp864
g74
(dp865
sg83
g859
sg76
(lp866
g69
(g90
g71
NtRp867
(dp868
g74
(dp869
g94
g95
ssg83
g863
sg76
(lp870
S'app_folders'
p871
asbag69
(g90
g71
NtRp872
(dp873
g74
(dp874
g101
g102
ssg83
g863
sg76
(lp875
S':'
asbag69
(g90
g71
NtRp876
(dp877
g74
(dp878
sg83
g863
sg76
(lp879
g69
(g70
g71
NtRp880
(dp881
g74
(dp882
g82
I4
ssg83
g876
sg76
(lp883
S"set(['/home/aditi/Desktop/web2py/applications/assignment2/', '/home/aditi/Desktop/web2py/applications/admin/', '/home/aditi/Desktop/web2py/applications/welcome/'])"
p884
asbasbasbag69
(g85
g71
NtRp885
(dp886
g74
(dp887
sg83
g859
sg76
(lp888
g69
(g90
g71
NtRp889
(dp890
g74
(dp891
g94
g95
ssg83
g885
sg76
(lp892
S'applications_parent'
p893
asbag69
(g90
g71
NtRp894
(dp895
g74
(dp896
g101
g102
ssg83
g885
sg76
(lp897
S':'
asbag69
(g90
g71
NtRp898
(dp899
g74
(dp900
sg83
g885
sg76
(lp901
g69
(g70
g71
NtRp902
(dp903
g74
(dp904
g82
I4
ssg83
g898
sg76
(lp905
S'/home/aditi/Desktop/web2py'
p906
asbasbasbag69
(g85
g71
NtRp907
(dp908
g74
(dp909
sg83
g859
sg76
(lp910
g69
(g90
g71
NtRp911
(dp912
g74
(dp913
g94
g95
ssg83
g907
sg76
(lp914
S'cmd_args'
p915
asbag69
(g90
g71
NtRp916
(dp917
g74
(dp918
g101
g102
ssg83
g907
sg76
(lp919
S':'
asbag69
(g90
g71
NtRp920
(dp921
g74
(dp922
sg83
g907
sg76
(lp923
g69
(g70
g71
NtRp924
(dp925
g74
(dp926
g82
I4
ssg83
g920
sg76
(lp927
g69
(g78
g71
NtRp928
(dp929
g74
(dp930
g82
I3
ssg83
Nsg76
(lp931
sbasbasbasbag69
(g85
g71
NtRp932
(dp933
g74
(dp934
sg83
g859
sg76
(lp935
g69
(g90
g71
NtRp936
(dp937
g74
(dp938
g94
g95
ssg83
g932
sg76
(lp939
S'cmd_options'
p940
asbag69
(g90
g71
NtRp941
(dp942
g74
(dp943
g101
g102
ssg83
g932
sg76
(lp944
S':'
asbag69
(g90
g71
NtRp945
(dp946
g74
(dp947
sg83
g932
sg76
(lp948
g69
(g70
g71
NtRp949
(dp950
g74
(dp951
g82
I4
ssg83
g945
sg76
(lp952
S"<Values at 0x8e16a0c: {'verbose': False, 'ip': '127.0.0.1', 'with_scheduler': False, 'ips': [], 'shutdown_timeout': 5, 'taskbar': False, 'port': 8000, 'maxthreads': None, 'softcron': False, 'server_name': 'ubuntu', 'bpython': False, 'nogui': False, 'pid_filename': 'httpserver.pid', 'extcron': False, 'runcron': False, 'run_system_tests': False, 'test': None, 'folder': '/home/aditi/Desktop/web2py', 'config': '', 'import_models': False, 'winservice': '', 'shell': None, 'run': '', 'log_filename': 'httpserver.log', 'debuglevel': 30, 'args': [''], 'socket_timeout': 5, 'ssl_ca_certificate': None, 'scheduler': None, 'profiler_filename': None, 'ssl_private_key': '', 'scheduler_groups': None, 'password': '<ask>', 'request_queue_size': 5, 'ssl_certificate': '', 'cronjob': False, 'numthreads': None, 'quiet': False, 'interfaces': None, 'minthreads': None, 'timeout': 10, 'plain': False, 'nobanner': False}>"
p953
asbasbasbag69
(g85
g71
NtRp954
(dp955
g74
(dp956
sg83
g859
sg76
(lp957
g69
(g90
g71
NtRp958
(dp959
g74
(dp960
g94
g95
ssg83
g954
sg76
(lp961
S'content_length'
p962
asbag69
(g90
g71
NtRp963
(dp964
g74
(dp965
g101
g102
ssg83
g954
sg76
(lp966
S':'
asbag69
(g90
g71
NtRp967
(dp968
g74
(dp969
sg83
g954
sg76
(lp970
g69
(g70
g71
NtRp971
(dp972
g74
(dp973
g82
I4
ssg83
g967
sg76
(lp974
S'880'
p975
asbasbasbag69
(g85
g71
NtRp976
(dp977
g74
(dp978
sg83
g859
sg76
(lp979
g69
(g90
g71
NtRp980
(dp981
g74
(dp982
g94
g95
ssg83
g976
sg76
(lp983
S'content_type'
p984
asbag69
(g90
g71
NtRp985
(dp986
g74
(dp987
g101
g102
ssg83
g976
sg76
(lp988
S':'
asbag69
(g90
g71
NtRp989
(dp990
g74
(dp991
sg83
g976
sg76
(lp992
g69
(g70
g71
NtRp993
(dp994
g74
(dp995
g82
I4
ssg83
g989
sg76
(lp996
S'multipart/form-data; boundary=---------------------------54295588632369425575279693'
p997
asbasbasbag69
(g85
g71
NtRp998
(dp999
g74
(dp1000
sg83
g859
sg76
(lp1001
g69
(g90
g71
NtRp1002
(dp1003
g74
(dp1004
g94
g95
ssg83
g998
sg76
(lp1005
S'db_sessions'
p1006
asbag69
(g90
g71
NtRp1007
(dp1008
g74
(dp1009
g101
g102
ssg83
g998
sg76
(lp1010
S':'
asbag69
(g90
g71
NtRp1011
(dp1012
g74
(dp1013
sg83
g998
sg76
(lp1014
g69
(g70
g71
NtRp1015
(dp1016
g74
(dp1017
g82
I4
ssg83
g1011
sg76
(lp1018
S'set([])'
p1019
asbasbasbag69
(g85
g71
NtRp1020
(dp1021
g74
(dp1022
sg83
g859
sg76
(lp1023
g69
(g90
g71
NtRp1024
(dp1025
g74
(dp1026
g94
g95
ssg83
g1020
sg76
(lp1027
S'debugging'
p1028
asbag69
(g90
g71
NtRp1029
(dp1030
g74
(dp1031
g101
g102
ssg83
g1020
sg76
(lp1032
S':'
asbag69
(g90
g71
NtRp1033
(dp1034
g74
(dp1035
sg83
g1020
sg76
(lp1036
g69
(g70
g71
NtRp1037
(dp1038
g74
(dp1039
g82
I4
ssg83
g1033
sg76
(lp1040
g112
asbasbasbag69
(g85
g71
NtRp1041
(dp1042
g74
(dp1043
sg83
g859
sg76
(lp1044
g69
(g90
g71
NtRp1045
(dp1046
g74
(dp1047
g94
g95
ssg83
g1041
sg76
(lp1048
S'gluon_parent'
p1049
asbag69
(g90
g71
NtRp1050
(dp1051
g74
(dp1052
g101
g102
ssg83
g1041
sg76
(lp1053
S':'
asbag69
(g90
g71
NtRp1054
(dp1055
g74
(dp1056
sg83
g1041
sg76
(lp1057
g69
(g70
g71
NtRp1058
(dp1059
g74
(dp1060
g82
I4
ssg83
g1054
sg76
(lp1061
S'/home/aditi/Desktop/web2py'
p1062
asbasbasbag69
(g85
g71
NtRp1063
(dp1064
g74
(dp1065
sg83
g859
sg76
(lp1066
g69
(g90
g71
NtRp1067
(dp1068
g74
(dp1069
g94
g95
ssg83
g1063
sg76
(lp1070
S'http_accept'
p1071
asbag69
(g90
g71
NtRp1072
(dp1073
g74
(dp1074
g101
g102
ssg83
g1063
sg76
(lp1075
S':'
asbag69
(g90
g71
NtRp1076
(dp1077
g74
(dp1078
sg83
g1063
sg76
(lp1079
g69
(g70
g71
NtRp1080
(dp1081
g74
(dp1082
g82
I4
ssg83
g1076
sg76
(lp1083
S'text/html,application/xhtml+xml,application/xml;q=0.9,*/*;q=0.8'
p1084
asbasbasbag69
(g85
g71
NtRp1085
(dp1086
g74
(dp1087
sg83
g859
sg76
(lp1088
g69
(g90
g71
NtRp1089
(dp1090
g74
(dp1091
g94
g95
ssg83
g1085
sg76
(lp1092
S'http_accept_encoding'
p1093
asbag69
(g90
g71
NtRp1094
(dp1095
g74
(dp1096
g101
g102
ssg83
g1085
sg76
(lp1097
S':'
asbag69
(g90
g71
NtRp1098
(dp1099
g74
(dp1100
sg83
g1085
sg76
(lp1101
g69
(g70
g71
NtRp1102
(dp1103
g74
(dp1104
g82
I4
ssg83
g1098
sg76
(lp1105
S'gzip, deflate'
p1106
asbasbasbag69
(g85
g71
NtRp1107
(dp1108
g74
(dp1109
sg83
g859
sg76
(lp1110
g69
(g90
g71
NtRp1111
(dp1112
g74
(dp1113
g94
g95
ssg83
g1107
sg76
(lp1114
S'http_accept_language'
p1115
asbag69
(g90
g71
NtRp1116
(dp1117
g74
(dp1118
g101
g102
ssg83
g1107
sg76
(lp1119
S':'
asbag69
(g90
g71
NtRp1120
(dp1121
g74
(dp1122
sg83
g1107
sg76
(lp1123
g69
(g70
g71
NtRp1124
(dp1125
g74
(dp1126
g82
I4
ssg83
g1120
sg76
(lp1127
S'en-US,en;q=0.5'
p1128
asbasbasbag69
(g85
g71
NtRp1129
(dp1130
g74
(dp1131
sg83
g859
sg76
(lp1132
g69
(g90
g71
NtRp1133
(dp1134
g74
(dp1135
g94
g95
ssg83
g1129
sg76
(lp1136
S'http_connection'
p1137
asbag69
(g90
g71
NtRp1138
(dp1139
g74
(dp1140
g101
g102
ssg83
g1129
sg76
(lp1141
S':'
asbag69
(g90
g71
NtRp1142
(dp1143
g74
(dp1144
sg83
g1129
sg76
(lp1145
g69
(g70
g71
NtRp1146
(dp1147
g74
(dp1148
g82
I4
ssg83
g1142
sg76
(lp1149
S'keep-alive'
p1150
asbasbasbag69
(g85
g71
NtRp1151
(dp1152
g74
(dp1153
sg83
g859
sg76
(lp1154
g69
(g90
g71
NtRp1155
(dp1156
g74
(dp1157
g94
g95
ssg83
g1151
sg76
(lp1158
S'http_content_length'
p1159
asbag69
(g90
g71
NtRp1160
(dp1161
g74
(dp1162
g101
g102
ssg83
g1151
sg76
(lp1163
S':'
asbag69
(g90
g71
NtRp1164
(dp1165
g74
(dp1166
sg83
g1151
sg76
(lp1167
g69
(g70
g71
NtRp1168
(dp1169
g74
(dp1170
g82
I4
ssg83
g1164
sg76
(lp1171
g975
asbasbasbag69
(g85
g71
NtRp1172
(dp1173
g74
(dp1174
sg83
g859
sg76
(lp1175
g69
(g90
g71
NtRp1176
(dp1177
g74
(dp1178
g94
g95
ssg83
g1172
sg76
(lp1179
S'http_content_type'
p1180
asbag69
(g90
g71
NtRp1181
(dp1182
g74
(dp1183
g101
g102
ssg83
g1172
sg76
(lp1184
S':'
asbag69
(g90
g71
NtRp1185
(dp1186
g74
(dp1187
sg83
g1172
sg76
(lp1188
g69
(g70
g71
NtRp1189
(dp1190
g74
(dp1191
g82
I4
ssg83
g1185
sg76
(lp1192
g997
asbasbasbag69
(g85
g71
NtRp1193
(dp1194
g74
(dp1195
sg83
g859
sg76
(lp1196
g69
(g90
g71
NtRp1197
(dp1198
g74
(dp1199
g94
g95
ssg83
g1193
sg76
(lp1200
S'http_cookie'
p1201
asbag69
(g90
g71
NtRp1202
(dp1203
g74
(dp1204
g101
g102
ssg83
g1193
sg76
(lp1205
S':'
asbag69
(g90
g71
NtRp1206
(dp1207
g74
(dp1208
sg83
g1193
sg76
(lp1209
g69
(g70
g71
NtRp1210
(dp1211
g74
(dp1212
g82
I4
ssg83
g1206
sg76
(lp1213
S'session_id_welcome=127.0.0.1-225e0e59-e1dd-49bd-9d50-785ad211e8a2; session_id_admin=127.0.0.1-61f05c6d-a087-4e90-a0dc-0b327c9e53be; session_id_assignment2=127.0.0.1-c5aa1867-8601-4143-a05d-4be3b5889d68'
p1214
asbasbasbag69
(g85
g71
NtRp1215
(dp1216
g74
(dp1217
sg83
g859
sg76
(lp1218
g69
(g90
g71
NtRp1219
(dp1220
g74
(dp1221
g94
g95
ssg83
g1215
sg76
(lp1222
S'http_host'
p1223
asbag69
(g90
g71
NtRp1224
(dp1225
g74
(dp1226
g101
g102
ssg83
g1215
sg76
(lp1227
S':'
asbag69
(g90
g71
NtRp1228
(dp1229
g74
(dp1230
sg83
g1215
sg76
(lp1231
g69
(g70
g71
NtRp1232
(dp1233
g74
(dp1234
g82
I4
ssg83
g1228
sg76
(lp1235
S'127.0.0.1:8000'
p1236
asbasbasbag69
(g85
g71
NtRp1237
(dp1238
g74
(dp1239
sg83
g859
sg76
(lp1240
g69
(g90
g71
NtRp1241
(dp1242
g74
(dp1243
g94
g95
ssg83
g1237
sg76
(lp1244
S'http_referer'
p1245
asbag69
(g90
g71
NtRp1246
(dp1247
g74
(dp1248
g101
g102
ssg83
g1237
sg76
(lp1249
S':'
asbag69
(g90
g71
NtRp1250
(dp1251
g74
(dp1252
sg83
g1237
sg76
(lp1253
g69
(g70
g71
NtRp1254
(dp1255
g74
(dp1256
g82
I4
ssg83
g1250
sg76
(lp1257
S'http://127.0.0.1:8000/assignment2/default/user_homepage'
p1258
asbasbasbag69
(g85
g71
NtRp1259
(dp1260
g74
(dp1261
sg83
g859
sg76
(lp1262
g69
(g90
g71
NtRp1263
(dp1264
g74
(dp1265
g94
g95
ssg83
g1259
sg76
(lp1266
S'http_user_agent'
p1267
asbag69
(g90
g71
NtRp1268
(dp1269
g74
(dp1270
g101
g102
ssg83
g1259
sg76
(lp1271
S':'
asbag69
(g90
g71
NtRp1272
(dp1273
g74
(dp1274
sg83
g1259
sg76
(lp1275
g69
(g70
g71
NtRp1276
(dp1277
g74
(dp1278
g82
I4
ssg83
g1272
sg76
(lp1279
S'Mozilla/5.0 (X11; Ubuntu; Linux i686; rv:23.0) Gecko/20100101 Firefox/23.0'
p1280
asbasbasbag69
(g85
g71
NtRp1281
(dp1282
g74
(dp1283
sg83
g859
sg76
(lp1284
g69
(g90
g71
NtRp1285
(dp1286
g74
(dp1287
g94
g95
ssg83
g1281
sg76
(lp1288
S'is_jython'
p1289
asbag69
(g90
g71
NtRp1290
(dp1291
g74
(dp1292
g101
g102
ssg83
g1281
sg76
(lp1293
S':'
asbag69
(g90
g71
NtRp1294
(dp1295
g74
(dp1296
sg83
g1281
sg76
(lp1297
g69
(g70
g71
NtRp1298
(dp1299
g74
(dp1300
g82
I4
ssg83
g1294
sg76
(lp1301
g112
asbasbasbag69
(g85
g71
NtRp1302
(dp1303
g74
(dp1304
sg83
g859
sg76
(lp1305
g69
(g90
g71
NtRp1306
(dp1307
g74
(dp1308
g94
g95
ssg83
g1302
sg76
(lp1309
S'is_pypy'
p1310
asbag69
(g90
g71
NtRp1311
(dp1312
g74
(dp1313
g101
g102
ssg83
g1302
sg76
(lp1314
S':'
asbag69
(g90
g71
NtRp1315
(dp1316
g74
(dp1317
sg83
g1302
sg76
(lp1318
g69
(g70
g71
NtRp1319
(dp1320
g74
(dp1321
g82
I4
ssg83
g1315
sg76
(lp1322
g112
asbasbasbag69
(g85
g71
NtRp1323
(dp1324
g74
(dp1325
sg83
g859
sg76
(lp1326
g69
(g90
g71
NtRp1327
(dp1328
g74
(dp1329
g94
g95
ssg83
g1323
sg76
(lp1330
S'local_hosts'
p1331
asbag69
(g90
g71
NtRp1332
(dp1333
g74
(dp1334
g101
g102
ssg83
g1323
sg76
(lp1335
S':'
asbag69
(g90
g71
NtRp1336
(dp1337
g74
(dp1338
sg83
g1323
sg76
(lp1339
g69
(g70
g71
NtRp1340
(dp1341
g74
(dp1342
g82
I4
ssg83
g1336
sg76
(lp1343
g69
(g78
g71
NtRp1344
(dp1345
g74
(dp1346
g82
I3
ssg83
Nsg76
(lp1347
g69
(g85
g71
NtRp1348
(dp1349
g74
(dp1350
sg83
g1344
sg76
(lp1351
g69
(g90
g71
NtRp1352
(dp1353
g74
(dp1354
sg83
g1348
sg76
(lp1355
g69
(g70
g71
NtRp1356
(dp1357
g74
(dp1358
g82
I3
ssg83
g1352
sg76
(lp1359
S'ubuntu.ubuntu-domain'
p1360
asbasbasbag69
(g85
g71
NtRp1361
(dp1362
g74
(dp1363
sg83
g1344
sg76
(lp1364
g69
(g90
g71
NtRp1365
(dp1366
g74
(dp1367
sg83
g1361
sg76
(lp1368
g69
(g70
g71
NtRp1369
(dp1370
g74
(dp1371
g82
I3
ssg83
g1365
sg76
(lp1372
S'::ffff:127.0.0.1'
p1373
asbasbasbag69
(g85
g71
NtRp1374
(dp1375
g74
(dp1376
sg83
g1344
sg76
(lp1377
g69
(g90
g71
NtRp1378
(dp1379
g74
(dp1380
sg83
g1374
sg76
(lp1381
g69
(g70
g71
NtRp1382
(dp1383
g74
(dp1384
g82
I3
ssg83
g1378
sg76
(lp1385
S'::1'
p1386
asbasbasbag69
(g85
g71
NtRp1387
(dp1388
g74
(dp1389
sg83
g1344
sg76
(lp1390
g69
(g90
g71
NtRp1391
(dp1392
g74
(dp1393
sg83
g1387
sg76
(lp1394
g69
(g70
g71
NtRp1395
(dp1396
g74
(dp1397
g82
I3
ssg83
g1391
sg76
(lp1398
S'ubuntu'
p1399
asbasbasbag69
(g85
g71
NtRp1400
(dp1401
g74
(dp1402
sg83
g1344
sg76
(lp1403
g69
(g90
g71
NtRp1404
(dp1405
g74
(dp1406
sg83
g1400
sg76
(lp1407
g69
(g70
g71
NtRp1408
(dp1409
g74
(dp1410
g82
I3
ssg83
g1404
sg76
(lp1411
S'127.0.1.1'
p1412
asbasbasbag69
(g85
g71
NtRp1413
(dp1414
g74
(dp1415
sg83
g1344
sg76
(lp1416
g69
(g90
g71
NtRp1417
(dp1418
g74
(dp1419
sg83
g1413
sg76
(lp1420
g69
(g70
g71
NtRp1421
(dp1422
g74
(dp1423
g82
I3
ssg83
g1417
sg76
(lp1424
S'127.0.0.1'
p1425
asbasbasbasbasbasbasbag69
(g85
g71
NtRp1426
(dp1427
g74
(dp1428
sg83
g859
sg76
(lp1429
g69
(g90
g71
NtRp1430
(dp1431
g74
(dp1432
g94
g95
ssg83
g1426
sg76
(lp1433
S'path_info'
p1434
asbag69
(g90
g71
NtRp1435
(dp1436
g74
(dp1437
g101
g102
ssg83
g1426
sg76
(lp1438
S':'
asbag69
(g90
g71
NtRp1439
(dp1440
g74
(dp1441
sg83
g1426
sg76
(lp1442
g69
(g70
g71
NtRp1443
(dp1444
g74
(dp1445
g82
I4
ssg83
g1439
sg76
(lp1446
S'/assignment2/default/user_homepage'
p1447
asbasbasbag69
(g85
g71
NtRp1448
(dp1449
g74
(dp1450
sg83
g859
sg76
(lp1451
g69
(g90
g71
NtRp1452
(dp1453
g74
(dp1454
g94
g95
ssg83
g1448
sg76
(lp1455
S'query_string'
p1456
asbag69
(g90
g71
NtRp1457
(dp1458
g74
(dp1459
g101
g102
ssg83
g1448
sg76
(lp1460
S':'
asbag69
(g90
g71
NtRp1461
(dp1462
g74
(dp1463
sg83
g1448
sg76
(lp1464
g69
(g70
g71
NtRp1465
(dp1466
g74
(dp1467
g82
I4
ssg83
g1461
sg76
(lp1468
S''
asbasbasbag69
(g85
g71
NtRp1469
(dp1470
g74
(dp1471
sg83
g859
sg76
(lp1472
g69
(g90
g71
NtRp1473
(dp1474
g74
(dp1475
g94
g95
ssg83
g1469
sg76
(lp1476
S'remote_addr'
p1477
asbag69
(g90
g71
NtRp1478
(dp1479
g74
(dp1480
g101
g102
ssg83
g1469
sg76
(lp1481
S':'
asbag69
(g90
g71
NtRp1482
(dp1483
g74
(dp1484
sg83
g1469
sg76
(lp1485
g69
(g70
g71
NtRp1486
(dp1487
g74
(dp1488
g82
I4
ssg83
g1482
sg76
(lp1489
g224
asbasbasbag69
(g85
g71
NtRp1490
(dp1491
g74
(dp1492
sg83
g859
sg76
(lp1493
g69
(g90
g71
NtRp1494
(dp1495
g74
(dp1496
g94
g95
ssg83
g1490
sg76
(lp1497
S'remote_port'
p1498
asbag69
(g90
g71
NtRp1499
(dp1500
g74
(dp1501
g101
g102
ssg83
g1490
sg76
(lp1502
S':'
asbag69
(g90
g71
NtRp1503
(dp1504
g74
(dp1505
sg83
g1490
sg76
(lp1506
g69
(g70
g71
NtRp1507
(dp1508
g74
(dp1509
g82
I4
ssg83
g1503
sg76
(lp1510
S'49952'
p1511
asbasbasbag69
(g85
g71
NtRp1512
(dp1513
g74
(dp1514
sg83
g859
sg76
(lp1515
g69
(g90
g71
NtRp1516
(dp1517
g74
(dp1518
g94
g95
ssg83
g1512
sg76
(lp1519
S'request_method'
p1520
asbag69
(g90
g71
NtRp1521
(dp1522
g74
(dp1523
g101
g102
ssg83
g1512
sg76
(lp1524
S':'
asbag69
(g90
g71
NtRp1525
(dp1526
g74
(dp1527
sg83
g1512
sg76
(lp1528
g69
(g70
g71
NtRp1529
(dp1530
g74
(dp1531
g82
I4
ssg83
g1525
sg76
(lp1532
S'POST'
p1533
asbasbasbag69
(g85
g71
NtRp1534
(dp1535
g74
(dp1536
sg83
g859
sg76
(lp1537
g69
(g90
g71
NtRp1538
(dp1539
g74
(dp1540
g94
g95
ssg83
g1534
sg76
(lp1541
S'request_uri'
p1542
asbag69
(g90
g71
NtRp1543
(dp1544
g74
(dp1545
g101
g102
ssg83
g1534
sg76
(lp1546
S':'
asbag69
(g90
g71
NtRp1547
(dp1548
g74
(dp1549
sg83
g1534
sg76
(lp1550
g69
(g70
g71
NtRp1551
(dp1552
g74
(dp1553
g82
I4
ssg83
g1547
sg76
(lp1554
g1447
asbasbasbag69
(g85
g71
NtRp1555
(dp1556
g74
(dp1557
sg83
g859
sg76
(lp1558
g69
(g90
g71
NtRp1559
(dp1560
g74
(dp1561
g94
g95
ssg83
g1555
sg76
(lp1562
S'script_name'
p1563
asbag69
(g90
g71
NtRp1564
(dp1565
g74
(dp1566
g101
g102
ssg83
g1555
sg76
(lp1567
S':'
asbag69
(g90
g71
NtRp1568
(dp1569
g74
(dp1570
sg83
g1555
sg76
(lp1571
g69
(g70
g71
NtRp1572
(dp1573
g74
(dp1574
g82
I4
ssg83
g1568
sg76
(lp1575
S''
asbasbasbag69
(g85
g71
NtRp1576
(dp1577
g74
(dp1578
sg83
g859
sg76
(lp1579
g69
(g90
g71
NtRp1580
(dp1581
g74
(dp1582
g94
g95
ssg83
g1576
sg76
(lp1583
S'server_name'
p1584
asbag69
(g90
g71
NtRp1585
(dp1586
g74
(dp1587
g101
g102
ssg83
g1576
sg76
(lp1588
S':'
asbag69
(g90
g71
NtRp1589
(dp1590
g74
(dp1591
sg83
g1576
sg76
(lp1592
g69
(g70
g71
NtRp1593
(dp1594
g74
(dp1595
g82
I4
ssg83
g1589
sg76
(lp1596
S'ubuntu'
p1597
asbasbasbag69
(g85
g71
NtRp1598
(dp1599
g74
(dp1600
sg83
g859
sg76
(lp1601
g69
(g90
g71
NtRp1602
(dp1603
g74
(dp1604
g94
g95
ssg83
g1598
sg76
(lp1605
S'server_port'
p1606
asbag69
(g90
g71
NtRp1607
(dp1608
g74
(dp1609
g101
g102
ssg83
g1598
sg76
(lp1610
S':'
asbag69
(g90
g71
NtRp1611
(dp1612
g74
(dp1613
sg83
g1598
sg76
(lp1614
g69
(g70
g71
NtRp1615
(dp1616
g74
(dp1617
g82
I4
ssg83
g1611
sg76
(lp1618
S'8000'
p1619
asbasbasbag69
(g85
g71
NtRp1620
(dp1621
g74
(dp1622
sg83
g859
sg76
(lp1623
g69
(g90
g71
NtRp1624
(dp1625
g74
(dp1626
g94
g95
ssg83
g1620
sg76
(lp1627
S'server_protocol'
p1628
asbag69
(g90
g71
NtRp1629
(dp1630
g74
(dp1631
g101
g102
ssg83
g1620
sg76
(lp1632
S':'
asbag69
(g90
g71
NtRp1633
(dp1634
g74
(dp1635
sg83
g1620
sg76
(lp1636
g69
(g70
g71
NtRp1637
(dp1638
g74
(dp1639
g82
I4
ssg83
g1633
sg76
(lp1640
S'HTTP/1.1'
p1641
asbasbasbag69
(g85
g71
NtRp1642
(dp1643
g74
(dp1644
sg83
g859
sg76
(lp1645
g69
(g90
g71
NtRp1646
(dp1647
g74
(dp1648
g94
g95
ssg83
g1642
sg76
(lp1649
S'server_software'
p1650
asbag69
(g90
g71
NtRp1651
(dp1652
g74
(dp1653
g101
g102
ssg83
g1642
sg76
(lp1654
S':'
asbag69
(g90
g71
NtRp1655
(dp1656
g74
(dp1657
sg83
g1642
sg76
(lp1658
g69
(g70
g71
NtRp1659
(dp1660
g74
(dp1661
g82
I4
ssg83
g1655
sg76
(lp1662
S'Rocket 1.2.6'
p1663
asbasbasbag69
(g85
g71
NtRp1664
(dp1665
g74
(dp1666
sg83
g859
sg76
(lp1667
g69
(g90
g71
NtRp1668
(dp1669
g74
(dp1670
g94
g95
ssg83
g1664
sg76
(lp1671
S'web2py_path'
p1672
asbag69
(g90
g71
NtRp1673
(dp1674
g74
(dp1675
g101
g102
ssg83
g1664
sg76
(lp1676
S':'
asbag69
(g90
g71
NtRp1677
(dp1678
g74
(dp1679
sg83
g1664
sg76
(lp1680
g69
(g70
g71
NtRp1681
(dp1682
g74
(dp1683
g82
I4
ssg83
g1677
sg76
(lp1684
g906
asbasbasbag69
(g85
g71
NtRp1685
(dp1686
g74
(dp1687
sg83
g859
sg76
(lp1688
g69
(g90
g71
NtRp1689
(dp1690
g74
(dp1691
g94
g95
ssg83
g1685
sg76
(lp1692
S'web2py_version'
p1693
asbag69
(g90
g71
NtRp1694
(dp1695
g74
(dp1696
g101
g102
ssg83
g1685
sg76
(lp1697
S':'
asbag69
(g90
g71
NtRp1698
(dp1699
g74
(dp1700
sg83
g1685
sg76
(lp1701
g69
(g70
g71
NtRp1702
(dp1703
g74
(dp1704
g82
I4
ssg83
g1698
sg76
(lp1705
g69
(g78
g71
NtRp1706
(dp1707
g74
(dp1708
g82
I3
ssg83
Nsg76
(lp1709
g69
(g85
g71
NtRp1710
(dp1711
g74
(dp1712
sg83
g1706
sg76
(lp1713
g69
(g90
g71
NtRp1714
(dp1715
g74
(dp1716
sg83
g1710
sg76
(lp1717
g69
(g70
g71
NtRp1718
(dp1719
g74
(dp1720
g82
I3
ssg83
g1714
sg76
(lp1721
S'2'
asbasbasbag69
(g85
g71
NtRp1722
(dp1723
g74
(dp1724
sg83
g1706
sg76
(lp1725
g69
(g90
g71
NtRp1726
(dp1727
g74
(dp1728
sg83
g1722
sg76
(lp1729
g69
(g70
g71
NtRp1730
(dp1731
g74
(dp1732
g82
I3
ssg83
g1726
sg76
(lp1733
S'3'
asbasbasbag69
(g85
g71
NtRp1734
(dp1735
g74
(dp1736
sg83
g1706
sg76
(lp1737
g69
(g90
g71
NtRp1738
(dp1739
g74
(dp1740
sg83
g1734
sg76
(lp1741
g69
(g70
g71
NtRp1742
(dp1743
g74
(dp1744
g82
I3
ssg83
g1738
sg76
(lp1745
S'2'
asbasbasbag69
(g85
g71
NtRp1746
(dp1747
g74
(dp1748
sg83
g1706
sg76
(lp1749
g69
(g90
g71
NtRp1750
(dp1751
g74
(dp1752
sg83
g1746
sg76
(lp1753
g69
(g70
g71
NtRp1754
(dp1755
g74
(dp1756
g82
I3
ssg83
g1750
sg76
(lp1757
S'datetime.datetime(2012, 12, 17, 15, 3, 30)'
p1758
asbasbasbag69
(g85
g71
NtRp1759
(dp1760
g74
(dp1761
sg83
g1706
sg76
(lp1762
g69
(g90
g71
NtRp1763
(dp1764
g74
(dp1765
sg83
g1759
sg76
(lp1766
g69
(g70
g71
NtRp1767
(dp1768
g74
(dp1769
g82
I3
ssg83
g1763
sg76
(lp1770
S'stable'
p1771
asbasbasbasbasbasbasbag69
(g85
g71
NtRp1772
(dp1773
g74
(dp1774
sg83
g859
sg76
(lp1775
g69
(g90
g71
NtRp1776
(dp1777
g74
(dp1778
g94
g95
ssg83
g1772
sg76
(lp1779
S'wsgi_errors'
p1780
asbag69
(g90
g71
NtRp1781
(dp1782
g74
(dp1783
g101
g102
ssg83
g1772
sg76
(lp1784
S':'
asbag69
(g90
g71
NtRp1785
(dp1786
g74
(dp1787
sg83
g1772
sg76
(lp1788
g69
(g70
g71
NtRp1789
(dp1790
g74
(dp1791
g82
I4
ssg83
g1785
sg76
(lp1792
S"<open file '<stderr>', mode 'w' at 0xb73710d0>"
p1793
asbasbasbag69
(g85
g71
NtRp1794
(dp1795
g74
(dp1796
sg83
g859
sg76
(lp1797
g69
(g90
g71
NtRp1798
(dp1799
g74
(dp1800
g94
g95
ssg83
g1794
sg76
(lp1801
S'wsgi_file_wrapper'
p1802
asbag69
(g90
g71
NtRp1803
(dp1804
g74
(dp1805
g101
g102
ssg83
g1794
sg76
(lp1806
S':'
asbag69
(g90
g71
NtRp1807
(dp1808
g74
(dp1809
sg83
g1794
sg76
(lp1810
g69
(g70
g71
NtRp1811
(dp1812
g74
(dp1813
g82
I4
ssg83
g1807
sg76
(lp1814
S'<class wsgiref.util.FileWrapper at 0x8dd265c>'
p1815
asbasbasbag69
(g85
g71
NtRp1816
(dp1817
g74
(dp1818
sg83
g859
sg76
(lp1819
g69
(g90
g71
NtRp1820
(dp1821
g74
(dp1822
g94
g95
ssg83
g1816
sg76
(lp1823
S'wsgi_input'
p1824
asbag69
(g90
g71
NtRp1825
(dp1826
g74
(dp1827
g101
g102
ssg83
g1816
sg76
(lp1828
S':'
asbag69
(g90
g71
NtRp1829
(dp1830
g74
(dp1831
sg83
g1816
sg76
(lp1832
g69
(g70
g71
NtRp1833
(dp1834
g74
(dp1835
g82
I4
ssg83
g1829
sg76
(lp1836
S'<socket._fileobject object at 0xada94a2c>'
p1837
asbasbasbag69
(g85
g71
NtRp1838
(dp1839
g74
(dp1840
sg83
g859
sg76
(lp1841
g69
(g90
g71
NtRp1842
(dp1843
g74
(dp1844
g94
g95
ssg83
g1838
sg76
(lp1845
S'wsgi_multiprocess'
p1846
asbag69
(g90
g71
NtRp1847
(dp1848
g74
(dp1849
g101
g102
ssg83
g1838
sg76
(lp1850
S':'
asbag69
(g90
g71
NtRp1851
(dp1852
g74
(dp1853
sg83
g1838
sg76
(lp1854
g69
(g70
g71
NtRp1855
(dp1856
g74
(dp1857
g82
I4
ssg83
g1851
sg76
(lp1858
g112
asbasbasbag69
(g85
g71
NtRp1859
(dp1860
g74
(dp1861
sg83
g859
sg76
(lp1862
g69
(g90
g71
NtRp1863
(dp1864
g74
(dp1865
g94
g95
ssg83
g1859
sg76
(lp1866
S'wsgi_multithread'
p1867
asbag69
(g90
g71
NtRp1868
(dp1869
g74
(dp1870
g101
g102
ssg83
g1859
sg76
(lp1871
S':'
asbag69
(g90
g71
NtRp1872
(dp1873
g74
(dp1874
sg83
g1859
sg76
(lp1875
g69
(g70
g71
NtRp1876
(dp1877
g74
(dp1878
g82
I4
ssg83
g1872
sg76
(lp1879
S'True'
p1880
asbasbasbag69
(g85
g71
NtRp1881
(dp1882
g74
(dp1883
sg83
g859
sg76
(lp1884
g69
(g90
g71
NtRp1885
(dp1886
g74
(dp1887
g94
g95
ssg83
g1881
sg76
(lp1888
S'wsgi_run_once'
p1889
asbag69
(g90
g71
NtRp1890
(dp1891
g74
(dp1892
g101
g102
ssg83
g1881
sg76
(lp1893
S':'
asbag69
(g90
g71
NtRp1894
(dp1895
g74
(dp1896
sg83
g1881
sg76
(lp1897
g69
(g70
g71
NtRp1898
(dp1899
g74
(dp1900
g82
I4
ssg83
g1894
sg76
(lp1901
g112
asbasbasbag69
(g85
g71
NtRp1902
(dp1903
g74
(dp1904
sg83
g859
sg76
(lp1905
g69
(g90
g71
NtRp1906
(dp1907
g74
(dp1908
g94
g95
ssg83
g1902
sg76
(lp1909
S'wsgi_url_scheme'
p1910
asbag69
(g90
g71
NtRp1911
(dp1912
g74
(dp1913
g101
g102
ssg83
g1902
sg76
(lp1914
S':'
asbag69
(g90
g71
NtRp1915
(dp1916
g74
(dp1917
sg83
g1902
sg76
(lp1918
g69
(g70
g71
NtRp1919
(dp1920
g74
(dp1921
g82
I4
ssg83
g1915
sg76
(lp1922
S'http'
p1923
asbasbasbag69
(g85
g71
NtRp1924
(dp1925
g74
(dp1926
sg83
g859
sg76
(lp1927
g69
(g90
g71
NtRp1928
(dp1929
g74
(dp1930
g94
g95
ssg83
g1924
sg76
(lp1931
S'wsgi_version'
p1932
asbag69
(g90
g71
NtRp1933
(dp1934
g74
(dp1935
g101
g102
ssg83
g1924
sg76
(lp1936
S':'
asbag69
(g90
g71
NtRp1937
(dp1938
g74
(dp1939
sg83
g1924
sg76
(lp1940
g69
(g70
g71
NtRp1941
(dp1942
g74
(dp1943
g82
I4
ssg83
g1937
sg76
(lp1944
g69
(g78
g71
NtRp1945
(dp1946
g74
(dp1947
g82
I3
ssg83
Nsg76
(lp1948
g69
(g85
g71
NtRp1949
(dp1950
g74
(dp1951
sg83
g1945
sg76
(lp1952
g69
(g90
g71
NtRp1953
(dp1954
g74
(dp1955
sg83
g1949
sg76
(lp1956
g69
(g70
g71
NtRp1957
(dp1958
g74
(dp1959
g82
I3
ssg83
g1953
sg76
(lp1960
S'1'
asbasbasbag69
(g85
g71
NtRp1961
(dp1962
g74
(dp1963
sg83
g1945
sg76
(lp1964
g69
(g90
g71
NtRp1965
(dp1966
g74
(dp1967
sg83
g1961
sg76
(lp1968
g69
(g70
g71
NtRp1969
(dp1970
g74
(dp1971
g82
I3
ssg83
g1965
sg76
(lp1972
S'0'
asbasbasbasbasbasbasbasbasbasbasbag69
(g85
g71
NtRp1973
(dp1974
g74
(dp1975
sg83
g79
sg76
(lp1976
g69
(g90
g71
NtRp1977
(dp1978
g74
(dp1979
g94
g95
ssg83
g1973
sg76
(lp1980
S'extension'
p1981
asbag69
(g90
g71
NtRp1982
(dp1983
g74
(dp1984
g101
g102
ssg83
g1973
sg76
(lp1985
S':'
asbag69
(g90
g71
NtRp1986
(dp1987
g74
(dp1988
sg83
g1973
sg76
(lp1989
g69
(g70
g71
NtRp1990
(dp1991
g74
(dp1992
g82
I5
ssg83
g1986
sg76
(lp1993
S'html'
p1994
asbasbasbag69
(g85
g71
NtRp1995
(dp1996
g74
(dp1997
sg83
g79
sg76
(lp1998
g69
(g90
g71
NtRp1999
(dp2000
g74
(dp2001
g94
g95
ssg83
g1995
sg76
(lp2002
S'folder'
p2003
asbag69
(g90
g71
NtRp2004
(dp2005
g74
(dp2006
g101
g102
ssg83
g1995
sg76
(lp2007
S':'
asbag69
(g90
g71
NtRp2008
(dp2009
g74
(dp2010
sg83
g1995
sg76
(lp2011
g69
(g70
g71
NtRp2012
(dp2013
g74
(dp2014
g82
I5
ssg83
g2008
sg76
(lp2015
S'/home/aditi/Desktop/web2py/applications/assignment2/'
p2016
asbasbasbag69
(g85
g71
NtRp2017
(dp2018
g74
(dp2019
sg83
g79
sg76
(lp2020
g69
(g90
g71
NtRp2021
(dp2022
g74
(dp2023
g94
g95
ssg83
g2017
sg76
(lp2024
S'function'
p2025
asbag69
(g90
g71
NtRp2026
(dp2027
g74
(dp2028
g101
g102
ssg83
g2017
sg76
(lp2029
S':'
asbag69
(g90
g71
NtRp2030
(dp2031
g74
(dp2032
sg83
g2017
sg76
(lp2033
g69
(g70
g71
NtRp2034
(dp2035
g74
(dp2036
g82
I5
ssg83
g2030
sg76
(lp2037
S'user_homepage'
p2038
asbasbasbag69
(g85
g71
NtRp2039
(dp2040
g74
(dp2041
sg83
g79
sg76
(lp2042
g69
(g90
g71
NtRp2043
(dp2044
g74
(dp2045
g94
g95
ssg83
g2039
sg76
(lp2046
S'get_vars'
p2047
asbag69
(g90
g71
NtRp2048
(dp2049
g74
(dp2050
g101
g102
ssg83
g2039
sg76
(lp2051
S':'
asbag69
(g90
g71
NtRp2052
(dp2053
g74
(dp2054
sg83
g2039
sg76
(lp2055
g69
(g70
g71
NtRp2056
(dp2057
g74
(dp2058
g82
I5
ssg83
g2052
sg76
(lp2059
g69
(g78
g71
NtRp2060
(dp2061
g74
(dp2062
g82
I4
ssg83
Nsg76
(lp2063
sbasbasbasbag69
(g85
g71
NtRp2064
(dp2065
g74
(dp2066
sg83
g79
sg76
(lp2067
g69
(g90
g71
NtRp2068
(dp2069
g74
(dp2070
g94
g95
ssg83
g2064
sg76
(lp2071
S'global_settings'
p2072
asbag69
(g90
g71
NtRp2073
(dp2074
g74
(dp2075
g101
g102
ssg83
g2064
sg76
(lp2076
S':'
asbag69
(g90
g71
NtRp2077
(dp2078
g74
(dp2079
sg83
g2064
sg76
(lp2080
g69
(g70
g71
NtRp2081
(dp2082
g74
(dp2083
g82
I5
ssg83
g2077
sg76
(lp2084
g69
(g78
g71
NtRp2085
(dp2086
g74
(dp2087
g82
I4
ssg83
Nsg76
(lp2088
g69
(g85
g71
NtRp2089
(dp2090
g74
(dp2091
sg83
g2085
sg76
(lp2092
g69
(g90
g71
NtRp2093
(dp2094
g74
(dp2095
g94
g95
ssg83
g2089
sg76
(lp2096
g871
asbag69
(g90
g71
NtRp2097
(dp2098
g74
(dp2099
g101
g102
ssg83
g2089
sg76
(lp2100
S':'
asbag69
(g90
g71
NtRp2101
(dp2102
g74
(dp2103
sg83
g2089
sg76
(lp2104
g69
(g70
g71
NtRp2105
(dp2106
g74
(dp2107
g82
I4
ssg83
g2101
sg76
(lp2108
S"set(['/home/aditi/Desktop/web2py/applications/assignment2/', '/home/aditi/Desktop/web2py/applications/admin/', '/home/aditi/Desktop/web2py/applications/welcome/'])"
p2109
asbasbasbag69
(g85
g71
NtRp2110
(dp2111
g74
(dp2112
sg83
g2085
sg76
(lp2113
g69
(g90
g71
NtRp2114
(dp2115
g74
(dp2116
g94
g95
ssg83
g2110
sg76
(lp2117
g893
asbag69
(g90
g71
NtRp2118
(dp2119
g74
(dp2120
g101
g102
ssg83
g2110
sg76
(lp2121
S':'
asbag69
(g90
g71
NtRp2122
(dp2123
g74
(dp2124
sg83
g2110
sg76
(lp2125
g69
(g70
g71
NtRp2126
(dp2127
g74
(dp2128
g82
I4
ssg83
g2122
sg76
(lp2129
g906
asbasbasbag69
(g85
g71
NtRp2130
(dp2131
g74
(dp2132
sg83
g2085
sg76
(lp2133
g69
(g90
g71
NtRp2134
(dp2135
g74
(dp2136
g94
g95
ssg83
g2130
sg76
(lp2137
g915
asbag69
(g90
g71
NtRp2138
(dp2139
g74
(dp2140
g101
g102
ssg83
g2130
sg76
(lp2141
S':'
asbag69
(g90
g71
NtRp2142
(dp2143
g74
(dp2144
sg83
g2130
sg76
(lp2145
g69
(g70
g71
NtRp2146
(dp2147
g74
(dp2148
g82
I4
ssg83
g2142
sg76
(lp2149
g69
(g78
g71
NtRp2150
(dp2151
g74
(dp2152
g82
I3
ssg83
Nsg76
(lp2153
sbasbasbasbag69
(g85
g71
NtRp2154
(dp2155
g74
(dp2156
sg83
g2085
sg76
(lp2157
g69
(g90
g71
NtRp2158
(dp2159
g74
(dp2160
g94
g95
ssg83
g2154
sg76
(lp2161
g940
asbag69
(g90
g71
NtRp2162
(dp2163
g74
(dp2164
g101
g102
ssg83
g2154
sg76
(lp2165
S':'
asbag69
(g90
g71
NtRp2166
(dp2167
g74
(dp2168
sg83
g2154
sg76
(lp2169
g69
(g70
g71
NtRp2170
(dp2171
g74
(dp2172
g82
I4
ssg83
g2166
sg76
(lp2173
S"<Values at 0x8e16a0c: {'verbose': False, 'ip': '127.0.0.1', 'with_scheduler': False, 'ips': [], 'shutdown_timeout': 5, 'taskbar': False, 'port': 8000, 'maxthreads': None, 'softcron': False, 'server_name': 'ubuntu', 'bpython': False, 'nogui': False, 'pid_filename': 'httpserver.pid', 'extcron': False, 'runcron': False, 'run_system_tests': False, 'test': None, 'folder': '/home/aditi/Desktop/web2py', 'config': '', 'import_models': False, 'winservice': '', 'shell': None, 'run': '', 'log_filename': 'httpserver.log', 'debuglevel': 30, 'args': [''], 'socket_timeout': 5, 'ssl_ca_certificate': None, 'scheduler': None, 'profiler_filename': None, 'ssl_private_key': '', 'scheduler_groups': None, 'password': '<ask>', 'request_queue_size': 5, 'ssl_certificate': '', 'cronjob': False, 'numthreads': None, 'quiet': False, 'interfaces': None, 'minthreads': None, 'timeout': 10, 'plain': False, 'nobanner': False}>"
p2174
asbasbasbag69
(g85
g71
NtRp2175
(dp2176
g74
(dp2177
sg83
g2085
sg76
(lp2178
g69
(g90
g71
NtRp2179
(dp2180
g74
(dp2181
g94
g95
ssg83
g2175
sg76
(lp2182
g1006
asbag69
(g90
g71
NtRp2183
(dp2184
g74
(dp2185
g101
g102
ssg83
g2175
sg76
(lp2186
S':'
asbag69
(g90
g71
NtRp2187
(dp2188
g74
(dp2189
sg83
g2175
sg76
(lp2190
g69
(g70
g71
NtRp2191
(dp2192
g74
(dp2193
g82
I4
ssg83
g2187
sg76
(lp2194
S'set([])'
p2195
asbasbasbag69
(g85
g71
NtRp2196
(dp2197
g74
(dp2198
sg83
g2085
sg76
(lp2199
g69
(g90
g71
NtRp2200
(dp2201
g74
(dp2202
g94
g95
ssg83
g2196
sg76
(lp2203
g1028
asbag69
(g90
g71
NtRp2204
(dp2205
g74
(dp2206
g101
g102
ssg83
g2196
sg76
(lp2207
S':'
asbag69
(g90
g71
NtRp2208
(dp2209
g74
(dp2210
sg83
g2196
sg76
(lp2211
g69
(g70
g71
NtRp2212
(dp2213
g74
(dp2214
g82
I4
ssg83
g2208
sg76
(lp2215
g112
asbasbasbag69
(g85
g71
NtRp2216
(dp2217
g74
(dp2218
sg83
g2085
sg76
(lp2219
g69
(g90
g71
NtRp2220
(dp2221
g74
(dp2222
g94
g95
ssg83
g2216
sg76
(lp2223
g1049
asbag69
(g90
g71
NtRp2224
(dp2225
g74
(dp2226
g101
g102
ssg83
g2216
sg76
(lp2227
S':'
asbag69
(g90
g71
NtRp2228
(dp2229
g74
(dp2230
sg83
g2216
sg76
(lp2231
g69
(g70
g71
NtRp2232
(dp2233
g74
(dp2234
g82
I4
ssg83
g2228
sg76
(lp2235
g1062
asbasbasbag69
(g85
g71
NtRp2236
(dp2237
g74
(dp2238
sg83
g2085
sg76
(lp2239
g69
(g90
g71
NtRp2240
(dp2241
g74
(dp2242
g94
g95
ssg83
g2236
sg76
(lp2243
g1289
asbag69
(g90
g71
NtRp2244
(dp2245
g74
(dp2246
g101
g102
ssg83
g2236
sg76
(lp2247
S':'
asbag69
(g90
g71
NtRp2248
(dp2249
g74
(dp2250
sg83
g2236
sg76
(lp2251
g69
(g70
g71
NtRp2252
(dp2253
g74
(dp2254
g82
I4
ssg83
g2248
sg76
(lp2255
g112
asbasbasbag69
(g85
g71
NtRp2256
(dp2257
g74
(dp2258
sg83
g2085
sg76
(lp2259
g69
(g90
g71
NtRp2260
(dp2261
g74
(dp2262
g94
g95
ssg83
g2256
sg76
(lp2263
g1310
asbag69
(g90
g71
NtRp2264
(dp2265
g74
(dp2266
g101
g102
ssg83
g2256
sg76
(lp2267
S':'
asbag69
(g90
g71
NtRp2268
(dp2269
g74
(dp2270
sg83
g2256
sg76
(lp2271
g69
(g70
g71
NtRp2272
(dp2273
g74
(dp2274
g82
I4
ssg83
g2268
sg76
(lp2275
g112
asbasbasbag69
(g85
g71
NtRp2276
(dp2277
g74
(dp2278
sg83
g2085
sg76
(lp2279
g69
(g90
g71
NtRp2280
(dp2281
g74
(dp2282
g94
g95
ssg83
g2276
sg76
(lp2283
g1331
asbag69
(g90
g71
NtRp2284
(dp2285
g74
(dp2286
g101
g102
ssg83
g2276
sg76
(lp2287
S':'
asbag69
(g90
g71
NtRp2288
(dp2289
g74
(dp2290
sg83
g2276
sg76
(lp2291
g69
(g70
g71
NtRp2292
(dp2293
g74
(dp2294
g82
I4
ssg83
g2288
sg76
(lp2295
g69
(g78
g71
NtRp2296
(dp2297
g74
(dp2298
g82
I3
ssg83
Nsg76
(lp2299
g69
(g85
g71
NtRp2300
(dp2301
g74
(dp2302
sg83
g2296
sg76
(lp2303
g69
(g90
g71
NtRp2304
(dp2305
g74
(dp2306
sg83
g2300
sg76
(lp2307
g69
(g70
g71
NtRp2308
(dp2309
g74
(dp2310
g82
I3
ssg83
g2304
sg76
(lp2311
g1360
asbasbasbag69
(g85
g71
NtRp2312
(dp2313
g74
(dp2314
sg83
g2296
sg76
(lp2315
g69
(g90
g71
NtRp2316
(dp2317
g74
(dp2318
sg83
g2312
sg76
(lp2319
g69
(g70
g71
NtRp2320
(dp2321
g74
(dp2322
g82
I3
ssg83
g2316
sg76
(lp2323
g1373
asbasbasbag69
(g85
g71
NtRp2324
(dp2325
g74
(dp2326
sg83
g2296
sg76
(lp2327
g69
(g90
g71
NtRp2328
(dp2329
g74
(dp2330
sg83
g2324
sg76
(lp2331
g69
(g70
g71
NtRp2332
(dp2333
g74
(dp2334
g82
I3
ssg83
g2328
sg76
(lp2335
g1386
asbasbasbag69
(g85
g71
NtRp2336
(dp2337
g74
(dp2338
sg83
g2296
sg76
(lp2339
g69
(g90
g71
NtRp2340
(dp2341
g74
(dp2342
sg83
g2336
sg76
(lp2343
g69
(g70
g71
NtRp2344
(dp2345
g74
(dp2346
g82
I3
ssg83
g2340
sg76
(lp2347
g1399
asbasbasbag69
(g85
g71
NtRp2348
(dp2349
g74
(dp2350
sg83
g2296
sg76
(lp2351
g69
(g90
g71
NtRp2352
(dp2353
g74
(dp2354
sg83
g2348
sg76
(lp2355
g69
(g70
g71
NtRp2356
(dp2357
g74
(dp2358
g82
I3
ssg83
g2352
sg76
(lp2359
g1412
asbasbasbag69
(g85
g71
NtRp2360
(dp2361
g74
(dp2362
sg83
g2296
sg76
(lp2363
g69
(g90
g71
NtRp2364
(dp2365
g74
(dp2366
sg83
g2360
sg76
(lp2367
g69
(g70
g71
NtRp2368
(dp2369
g74
(dp2370
g82
I3
ssg83
g2364
sg76
(lp2371
g1425
asbasbasbasbasbasbasbag69
(g85
g71
NtRp2372
(dp2373
g74
(dp2374
sg83
g2085
sg76
(lp2375
g69
(g90
g71
NtRp2376
(dp2377
g74
(dp2378
g94
g95
ssg83
g2372
sg76
(lp2379
g1693
asbag69
(g90
g71
NtRp2380
(dp2381
g74
(dp2382
g101
g102
ssg83
g2372
sg76
(lp2383
S':'
asbag69
(g90
g71
NtRp2384
(dp2385
g74
(dp2386
sg83
g2372
sg76
(lp2387
g69
(g70
g71
NtRp2388
(dp2389
g74
(dp2390
g82
I4
ssg83
g2384
sg76
(lp2391
g69
(g78
g71
NtRp2392
(dp2393
g74
(dp2394
g82
I3
ssg83
Nsg76
(lp2395
g69
(g85
g71
NtRp2396
(dp2397
g74
(dp2398
sg83
g2392
sg76
(lp2399
g69
(g90
g71
NtRp2400
(dp2401
g74
(dp2402
sg83
g2396
sg76
(lp2403
g69
(g70
g71
NtRp2404
(dp2405
g74
(dp2406
g82
I3
ssg83
g2400
sg76
(lp2407
S'2'
asbasbasbag69
(g85
g71
NtRp2408
(dp2409
g74
(dp2410
sg83
g2392
sg76
(lp2411
g69
(g90
g71
NtRp2412
(dp2413
g74
(dp2414
sg83
g2408
sg76
(lp2415
g69
(g70
g71
NtRp2416
(dp2417
g74
(dp2418
g82
I3
ssg83
g2412
sg76
(lp2419
S'3'
asbasbasbag69
(g85
g71
NtRp2420
(dp2421
g74
(dp2422
sg83
g2392
sg76
(lp2423
g69
(g90
g71
NtRp2424
(dp2425
g74
(dp2426
sg83
g2420
sg76
(lp2427
g69
(g70
g71
NtRp2428
(dp2429
g74
(dp2430
g82
I3
ssg83
g2424
sg76
(lp2431
S'2'
asbasbasbag69
(g85
g71
NtRp2432
(dp2433
g74
(dp2434
sg83
g2392
sg76
(lp2435
g69
(g90
g71
NtRp2436
(dp2437
g74
(dp2438
sg83
g2432
sg76
(lp2439
g69
(g70
g71
NtRp2440
(dp2441
g74
(dp2442
g82
I3
ssg83
g2436
sg76
(lp2443
S'datetime.datetime(2012, 12, 17, 15, 3, 30)'
p2444
asbasbasbag69
(g85
g71
NtRp2445
(dp2446
g74
(dp2447
sg83
g2392
sg76
(lp2448
g69
(g90
g71
NtRp2449
(dp2450
g74
(dp2451
sg83
g2445
sg76
(lp2452
g69
(g70
g71
NtRp2453
(dp2454
g74
(dp2455
g82
I3
ssg83
g2449
sg76
(lp2456
g1771
asbasbasbasbasbasbasbasbasbasbasbag69
(g85
g71
NtRp2457
(dp2458
g74
(dp2459
sg83
g79
sg76
(lp2460
g69
(g90
g71
NtRp2461
(dp2462
g74
(dp2463
g94
g95
ssg83
g2457
sg76
(lp2464
S'is_https'
p2465
asbag69
(g90
g71
NtRp2466
(dp2467
g74
(dp2468
g101
g102
ssg83
g2457
sg76
(lp2469
S':'
asbag69
(g90
g71
NtRp2470
(dp2471
g74
(dp2472
sg83
g2457
sg76
(lp2473
g69
(g70
g71
NtRp2474
(dp2475
g74
(dp2476
g82
I5
ssg83
g2470
sg76
(lp2477
g112
asbasbasbag69
(g85
g71
NtRp2478
(dp2479
g74
(dp2480
sg83
g79
sg76
(lp2481
g69
(g90
g71
NtRp2482
(dp2483
g74
(dp2484
g94
g95
ssg83
g2478
sg76
(lp2485
S'is_local'
p2486
asbag69
(g90
g71
NtRp2487
(dp2488
g74
(dp2489
g101
g102
ssg83
g2478
sg76
(lp2490
S':'
asbag69
(g90
g71
NtRp2491
(dp2492
g74
(dp2493
sg83
g2478
sg76
(lp2494
g69
(g70
g71
NtRp2495
(dp2496
g74
(dp2497
g82
I5
ssg83
g2491
sg76
(lp2498
g1880
asbasbasbag69
(g85
g71
NtRp2499
(dp2500
g74
(dp2501
sg83
g79
sg76
(lp2502
g69
(g90
g71
NtRp2503
(dp2504
g74
(dp2505
g94
g95
ssg83
g2499
sg76
(lp2506
S'is_restful'
p2507
asbag69
(g90
g71
NtRp2508
(dp2509
g74
(dp2510
g101
g102
ssg83
g2499
sg76
(lp2511
S':'
asbag69
(g90
g71
NtRp2512
(dp2513
g74
(dp2514
sg83
g2499
sg76
(lp2515
g69
(g70
g71
NtRp2516
(dp2517
g74
(dp2518
g82
I5
ssg83
g2512
sg76
(lp2519
g112
asbasbasbag69
(g85
g71
NtRp2520
(dp2521
g74
(dp2522
sg83
g79
sg76
(lp2523
g69
(g90
g71
NtRp2524
(dp2525
g74
(dp2526
g94
g95
ssg83
g2520
sg76
(lp2527
S'now'
p2528
asbag69
(g90
g71
NtRp2529
(dp2530
g74
(dp2531
g101
g102
ssg83
g2520
sg76
(lp2532
S':'
asbag69
(g90
g71
NtRp2533
(dp2534
g74
(dp2535
sg83
g2520
sg76
(lp2536
g69
(g70
g71
NtRp2537
(dp2538
g74
(dp2539
g82
I5
ssg83
g2533
sg76
(lp2540
S'datetime.datetime(2013, 8, 30, 17, 43, 30, 271094)'
p2541
asbasbasbag69
(g85
g71
NtRp2542
(dp2543
g74
(dp2544
sg83
g79
sg76
(lp2545
g69
(g90
g71
NtRp2546
(dp2547
g74
(dp2548
g94
g95
ssg83
g2542
sg76
(lp2549
S'post_vars'
p2550
asbag69
(g90
g71
NtRp2551
(dp2552
g74
(dp2553
g101
g102
ssg83
g2542
sg76
(lp2554
S':'
asbag69
(g90
g71
NtRp2555
(dp2556
g74
(dp2557
sg83
g2542
sg76
(lp2558
g69
(g70
g71
NtRp2559
(dp2560
g74
(dp2561
g82
I5
ssg83
g2555
sg76
(lp2562
g69
(g78
g71
NtRp2563
(dp2564
g74
(dp2565
g82
I4
ssg83
Nsg76
(lp2566
g69
(g85
g71
NtRp2567
(dp2568
g74
(dp2569
sg83
g2563
sg76
(lp2570
g69
(g90
g71
NtRp2571
(dp2572
g74
(dp2573
g94
g95
ssg83
g2567
sg76
(lp2574
S'category'
p2575
asbag69
(g90
g71
NtRp2576
(dp2577
g74
(dp2578
g101
g102
ssg83
g2567
sg76
(lp2579
S':'
asbag69
(g90
g71
NtRp2580
(dp2581
g74
(dp2582
sg83
g2567
sg76
(lp2583
g69
(g70
g71
NtRp2584
(dp2585
g74
(dp2586
g82
I4
ssg83
g2580
sg76
(lp2587
S'computer science'
p2588
asbasbasbag69
(g85
g71
NtRp2589
(dp2590
g74
(dp2591
sg83
g2563
sg76
(lp2592
g69
(g90
g71
NtRp2593
(dp2594
g74
(dp2595
g94
g95
ssg83
g2589
sg76
(lp2596
S'choice'
p2597
asbag69
(g90
g71
NtRp2598
(dp2599
g74
(dp2600
g101
g102
ssg83
g2589
sg76
(lp2601
S':'
asbag69
(g90
g71
NtRp2602
(dp2603
g74
(dp2604
sg83
g2589
sg76
(lp2605
g69
(g70
g71
NtRp2606
(dp2607
g74
(dp2608
g82
I4
ssg83
g2602
sg76
(lp2609
S'article'
p2610
asbasbasbag69
(g85
g71
NtRp2611
(dp2612
g74
(dp2613
sg83
g2563
sg76
(lp2614
g69
(g90
g71
NtRp2615
(dp2616
g74
(dp2617
g94
g95
ssg83
g2611
sg76
(lp2618
S'heading'
p2619
asbag69
(g90
g71
NtRp2620
(dp2621
g74
(dp2622
g101
g102
ssg83
g2611
sg76
(lp2623
S':'
asbag69
(g90
g71
NtRp2624
(dp2625
g74
(dp2626
sg83
g2611
sg76
(lp2627
g69
(g70
g71
NtRp2628
(dp2629
g74
(dp2630
g82
I4
ssg83
g2624
sg76
(lp2631
S'protection against password theft'
p2632
asbasbasbag69
(g85
g71
NtRp2633
(dp2634
g74
(dp2635
sg83
g2563
sg76
(lp2636
g69
(g90
g71
NtRp2637
(dp2638
g74
(dp2639
g94
g95
ssg83
g2633
sg76
(lp2640
S'url'
p2641
asbag69
(g90
g71
NtRp2642
(dp2643
g74
(dp2644
g101
g102
ssg83
g2633
sg76
(lp2645
S':'
asbag69
(g90
g71
NtRp2646
(dp2647
g74
(dp2648
sg83
g2633
sg76
(lp2649
g69
(g70
g71
NtRp2650
(dp2651
g74
(dp2652
g82
I4
ssg83
g2646
sg76
(lp2653
S'http://www.sciencedaily.com/releases/2013/08/130821085115.htm'
p2654
asbasbasbasbasbasbasbag69
(g85
g71
NtRp2655
(dp2656
g74
(dp2657
sg83
g79
sg76
(lp2658
g69
(g90
g71
NtRp2659
(dp2660
g74
(dp2661
g94
g95
ssg83
g2655
sg76
(lp2662
S'raw_args'
p2663
asbag69
(g90
g71
NtRp2664
(dp2665
g74
(dp2666
g101
g102
ssg83
g2655
sg76
(lp2667
S':'
asbag69
(g90
g71
NtRp2668
(dp2669
g74
(dp2670
sg83
g2655
sg76
(lp2671
g69
(g70
g71
NtRp2672
(dp2673
g74
(dp2674
g82
I5
ssg83
g2668
sg76
(lp2675
S''
asbasbasbag69
(g85
g71
NtRp2676
(dp2677
g74
(dp2678
sg83
g79
sg76
(lp2679
g69
(g90
g71
NtRp2680
(dp2681
g74
(dp2682
g94
g95
ssg83
g2676
sg76
(lp2683
S'raw_extension'
p2684
asbag69
(g90
g71
NtRp2685
(dp2686
g74
(dp2687
g101
g102
ssg83
g2676
sg76
(lp2688
S':'
asbag69
(g90
g71
NtRp2689
(dp2690
g74
(dp2691
sg83
g2676
sg76
(lp2692
g69
(g70
g71
NtRp2693
(dp2694
g74
(dp2695
g82
I5
ssg83
g2689
sg76
(lp2696
S'None'
p2697
asbasbasbag69
(g85
g71
NtRp2698
(dp2699
g74
(dp2700
sg83
g79
sg76
(lp2701
g69
(g90
g71
NtRp2702
(dp2703
g74
(dp2704
g94
g95
ssg83
g2698
sg76
(lp2705
S'url'
p2706
asbag69
(g90
g71
NtRp2707
(dp2708
g74
(dp2709
g101
g102
ssg83
g2698
sg76
(lp2710
S':'
asbag69
(g90
g71
NtRp2711
(dp2712
g74
(dp2713
sg83
g2698
sg76
(lp2714
g69
(g70
g71
NtRp2715
(dp2716
g74
(dp2717
g82
I5
ssg83
g2711
sg76
(lp2718
g1447
asbasbasbag69
(g85
g71
NtRp2719
(dp2720
g74
(dp2721
sg83
g79
sg76
(lp2722
g69
(g90
g71
NtRp2723
(dp2724
g74
(dp2725
g94
g95
ssg83
g2719
sg76
(lp2726
S'utcnow'
p2727
asbag69
(g90
g71
NtRp2728
(dp2729
g74
(dp2730
g101
g102
ssg83
g2719
sg76
(lp2731
S':'
asbag69
(g90
g71
NtRp2732
(dp2733
g74
(dp2734
sg83
g2719
sg76
(lp2735
g69
(g70
g71
NtRp2736
(dp2737
g74
(dp2738
g82
I5
ssg83
g2732
sg76
(lp2739
S'datetime.datetime(2013, 8, 30, 12, 13, 30, 271121)'
p2740
asbasbasbag69
(g85
g71
NtRp2741
(dp2742
g74
(dp2743
sg83
g79
sg76
(lp2744
g69
(g90
g71
NtRp2745
(dp2746
g74
(dp2747
g94
g95
ssg83
g2741
sg76
(lp2748
S'uuid'
p2749
asbag69
(g90
g71
NtRp2750
(dp2751
g74
(dp2752
g101
g102
ssg83
g2741
sg76
(lp2753
S':'
asbag69
(g90
g71
NtRp2754
(dp2755
g74
(dp2756
sg83
g2741
sg76
(lp2757
g69
(g70
g71
NtRp2758
(dp2759
g74
(dp2760
g82
I5
ssg83
g2754
sg76
(lp2761
S'assignment2/127.0.0.1.2013-08-30.17-43-30.e0fce986-8a1a-4a91-93be-47bc8afe2783'
p2762
asbasbasbag69
(g85
g71
NtRp2763
(dp2764
g74
(dp2765
sg83
g79
sg76
(lp2766
g69
(g90
g71
NtRp2767
(dp2768
g74
(dp2769
g94
g95
ssg83
g2763
sg76
(lp2770
S'vars'
p2771
asbag69
(g90
g71
NtRp2772
(dp2773
g74
(dp2774
g101
g102
ssg83
g2763
sg76
(lp2775
S':'
asbag69
(g90
g71
NtRp2776
(dp2777
g74
(dp2778
sg83
g2763
sg76
(lp2779
g69
(g70
g71
NtRp2780
(dp2781
g74
(dp2782
g82
I5
ssg83
g2776
sg76
(lp2783
g69
(g78
g71
NtRp2784
(dp2785
g74
(dp2786
g82
I4
ssg83
Nsg76
(lp2787
g69
(g85
g71
NtRp2788
(dp2789
g74
(dp2790
sg83
g2784
sg76
(lp2791
g69
(g90
g71
NtRp2792
(dp2793
g74
(dp2794
g94
g95
ssg83
g2788
sg76
(lp2795
g2575
asbag69
(g90
g71
NtRp2796
(dp2797
g74
(dp2798
g101
g102
ssg83
g2788
sg76
(lp2799
S':'
asbag69
(g90
g71
NtRp2800
(dp2801
g74
(dp2802
sg83
g2788
sg76
(lp2803
g69
(g70
g71
NtRp2804
(dp2805
g74
(dp2806
g82
I4
ssg83
g2800
sg76
(lp2807
g2588
asbasbasbag69
(g85
g71
NtRp2808
(dp2809
g74
(dp2810
sg83
g2784
sg76
(lp2811
g69
(g90
g71
NtRp2812
(dp2813
g74
(dp2814
g94
g95
ssg83
g2808
sg76
(lp2815
g2597
asbag69
(g90
g71
NtRp2816
(dp2817
g74
(dp2818
g101
g102
ssg83
g2808
sg76
(lp2819
S':'
asbag69
(g90
g71
NtRp2820
(dp2821
g74
(dp2822
sg83
g2808
sg76
(lp2823
g69
(g70
g71
NtRp2824
(dp2825
g74
(dp2826
g82
I4
ssg83
g2820
sg76
(lp2827
g2610
asbasbasbag69
(g85
g71
NtRp2828
(dp2829
g74
(dp2830
sg83
g2784
sg76
(lp2831
g69
(g90
g71
NtRp2832
(dp2833
g74
(dp2834
g94
g95
ssg83
g2828
sg76
(lp2835
g2619
asbag69
(g90
g71
NtRp2836
(dp2837
g74
(dp2838
g101
g102
ssg83
g2828
sg76
(lp2839
S':'
asbag69
(g90
g71
NtRp2840
(dp2841
g74
(dp2842
sg83
g2828
sg76
(lp2843
g69
(g70
g71
NtRp2844
(dp2845
g74
(dp2846
g82
I4
ssg83
g2840
sg76
(lp2847
g2632
asbasbasbag69
(g85
g71
NtRp2848
(dp2849
g74
(dp2850
sg83
g2784
sg76
(lp2851
g69
(g90
g71
NtRp2852
(dp2853
g74
(dp2854
g94
g95
ssg83
g2848
sg76
(lp2855
g2641
asbag69
(g90
g71
NtRp2856
(dp2857
g74
(dp2858
g101
g102
ssg83
g2848
sg76
(lp2859
S':'
asbag69
(g90
g71
NtRp2860
(dp2861
g74
(dp2862
sg83
g2848
sg76
(lp2863
g69
(g70
g71
NtRp2864
(dp2865
g74
(dp2866
g82
I4
ssg83
g2860
sg76
(lp2867
g2654
asbasbasbasbasbasbasbag69
(g85
g71
NtRp2868
(dp2869
g74
(dp2870
sg83
g79
sg76
(lp2871
g69
(g90
g71
NtRp2872
(dp2873
g74
(dp2874
g94
g95
ssg83
g2868
sg76
(lp2875
S'wsgi'
p2876
asbag69
(g90
g71
NtRp2877
(dp2878
g74
(dp2879
g101
g102
ssg83
g2868
sg76
(lp2880
S':'
asbag69
(g90
g71
NtRp2881
(dp2882
g74
(dp2883
sg83
g2868
sg76
(lp2884
g69
(g70
g71
NtRp2885
(dp2886
g74
(dp2887
g82
I5
ssg83
g2881
sg76
(lp2888
g69
(g78
g71
NtRp2889
(dp2890
g74
(dp2891
g82
I4
ssg83
Nsg76
(lp2892
g69
(g85
g71
NtRp2893
(dp2894
g74
(dp2895
sg83
g2889
sg76
(lp2896
g69
(g90
g71
NtRp2897
(dp2898
g74
(dp2899
g94
g95
ssg83
g2893
sg76
(lp2900
S'environ'
p2901
asbag69
(g90
g71
NtRp2902
(dp2903
g74
(dp2904
g101
g102
ssg83
g2893
sg76
(lp2905
S':'
asbag69
(g90
g71
NtRp2906
(dp2907
g74
(dp2908
sg83
g2893
sg76
(lp2909
g69
(g70
g71
NtRp2910
(dp2911
g74
(dp2912
g82
I4
ssg83
g2906
sg76
(lp2913
g69
(g78
g71
NtRp2914
(dp2915
g74
(dp2916
g82
I3
ssg83
Nsg76
(lp2917
g69
(g85
g71
NtRp2918
(dp2919
g74
(dp2920
sg83
g2914
sg76
(lp2921
g69
(g90
g71
NtRp2922
(dp2923
g74
(dp2924
g94
g95
ssg83
g2918
sg76
(lp2925
S'CONTENT_LENGTH'
p2926
asbag69
(g90
g71
NtRp2927
(dp2928
g74
(dp2929
g101
g102
ssg83
g2918
sg76
(lp2930
S':'
asbag69
(g90
g71
NtRp2931
(dp2932
g74
(dp2933
sg83
g2918
sg76
(lp2934
g69
(g70
g71
NtRp2935
(dp2936
g74
(dp2937
g82
I3
ssg83
g2931
sg76
(lp2938
g975
asbasbasbag69
(g85
g71
NtRp2939
(dp2940
g74
(dp2941
sg83
g2914
sg76
(lp2942
g69
(g90
g71
NtRp2943
(dp2944
g74
(dp2945
g94
g95
ssg83
g2939
sg76
(lp2946
S'CONTENT_TYPE'
p2947
asbag69
(g90
g71
NtRp2948
(dp2949
g74
(dp2950
g101
g102
ssg83
g2939
sg76
(lp2951
S':'
asbag69
(g90
g71
NtRp2952
(dp2953
g74
(dp2954
sg83
g2939
sg76
(lp2955
g69
(g70
g71
NtRp2956
(dp2957
g74
(dp2958
g82
I3
ssg83
g2952
sg76
(lp2959
g997
asbasbasbag69
(g85
g71
NtRp2960
(dp2961
g74
(dp2962
sg83
g2914
sg76
(lp2963
g69
(g90
g71
NtRp2964
(dp2965
g74
(dp2966
g94
g95
ssg83
g2960
sg76
(lp2967
S'HTTP_ACCEPT'
p2968
asbag69
(g90
g71
NtRp2969
(dp2970
g74
(dp2971
g101
g102
ssg83
g2960
sg76
(lp2972
S':'
asbag69
(g90
g71
NtRp2973
(dp2974
g74
(dp2975
sg83
g2960
sg76
(lp2976
g69
(g70
g71
NtRp2977
(dp2978
g74
(dp2979
g82
I3
ssg83
g2973
sg76
(lp2980
g1084
asbasbasbag69
(g85
g71
NtRp2981
(dp2982
g74
(dp2983
sg83
g2914
sg76
(lp2984
g69
(g90
g71
NtRp2985
(dp2986
g74
(dp2987
g94
g95
ssg83
g2981
sg76
(lp2988
S'HTTP_ACCEPT_ENCODING'
p2989
asbag69
(g90
g71
NtRp2990
(dp2991
g74
(dp2992
g101
g102
ssg83
g2981
sg76
(lp2993
S':'
asbag69
(g90
g71
NtRp2994
(dp2995
g74
(dp2996
sg83
g2981
sg76
(lp2997
g69
(g70
g71
NtRp2998
(dp2999
g74
(dp3000
g82
I3
ssg83
g2994
sg76
(lp3001
g1106
asbasbasbag69
(g85
g71
NtRp3002
(dp3003
g74
(dp3004
sg83
g2914
sg76
(lp3005
g69
(g90
g71
NtRp3006
(dp3007
g74
(dp3008
g94
g95
ssg83
g3002
sg76
(lp3009
S'HTTP_ACCEPT_LANGUAGE'
p3010
asbag69
(g90
g71
NtRp3011
(dp3012
g74
(dp3013
g101
g102
ssg83
g3002
sg76
(lp3014
S':'
asbag69
(g90
g71
NtRp3015
(dp3016
g74
(dp3017
sg83
g3002
sg76
(lp3018
g69
(g70
g71
NtRp3019
(dp3020
g74
(dp3021
g82
I3
ssg83
g3015
sg76
(lp3022
g1128
asbasbasbag69
(g85
g71
NtRp3023
(dp3024
g74
(dp3025
sg83
g2914
sg76
(lp3026
g69
(g90
g71
NtRp3027
(dp3028
g74
(dp3029
g94
g95
ssg83
g3023
sg76
(lp3030
S'HTTP_CONNECTION'
p3031
asbag69
(g90
g71
NtRp3032
(dp3033
g74
(dp3034
g101
g102
ssg83
g3023
sg76
(lp3035
S':'
asbag69
(g90
g71
NtRp3036
(dp3037
g74
(dp3038
sg83
g3023
sg76
(lp3039
g69
(g70
g71
NtRp3040
(dp3041
g74
(dp3042
g82
I3
ssg83
g3036
sg76
(lp3043
g1150
asbasbasbag69
(g85
g71
NtRp3044
(dp3045
g74
(dp3046
sg83
g2914
sg76
(lp3047
g69
(g90
g71
NtRp3048
(dp3049
g74
(dp3050
g94
g95
ssg83
g3044
sg76
(lp3051
S'HTTP_CONTENT_LENGTH'
p3052
asbag69
(g90
g71
NtRp3053
(dp3054
g74
(dp3055
g101
g102
ssg83
g3044
sg76
(lp3056
S':'
asbag69
(g90
g71
NtRp3057
(dp3058
g74
(dp3059
sg83
g3044
sg76
(lp3060
g69
(g70
g71
NtRp3061
(dp3062
g74
(dp3063
g82
I3
ssg83
g3057
sg76
(lp3064
g975
asbasbasbag69
(g85
g71
NtRp3065
(dp3066
g74
(dp3067
sg83
g2914
sg76
(lp3068
g69
(g90
g71
NtRp3069
(dp3070
g74
(dp3071
g94
g95
ssg83
g3065
sg76
(lp3072
S'HTTP_CONTENT_TYPE'
p3073
asbag69
(g90
g71
NtRp3074
(dp3075
g74
(dp3076
g101
g102
ssg83
g3065
sg76
(lp3077
S':'
asbag69
(g90
g71
NtRp3078
(dp3079
g74
(dp3080
sg83
g3065
sg76
(lp3081
g69
(g70
g71
NtRp3082
(dp3083
g74
(dp3084
g82
I3
ssg83
g3078
sg76
(lp3085
g997
asbasbasbag69
(g85
g71
NtRp3086
(dp3087
g74
(dp3088
sg83
g2914
sg76
(lp3089
g69
(g90
g71
NtRp3090
(dp3091
g74
(dp3092
g94
g95
ssg83
g3086
sg76
(lp3093
S'HTTP_COOKIE'
p3094
asbag69
(g90
g71
NtRp3095
(dp3096
g74
(dp3097
g101
g102
ssg83
g3086
sg76
(lp3098
S':'
asbag69
(g90
g71
NtRp3099
(dp3100
g74
(dp3101
sg83
g3086
sg76
(lp3102
g69
(g70
g71
NtRp3103
(dp3104
g74
(dp3105
g82
I3
ssg83
g3099
sg76
(lp3106
g1214
asbasbasbag69
(g85
g71
NtRp3107
(dp3108
g74
(dp3109
sg83
g2914
sg76
(lp3110
g69
(g90
g71
NtRp3111
(dp3112
g74
(dp3113
g94
g95
ssg83
g3107
sg76
(lp3114
S'HTTP_HOST'
p3115
asbag69
(g90
g71
NtRp3116
(dp3117
g74
(dp3118
g101
g102
ssg83
g3107
sg76
(lp3119
S':'
asbag69
(g90
g71
NtRp3120
(dp3121
g74
(dp3122
sg83
g3107
sg76
(lp3123
g69
(g70
g71
NtRp3124
(dp3125
g74
(dp3126
g82
I3
ssg83
g3120
sg76
(lp3127
g1236
asbasbasbag69
(g85
g71
NtRp3128
(dp3129
g74
(dp3130
sg83
g2914
sg76
(lp3131
g69
(g90
g71
NtRp3132
(dp3133
g74
(dp3134
g94
g95
ssg83
g3128
sg76
(lp3135
S'HTTP_REFERER'
p3136
asbag69
(g90
g71
NtRp3137
(dp3138
g74
(dp3139
g101
g102
ssg83
g3128
sg76
(lp3140
S':'
asbag69
(g90
g71
NtRp3141
(dp3142
g74
(dp3143
sg83
g3128
sg76
(lp3144
g69
(g70
g71
NtRp3145
(dp3146
g74
(dp3147
g82
I3
ssg83
g3141
sg76
(lp3148
g1258
asbasbasbag69
(g85
g71
NtRp3149
(dp3150
g74
(dp3151
sg83
g2914
sg76
(lp3152
g69
(g90
g71
NtRp3153
(dp3154
g74
(dp3155
g94
g95
ssg83
g3149
sg76
(lp3156
S'HTTP_USER_AGENT'
p3157
asbag69
(g90
g71
NtRp3158
(dp3159
g74
(dp3160
g101
g102
ssg83
g3149
sg76
(lp3161
S':'
asbag69
(g90
g71
NtRp3162
(dp3163
g74
(dp3164
sg83
g3149
sg76
(lp3165
g69
(g70
g71
NtRp3166
(dp3167
g74
(dp3168
g82
I3
ssg83
g3162
sg76
(lp3169
g1280
asbasbasbag69
(g85
g71
NtRp3170
(dp3171
g74
(dp3172
sg83
g2914
sg76
(lp3173
g69
(g90
g71
NtRp3174
(dp3175
g74
(dp3176
g94
g95
ssg83
g3170
sg76
(lp3177
S'PATH_INFO'
p3178
asbag69
(g90
g71
NtRp3179
(dp3180
g74
(dp3181
g101
g102
ssg83
g3170
sg76
(lp3182
S':'
asbag69
(g90
g71
NtRp3183
(dp3184
g74
(dp3185
sg83
g3170
sg76
(lp3186
g69
(g70
g71
NtRp3187
(dp3188
g74
(dp3189
g82
I3
ssg83
g3183
sg76
(lp3190
g1447
asbasbasbag69
(g85
g71
NtRp3191
(dp3192
g74
(dp3193
sg83
g2914
sg76
(lp3194
g69
(g90
g71
NtRp3195
(dp3196
g74
(dp3197
g94
g95
ssg83
g3191
sg76
(lp3198
S'QUERY_STRING'
p3199
asbag69
(g90
g71
NtRp3200
(dp3201
g74
(dp3202
g101
g102
ssg83
g3191
sg76
(lp3203
S':'
asbag69
(g90
g71
NtRp3204
(dp3205
g74
(dp3206
sg83
g3191
sg76
(lp3207
g69
(g70
g71
NtRp3208
(dp3209
g74
(dp3210
g82
I3
ssg83
g3204
sg76
(lp3211
S''
asbasbasbag69
(g85
g71
NtRp3212
(dp3213
g74
(dp3214
sg83
g2914
sg76
(lp3215
g69
(g90
g71
NtRp3216
(dp3217
g74
(dp3218
g94
g95
ssg83
g3212
sg76
(lp3219
S'REMOTE_ADDR'
p3220
asbag69
(g90
g71
NtRp3221
(dp3222
g74
(dp3223
g101
g102
ssg83
g3212
sg76
(lp3224
S':'
asbag69
(g90
g71
NtRp3225
(dp3226
g74
(dp3227
sg83
g3212
sg76
(lp3228
g69
(g70
g71
NtRp3229
(dp3230
g74
(dp3231
g82
I3
ssg83
g3225
sg76
(lp3232
g224
asbasbasbag69
(g85
g71
NtRp3233
(dp3234
g74
(dp3235
sg83
g2914
sg76
(lp3236
g69
(g90
g71
NtRp3237
(dp3238
g74
(dp3239
g94
g95
ssg83
g3233
sg76
(lp3240
S'REMOTE_PORT'
p3241
asbag69
(g90
g71
NtRp3242
(dp3243
g74
(dp3244
g101
g102
ssg83
g3233
sg76
(lp3245
S':'
asbag69
(g90
g71
NtRp3246
(dp3247
g74
(dp3248
sg83
g3233
sg76
(lp3249
g69
(g70
g71
NtRp3250
(dp3251
g74
(dp3252
g82
I3
ssg83
g3246
sg76
(lp3253
g1511
asbasbasbag69
(g85
g71
NtRp3254
(dp3255
g74
(dp3256
sg83
g2914
sg76
(lp3257
g69
(g90
g71
NtRp3258
(dp3259
g74
(dp3260
g94
g95
ssg83
g3254
sg76
(lp3261
S'REQUEST_METHOD'
p3262
asbag69
(g90
g71
NtRp3263
(dp3264
g74
(dp3265
g101
g102
ssg83
g3254
sg76
(lp3266
S':'
asbag69
(g90
g71
NtRp3267
(dp3268
g74
(dp3269
sg83
g3254
sg76
(lp3270
g69
(g70
g71
NtRp3271
(dp3272
g74
(dp3273
g82
I3
ssg83
g3267
sg76
(lp3274
g1533
asbasbasbag69
(g85
g71
NtRp3275
(dp3276
g74
(dp3277
sg83
g2914
sg76
(lp3278
g69
(g90
g71
NtRp3279
(dp3280
g74
(dp3281
g94
g95
ssg83
g3275
sg76
(lp3282
S'REQUEST_URI'
p3283
asbag69
(g90
g71
NtRp3284
(dp3285
g74
(dp3286
g101
g102
ssg83
g3275
sg76
(lp3287
S':'
asbag69
(g90
g71
NtRp3288
(dp3289
g74
(dp3290
sg83
g3275
sg76
(lp3291
g69
(g70
g71
NtRp3292
(dp3293
g74
(dp3294
g82
I3
ssg83
g3288
sg76
(lp3295
g1447
asbasbasbag69
(g85
g71
NtRp3296
(dp3297
g74
(dp3298
sg83
g2914
sg76
(lp3299
g69
(g90
g71
NtRp3300
(dp3301
g74
(dp3302
g94
g95
ssg83
g3296
sg76
(lp3303
S'SCRIPT_NAME'
p3304
asbag69
(g90
g71
NtRp3305
(dp3306
g74
(dp3307
g101
g102
ssg83
g3296
sg76
(lp3308
S':'
asbag69
(g90
g71
NtRp3309
(dp3310
g74
(dp3311
sg83
g3296
sg76
(lp3312
g69
(g70
g71
NtRp3313
(dp3314
g74
(dp3315
g82
I3
ssg83
g3309
sg76
(lp3316
S''
asbasbasbag69
(g85
g71
NtRp3317
(dp3318
g74
(dp3319
sg83
g2914
sg76
(lp3320
g69
(g90
g71
NtRp3321
(dp3322
g74
(dp3323
g94
g95
ssg83
g3317
sg76
(lp3324
S'SERVER_NAME'
p3325
asbag69
(g90
g71
NtRp3326
(dp3327
g74
(dp3328
g101
g102
ssg83
g3317
sg76
(lp3329
S':'
asbag69
(g90
g71
NtRp3330
(dp3331
g74
(dp3332
sg83
g3317
sg76
(lp3333
g69
(g70
g71
NtRp3334
(dp3335
g74
(dp3336
g82
I3
ssg83
g3330
sg76
(lp3337
g1597
asbasbasbag69
(g85
g71
NtRp3338
(dp3339
g74
(dp3340
sg83
g2914
sg76
(lp3341
g69
(g90
g71
NtRp3342
(dp3343
g74
(dp3344
g94
g95
ssg83
g3338
sg76
(lp3345
S'SERVER_PORT'
p3346
asbag69
(g90
g71
NtRp3347
(dp3348
g74
(dp3349
g101
g102
ssg83
g3338
sg76
(lp3350
S':'
asbag69
(g90
g71
NtRp3351
(dp3352
g74
(dp3353
sg83
g3338
sg76
(lp3354
g69
(g70
g71
NtRp3355
(dp3356
g74
(dp3357
g82
I3
ssg83
g3351
sg76
(lp3358
g1619
asbasbasbag69
(g85
g71
NtRp3359
(dp3360
g74
(dp3361
sg83
g2914
sg76
(lp3362
g69
(g90
g71
NtRp3363
(dp3364
g74
(dp3365
g94
g95
ssg83
g3359
sg76
(lp3366
S'SERVER_PROTOCOL'
p3367
asbag69
(g90
g71
NtRp3368
(dp3369
g74
(dp3370
g101
g102
ssg83
g3359
sg76
(lp3371
S':'
asbag69
(g90
g71
NtRp3372
(dp3373
g74
(dp3374
sg83
g3359
sg76
(lp3375
g69
(g70
g71
NtRp3376
(dp3377
g74
(dp3378
g82
I3
ssg83
g3372
sg76
(lp3379
g1641
asbasbasbag69
(g85
g71
NtRp3380
(dp3381
g74
(dp3382
sg83
g2914
sg76
(lp3383
g69
(g90
g71
NtRp3384
(dp3385
g74
(dp3386
g94
g95
ssg83
g3380
sg76
(lp3387
S'SERVER_SOFTWARE'
p3388
asbag69
(g90
g71
NtRp3389
(dp3390
g74
(dp3391
g101
g102
ssg83
g3380
sg76
(lp3392
S':'
asbag69
(g90
g71
NtRp3393
(dp3394
g74
(dp3395
sg83
g3380
sg76
(lp3396
g69
(g70
g71
NtRp3397
(dp3398
g74
(dp3399
g82
I3
ssg83
g3393
sg76
(lp3400
g1663
asbasbasbag69
(g85
g71
NtRp3401
(dp3402
g74
(dp3403
sg83
g2914
sg76
(lp3404
g69
(g90
g71
NtRp3405
(dp3406
g74
(dp3407
g94
g95
ssg83
g3401
sg76
(lp3408
S'wsgi.errors'
p3409
asbag69
(g90
g71
NtRp3410
(dp3411
g74
(dp3412
g101
g102
ssg83
g3401
sg76
(lp3413
S':'
asbag69
(g90
g71
NtRp3414
(dp3415
g74
(dp3416
sg83
g3401
sg76
(lp3417
g69
(g70
g71
NtRp3418
(dp3419
g74
(dp3420
g82
I3
ssg83
g3414
sg76
(lp3421
S"<open file '<stderr>', mode 'w' at 0xb73710d0>"
p3422
asbasbasbag69
(g85
g71
NtRp3423
(dp3424
g74
(dp3425
sg83
g2914
sg76
(lp3426
g69
(g90
g71
NtRp3427
(dp3428
g74
(dp3429
g94
g95
ssg83
g3423
sg76
(lp3430
S'wsgi.file_wrapper'
p3431
asbag69
(g90
g71
NtRp3432
(dp3433
g74
(dp3434
g101
g102
ssg83
g3423
sg76
(lp3435
S':'
asbag69
(g90
g71
NtRp3436
(dp3437
g74
(dp3438
sg83
g3423
sg76
(lp3439
g69
(g70
g71
NtRp3440
(dp3441
g74
(dp3442
g82
I3
ssg83
g3436
sg76
(lp3443
S'<class wsgiref.util.FileWrapper at 0x8dd265c>'
p3444
asbasbasbag69
(g85
g71
NtRp3445
(dp3446
g74
(dp3447
sg83
g2914
sg76
(lp3448
g69
(g90
g71
NtRp3449
(dp3450
g74
(dp3451
g94
g95
ssg83
g3445
sg76
(lp3452
S'wsgi.input'
p3453
asbag69
(g90
g71
NtRp3454
(dp3455
g74
(dp3456
g101
g102
ssg83
g3445
sg76
(lp3457
S':'
asbag69
(g90
g71
NtRp3458
(dp3459
g74
(dp3460
sg83
g3445
sg76
(lp3461
g69
(g70
g71
NtRp3462
(dp3463
g74
(dp3464
g82
I3
ssg83
g3458
sg76
(lp3465
S"<open file '<fdopen>', mode 'w+b' at 0xad48df98>"
p3466
asbasbasbag69
(g85
g71
NtRp3467
(dp3468
g74
(dp3469
sg83
g2914
sg76
(lp3470
g69
(g90
g71
NtRp3471
(dp3472
g74
(dp3473
g94
g95
ssg83
g3467
sg76
(lp3474
S'wsgi.multiprocess'
p3475
asbag69
(g90
g71
NtRp3476
(dp3477
g74
(dp3478
g101
g102
ssg83
g3467
sg76
(lp3479
S':'
asbag69
(g90
g71
NtRp3480
(dp3481
g74
(dp3482
sg83
g3467
sg76
(lp3483
g69
(g70
g71
NtRp3484
(dp3485
g74
(dp3486
g82
I3
ssg83
g3480
sg76
(lp3487
g112
asbasbasbag69
(g85
g71
NtRp3488
(dp3489
g74
(dp3490
sg83
g2914
sg76
(lp3491
g69
(g90
g71
NtRp3492
(dp3493
g74
(dp3494
g94
g95
ssg83
g3488
sg76
(lp3495
S'wsgi.multithread'
p3496
asbag69
(g90
g71
NtRp3497
(dp3498
g74
(dp3499
g101
g102
ssg83
g3488
sg76
(lp3500
S':'
asbag69
(g90
g71
NtRp3501
(dp3502
g74
(dp3503
sg83
g3488
sg76
(lp3504
g69
(g70
g71
NtRp3505
(dp3506
g74
(dp3507
g82
I3
ssg83
g3501
sg76
(lp3508
g1880
asbasbasbag69
(g85
g71
NtRp3509
(dp3510
g74
(dp3511
sg83
g2914
sg76
(lp3512
g69
(g90
g71
NtRp3513
(dp3514
g74
(dp3515
g94
g95
ssg83
g3509
sg76
(lp3516
S'wsgi.run_once'
p3517
asbag69
(g90
g71
NtRp3518
(dp3519
g74
(dp3520
g101
g102
ssg83
g3509
sg76
(lp3521
S':'
asbag69
(g90
g71
NtRp3522
(dp3523
g74
(dp3524
sg83
g3509
sg76
(lp3525
g69
(g70
g71
NtRp3526
(dp3527
g74
(dp3528
g82
I3
ssg83
g3522
sg76
(lp3529
g112
asbasbasbag69
(g85
g71
NtRp3530
(dp3531
g74
(dp3532
sg83
g2914
sg76
(lp3533
g69
(g90
g71
NtRp3534
(dp3535
g74
(dp3536
g94
g95
ssg83
g3530
sg76
(lp3537
S'wsgi.url_scheme'
p3538
asbag69
(g90
g71
NtRp3539
(dp3540
g74
(dp3541
g101
g102
ssg83
g3530
sg76
(lp3542
S':'
asbag69
(g90
g71
NtRp3543
(dp3544
g74
(dp3545
sg83
g3530
sg76
(lp3546
g69
(g70
g71
NtRp3547
(dp3548
g74
(dp3549
g82
I3
ssg83
g3543
sg76
(lp3550
g1923
asbasbasbag69
(g85
g71
NtRp3551
(dp3552
g74
(dp3553
sg83
g2914
sg76
(lp3554
g69
(g90
g71
NtRp3555
(dp3556
g74
(dp3557
g94
g95
ssg83
g3551
sg76
(lp3558
S'wsgi.version'
p3559
asbag69
(g90
g71
NtRp3560
(dp3561
g74
(dp3562
g101
g102
ssg83
g3551
sg76
(lp3563
S':'
asbag69
(g90
g71
NtRp3564
(dp3565
g74
(dp3566
sg83
g3551
sg76
(lp3567
g69
(g70
g71
NtRp3568
(dp3569
g74
(dp3570
g82
I3
ssg83
g3564
sg76
(lp3571
S'1'
asbasbasbasbasbasbasbasbasbasbasbasbasbsS'frames'
p3572
(lp3573
(dp3574
S'file'
p3575
S'/home/aditi/Desktop/web2py/gluon/restricted.py'
p3576
sS'dump'
p3577
(dp3578
S'environment'
p3579
S"{'A': <class 'gluon.html.A'>, 'Auth': <class 'gluon.tools.Auth'>, 'B': <class 'gluon.html.B'>, 'BEAUTIFY': <class 'gluon.html.BEAUTIFY'>, 'BODY': <class 'gluon.html.BODY'>, 'BR': <class 'gluon.html.BR'>, 'BUTTON': <class 'gluon.html.BUTTON'>, 'CAT': <class 'gluon.html.CAT'>, 'CENTER': <class 'gluon.html.CENTER'>, 'CLEANUP': <class 'gluon.validators.CLEANUP'>, ...}"
p3580
sS'ccode'
p3581
S'<code object <module> at 0xad2163c8, file "/home...ons/assignment2/controllers/default.py", line 11>'
p3582
ssS'lnum'
p3583
I212
sS'lines'
p3584
(dp3585
I207
S'    try:'
p3586
sI208
S'        if isinstance(code, types.CodeType):'
p3587
sI209
S'            ccode = code'
p3588
sI210
S'        else:'
p3589
sI211
S'            ccode = compile2(code, layer)'
p3590
sI212
S'        exec ccode in environment'
p3591
sI213
S'    except HTTP:'
p3592
sI214
S'        raise'
p3593
sI215
S'    except RestrictedError:'
p3594
sI216
S'        # do not encapsulate (obfuscate) the original RestrictedError'
p3595
ssS'call'
p3596
S"(code='# -*- coding: utf-8 -*-\\n# this file is released ...\\n\\nresponse._vars=response._caller(user_homepage)\\n', environment={'A': <class 'gluon.html.A'>, 'Auth': <class 'gluon.tools.Auth'>, 'B': <class 'gluon.html.B'>, 'BEAUTIFY': <class 'gluon.html.BEAUTIFY'>, 'BODY': <class 'gluon.html.BODY'>, 'BR': <class 'gluon.html.BR'>, 'BUTTON': <class 'gluon.html.BUTTON'>, 'CAT': <class 'gluon.html.CAT'>, 'CENTER': <class 'gluon.html.CENTER'>, 'CLEANUP': <class 'gluon.validators.CLEANUP'>, ...}, layer='/home/aditi/Desktop/web2py/applications/assignment2/controllers/default.py')"
p3597
sS'func'
p3598
S'restricted'
p3599
sa(dp3600
g3575
S'/home/aditi/Desktop/web2py/applications/assignment2/controllers/default.py'
p3601
sg3577
(dp3602
sg3583
I352
sg3584
(dp3603
I341
S'    http://..../[app]/default/data/update/[table]/[id]'
p3604
sI342
S'    http://..../[app]/default/data/delete/[table]/[id]'
p3605
sI343
S'    http://..../[app]/default/data/select/[table]'
p3606
sI344
S'    http://..../[app]/default/data/search/[table]'
p3607
sI345
S'    but URLs must be signed, i.e. linked with'
p3608
sI346
S"      A('table',_href=URL('data/tables',user_signature=True))"
p3609
sI347
S'    or with the signed load operator'
p3610
sI348
S"      LOAD('default','data.load',args='tables',ajax=True,user_signature=True)"
p3611
sI349
S'    """'
p3612
sI350
S'    return dict(form=crud())'
p3613
ssg3596
S'()'
p3614
sg3598
S'<module>'
p3615
sa(dp3616
g3575
S'/home/aditi/Desktop/web2py/gluon/globals.py'
p3617
sg3577
(dp3618
S'self'
p3619
S'undefined'
p3620
sS'f'
S'<function user_homepage>'
p3621
ssg3583
I193
sg3584
(dp3622
I192
S'        self._vars = None'
p3623
sI193
S'        self._caller = lambda f: f()'
p3624
sI194
S'        self._view_environment = None'
p3625
sI195
S'        self._custom_commit = None'
p3626
sI196
S'        self._custom_rollback = None'
p3627
sI197
S''
sI188
S'        self.menu = []             # used by the default view layout'
p3628
sI189
S'        self.files = []            # used by web2py_ajax.html'
p3629
sI190
S'        self.generic_patterns = []  # patterns to allow generic views'
p3630
sI191
S"        self.delimiters = ('{{', '}}')"
p3631
ssg3596
S'(f=<function user_homepage>)'
p3632
sg3598
S'<lambda>'
p3633
sa(dp3634
g3575
S'/home/aditi/Desktop/web2py/applications/assignment2/controllers/default.py'
p3635
sg3577
(dp3636
S'form.vars'
p3637
S"<Storage {'category': 'computer science', 'url':...on against password theft', 'choice': 'article'}>"
p3638
sS'dislikes'
p3639
g3620
sS'global datetime'
p3640
S"<module 'datetime' from '/usr/lib/python2.7/lib-dynload/datetime.so'>"
p3641
sS'likes'
p3642
g3620
sS'form.vars.heading'
p3643
S"'protection against password theft'"
p3644
sS'category'
p3645
g3620
sS'form.vars.choice'
p3646
S"'article'"
p3647
sS'db.newsitem'
p3648
S'<Table newsitem (id,userid,category,heading,choice,url,points,dt)>'
p3649
sS'form'
p3650
S'<gluon.sqlhtml.SQLFORM object>'
p3651
sS'datetime.datetime.today'
p3652
S'<built-in method today of type object>'
p3653
sS'choice'
p3654
g3620
sS'dt'
p3655
g3620
sS'a'
S'6'
sS'url'
p3656
g3620
sS'form.vars.category'
p3657
S"'computer science'"
p3658
sS'userid'
p3659
g3620
sS'points'
p3660
g3620
sS'datetime.datetime'
p3661
S"<type 'datetime.datetime'>"
p3662
sS'form.vars.url'
p3663
S"'http://www.sciencedaily.com/releases/2013/08/130821085115.htm'"
p3664
sS'global db'
p3665
S'<DAL uri="sqlite://storage.sqlite">'
p3666
sS'heading'
p3667
g3620
sS'db.newsitem.insert'
p3668
S'<bound method Table.insert of <Table newsitem (id,userid,category,heading,choice,url,points,dt)>>'
p3669
ssg3583
I45
sg3584
(dp3670
I40
S"    form=SQLFORM.factory(db.Field('category','string',requires=IS_IN_SET(temp),required=True,label='Enter category'),"
p3671
sI41
S"                        Field('heading','string',label='Enter heading',required=True),"
p3672
sI42
S"                        Field('choice','string',requires=IS_IN_SET(['article','video']),required=True,default='article'),"
p3673
sI43
S"                        Field('url','string',requires=IS_URL(),label='Enter URL',required=True))"
p3674
sI44
S'    if(form.accepts(request.vars,session)):'
p3675
sI45
S'        db.newsitem.insert(userid=a,category=form.vars.category,choice=form.vars.choice,heading=form.vars.heading,url=form.vars.url,points=100,likes=0,dislikes=0,dt=datetime.datetime.today())'
p3676
sI46
S"        response.flash='News item successfully added'"
p3677
sI47
S"        redirect(URL(r=request,f='user_homepage'))"
p3678
sI48
S'    n=db().select(db.newsitem.ALL,orderby=~db.newsitem.points)'
p3679
sI49
S'    deleteform=[]'
p3680
ssg3596
S'()'
p3681
sg3598
S'user_homepage'
p3682
sa(dp3683
g3575
S'/home/aditi/Desktop/web2py/gluon/dal.py'
p3684
sg3577
(dp3685
S'self._listify'
p3686
S'<bound method Table._listify of <Table newsitem (id,userid,category,heading,choice,url,points,dt)>>'
p3687
sS'fields'
p3688
S"{'category': 'computer science', 'choice': 'article', 'dislikes': 0, 'dt': datetime.datetime(2013, 8, 30, 17, 43, 30, 551895), 'heading': 'protection against password theft', 'likes': 0, 'points': 100, 'url': 'http://www.sciencedaily.com/releases/2013/08/130821085115.htm', 'userid': 6}"
p3689
sS'self'
p3690
S'<Table newsitem (id,userid,category,heading,choice,url,points,dt)>'
p3691
sS'ret'
p3692
g3620
sS'self._db._adapter'
p3693
S'<gluon.dal.SQLiteAdapter object>'
p3694
sS'self._db._adapter.insert'
p3695
S'<bound method SQLiteAdapter.insert of <gluon.dal.SQLiteAdapter object>>'
p3696
sS'self._db'
p3697
S'<DAL uri="sqlite://storage.sqlite">'
p3698
ssg3583
I7918
sg3584
(dp3699
I7913
S'        return self._db._adapter._insert(self,self._listify(fields))'
p3700
sI7914
S''
sI7915
S'    def insert(self, **fields):'
p3701
sI7916
S'        self._attempt_upload(fields)'
p3702
sI7917
S'        if any(f(fields) for f in self._before_insert): return 0'
p3703
sI7918
S'        ret =  self._db._adapter.insert(self,self._listify(fields))'
p3704
sI7919
S'        if ret and self._after_insert:'
p3705
sI7920
S'            fields = Row(fields)'
p3706
sI7921
S'            [f(fields,ret) for f in self._after_insert]'
p3707
sI7922
S'        return ret'
p3708
ssg3596
S"(self=<Table newsitem (id,userid,category,heading,choice,url,points,dt)>, **fields={'category': 'computer science', 'choice': 'article', 'dislikes': 0, 'dt': datetime.datetime(2013, 8, 30, 17, 43, 30, 551895), 'heading': 'protection against password theft', 'likes': 0, 'points': 100, 'url': 'http://www.sciencedaily.com/releases/2013/08/130821085115.htm', 'userid': 6})"
p3709
sg3598
S'insert'
p3710
sa(dp3711
g3575
S'/home/aditi/Desktop/web2py/gluon/dal.py'
p3712
sg3577
(dp3713
S'name'
p3714
S"'dislikes'"
p3715
ssg3583
I7856
sg3584
(dp3716
I7851
S'        # store all fields passed as input in new_fields'
p3717
sI7852
S'        for name in fields:'
p3718
sI7853
S'            if not name in self.fields:'
p3719
sI7854
S"                if name != 'id':"
p3720
sI7855
S'                    raise SyntaxError('
p3721
sI7856
S"                        'Field %s does not belong to the table' % name)"
p3722
sI7857
S'            else:'
p3723
sI7858
S'                field = self[name]'
p3724
sI7859
S'                value = fields[name]'
p3725
sI7860
S'                if field.filter_in:'
p3726
ssg3596
S"(self=<Table newsitem (id,userid,category,heading,choice,url,points,dt)>, fields={'category': 'computer science', 'choice': 'article', 'dislikes': 0, 'dt': datetime.datetime(2013, 8, 30, 17, 43, 30, 551895), 'heading': 'protection against password theft', 'likes': 0, 'points': 100, 'url': 'http://www.sciencedaily.com/releases/2013/08/130821085115.htm', 'userid': 6}, update=False)"
p3727
sg3598
S'_listify'
p3728
sasS'pyver'
p3729
S'Python 2.7.3: /usr/bin/python'
p3730
sS'session'
p3731
g69
(g70
g71
NtRp3732
(dp3733
g74
(dp3734
sg76
(lp3735
g69
(g78
g71
NtRp3736
(dp3737
g74
(dp3738
g82
I5
ssg83
Nsg76
(lp3739
g69
(g85
g71
NtRp3740
(dp3741
g74
(dp3742
sg83
g3736
sg76
(lp3743
g69
(g90
g71
NtRp3744
(dp3745
g74
(dp3746
g94
g95
ssg83
g3740
sg76
(lp3747
S'auth'
p3748
asbag69
(g90
g71
NtRp3749
(dp3750
g74
(dp3751
g101
g102
ssg83
g3740
sg76
(lp3752
S':'
asbag69
(g90
g71
NtRp3753
(dp3754
g74
(dp3755
sg83
g3740
sg76
(lp3756
g69
(g70
g71
NtRp3757
(dp3758
g74
(dp3759
g82
I5
ssg83
g3753
sg76
(lp3760
g69
(g78
g71
NtRp3761
(dp3762
g74
(dp3763
g82
I4
ssg83
Nsg76
(lp3764
g69
(g85
g71
NtRp3765
(dp3766
g74
(dp3767
sg83
g3761
sg76
(lp3768
g69
(g90
g71
NtRp3769
(dp3770
g74
(dp3771
g94
g95
ssg83
g3765
sg76
(lp3772
S'expiration'
p3773
asbag69
(g90
g71
NtRp3774
(dp3775
g74
(dp3776
g101
g102
ssg83
g3765
sg76
(lp3777
S':'
asbag69
(g90
g71
NtRp3778
(dp3779
g74
(dp3780
sg83
g3765
sg76
(lp3781
g69
(g70
g71
NtRp3782
(dp3783
g74
(dp3784
g82
I4
ssg83
g3778
sg76
(lp3785
S'3600'
p3786
asbasbasbag69
(g85
g71
NtRp3787
(dp3788
g74
(dp3789
sg83
g3761
sg76
(lp3790
g69
(g90
g71
NtRp3791
(dp3792
g74
(dp3793
g94
g95
ssg83
g3787
sg76
(lp3794
S'hmac_key'
p3795
asbag69
(g90
g71
NtRp3796
(dp3797
g74
(dp3798
g101
g102
ssg83
g3787
sg76
(lp3799
S':'
asbag69
(g90
g71
NtRp3800
(dp3801
g74
(dp3802
sg83
g3787
sg76
(lp3803
g69
(g70
g71
NtRp3804
(dp3805
g74
(dp3806
g82
I4
ssg83
g3800
sg76
(lp3807
S'510dc22f-9435-4a93-97e8-80f0d6eddd9e'
p3808
asbasbasbag69
(g85
g71
NtRp3809
(dp3810
g74
(dp3811
sg83
g3761
sg76
(lp3812
g69
(g90
g71
NtRp3813
(dp3814
g74
(dp3815
g94
g95
ssg83
g3809
sg76
(lp3816
S'last_visit'
p3817
asbag69
(g90
g71
NtRp3818
(dp3819
g74
(dp3820
g101
g102
ssg83
g3809
sg76
(lp3821
S':'
asbag69
(g90
g71
NtRp3822
(dp3823
g74
(dp3824
sg83
g3809
sg76
(lp3825
g69
(g70
g71
NtRp3826
(dp3827
g74
(dp3828
g82
I4
ssg83
g3822
sg76
(lp3829
S'datetime.datetime(2013, 8, 30, 17, 41, 6, 606669)'
p3830
asbasbasbag69
(g85
g71
NtRp3831
(dp3832
g74
(dp3833
sg83
g3761
sg76
(lp3834
g69
(g90
g71
NtRp3835
(dp3836
g74
(dp3837
g94
g95
ssg83
g3831
sg76
(lp3838
S'user'
p3839
asbag69
(g90
g71
NtRp3840
(dp3841
g74
(dp3842
g101
g102
ssg83
g3831
sg76
(lp3843
S':'
asbag69
(g90
g71
NtRp3844
(dp3845
g74
(dp3846
sg83
g3831
sg76
(lp3847
g69
(g70
g71
NtRp3848
(dp3849
g74
(dp3850
g82
I4
ssg83
g3844
sg76
(lp3851
g69
(g78
g71
NtRp3852
(dp3853
g74
(dp3854
g82
I3
ssg83
Nsg76
(lp3855
g69
(g85
g71
NtRp3856
(dp3857
g74
(dp3858
sg83
g3852
sg76
(lp3859
g69
(g90
g71
NtRp3860
(dp3861
g74
(dp3862
g94
g95
ssg83
g3856
sg76
(lp3863
S'account_type'
p3864
asbag69
(g90
g71
NtRp3865
(dp3866
g74
(dp3867
g101
g102
ssg83
g3856
sg76
(lp3868
S':'
asbag69
(g90
g71
NtRp3869
(dp3870
g74
(dp3871
sg83
g3856
sg76
(lp3872
g69
(g70
g71
NtRp3873
(dp3874
g74
(dp3875
g82
I3
ssg83
g3869
sg76
(lp3876
S'user'
p3877
asbasbasbag69
(g85
g71
NtRp3878
(dp3879
g74
(dp3880
sg83
g3852
sg76
(lp3881
g69
(g90
g71
NtRp3882
(dp3883
g74
(dp3884
g94
g95
ssg83
g3878
sg76
(lp3885
S'alt_email'
p3886
asbag69
(g90
g71
NtRp3887
(dp3888
g74
(dp3889
g101
g102
ssg83
g3878
sg76
(lp3890
S':'
asbag69
(g90
g71
NtRp3891
(dp3892
g74
(dp3893
sg83
g3878
sg76
(lp3894
g69
(g70
g71
NtRp3895
(dp3896
g74
(dp3897
g82
I3
ssg83
g3891
sg76
(lp3898
S'p.j@gmail.com'
p3899
asbasbasbag69
(g85
g71
NtRp3900
(dp3901
g74
(dp3902
sg83
g3852
sg76
(lp3903
g69
(g90
g71
NtRp3904
(dp3905
g74
(dp3906
g94
g95
ssg83
g3900
sg76
(lp3907
S'dob'
p3908
asbag69
(g90
g71
NtRp3909
(dp3910
g74
(dp3911
g101
g102
ssg83
g3900
sg76
(lp3912
S':'
asbag69
(g90
g71
NtRp3913
(dp3914
g74
(dp3915
sg83
g3900
sg76
(lp3916
g69
(g70
g71
NtRp3917
(dp3918
g74
(dp3919
g82
I3
ssg83
g3913
sg76
(lp3920
S'datetime.date(1994, 8, 3)'
p3921
asbasbasbag69
(g85
g71
NtRp3922
(dp3923
g74
(dp3924
sg83
g3852
sg76
(lp3925
g69
(g90
g71
NtRp3926
(dp3927
g74
(dp3928
g94
g95
ssg83
g3922
sg76
(lp3929
S'email'
p3930
asbag69
(g90
g71
NtRp3931
(dp3932
g74
(dp3933
g101
g102
ssg83
g3922
sg76
(lp3934
S':'
asbag69
(g90
g71
NtRp3935
(dp3936
g74
(dp3937
sg83
g3922
sg76
(lp3938
g69
(g70
g71
NtRp3939
(dp3940
g74
(dp3941
g82
I3
ssg83
g3935
sg76
(lp3942
S'prathyusha.jwalapuram@students.iiit.ac.in'
p3943
asbasbasbag69
(g85
g71
NtRp3944
(dp3945
g74
(dp3946
sg83
g3852
sg76
(lp3947
g69
(g90
g71
NtRp3948
(dp3949
g74
(dp3950
g94
g95
ssg83
g3944
sg76
(lp3951
S'first_name'
p3952
asbag69
(g90
g71
NtRp3953
(dp3954
g74
(dp3955
g101
g102
ssg83
g3944
sg76
(lp3956
S':'
asbag69
(g90
g71
NtRp3957
(dp3958
g74
(dp3959
sg83
g3944
sg76
(lp3960
g69
(g70
g71
NtRp3961
(dp3962
g74
(dp3963
g82
I3
ssg83
g3957
sg76
(lp3964
S'prathyusha'
p3965
asbasbasbag69
(g85
g71
NtRp3966
(dp3967
g74
(dp3968
sg83
g3852
sg76
(lp3969
g69
(g90
g71
NtRp3970
(dp3971
g74
(dp3972
g94
g95
ssg83
g3966
sg76
(lp3973
S'id'
p3974
asbag69
(g90
g71
NtRp3975
(dp3976
g74
(dp3977
g101
g102
ssg83
g3966
sg76
(lp3978
S':'
asbag69
(g90
g71
NtRp3979
(dp3980
g74
(dp3981
sg83
g3966
sg76
(lp3982
g69
(g70
g71
NtRp3983
(dp3984
g74
(dp3985
g82
I3
ssg83
g3979
sg76
(lp3986
S'6'
asbasbasbag69
(g85
g71
NtRp3987
(dp3988
g74
(dp3989
sg83
g3852
sg76
(lp3990
g69
(g90
g71
NtRp3991
(dp3992
g74
(dp3993
g94
g95
ssg83
g3987
sg76
(lp3994
S'last_name'
p3995
asbag69
(g90
g71
NtRp3996
(dp3997
g74
(dp3998
g101
g102
ssg83
g3987
sg76
(lp3999
S':'
asbag69
(g90
g71
NtRp4000
(dp4001
g74
(dp4002
sg83
g3987
sg76
(lp4003
g69
(g70
g71
NtRp4004
(dp4005
g74
(dp4006
g82
I3
ssg83
g4000
sg76
(lp4007
S'jwalapuram'
p4008
asbasbasbag69
(g85
g71
NtRp4009
(dp4010
g74
(dp4011
sg83
g3852
sg76
(lp4012
g69
(g90
g71
NtRp4013
(dp4014
g74
(dp4015
g94
g95
ssg83
g4009
sg76
(lp4016
S'registration_id'
p4017
asbag69
(g90
g71
NtRp4018
(dp4019
g74
(dp4020
g101
g102
ssg83
g4009
sg76
(lp4021
S':'
asbag69
(g90
g71
NtRp4022
(dp4023
g74
(dp4024
sg83
g4009
sg76
(lp4025
g69
(g70
g71
NtRp4026
(dp4027
g74
(dp4028
g82
I3
ssg83
g4022
sg76
(lp4029
S''
asbasbasbag69
(g85
g71
NtRp4030
(dp4031
g74
(dp4032
sg83
g3852
sg76
(lp4033
g69
(g90
g71
NtRp4034
(dp4035
g74
(dp4036
g94
g95
ssg83
g4030
sg76
(lp4037
S'registration_key'
p4038
asbag69
(g90
g71
NtRp4039
(dp4040
g74
(dp4041
g101
g102
ssg83
g4030
sg76
(lp4042
S':'
asbag69
(g90
g71
NtRp4043
(dp4044
g74
(dp4045
sg83
g4030
sg76
(lp4046
g69
(g70
g71
NtRp4047
(dp4048
g74
(dp4049
g82
I3
ssg83
g4043
sg76
(lp4050
S''
asbasbasbag69
(g85
g71
NtRp4051
(dp4052
g74
(dp4053
sg83
g3852
sg76
(lp4054
g69
(g90
g71
NtRp4055
(dp4056
g74
(dp4057
g94
g95
ssg83
g4051
sg76
(lp4058
S'reset_password_key'
p4059
asbag69
(g90
g71
NtRp4060
(dp4061
g74
(dp4062
g101
g102
ssg83
g4051
sg76
(lp4063
S':'
asbag69
(g90
g71
NtRp4064
(dp4065
g74
(dp4066
sg83
g4051
sg76
(lp4067
g69
(g70
g71
NtRp4068
(dp4069
g74
(dp4070
g82
I3
ssg83
g4064
sg76
(lp4071
S''
asbasbasbag69
(g85
g71
NtRp4072
(dp4073
g74
(dp4074
sg83
g3852
sg76
(lp4075
g69
(g90
g71
NtRp4076
(dp4077
g74
(dp4078
g94
g95
ssg83
g4072
sg76
(lp4079
S'username'
p4080
asbag69
(g90
g71
NtRp4081
(dp4082
g74
(dp4083
g101
g102
ssg83
g4072
sg76
(lp4084
S':'
asbag69
(g90
g71
NtRp4085
(dp4086
g74
(dp4087
sg83
g4072
sg76
(lp4088
g69
(g70
g71
NtRp4089
(dp4090
g74
(dp4091
g82
I3
ssg83
g4085
sg76
(lp4092
S'prathyusha.j'
p4093
asbasbasbasbasbasbasbag69
(g85
g71
NtRp4094
(dp4095
g74
(dp4096
sg83
g3761
sg76
(lp4097
g69
(g90
g71
NtRp4098
(dp4099
g74
(dp4100
g94
g95
ssg83
g4094
sg76
(lp4101
S'user_groups'
p4102
asbag69
(g90
g71
NtRp4103
(dp4104
g74
(dp4105
g101
g102
ssg83
g4094
sg76
(lp4106
S':'
asbag69
(g90
g71
NtRp4107
(dp4108
g74
(dp4109
sg83
g4094
sg76
(lp4110
g69
(g70
g71
NtRp4111
(dp4112
g74
(dp4113
g82
I4
ssg83
g4107
sg76
(lp4114
g69
(g78
g71
NtRp4115
(dp4116
g74
(dp4117
g82
I3
ssg83
Nsg76
(lp4118
g69
(g85
g71
NtRp4119
(dp4120
g74
(dp4121
sg83
g4115
sg76
(lp4122
g69
(g90
g71
NtRp4123
(dp4124
g74
(dp4125
g94
g95
ssg83
g4119
sg76
(lp4126
S'6'
asbag69
(g90
g71
NtRp4127
(dp4128
g74
(dp4129
g101
g102
ssg83
g4119
sg76
(lp4130
S':'
asbag69
(g90
g71
NtRp4131
(dp4132
g74
(dp4133
sg83
g4119
sg76
(lp4134
g69
(g70
g71
NtRp4135
(dp4136
g74
(dp4137
g82
I3
ssg83
g4131
sg76
(lp4138
S'user_6'
p4139
asbasbasbasbasbasbasbasbasbasbasbag69
(g85
g71
NtRp4140
(dp4141
g74
(dp4142
sg83
g3736
sg76
(lp4143
g69
(g90
g71
NtRp4144
(dp4145
g74
(dp4146
g94
g95
ssg83
g4140
sg76
(lp4147
S'flash'
p4148
asbag69
(g90
g71
NtRp4149
(dp4150
g74
(dp4151
g101
g102
ssg83
g4140
sg76
(lp4152
S':'
asbag69
(g90
g71
NtRp4153
(dp4154
g74
(dp4155
sg83
g4140
sg76
(lp4156
g69
(g70
g71
NtRp4157
(dp4158
g74
(dp4159
g82
I5
ssg83
g4153
sg76
(lp4160
S'None'
p4161
asbasbasbasbasbsS'etype'
p4162
S"<type 'exceptions.SyntaxError'>"
p4163
sS'date'
p4164
S'Fri Aug 30 17:43:30 2013'
p4165
sS'response'
p4166
g69
(g70
g71
NtRp4167
(dp4168
g74
(dp4169
sg76
(lp4170
g69
(g78
g71
NtRp4171
(dp4172
g74
(dp4173
g82
I5
ssg83
Nsg76
(lp4174
g69
(g85
g71
NtRp4175
(dp4176
g74
(dp4177
sg83
g4171
sg76
(lp4178
g69
(g90
g71
NtRp4179
(dp4180
g74
(dp4181
g94
g95
ssg83
g4175
sg76
(lp4182
g167
asbag69
(g90
g71
NtRp4183
(dp4184
g74
(dp4185
g101
g102
ssg83
g4175
sg76
(lp4186
S':'
asbag69
(g90
g71
NtRp4187
(dp4188
g74
(dp4189
sg83
g4175
sg76
(lp4190
g69
(g70
g71
NtRp4191
(dp4192
g74
(dp4193
g82
I5
ssg83
g4187
sg76
(lp4194
S'<cStringIO.StringO object at 0xad14d5e0>'
p4195
asbasbasbag69
(g85
g71
NtRp4196
(dp4197
g74
(dp4198
sg83
g4171
sg76
(lp4199
g69
(g90
g71
NtRp4200
(dp4201
g74
(dp4202
g94
g95
ssg83
g4196
sg76
(lp4203
g255
asbag69
(g90
g71
NtRp4204
(dp4205
g74
(dp4206
g101
g102
ssg83
g4196
sg76
(lp4207
S':'
asbag69
(g90
g71
NtRp4208
(dp4209
g74
(dp4210
sg83
g4196
sg76
(lp4211
g69
(g70
g71
NtRp4212
(dp4213
g74
(dp4214
g82
I5
ssg83
g4208
sg76
(lp4215
g69
(g78
g71
NtRp4216
(dp4217
g74
(dp4218
g82
I4
ssg83
Nsg76
(lp4219
g69
(g85
g71
NtRp4220
(dp4221
g74
(dp4222
sg83
g4216
sg76
(lp4223
g69
(g90
g71
NtRp4224
(dp4225
g74
(dp4226
g94
g95
ssg83
g4220
sg76
(lp4227
S'session_id_assignment2'
p4228
asbag69
(g90
g71
NtRp4229
(dp4230
g74
(dp4231
g101
g102
ssg83
g4220
sg76
(lp4232
S':'
asbag69
(g90
g71
NtRp4233
(dp4234
g74
(dp4235
sg83
g4220
sg76
(lp4236
g69
(g70
g71
NtRp4237
(dp4238
g74
(dp4239
g82
I4
ssg83
g4233
sg76
(lp4240
g487
ag69
(g78
g71
NtRp4241
(dp4242
g74
(dp4243
g82
I3
ssg83
Nsg76
(lp4244
g69
(g85
g71
NtRp4245
(dp4246
g74
(dp4247
sg83
g4241
sg76
(lp4248
g69
(g90
g71
NtRp4249
(dp4250
g74
(dp4251
g94
g95
ssg83
g4245
sg76
(lp4252
g306
asbag69
(g90
g71
NtRp4253
(dp4254
g74
(dp4255
g101
g102
ssg83
g4245
sg76
(lp4256
S':'
asbag69
(g90
g71
NtRp4257
(dp4258
g74
(dp4259
sg83
g4245
sg76
(lp4260
g69
(g70
g71
NtRp4261
(dp4262
g74
(dp4263
g82
I3
ssg83
g4257
sg76
(lp4264
S''
asbasbasbag69
(g85
g71
NtRp4265
(dp4266
g74
(dp4267
sg83
g4241
sg76
(lp4268
g69
(g90
g71
NtRp4269
(dp4270
g74
(dp4271
g94
g95
ssg83
g4265
sg76
(lp4272
g327
asbag69
(g90
g71
NtRp4273
(dp4274
g74
(dp4275
g101
g102
ssg83
g4265
sg76
(lp4276
S':'
asbag69
(g90
g71
NtRp4277
(dp4278
g74
(dp4279
sg83
g4265
sg76
(lp4280
g69
(g70
g71
NtRp4281
(dp4282
g74
(dp4283
g82
I3
ssg83
g4277
sg76
(lp4284
S''
asbasbasbag69
(g85
g71
NtRp4285
(dp4286
g74
(dp4287
sg83
g4241
sg76
(lp4288
g69
(g90
g71
NtRp4289
(dp4290
g74
(dp4291
g94
g95
ssg83
g4285
sg76
(lp4292
g348
asbag69
(g90
g71
NtRp4293
(dp4294
g74
(dp4295
g101
g102
ssg83
g4285
sg76
(lp4296
S':'
asbag69
(g90
g71
NtRp4297
(dp4298
g74
(dp4299
sg83
g4285
sg76
(lp4300
g69
(g70
g71
NtRp4301
(dp4302
g74
(dp4303
g82
I3
ssg83
g4297
sg76
(lp4304
S''
asbasbasbag69
(g85
g71
NtRp4305
(dp4306
g74
(dp4307
sg83
g4241
sg76
(lp4308
g69
(g90
g71
NtRp4309
(dp4310
g74
(dp4311
g94
g95
ssg83
g4305
sg76
(lp4312
g369
asbag69
(g90
g71
NtRp4313
(dp4314
g74
(dp4315
g101
g102
ssg83
g4305
sg76
(lp4316
S':'
asbag69
(g90
g71
NtRp4317
(dp4318
g74
(dp4319
sg83
g4305
sg76
(lp4320
g69
(g70
g71
NtRp4321
(dp4322
g74
(dp4323
g82
I3
ssg83
g4317
sg76
(lp4324
S''
asbasbasbag69
(g85
g71
NtRp4325
(dp4326
g74
(dp4327
sg83
g4241
sg76
(lp4328
g69
(g90
g71
NtRp4329
(dp4330
g74
(dp4331
g94
g95
ssg83
g4325
sg76
(lp4332
g390
asbag69
(g90
g71
NtRp4333
(dp4334
g74
(dp4335
g101
g102
ssg83
g4325
sg76
(lp4336
S':'
asbag69
(g90
g71
NtRp4337
(dp4338
g74
(dp4339
sg83
g4325
sg76
(lp4340
g69
(g70
g71
NtRp4341
(dp4342
g74
(dp4343
g82
I3
ssg83
g4337
sg76
(lp4344
S''
asbasbasbag69
(g85
g71
NtRp4345
(dp4346
g74
(dp4347
sg83
g4241
sg76
(lp4348
g69
(g90
g71
NtRp4349
(dp4350
g74
(dp4351
g94
g95
ssg83
g4345
sg76
(lp4352
g411
asbag69
(g90
g71
NtRp4353
(dp4354
g74
(dp4355
g101
g102
ssg83
g4345
sg76
(lp4356
S':'
asbag69
(g90
g71
NtRp4357
(dp4358
g74
(dp4359
sg83
g4345
sg76
(lp4360
g69
(g70
g71
NtRp4361
(dp4362
g74
(dp4363
g82
I3
ssg83
g4357
sg76
(lp4364
S'/'
asbasbasbag69
(g85
g71
NtRp4365
(dp4366
g74
(dp4367
sg83
g4241
sg76
(lp4368
g69
(g90
g71
NtRp4369
(dp4370
g74
(dp4371
g94
g95
ssg83
g4365
sg76
(lp4372
g432
asbag69
(g90
g71
NtRp4373
(dp4374
g74
(dp4375
g101
g102
ssg83
g4365
sg76
(lp4376
S':'
asbag69
(g90
g71
NtRp4377
(dp4378
g74
(dp4379
sg83
g4365
sg76
(lp4380
g69
(g70
g71
NtRp4381
(dp4382
g74
(dp4383
g82
I3
ssg83
g4377
sg76
(lp4384
S''
asbasbasbag69
(g85
g71
NtRp4385
(dp4386
g74
(dp4387
sg83
g4241
sg76
(lp4388
g69
(g90
g71
NtRp4389
(dp4390
g74
(dp4391
g94
g95
ssg83
g4385
sg76
(lp4392
g453
asbag69
(g90
g71
NtRp4393
(dp4394
g74
(dp4395
g101
g102
ssg83
g4385
sg76
(lp4396
S':'
asbag69
(g90
g71
NtRp4397
(dp4398
g74
(dp4399
sg83
g4385
sg76
(lp4400
g69
(g70
g71
NtRp4401
(dp4402
g74
(dp4403
g82
I3
ssg83
g4397
sg76
(lp4404
S''
asbasbasbasbasbasbasbasbasbasbasbag69
(g85
g71
NtRp4405
(dp4406
g74
(dp4407
sg83
g4171
sg76
(lp4408
g69
(g90
g71
NtRp4409
(dp4410
g74
(dp4411
g94
g95
ssg83
g4405
sg76
(lp4412
S'delimiters'
p4413
asbag69
(g90
g71
NtRp4414
(dp4415
g74
(dp4416
g101
g102
ssg83
g4405
sg76
(lp4417
S':'
asbag69
(g90
g71
NtRp4418
(dp4419
g74
(dp4420
sg83
g4405
sg76
(lp4421
g69
(g70
g71
NtRp4422
(dp4423
g74
(dp4424
g82
I5
ssg83
g4418
sg76
(lp4425
g69
(g78
g71
NtRp4426
(dp4427
g74
(dp4428
g82
I4
ssg83
Nsg76
(lp4429
g69
(g85
g71
NtRp4430
(dp4431
g74
(dp4432
sg83
g4426
sg76
(lp4433
g69
(g90
g71
NtRp4434
(dp4435
g74
(dp4436
sg83
g4430
sg76
(lp4437
g69
(g70
g71
NtRp4438
(dp4439
g74
(dp4440
g82
I4
ssg83
g4434
sg76
(lp4441
S'{{'
p4442
asbasbasbag69
(g85
g71
NtRp4443
(dp4444
g74
(dp4445
sg83
g4426
sg76
(lp4446
g69
(g90
g71
NtRp4447
(dp4448
g74
(dp4449
sg83
g4443
sg76
(lp4450
g69
(g70
g71
NtRp4451
(dp4452
g74
(dp4453
g82
I4
ssg83
g4447
sg76
(lp4454
S'}}'
p4455
asbasbasbasbasbasbasbag69
(g85
g71
NtRp4456
(dp4457
g74
(dp4458
sg83
g4171
sg76
(lp4459
g69
(g90
g71
NtRp4460
(dp4461
g74
(dp4462
g94
g95
ssg83
g4456
sg76
(lp4463
S'files'
p4464
asbag69
(g90
g71
NtRp4465
(dp4466
g74
(dp4467
g101
g102
ssg83
g4456
sg76
(lp4468
S':'
asbag69
(g90
g71
NtRp4469
(dp4470
g74
(dp4471
sg83
g4456
sg76
(lp4472
g69
(g70
g71
NtRp4473
(dp4474
g74
(dp4475
g82
I5
ssg83
g4469
sg76
(lp4476
g69
(g78
g71
NtRp4477
(dp4478
g74
(dp4479
g82
I4
ssg83
Nsg76
(lp4480
sbasbasbasbag69
(g85
g71
NtRp4481
(dp4482
g74
(dp4483
sg83
g4171
sg76
(lp4484
g69
(g90
g71
NtRp4485
(dp4486
g74
(dp4487
g94
g95
ssg83
g4481
sg76
(lp4488
S'flash'
p4489
asbag69
(g90
g71
NtRp4490
(dp4491
g74
(dp4492
g101
g102
ssg83
g4481
sg76
(lp4493
S':'
asbag69
(g90
g71
NtRp4494
(dp4495
g74
(dp4496
sg83
g4481
sg76
(lp4497
g69
(g70
g71
NtRp4498
(dp4499
g74
(dp4500
g82
I5
ssg83
g4494
sg76
(lp4501
S''
asbasbasbag69
(g85
g71
NtRp4502
(dp4503
g74
(dp4504
sg83
g4171
sg76
(lp4505
g69
(g90
g71
NtRp4506
(dp4507
g74
(dp4508
g94
g95
ssg83
g4502
sg76
(lp4509
S'generic_patterns'
p4510
asbag69
(g90
g71
NtRp4511
(dp4512
g74
(dp4513
g101
g102
ssg83
g4502
sg76
(lp4514
S':'
asbag69
(g90
g71
NtRp4515
(dp4516
g74
(dp4517
sg83
g4502
sg76
(lp4518
g69
(g70
g71
NtRp4519
(dp4520
g74
(dp4521
g82
I5
ssg83
g4515
sg76
(lp4522
g69
(g78
g71
NtRp4523
(dp4524
g74
(dp4525
g82
I4
ssg83
Nsg76
(lp4526
g69
(g85
g71
NtRp4527
(dp4528
g74
(dp4529
sg83
g4523
sg76
(lp4530
g69
(g90
g71
NtRp4531
(dp4532
g74
(dp4533
sg83
g4527
sg76
(lp4534
g69
(g70
g71
NtRp4535
(dp4536
g74
(dp4537
g82
I4
ssg83
g4531
sg76
(lp4538
S'*'
asbasbasbasbasbasbasbag69
(g85
g71
NtRp4539
(dp4540
g74
(dp4541
sg83
g4171
sg76
(lp4542
g69
(g90
g71
NtRp4543
(dp4544
g74
(dp4545
g94
g95
ssg83
g4539
sg76
(lp4546
S'google_analytics_id'
p4547
asbag69
(g90
g71
NtRp4548
(dp4549
g74
(dp4550
g101
g102
ssg83
g4539
sg76
(lp4551
S':'
asbag69
(g90
g71
NtRp4552
(dp4553
g74
(dp4554
sg83
g4539
sg76
(lp4555
g69
(g70
g71
NtRp4556
(dp4557
g74
(dp4558
g82
I5
ssg83
g4552
sg76
(lp4559
S'None'
p4560
asbasbasbag69
(g85
g71
NtRp4561
(dp4562
g74
(dp4563
sg83
g4171
sg76
(lp4564
g69
(g90
g71
NtRp4565
(dp4566
g74
(dp4567
g94
g95
ssg83
g4561
sg76
(lp4568
S'headers'
p4569
asbag69
(g90
g71
NtRp4570
(dp4571
g74
(dp4572
g101
g102
ssg83
g4561
sg76
(lp4573
S':'
asbag69
(g90
g71
NtRp4574
(dp4575
g74
(dp4576
sg83
g4561
sg76
(lp4577
g69
(g70
g71
NtRp4578
(dp4579
g74
(dp4580
g82
I5
ssg83
g4574
sg76
(lp4581
g69
(g78
g71
NtRp4582
(dp4583
g74
(dp4584
g82
I4
ssg83
Nsg76
(lp4585
g69
(g85
g71
NtRp4586
(dp4587
g74
(dp4588
sg83
g4582
sg76
(lp4589
g69
(g90
g71
NtRp4590
(dp4591
g74
(dp4592
g94
g95
ssg83
g4586
sg76
(lp4593
S'X-Powered-By'
p4594
asbag69
(g90
g71
NtRp4595
(dp4596
g74
(dp4597
g101
g102
ssg83
g4586
sg76
(lp4598
S':'
asbag69
(g90
g71
NtRp4599
(dp4600
g74
(dp4601
sg83
g4586
sg76
(lp4602
g69
(g70
g71
NtRp4603
(dp4604
g74
(dp4605
g82
I4
ssg83
g4599
sg76
(lp4606
S'web2py'
p4607
asbasbasbasbasbasbasbag69
(g85
g71
NtRp4608
(dp4609
g74
(dp4610
sg83
g4171
sg76
(lp4611
g69
(g90
g71
NtRp4612
(dp4613
g74
(dp4614
g94
g95
ssg83
g4608
sg76
(lp4615
S'menu'
p4616
asbag69
(g90
g71
NtRp4617
(dp4618
g74
(dp4619
g101
g102
ssg83
g4608
sg76
(lp4620
S':'
asbag69
(g90
g71
NtRp4621
(dp4622
g74
(dp4623
sg83
g4608
sg76
(lp4624
g69
(g70
g71
NtRp4625
(dp4626
g74
(dp4627
g82
I5
ssg83
g4621
sg76
(lp4628
g69
(g78
g71
NtRp4629
(dp4630
g74
(dp4631
g82
I4
ssg83
Nsg76
(lp4632
g69
(g85
g71
NtRp4633
(dp4634
g74
(dp4635
sg83
g4629
sg76
(lp4636
g69
(g90
g71
NtRp4637
(dp4638
g74
(dp4639
sg83
g4633
sg76
(lp4640
g69
(g70
g71
NtRp4641
(dp4642
g74
(dp4643
g82
I4
ssg83
g4637
sg76
(lp4644
g69
(g78
g71
NtRp4645
(dp4646
g74
(dp4647
g82
I3
ssg83
Nsg76
(lp4648
g69
(g85
g71
NtRp4649
(dp4650
g74
(dp4651
sg83
g4645
sg76
(lp4652
g69
(g90
g71
NtRp4653
(dp4654
g74
(dp4655
sg83
g4649
sg76
(lp4656
g69
(g70
g71
NtRp4657
(dp4658
g74
(dp4659
g82
I3
ssg83
g4653
sg76
(lp4660
cgluon.languages
lazyT_unpickle
p4661
(S's\x04\x00\x00\x00Home'
tRp4662
asbasbasbag69
(g85
g71
NtRp4663
(dp4664
g74
(dp4665
sg83
g4645
sg76
(lp4666
g69
(g90
g71
NtRp4667
(dp4668
g74
(dp4669
sg83
g4663
sg76
(lp4670
g69
(g70
g71
NtRp4671
(dp4672
g74
(dp4673
g82
I3
ssg83
g4667
sg76
(lp4674
g112
asbasbasbag69
(g85
g71
NtRp4675
(dp4676
g74
(dp4677
sg83
g4645
sg76
(lp4678
g69
(g90
g71
NtRp4679
(dp4680
g74
(dp4681
sg83
g4675
sg76
(lp4682
g69
(g70
g71
NtRp4683
(dp4684
g74
(dp4685
g82
I3
ssg83
g4679
sg76
(lp4686
S'/assignment2/default/index'
p4687
asbasbasbag69
(g85
g71
NtRp4688
(dp4689
g74
(dp4690
sg83
g4645
sg76
(lp4691
g69
(g90
g71
NtRp4692
(dp4693
g74
(dp4694
sg83
g4688
sg76
(lp4695
g69
(g70
g71
NtRp4696
(dp4697
g74
(dp4698
g82
I3
ssg83
g4692
sg76
(lp4699
g69
(g78
g71
NtRp4700
(dp4701
g74
(dp4702
g82
I2
ssg83
Nsg76
(lp4703
sbasbasbasbasbasbasbasbasbasbasbasbag69
(g85
g71
NtRp4704
(dp4705
g74
(dp4706
sg83
g4171
sg76
(lp4707
g69
(g90
g71
NtRp4708
(dp4709
g74
(dp4710
g94
g95
ssg83
g4704
sg76
(lp4711
S'meta'
p4712
asbag69
(g90
g71
NtRp4713
(dp4714
g74
(dp4715
g101
g102
ssg83
g4704
sg76
(lp4716
S':'
asbag69
(g90
g71
NtRp4717
(dp4718
g74
(dp4719
sg83
g4704
sg76
(lp4720
g69
(g70
g71
NtRp4721
(dp4722
g74
(dp4723
g82
I5
ssg83
g4717
sg76
(lp4724
g69
(g78
g71
NtRp4725
(dp4726
g74
(dp4727
g82
I4
ssg83
Nsg76
(lp4728
g69
(g85
g71
NtRp4729
(dp4730
g74
(dp4731
sg83
g4725
sg76
(lp4732
g69
(g90
g71
NtRp4733
(dp4734
g74
(dp4735
g94
g95
ssg83
g4729
sg76
(lp4736
S'author'
p4737
asbag69
(g90
g71
NtRp4738
(dp4739
g74
(dp4740
g101
g102
ssg83
g4729
sg76
(lp4741
S':'
asbag69
(g90
g71
NtRp4742
(dp4743
g74
(dp4744
sg83
g4729
sg76
(lp4745
g69
(g70
g71
NtRp4746
(dp4747
g74
(dp4748
g82
I4
ssg83
g4742
sg76
(lp4749
S'Your Name <you@example.com>'
p4750
asbasbasbag69
(g85
g71
NtRp4751
(dp4752
g74
(dp4753
sg83
g4725
sg76
(lp4754
g69
(g90
g71
NtRp4755
(dp4756
g74
(dp4757
g94
g95
ssg83
g4751
sg76
(lp4758
S'description'
p4759
asbag69
(g90
g71
NtRp4760
(dp4761
g74
(dp4762
g101
g102
ssg83
g4751
sg76
(lp4763
S':'
asbag69
(g90
g71
NtRp4764
(dp4765
g74
(dp4766
sg83
g4751
sg76
(lp4767
g69
(g70
g71
NtRp4768
(dp4769
g74
(dp4770
g82
I4
ssg83
g4764
sg76
(lp4771
S'a cool new app'
p4772
asbasbasbag69
(g85
g71
NtRp4773
(dp4774
g74
(dp4775
sg83
g4725
sg76
(lp4776
g69
(g90
g71
NtRp4777
(dp4778
g74
(dp4779
g94
g95
ssg83
g4773
sg76
(lp4780
S'generator'
p4781
asbag69
(g90
g71
NtRp4782
(dp4783
g74
(dp4784
g101
g102
ssg83
g4773
sg76
(lp4785
S':'
asbag69
(g90
g71
NtRp4786
(dp4787
g74
(dp4788
sg83
g4773
sg76
(lp4789
g69
(g70
g71
NtRp4790
(dp4791
g74
(dp4792
g82
I4
ssg83
g4786
sg76
(lp4793
S'Web2py Web Framework'
p4794
asbasbasbag69
(g85
g71
NtRp4795
(dp4796
g74
(dp4797
sg83
g4725
sg76
(lp4798
g69
(g90
g71
NtRp4799
(dp4800
g74
(dp4801
g94
g95
ssg83
g4795
sg76
(lp4802
S'keywords'
p4803
asbag69
(g90
g71
NtRp4804
(dp4805
g74
(dp4806
g101
g102
ssg83
g4795
sg76
(lp4807
S':'
asbag69
(g90
g71
NtRp4808
(dp4809
g74
(dp4810
sg83
g4795
sg76
(lp4811
g69
(g70
g71
NtRp4812
(dp4813
g74
(dp4814
g82
I4
ssg83
g4808
sg76
(lp4815
S'web2py, python, framework'
p4816
asbasbasbasbasbasbasbag69
(g85
g71
NtRp4817
(dp4818
g74
(dp4819
sg83
g4171
sg76
(lp4820
g69
(g90
g71
NtRp4821
(dp4822
g74
(dp4823
g94
g95
ssg83
g4817
sg76
(lp4824
S'models_to_run'
p4825
asbag69
(g90
g71
NtRp4826
(dp4827
g74
(dp4828
g101
g102
ssg83
g4817
sg76
(lp4829
S':'
asbag69
(g90
g71
NtRp4830
(dp4831
g74
(dp4832
sg83
g4817
sg76
(lp4833
g69
(g70
g71
NtRp4834
(dp4835
g74
(dp4836
g82
I5
ssg83
g4830
sg76
(lp4837
g69
(g78
g71
NtRp4838
(dp4839
g74
(dp4840
g82
I4
ssg83
Nsg76
(lp4841
g69
(g85
g71
NtRp4842
(dp4843
g74
(dp4844
sg83
g4838
sg76
(lp4845
g69
(g90
g71
NtRp4846
(dp4847
g74
(dp4848
sg83
g4842
sg76
(lp4849
g69
(g70
g71
NtRp4850
(dp4851
g74
(dp4852
g82
I4
ssg83
g4846
sg76
(lp4853
S'^\\w+\\.py$'
p4854
asbasbasbag69
(g85
g71
NtRp4855
(dp4856
g74
(dp4857
sg83
g4838
sg76
(lp4858
g69
(g90
g71
NtRp4859
(dp4860
g74
(dp4861
sg83
g4855
sg76
(lp4862
g69
(g70
g71
NtRp4863
(dp4864
g74
(dp4865
g82
I4
ssg83
g4859
sg76
(lp4866
S'^default/\\w+\\.py$'
p4867
asbasbasbag69
(g85
g71
NtRp4868
(dp4869
g74
(dp4870
sg83
g4838
sg76
(lp4871
g69
(g90
g71
NtRp4872
(dp4873
g74
(dp4874
sg83
g4868
sg76
(lp4875
g69
(g70
g71
NtRp4876
(dp4877
g74
(dp4878
g82
I4
ssg83
g4872
sg76
(lp4879
S'^default/user_homepage/\\w+\\.py$'
p4880
asbasbasbasbasbasbasbag69
(g85
g71
NtRp4881
(dp4882
g74
(dp4883
sg83
g4171
sg76
(lp4884
g69
(g90
g71
NtRp4885
(dp4886
g74
(dp4887
g94
g95
ssg83
g4881
sg76
(lp4888
S'postprocessing'
p4889
asbag69
(g90
g71
NtRp4890
(dp4891
g74
(dp4892
g101
g102
ssg83
g4881
sg76
(lp4893
S':'
asbag69
(g90
g71
NtRp4894
(dp4895
g74
(dp4896
sg83
g4881
sg76
(lp4897
g69
(g70
g71
NtRp4898
(dp4899
g74
(dp4900
g82
I5
ssg83
g4894
sg76
(lp4901
g69
(g78
g71
NtRp4902
(dp4903
g74
(dp4904
g82
I4
ssg83
Nsg76
(lp4905
sbasbasbasbag69
(g85
g71
NtRp4906
(dp4907
g74
(dp4908
sg83
g4171
sg76
(lp4909
g69
(g90
g71
NtRp4910
(dp4911
g74
(dp4912
g94
g95
ssg83
g4906
sg76
(lp4913
S'session_cookie_expires'
p4914
asbag69
(g90
g71
NtRp4915
(dp4916
g74
(dp4917
g101
g102
ssg83
g4906
sg76
(lp4918
S':'
asbag69
(g90
g71
NtRp4919
(dp4920
g74
(dp4921
sg83
g4906
sg76
(lp4922
g69
(g70
g71
NtRp4923
(dp4924
g74
(dp4925
g82
I5
ssg83
g4919
sg76
(lp4926
S'None'
p4927
asbasbasbag69
(g85
g71
NtRp4928
(dp4929
g74
(dp4930
sg83
g4171
sg76
(lp4931
g69
(g90
g71
NtRp4932
(dp4933
g74
(dp4934
g94
g95
ssg83
g4928
sg76
(lp4935
S'session_data_name'
p4936
asbag69
(g90
g71
NtRp4937
(dp4938
g74
(dp4939
g101
g102
ssg83
g4928
sg76
(lp4940
S':'
asbag69
(g90
g71
NtRp4941
(dp4942
g74
(dp4943
sg83
g4928
sg76
(lp4944
g69
(g70
g71
NtRp4945
(dp4946
g74
(dp4947
g82
I5
ssg83
g4941
sg76
(lp4948
S'session_data_assignment2'
p4949
asbasbasbag69
(g85
g71
NtRp4950
(dp4951
g74
(dp4952
sg83
g4171
sg76
(lp4953
g69
(g90
g71
NtRp4954
(dp4955
g74
(dp4956
g94
g95
ssg83
g4950
sg76
(lp4957
S'session_file'
p4958
asbag69
(g90
g71
NtRp4959
(dp4960
g74
(dp4961
g101
g102
ssg83
g4950
sg76
(lp4962
S':'
asbag69
(g90
g71
NtRp4963
(dp4964
g74
(dp4965
sg83
g4950
sg76
(lp4966
g69
(g70
g71
NtRp4967
(dp4968
g74
(dp4969
g82
I5
ssg83
g4963
sg76
(lp4970
S"<open file '/home/aditi/Desktop/web2py/applications/assignment2/sessions/127.0.0.1-c5aa1867-8601-4143-a05d-4be3b5889d68', mode 'rb+' at 0x9178078>"
p4971
asbasbasbag69
(g85
g71
NtRp4972
(dp4973
g74
(dp4974
sg83
g4171
sg76
(lp4975
g69
(g90
g71
NtRp4976
(dp4977
g74
(dp4978
g94
g95
ssg83
g4972
sg76
(lp4979
S'session_filename'
p4980
asbag69
(g90
g71
NtRp4981
(dp4982
g74
(dp4983
g101
g102
ssg83
g4972
sg76
(lp4984
S':'
asbag69
(g90
g71
NtRp4985
(dp4986
g74
(dp4987
sg83
g4972
sg76
(lp4988
g69
(g70
g71
NtRp4989
(dp4990
g74
(dp4991
g82
I5
ssg83
g4985
sg76
(lp4992
S'/home/aditi/Desktop/web2py/applications/assignment2/sessions/127.0.0.1-c5aa1867-8601-4143-a05d-4be3b5889d68'
p4993
asbasbasbag69
(g85
g71
NtRp4994
(dp4995
g74
(dp4996
sg83
g4171
sg76
(lp4997
g69
(g90
g71
NtRp4998
(dp4999
g74
(dp5000
g94
g95
ssg83
g4994
sg76
(lp5001
S'session_id'
p5002
asbag69
(g90
g71
NtRp5003
(dp5004
g74
(dp5005
g101
g102
ssg83
g4994
sg76
(lp5006
S':'
asbag69
(g90
g71
NtRp5007
(dp5008
g74
(dp5009
sg83
g4994
sg76
(lp5010
g69
(g70
g71
NtRp5011
(dp5012
g74
(dp5013
g82
I5
ssg83
g5007
sg76
(lp5014
g487
asbasbasbag69
(g85
g71
NtRp5015
(dp5016
g74
(dp5017
sg83
g4171
sg76
(lp5018
g69
(g90
g71
NtRp5019
(dp5020
g74
(dp5021
g94
g95
ssg83
g5015
sg76
(lp5022
S'session_id_name'
p5023
asbag69
(g90
g71
NtRp5024
(dp5025
g74
(dp5026
g101
g102
ssg83
g5015
sg76
(lp5027
S':'
asbag69
(g90
g71
NtRp5028
(dp5029
g74
(dp5030
sg83
g5015
sg76
(lp5031
g69
(g70
g71
NtRp5032
(dp5033
g74
(dp5034
g82
I5
ssg83
g5028
sg76
(lp5035
g4228
asbasbasbag69
(g85
g71
NtRp5036
(dp5037
g74
(dp5038
sg83
g4171
sg76
(lp5039
g69
(g90
g71
NtRp5040
(dp5041
g74
(dp5042
g94
g95
ssg83
g5036
sg76
(lp5043
S'session_locked'
p5044
asbag69
(g90
g71
NtRp5045
(dp5046
g74
(dp5047
g101
g102
ssg83
g5036
sg76
(lp5048
S':'
asbag69
(g90
g71
NtRp5049
(dp5050
g74
(dp5051
sg83
g5036
sg76
(lp5052
g69
(g70
g71
NtRp5053
(dp5054
g74
(dp5055
g82
I5
ssg83
g5049
sg76
(lp5056
g1880
asbasbasbag69
(g85
g71
NtRp5057
(dp5058
g74
(dp5059
sg83
g4171
sg76
(lp5060
g69
(g90
g71
NtRp5061
(dp5062
g74
(dp5063
g94
g95
ssg83
g5057
sg76
(lp5064
S'session_new'
p5065
asbag69
(g90
g71
NtRp5066
(dp5067
g74
(dp5068
g101
g102
ssg83
g5057
sg76
(lp5069
S':'
asbag69
(g90
g71
NtRp5070
(dp5071
g74
(dp5072
sg83
g5057
sg76
(lp5073
g69
(g70
g71
NtRp5074
(dp5075
g74
(dp5076
g82
I5
ssg83
g5070
sg76
(lp5077
g112
asbasbasbag69
(g85
g71
NtRp5078
(dp5079
g74
(dp5080
sg83
g4171
sg76
(lp5081
g69
(g90
g71
NtRp5082
(dp5083
g74
(dp5084
g94
g95
ssg83
g5078
sg76
(lp5085
S'session_storage_type'
p5086
asbag69
(g90
g71
NtRp5087
(dp5088
g74
(dp5089
g101
g102
ssg83
g5078
sg76
(lp5090
S':'
asbag69
(g90
g71
NtRp5091
(dp5092
g74
(dp5093
sg83
g5078
sg76
(lp5094
g69
(g70
g71
NtRp5095
(dp5096
g74
(dp5097
g82
I5
ssg83
g5091
sg76
(lp5098
g3575
asbasbasbag69
(g85
g71
NtRp5099
(dp5100
g74
(dp5101
sg83
g4171
sg76
(lp5102
g69
(g90
g71
NtRp5103
(dp5104
g74
(dp5105
g94
g95
ssg83
g5099
sg76
(lp5106
S'status'
p5107
asbag69
(g90
g71
NtRp5108
(dp5109
g74
(dp5110
g101
g102
ssg83
g5099
sg76
(lp5111
S':'
asbag69
(g90
g71
NtRp5112
(dp5113
g74
(dp5114
sg83
g5099
sg76
(lp5115
g69
(g70
g71
NtRp5116
(dp5117
g74
(dp5118
g82
I5
ssg83
g5112
sg76
(lp5119
S'200'
p5120
asbasbasbag69
(g85
g71
NtRp5121
(dp5122
g74
(dp5123
sg83
g4171
sg76
(lp5124
g69
(g90
g71
NtRp5125
(dp5126
g74
(dp5127
g94
g95
ssg83
g5121
sg76
(lp5128
S'subtitle'
p5129
asbag69
(g90
g71
NtRp5130
(dp5131
g74
(dp5132
g101
g102
ssg83
g5121
sg76
(lp5133
S':'
asbag69
(g90
g71
NtRp5134
(dp5135
g74
(dp5136
sg83
g5121
sg76
(lp5137
g69
(g70
g71
NtRp5138
(dp5139
g74
(dp5140
g82
I5
ssg83
g5134
sg76
(lp5141
g4661
(S's\x0c\x00\x00\x00Online News!'
tRp5142
asbasbasbag69
(g85
g71
NtRp5143
(dp5144
g74
(dp5145
sg83
g4171
sg76
(lp5146
g69
(g90
g71
NtRp5147
(dp5148
g74
(dp5149
g94
g95
ssg83
g5143
sg76
(lp5150
S'title'
p5151
asbag69
(g90
g71
NtRp5152
(dp5153
g74
(dp5154
g101
g102
ssg83
g5143
sg76
(lp5155
S':'
asbag69
(g90
g71
NtRp5156
(dp5157
g74
(dp5158
sg83
g5143
sg76
(lp5159
g69
(g70
g71
NtRp5160
(dp5161
g74
(dp5162
g82
I5
ssg83
g5156
sg76
(lp5163
S'Assignment2'
p5164
asbasbasbag69
(g85
g71
NtRp5165
(dp5166
g74
(dp5167
sg83
g4171
sg76
(lp5168
g69
(g90
g71
NtRp5169
(dp5170
g74
(dp5171
g94
g95
ssg83
g5165
sg76
(lp5172
S'view'
p5173
asbag69
(g90
g71
NtRp5174
(dp5175
g74
(dp5176
g101
g102
ssg83
g5165
sg76
(lp5177
S':'
asbag69
(g90
g71
NtRp5178
(dp5179
g74
(dp5180
sg83
g5165
sg76
(lp5181
g69
(g70
g71
NtRp5182
(dp5183
g74
(dp5184
g82
I5
ssg83
g5178
sg76
(lp5185
S'default/user_homepage.html'
p5186
asbasbasbasbasbsS'locals'
p5187
(dp5188
S'name'
p5189
S"'dislikes'"
p5190
sS'fields'
p5191
S"{'category': 'computer science', 'choice': 'article', 'dislikes': 0, 'dt': datetime.datetime(2013, 8, 30, 17, 43, 30, 551895), 'heading': 'protection against password theft', 'likes': 0, 'points': 100, 'url': 'http://www.sciencedaily.com/releases/2013/08/130821085115.htm', 'userid': 6}"
p5192
sS'self'
p5193
S'<Table newsitem (id,userid,category,heading,choice,url,points,dt)>'
p5194
sS'update'
p5195
g112
sS'value'
p5196
S"'http://www.sciencedaily.com/releases/2013/08/130821085115.htm'"
p5197
sS'field'
p5198
S'<gluon.dal.Field object>'
p5199
sS'new_fields'
p5200
S"{'category': (<gluon.dal.Field object>, 'computer science'), 'url': (<gluon.dal.Field object>, 'http://www.sciencedaily.com/releases/2013/08/130821085115.htm')}"
p5201
sssS'traceback'
p5202
S'Traceback (most recent call last):\n  File "/home/aditi/Desktop/web2py/gluon/restricted.py", line 212, in restricted\n    exec ccode in environment\n  File "/home/aditi/Desktop/web2py/applications/assignment2/controllers/default.py", line 352, in <module>\n  File "/home/aditi/Desktop/web2py/gluon/globals.py", line 193, in <lambda>\n    self._caller = lambda f: f()\n  File "/home/aditi/Desktop/web2py/applications/assignment2/controllers/default.py", line 45, in user_homepage\n    db.newsitem.insert(userid=a,category=form.vars.category,choice=form.vars.choice,heading=form.vars.heading,url=form.vars.url,points=100,likes=0,dislikes=0,dt=datetime.datetime.today())\n  File "/home/aditi/Desktop/web2py/gluon/dal.py", line 7918, in insert\n    ret =  self._db._adapter.insert(self,self._listify(fields))\n  File "/home/aditi/Desktop/web2py/gluon/dal.py", line 7856, in _listify\n    \'Field %s does not belong to the table\' % name)\nSyntaxError: Field dislikes does not belong to the table\n'
p5203
s.