(dp1
S'output'
p2
S"<type 'exceptions.TypeError'> 'datetime.datetime' object is not callable"
p3
sS'layer'
p4
S'/home/aditi/Desktop/web2py/applications/assignment2/models/db.py'
p5
sS'code'
p6
S"# -*- coding: utf-8 -*-\n\n#########################################################################\n## This scaffolding model makes your app work on Google App Engine too\n## File is released under public domain and you can use without limitations\n#########################################################################\n\n## if SSL/HTTPS is properly configured and you want all HTTP requests to\n## be redirected to HTTPS, uncomment the line below:\n# request.requires_https()\n\nif not request.env.web2py_runtime_gae:\n    ## if NOT running on Google App Engine use SQLite or other DB\n    db = DAL('sqlite://storage.sqlite',pool_size=1,check_reserved=['all'])\nelse:\n    ## connect to Google BigTable (optional 'google:datastore://namespace')\n    db = DAL('google:datastore')\n    ## store sessions and tickets there\n    session.connect(request, response, db=db)\n    ## or store session in Memcache, Redis, etc.\n    ## from gluon.contrib.memdb import MEMDB\n    ## from google.appengine.api.memcache import Client\n    ## session.connect(request, response, db = MEMDB(Client()))\n\n## by default give a view/generic.extension to all actions from localhost\n## none otherwise. a pattern can be 'controller/function.extension'\nresponse.generic_patterns = ['*'] if request.is_local else []\n## (optional) optimize handling of static files\n# response.optimize_css = 'concat,minify,inline'\n# response.optimize_js = 'concat,minify,inline'\n\n#########################################################################\n## Here is sample code if you need for\n## - email capabilities\n## - authentication (registration, login, logout, ... )\n## - authorization (role based authorization)\n## - services (xml, csv, json, xmlrpc, jsonrpc, amf, rss)\n## - old style crud actions\n## (more options discussed in gluon/tools.py)\n#########################################################################\n\nfrom gluon.tools import Auth, Crud, Service, PluginManager, prettydate\nauth = Auth(db)\ncrud, service, plugins = Crud(db), Service(), PluginManager()\n\n## create all tables needed by auth if not custom tables\nauth.settings.extra_fields[auth.settings.table_user_name]=[Field('dob','date',requires=IS_DATE(),label='Date of birth'),\nField('account_type','string',requires=IS_IN_SET(['admin','user']),label='Account type'),\nField('alt_email','string',requires=IS_EMAIL(),label='Alternate email address')]\nauth.define_tables(username=True)\n\n## configure email\nmail = auth.settings.mailer\nmail.settings.server = 'logging' or 'smtp.gmail.com:587'\nmail.settings.sender = 'you@gmail.com'\nmail.settings.login = 'username:password'\n\n## configure auth policy\nauth.settings.registration_requires_verification = False\nauth.settings.registration_requires_approval = False\nauth.settings.reset_password_requires_verification = True\n\n## if you need to use OpenID, Facebook, MySpace, Twitter, Linkedin, etc.\n## register with janrain.com, write your domain:api_key in private/janrain.key\nfrom gluon.contrib.login_methods.rpx_account import use_janrain\nuse_janrain(auth, filename='private/janrain.key')\n\n#########################################################################\n## Define your tables below (or better in another model file) for example\n##\n## >>> db.define_table('mytable',Field('myfield','string'))\n##\n## Fields can be 'string','text','password','integer','double','boolean'\n##       'date','time','datetime','blob','upload', 'reference TABLENAME'\n## There is an implicit 'id integer autoincrement' field\n## Consult manual for more options, validators, etc.\n##\n## More API examples for controllers:\n##\n## >>> db.mytable.insert(myfield='value')\n## >>> rows=db(db.mytable.myfield=='value').select(db.mytable.ALL)\n## >>> for row in rows: print row.id, row.myfield\n#########################################################################\n\n## after defining tables, uncomment below to enable auditing\n# auth.enable_record_versioning(db)\n\ndb.define_table('category',\n                Field('name','string'))\n\ndb.define_table('newsitem',\n                Field('userid','integer'),\n                Field('category','string'),\n                Field('heading','string'),\n                Field('choice','string',requires=IS_IN_SET(['article','video'])),\n                Field('url','string',requires=IS_URL()),\n                Field('points','integer'),\n                Field('likes','integer'),\n                Field('dislikes','integer'),\n                Field('dt','datetime',default=request.now()))\n                \ndb.define_table('likedposts',\n                Field('userid','integer'),\n                Field('postid','integer'))\n\ndb.define_table('dislikedposts',\n                Field('userid','integer'),\n                Field('postid','integer'))\n\ndb.define_table('comments',\n                Field('userid','integer'),\n                Field('postid','integer'),\n                Field('cmt','string'))\n"
p7
sS'snapshot'
p8
(dp9
S'exception'
p10
(dp11
S'__hash__'
p12
S"<method-wrapper '__hash__' of exceptions.TypeError object>"
p13
sS'__setattr__'
p14
S"<method-wrapper '__setattr__' of exceptions.TypeError object>"
p15
sS'__reduce_ex__'
p16
S'<built-in method __reduce_ex__ of exceptions.TypeError object>'
p17
sS'__getslice__'
p18
S"<method-wrapper '__getslice__' of exceptions.TypeError object>"
p19
sS'__getitem__'
p20
S"<method-wrapper '__getitem__' of exceptions.TypeError object>"
p21
sS'__setstate__'
p22
S'<built-in method __setstate__ of exceptions.TypeError object>'
p23
sS'__reduce__'
p24
S'<built-in method __reduce__ of exceptions.TypeError object>'
p25
sS'__str__'
p26
S"<method-wrapper '__str__' of exceptions.TypeError object>"
p27
sS'__format__'
p28
S'<built-in method __format__ of exceptions.TypeError object>'
p29
sS'__getattribute__'
p30
S"<method-wrapper '__getattribute__' of exceptions.TypeError object>"
p31
sS'__class__'
p32
S"<type 'exceptions.TypeError'>"
p33
sS'__unicode__'
p34
S'<built-in method __unicode__ of exceptions.TypeError object>'
p35
sS'__delattr__'
p36
S"<method-wrapper '__delattr__' of exceptions.TypeError object>"
p37
sS'__subclasshook__'
p38
S'<built-in method __subclasshook__ of type object>'
p39
sS'__repr__'
p40
S"<method-wrapper '__repr__' of exceptions.TypeError object>"
p41
sS'args'
p42
S'("\'datetime.datetime\' object is not callable",)'
p43
sS'__dict__'
p44
S'{}'
p45
sS'__sizeof__'
p46
S'<built-in method __sizeof__ of exceptions.TypeError object>'
p47
sS'__doc__'
p48
S"'Inappropriate argument type.'"
p49
sS'__init__'
p50
S"<method-wrapper '__init__' of exceptions.TypeError object>"
p51
sS'__new__'
p52
S'<built-in method __new__ of type object>'
p53
ssS'evalue'
p54
S"'datetime.datetime' object is not callable"
p55
sS'request'
p56
ccopy_reg
_reconstructor
p57
(cgluon.html
BEAUTIFY
p58
c__builtin__
object
p59
NtRp60
(dp61
S'attributes'
p62
(dp63
sS'components'
p64
(lp65
g57
(cgluon.html
TABLE
p66
g59
NtRp67
(dp68
g62
(dp69
S'level'
p70
I5
ssS'parent'
p71
Nsg64
(lp72
g57
(cgluon.html
TR
p73
g59
NtRp74
(dp75
g62
(dp76
sg71
g67
sg64
(lp77
g57
(cgluon.html
TD
p78
g59
NtRp79
(dp80
g62
(dp81
S'_style'
p82
S'font-weight:bold;vertical-align:top'
p83
ssg71
g74
sg64
(lp84
S'ajax'
p85
asbag57
(g78
g59
NtRp86
(dp87
g62
(dp88
S'_valign'
p89
S'top'
p90
ssg71
g74
sg64
(lp91
S':'
asbag57
(g78
g59
NtRp92
(dp93
g62
(dp94
sg71
g74
sg64
(lp95
g57
(g58
g59
NtRp96
(dp97
g62
(dp98
g70
I5
ssg71
g92
sg64
(lp99
S'False'
p100
asbasbasbag57
(g73
g59
NtRp101
(dp102
g62
(dp103
sg71
g67
sg64
(lp104
g57
(g78
g59
NtRp105
(dp106
g62
(dp107
g82
g83
ssg71
g101
sg64
(lp108
S'application'
p109
asbag57
(g78
g59
NtRp110
(dp111
g62
(dp112
g89
g90
ssg71
g101
sg64
(lp113
S':'
asbag57
(g78
g59
NtRp114
(dp115
g62
(dp116
sg71
g101
sg64
(lp117
g57
(g58
g59
NtRp118
(dp119
g62
(dp120
g70
I5
ssg71
g114
sg64
(lp121
S'assignment2'
p122
asbasbasbag57
(g73
g59
NtRp123
(dp124
g62
(dp125
sg71
g67
sg64
(lp126
g57
(g78
g59
NtRp127
(dp128
g62
(dp129
g82
g83
ssg71
g123
sg64
(lp130
g42
asbag57
(g78
g59
NtRp131
(dp132
g62
(dp133
g89
g90
ssg71
g123
sg64
(lp134
S':'
asbag57
(g78
g59
NtRp135
(dp136
g62
(dp137
sg71
g123
sg64
(lp138
g57
(g58
g59
NtRp139
(dp140
g62
(dp141
g70
I5
ssg71
g135
sg64
(lp142
g57
(g66
g59
NtRp143
(dp144
g62
(dp145
g70
I4
ssg71
Nsg64
(lp146
sbasbasbasbag57
(g73
g59
NtRp147
(dp148
g62
(dp149
sg71
g67
sg64
(lp150
g57
(g78
g59
NtRp151
(dp152
g62
(dp153
g82
g83
ssg71
g147
sg64
(lp154
S'body'
p155
asbag57
(g78
g59
NtRp156
(dp157
g62
(dp158
g89
g90
ssg71
g147
sg64
(lp159
S':'
asbag57
(g78
g59
NtRp160
(dp161
g62
(dp162
sg71
g147
sg64
(lp163
g57
(g58
g59
NtRp164
(dp165
g62
(dp166
g70
I5
ssg71
g160
sg64
(lp167
S'<cStringIO.StringO object at 0xad334760>'
p168
asbasbasbag57
(g73
g59
NtRp169
(dp170
g62
(dp171
sg71
g67
sg64
(lp172
g57
(g78
g59
NtRp173
(dp174
g62
(dp175
g82
g83
ssg71
g169
sg64
(lp176
S'cid'
p177
asbag57
(g78
g59
NtRp178
(dp179
g62
(dp180
g89
g90
ssg71
g169
sg64
(lp181
S':'
asbag57
(g78
g59
NtRp182
(dp183
g62
(dp184
sg71
g169
sg64
(lp185
g57
(g58
g59
NtRp186
(dp187
g62
(dp188
g70
I5
ssg71
g182
sg64
(lp189
S'None'
p190
asbasbasbag57
(g73
g59
NtRp191
(dp192
g62
(dp193
sg71
g67
sg64
(lp194
g57
(g78
g59
NtRp195
(dp196
g62
(dp197
g82
g83
ssg71
g191
sg64
(lp198
S'client'
p199
asbag57
(g78
g59
NtRp200
(dp201
g62
(dp202
g89
g90
ssg71
g191
sg64
(lp203
S':'
asbag57
(g78
g59
NtRp204
(dp205
g62
(dp206
sg71
g191
sg64
(lp207
g57
(g58
g59
NtRp208
(dp209
g62
(dp210
g70
I5
ssg71
g204
sg64
(lp211
S'127.0.0.1'
p212
asbasbasbag57
(g73
g59
NtRp213
(dp214
g62
(dp215
sg71
g67
sg64
(lp216
g57
(g78
g59
NtRp217
(dp218
g62
(dp219
g82
g83
ssg71
g213
sg64
(lp220
S'controller'
p221
asbag57
(g78
g59
NtRp222
(dp223
g62
(dp224
g89
g90
ssg71
g213
sg64
(lp225
S':'
asbag57
(g78
g59
NtRp226
(dp227
g62
(dp228
sg71
g213
sg64
(lp229
g57
(g58
g59
NtRp230
(dp231
g62
(dp232
g70
I5
ssg71
g226
sg64
(lp233
S'default'
p234
asbasbasbag57
(g73
g59
NtRp235
(dp236
g62
(dp237
sg71
g67
sg64
(lp238
g57
(g78
g59
NtRp239
(dp240
g62
(dp241
g82
g83
ssg71
g235
sg64
(lp242
S'cookies'
p243
asbag57
(g78
g59
NtRp244
(dp245
g62
(dp246
g89
g90
ssg71
g235
sg64
(lp247
S':'
asbag57
(g78
g59
NtRp248
(dp249
g62
(dp250
sg71
g235
sg64
(lp251
g57
(g58
g59
NtRp252
(dp253
g62
(dp254
g70
I5
ssg71
g248
sg64
(lp255
g57
(g66
g59
NtRp256
(dp257
g62
(dp258
g70
I4
ssg71
Nsg64
(lp259
g57
(g73
g59
NtRp260
(dp261
g62
(dp262
sg71
g256
sg64
(lp263
g57
(g78
g59
NtRp264
(dp265
g62
(dp266
g82
g83
ssg71
g260
sg64
(lp267
S'session_id_admin'
p268
asbag57
(g78
g59
NtRp269
(dp270
g62
(dp271
g89
g90
ssg71
g260
sg64
(lp272
S':'
asbag57
(g78
g59
NtRp273
(dp274
g62
(dp275
sg71
g260
sg64
(lp276
g57
(g58
g59
NtRp277
(dp278
g62
(dp279
g70
I4
ssg71
g273
sg64
(lp280
S'127.0.0.1-128cd1d1-e310-4e60-9485-341e7b3bdb1f'
p281
ag57
(g66
g59
NtRp282
(dp283
g62
(dp284
g70
I3
ssg71
Nsg64
(lp285
g57
(g73
g59
NtRp286
(dp287
g62
(dp288
sg71
g282
sg64
(lp289
g57
(g78
g59
NtRp290
(dp291
g62
(dp292
g82
g83
ssg71
g286
sg64
(lp293
S'comment'
p294
asbag57
(g78
g59
NtRp295
(dp296
g62
(dp297
g89
g90
ssg71
g286
sg64
(lp298
S':'
asbag57
(g78
g59
NtRp299
(dp300
g62
(dp301
sg71
g286
sg64
(lp302
g57
(g58
g59
NtRp303
(dp304
g62
(dp305
g70
I3
ssg71
g299
sg64
(lp306
S''
asbasbasbag57
(g73
g59
NtRp307
(dp308
g62
(dp309
sg71
g282
sg64
(lp310
g57
(g78
g59
NtRp311
(dp312
g62
(dp313
g82
g83
ssg71
g307
sg64
(lp314
S'domain'
p315
asbag57
(g78
g59
NtRp316
(dp317
g62
(dp318
g89
g90
ssg71
g307
sg64
(lp319
S':'
asbag57
(g78
g59
NtRp320
(dp321
g62
(dp322
sg71
g307
sg64
(lp323
g57
(g58
g59
NtRp324
(dp325
g62
(dp326
g70
I3
ssg71
g320
sg64
(lp327
S''
asbasbasbag57
(g73
g59
NtRp328
(dp329
g62
(dp330
sg71
g282
sg64
(lp331
g57
(g78
g59
NtRp332
(dp333
g62
(dp334
g82
g83
ssg71
g328
sg64
(lp335
S'expires'
p336
asbag57
(g78
g59
NtRp337
(dp338
g62
(dp339
g89
g90
ssg71
g328
sg64
(lp340
S':'
asbag57
(g78
g59
NtRp341
(dp342
g62
(dp343
sg71
g328
sg64
(lp344
g57
(g58
g59
NtRp345
(dp346
g62
(dp347
g70
I3
ssg71
g341
sg64
(lp348
S''
asbasbasbag57
(g73
g59
NtRp349
(dp350
g62
(dp351
sg71
g282
sg64
(lp352
g57
(g78
g59
NtRp353
(dp354
g62
(dp355
g82
g83
ssg71
g349
sg64
(lp356
S'httponly'
p357
asbag57
(g78
g59
NtRp358
(dp359
g62
(dp360
g89
g90
ssg71
g349
sg64
(lp361
S':'
asbag57
(g78
g59
NtRp362
(dp363
g62
(dp364
sg71
g349
sg64
(lp365
g57
(g58
g59
NtRp366
(dp367
g62
(dp368
g70
I3
ssg71
g362
sg64
(lp369
S''
asbasbasbag57
(g73
g59
NtRp370
(dp371
g62
(dp372
sg71
g282
sg64
(lp373
g57
(g78
g59
NtRp374
(dp375
g62
(dp376
g82
g83
ssg71
g370
sg64
(lp377
S'max-age'
p378
asbag57
(g78
g59
NtRp379
(dp380
g62
(dp381
g89
g90
ssg71
g370
sg64
(lp382
S':'
asbag57
(g78
g59
NtRp383
(dp384
g62
(dp385
sg71
g370
sg64
(lp386
g57
(g58
g59
NtRp387
(dp388
g62
(dp389
g70
I3
ssg71
g383
sg64
(lp390
S''
asbasbasbag57
(g73
g59
NtRp391
(dp392
g62
(dp393
sg71
g282
sg64
(lp394
g57
(g78
g59
NtRp395
(dp396
g62
(dp397
g82
g83
ssg71
g391
sg64
(lp398
S'path'
p399
asbag57
(g78
g59
NtRp400
(dp401
g62
(dp402
g89
g90
ssg71
g391
sg64
(lp403
S':'
asbag57
(g78
g59
NtRp404
(dp405
g62
(dp406
sg71
g391
sg64
(lp407
g57
(g58
g59
NtRp408
(dp409
g62
(dp410
g70
I3
ssg71
g404
sg64
(lp411
S''
asbasbasbag57
(g73
g59
NtRp412
(dp413
g62
(dp414
sg71
g282
sg64
(lp415
g57
(g78
g59
NtRp416
(dp417
g62
(dp418
g82
g83
ssg71
g412
sg64
(lp419
S'secure'
p420
asbag57
(g78
g59
NtRp421
(dp422
g62
(dp423
g89
g90
ssg71
g412
sg64
(lp424
S':'
asbag57
(g78
g59
NtRp425
(dp426
g62
(dp427
sg71
g412
sg64
(lp428
g57
(g58
g59
NtRp429
(dp430
g62
(dp431
g70
I3
ssg71
g425
sg64
(lp432
S''
asbasbasbag57
(g73
g59
NtRp433
(dp434
g62
(dp435
sg71
g282
sg64
(lp436
g57
(g78
g59
NtRp437
(dp438
g62
(dp439
g82
g83
ssg71
g433
sg64
(lp440
S'version'
p441
asbag57
(g78
g59
NtRp442
(dp443
g62
(dp444
g89
g90
ssg71
g433
sg64
(lp445
S':'
asbag57
(g78
g59
NtRp446
(dp447
g62
(dp448
sg71
g433
sg64
(lp449
g57
(g58
g59
NtRp450
(dp451
g62
(dp452
g70
I3
ssg71
g446
sg64
(lp453
S''
asbasbasbasbasbasbasbag57
(g73
g59
NtRp454
(dp455
g62
(dp456
sg71
g256
sg64
(lp457
g57
(g78
g59
NtRp458
(dp459
g62
(dp460
g82
g83
ssg71
g454
sg64
(lp461
S'session_id_assignment2'
p462
asbag57
(g78
g59
NtRp463
(dp464
g62
(dp465
g89
g90
ssg71
g454
sg64
(lp466
S':'
asbag57
(g78
g59
NtRp467
(dp468
g62
(dp469
sg71
g454
sg64
(lp470
g57
(g58
g59
NtRp471
(dp472
g62
(dp473
g70
I4
ssg71
g467
sg64
(lp474
S'127.0.0.1-bd4f2d5b-930a-4fcf-9bd3-173c1636e694'
p475
ag57
(g66
g59
NtRp476
(dp477
g62
(dp478
g70
I3
ssg71
Nsg64
(lp479
g57
(g73
g59
NtRp480
(dp481
g62
(dp482
sg71
g476
sg64
(lp483
g57
(g78
g59
NtRp484
(dp485
g62
(dp486
g82
g83
ssg71
g480
sg64
(lp487
g294
asbag57
(g78
g59
NtRp488
(dp489
g62
(dp490
g89
g90
ssg71
g480
sg64
(lp491
S':'
asbag57
(g78
g59
NtRp492
(dp493
g62
(dp494
sg71
g480
sg64
(lp495
g57
(g58
g59
NtRp496
(dp497
g62
(dp498
g70
I3
ssg71
g492
sg64
(lp499
S''
asbasbasbag57
(g73
g59
NtRp500
(dp501
g62
(dp502
sg71
g476
sg64
(lp503
g57
(g78
g59
NtRp504
(dp505
g62
(dp506
g82
g83
ssg71
g500
sg64
(lp507
g315
asbag57
(g78
g59
NtRp508
(dp509
g62
(dp510
g89
g90
ssg71
g500
sg64
(lp511
S':'
asbag57
(g78
g59
NtRp512
(dp513
g62
(dp514
sg71
g500
sg64
(lp515
g57
(g58
g59
NtRp516
(dp517
g62
(dp518
g70
I3
ssg71
g512
sg64
(lp519
S''
asbasbasbag57
(g73
g59
NtRp520
(dp521
g62
(dp522
sg71
g476
sg64
(lp523
g57
(g78
g59
NtRp524
(dp525
g62
(dp526
g82
g83
ssg71
g520
sg64
(lp527
g336
asbag57
(g78
g59
NtRp528
(dp529
g62
(dp530
g89
g90
ssg71
g520
sg64
(lp531
S':'
asbag57
(g78
g59
NtRp532
(dp533
g62
(dp534
sg71
g520
sg64
(lp535
g57
(g58
g59
NtRp536
(dp537
g62
(dp538
g70
I3
ssg71
g532
sg64
(lp539
S''
asbasbasbag57
(g73
g59
NtRp540
(dp541
g62
(dp542
sg71
g476
sg64
(lp543
g57
(g78
g59
NtRp544
(dp545
g62
(dp546
g82
g83
ssg71
g540
sg64
(lp547
g357
asbag57
(g78
g59
NtRp548
(dp549
g62
(dp550
g89
g90
ssg71
g540
sg64
(lp551
S':'
asbag57
(g78
g59
NtRp552
(dp553
g62
(dp554
sg71
g540
sg64
(lp555
g57
(g58
g59
NtRp556
(dp557
g62
(dp558
g70
I3
ssg71
g552
sg64
(lp559
S''
asbasbasbag57
(g73
g59
NtRp560
(dp561
g62
(dp562
sg71
g476
sg64
(lp563
g57
(g78
g59
NtRp564
(dp565
g62
(dp566
g82
g83
ssg71
g560
sg64
(lp567
g378
asbag57
(g78
g59
NtRp568
(dp569
g62
(dp570
g89
g90
ssg71
g560
sg64
(lp571
S':'
asbag57
(g78
g59
NtRp572
(dp573
g62
(dp574
sg71
g560
sg64
(lp575
g57
(g58
g59
NtRp576
(dp577
g62
(dp578
g70
I3
ssg71
g572
sg64
(lp579
S''
asbasbasbag57
(g73
g59
NtRp580
(dp581
g62
(dp582
sg71
g476
sg64
(lp583
g57
(g78
g59
NtRp584
(dp585
g62
(dp586
g82
g83
ssg71
g580
sg64
(lp587
g399
asbag57
(g78
g59
NtRp588
(dp589
g62
(dp590
g89
g90
ssg71
g580
sg64
(lp591
S':'
asbag57
(g78
g59
NtRp592
(dp593
g62
(dp594
sg71
g580
sg64
(lp595
g57
(g58
g59
NtRp596
(dp597
g62
(dp598
g70
I3
ssg71
g592
sg64
(lp599
S''
asbasbasbag57
(g73
g59
NtRp600
(dp601
g62
(dp602
sg71
g476
sg64
(lp603
g57
(g78
g59
NtRp604
(dp605
g62
(dp606
g82
g83
ssg71
g600
sg64
(lp607
g420
asbag57
(g78
g59
NtRp608
(dp609
g62
(dp610
g89
g90
ssg71
g600
sg64
(lp611
S':'
asbag57
(g78
g59
NtRp612
(dp613
g62
(dp614
sg71
g600
sg64
(lp615
g57
(g58
g59
NtRp616
(dp617
g62
(dp618
g70
I3
ssg71
g612
sg64
(lp619
S''
asbasbasbag57
(g73
g59
NtRp620
(dp621
g62
(dp622
sg71
g476
sg64
(lp623
g57
(g78
g59
NtRp624
(dp625
g62
(dp626
g82
g83
ssg71
g620
sg64
(lp627
g441
asbag57
(g78
g59
NtRp628
(dp629
g62
(dp630
g89
g90
ssg71
g620
sg64
(lp631
S':'
asbag57
(g78
g59
NtRp632
(dp633
g62
(dp634
sg71
g620
sg64
(lp635
g57
(g58
g59
NtRp636
(dp637
g62
(dp638
g70
I3
ssg71
g632
sg64
(lp639
S''
asbasbasbasbasbasbasbag57
(g73
g59
NtRp640
(dp641
g62
(dp642
sg71
g256
sg64
(lp643
g57
(g78
g59
NtRp644
(dp645
g62
(dp646
g82
g83
ssg71
g640
sg64
(lp647
S'session_id_library_management_system'
p648
asbag57
(g78
g59
NtRp649
(dp650
g62
(dp651
g89
g90
ssg71
g640
sg64
(lp652
S':'
asbag57
(g78
g59
NtRp653
(dp654
g62
(dp655
sg71
g640
sg64
(lp656
g57
(g58
g59
NtRp657
(dp658
g62
(dp659
g70
I4
ssg71
g653
sg64
(lp660
S'127.0.0.1-40416ab1-7d6c-40e5-86f7-be4e646c6bab'
p661
ag57
(g66
g59
NtRp662
(dp663
g62
(dp664
g70
I3
ssg71
Nsg64
(lp665
g57
(g73
g59
NtRp666
(dp667
g62
(dp668
sg71
g662
sg64
(lp669
g57
(g78
g59
NtRp670
(dp671
g62
(dp672
g82
g83
ssg71
g666
sg64
(lp673
g294
asbag57
(g78
g59
NtRp674
(dp675
g62
(dp676
g89
g90
ssg71
g666
sg64
(lp677
S':'
asbag57
(g78
g59
NtRp678
(dp679
g62
(dp680
sg71
g666
sg64
(lp681
g57
(g58
g59
NtRp682
(dp683
g62
(dp684
g70
I3
ssg71
g678
sg64
(lp685
S''
asbasbasbag57
(g73
g59
NtRp686
(dp687
g62
(dp688
sg71
g662
sg64
(lp689
g57
(g78
g59
NtRp690
(dp691
g62
(dp692
g82
g83
ssg71
g686
sg64
(lp693
g315
asbag57
(g78
g59
NtRp694
(dp695
g62
(dp696
g89
g90
ssg71
g686
sg64
(lp697
S':'
asbag57
(g78
g59
NtRp698
(dp699
g62
(dp700
sg71
g686
sg64
(lp701
g57
(g58
g59
NtRp702
(dp703
g62
(dp704
g70
I3
ssg71
g698
sg64
(lp705
S''
asbasbasbag57
(g73
g59
NtRp706
(dp707
g62
(dp708
sg71
g662
sg64
(lp709
g57
(g78
g59
NtRp710
(dp711
g62
(dp712
g82
g83
ssg71
g706
sg64
(lp713
g336
asbag57
(g78
g59
NtRp714
(dp715
g62
(dp716
g89
g90
ssg71
g706
sg64
(lp717
S':'
asbag57
(g78
g59
NtRp718
(dp719
g62
(dp720
sg71
g706
sg64
(lp721
g57
(g58
g59
NtRp722
(dp723
g62
(dp724
g70
I3
ssg71
g718
sg64
(lp725
S''
asbasbasbag57
(g73
g59
NtRp726
(dp727
g62
(dp728
sg71
g662
sg64
(lp729
g57
(g78
g59
NtRp730
(dp731
g62
(dp732
g82
g83
ssg71
g726
sg64
(lp733
g357
asbag57
(g78
g59
NtRp734
(dp735
g62
(dp736
g89
g90
ssg71
g726
sg64
(lp737
S':'
asbag57
(g78
g59
NtRp738
(dp739
g62
(dp740
sg71
g726
sg64
(lp741
g57
(g58
g59
NtRp742
(dp743
g62
(dp744
g70
I3
ssg71
g738
sg64
(lp745
S''
asbasbasbag57
(g73
g59
NtRp746
(dp747
g62
(dp748
sg71
g662
sg64
(lp749
g57
(g78
g59
NtRp750
(dp751
g62
(dp752
g82
g83
ssg71
g746
sg64
(lp753
g378
asbag57
(g78
g59
NtRp754
(dp755
g62
(dp756
g89
g90
ssg71
g746
sg64
(lp757
S':'
asbag57
(g78
g59
NtRp758
(dp759
g62
(dp760
sg71
g746
sg64
(lp761
g57
(g58
g59
NtRp762
(dp763
g62
(dp764
g70
I3
ssg71
g758
sg64
(lp765
S''
asbasbasbag57
(g73
g59
NtRp766
(dp767
g62
(dp768
sg71
g662
sg64
(lp769
g57
(g78
g59
NtRp770
(dp771
g62
(dp772
g82
g83
ssg71
g766
sg64
(lp773
g399
asbag57
(g78
g59
NtRp774
(dp775
g62
(dp776
g89
g90
ssg71
g766
sg64
(lp777
S':'
asbag57
(g78
g59
NtRp778
(dp779
g62
(dp780
sg71
g766
sg64
(lp781
g57
(g58
g59
NtRp782
(dp783
g62
(dp784
g70
I3
ssg71
g778
sg64
(lp785
S''
asbasbasbag57
(g73
g59
NtRp786
(dp787
g62
(dp788
sg71
g662
sg64
(lp789
g57
(g78
g59
NtRp790
(dp791
g62
(dp792
g82
g83
ssg71
g786
sg64
(lp793
g420
asbag57
(g78
g59
NtRp794
(dp795
g62
(dp796
g89
g90
ssg71
g786
sg64
(lp797
S':'
asbag57
(g78
g59
NtRp798
(dp799
g62
(dp800
sg71
g786
sg64
(lp801
g57
(g58
g59
NtRp802
(dp803
g62
(dp804
g70
I3
ssg71
g798
sg64
(lp805
S''
asbasbasbag57
(g73
g59
NtRp806
(dp807
g62
(dp808
sg71
g662
sg64
(lp809
g57
(g78
g59
NtRp810
(dp811
g62
(dp812
g82
g83
ssg71
g806
sg64
(lp813
g441
asbag57
(g78
g59
NtRp814
(dp815
g62
(dp816
g89
g90
ssg71
g806
sg64
(lp817
S':'
asbag57
(g78
g59
NtRp818
(dp819
g62
(dp820
sg71
g806
sg64
(lp821
g57
(g58
g59
NtRp822
(dp823
g62
(dp824
g70
I3
ssg71
g818
sg64
(lp825
S''
asbasbasbasbasbasbasbag57
(g73
g59
NtRp826
(dp827
g62
(dp828
sg71
g256
sg64
(lp829
g57
(g78
g59
NtRp830
(dp831
g62
(dp832
g82
g83
ssg71
g826
sg64
(lp833
S'session_id_welcome'
p834
asbag57
(g78
g59
NtRp835
(dp836
g62
(dp837
g89
g90
ssg71
g826
sg64
(lp838
S':'
asbag57
(g78
g59
NtRp839
(dp840
g62
(dp841
sg71
g826
sg64
(lp842
g57
(g58
g59
NtRp843
(dp844
g62
(dp845
g70
I4
ssg71
g839
sg64
(lp846
S'127.0.0.1-cfd48643-5025-4d54-94df-80f4f02f947c'
p847
ag57
(g66
g59
NtRp848
(dp849
g62
(dp850
g70
I3
ssg71
Nsg64
(lp851
g57
(g73
g59
NtRp852
(dp853
g62
(dp854
sg71
g848
sg64
(lp855
g57
(g78
g59
NtRp856
(dp857
g62
(dp858
g82
g83
ssg71
g852
sg64
(lp859
g294
asbag57
(g78
g59
NtRp860
(dp861
g62
(dp862
g89
g90
ssg71
g852
sg64
(lp863
S':'
asbag57
(g78
g59
NtRp864
(dp865
g62
(dp866
sg71
g852
sg64
(lp867
g57
(g58
g59
NtRp868
(dp869
g62
(dp870
g70
I3
ssg71
g864
sg64
(lp871
S''
asbasbasbag57
(g73
g59
NtRp872
(dp873
g62
(dp874
sg71
g848
sg64
(lp875
g57
(g78
g59
NtRp876
(dp877
g62
(dp878
g82
g83
ssg71
g872
sg64
(lp879
g315
asbag57
(g78
g59
NtRp880
(dp881
g62
(dp882
g89
g90
ssg71
g872
sg64
(lp883
S':'
asbag57
(g78
g59
NtRp884
(dp885
g62
(dp886
sg71
g872
sg64
(lp887
g57
(g58
g59
NtRp888
(dp889
g62
(dp890
g70
I3
ssg71
g884
sg64
(lp891
S''
asbasbasbag57
(g73
g59
NtRp892
(dp893
g62
(dp894
sg71
g848
sg64
(lp895
g57
(g78
g59
NtRp896
(dp897
g62
(dp898
g82
g83
ssg71
g892
sg64
(lp899
g336
asbag57
(g78
g59
NtRp900
(dp901
g62
(dp902
g89
g90
ssg71
g892
sg64
(lp903
S':'
asbag57
(g78
g59
NtRp904
(dp905
g62
(dp906
sg71
g892
sg64
(lp907
g57
(g58
g59
NtRp908
(dp909
g62
(dp910
g70
I3
ssg71
g904
sg64
(lp911
S''
asbasbasbag57
(g73
g59
NtRp912
(dp913
g62
(dp914
sg71
g848
sg64
(lp915
g57
(g78
g59
NtRp916
(dp917
g62
(dp918
g82
g83
ssg71
g912
sg64
(lp919
g357
asbag57
(g78
g59
NtRp920
(dp921
g62
(dp922
g89
g90
ssg71
g912
sg64
(lp923
S':'
asbag57
(g78
g59
NtRp924
(dp925
g62
(dp926
sg71
g912
sg64
(lp927
g57
(g58
g59
NtRp928
(dp929
g62
(dp930
g70
I3
ssg71
g924
sg64
(lp931
S''
asbasbasbag57
(g73
g59
NtRp932
(dp933
g62
(dp934
sg71
g848
sg64
(lp935
g57
(g78
g59
NtRp936
(dp937
g62
(dp938
g82
g83
ssg71
g932
sg64
(lp939
g378
asbag57
(g78
g59
NtRp940
(dp941
g62
(dp942
g89
g90
ssg71
g932
sg64
(lp943
S':'
asbag57
(g78
g59
NtRp944
(dp945
g62
(dp946
sg71
g932
sg64
(lp947
g57
(g58
g59
NtRp948
(dp949
g62
(dp950
g70
I3
ssg71
g944
sg64
(lp951
S''
asbasbasbag57
(g73
g59
NtRp952
(dp953
g62
(dp954
sg71
g848
sg64
(lp955
g57
(g78
g59
NtRp956
(dp957
g62
(dp958
g82
g83
ssg71
g952
sg64
(lp959
g399
asbag57
(g78
g59
NtRp960
(dp961
g62
(dp962
g89
g90
ssg71
g952
sg64
(lp963
S':'
asbag57
(g78
g59
NtRp964
(dp965
g62
(dp966
sg71
g952
sg64
(lp967
g57
(g58
g59
NtRp968
(dp969
g62
(dp970
g70
I3
ssg71
g964
sg64
(lp971
S''
asbasbasbag57
(g73
g59
NtRp972
(dp973
g62
(dp974
sg71
g848
sg64
(lp975
g57
(g78
g59
NtRp976
(dp977
g62
(dp978
g82
g83
ssg71
g972
sg64
(lp979
g420
asbag57
(g78
g59
NtRp980
(dp981
g62
(dp982
g89
g90
ssg71
g972
sg64
(lp983
S':'
asbag57
(g78
g59
NtRp984
(dp985
g62
(dp986
sg71
g972
sg64
(lp987
g57
(g58
g59
NtRp988
(dp989
g62
(dp990
g70
I3
ssg71
g984
sg64
(lp991
S''
asbasbasbag57
(g73
g59
NtRp992
(dp993
g62
(dp994
sg71
g848
sg64
(lp995
g57
(g78
g59
NtRp996
(dp997
g62
(dp998
g82
g83
ssg71
g992
sg64
(lp999
g441
asbag57
(g78
g59
NtRp1000
(dp1001
g62
(dp1002
g89
g90
ssg71
g992
sg64
(lp1003
S':'
asbag57
(g78
g59
NtRp1004
(dp1005
g62
(dp1006
sg71
g992
sg64
(lp1007
g57
(g58
g59
NtRp1008
(dp1009
g62
(dp1010
g70
I3
ssg71
g1004
sg64
(lp1011
S''
asbasbasbasbasbasbasbasbasbasbasbag57
(g73
g59
NtRp1012
(dp1013
g62
(dp1014
sg71
g67
sg64
(lp1015
g57
(g78
g59
NtRp1016
(dp1017
g62
(dp1018
g82
g83
ssg71
g1012
sg64
(lp1019
S'env'
p1020
asbag57
(g78
g59
NtRp1021
(dp1022
g62
(dp1023
g89
g90
ssg71
g1012
sg64
(lp1024
S':'
asbag57
(g78
g59
NtRp1025
(dp1026
g62
(dp1027
sg71
g1012
sg64
(lp1028
g57
(g58
g59
NtRp1029
(dp1030
g62
(dp1031
g70
I5
ssg71
g1025
sg64
(lp1032
g57
(g66
g59
NtRp1033
(dp1034
g62
(dp1035
g70
I4
ssg71
Nsg64
(lp1036
g57
(g73
g59
NtRp1037
(dp1038
g62
(dp1039
sg71
g1033
sg64
(lp1040
g57
(g78
g59
NtRp1041
(dp1042
g62
(dp1043
g82
g83
ssg71
g1037
sg64
(lp1044
S'app_folders'
p1045
asbag57
(g78
g59
NtRp1046
(dp1047
g62
(dp1048
g89
g90
ssg71
g1037
sg64
(lp1049
S':'
asbag57
(g78
g59
NtRp1050
(dp1051
g62
(dp1052
sg71
g1037
sg64
(lp1053
g57
(g58
g59
NtRp1054
(dp1055
g62
(dp1056
g70
I4
ssg71
g1050
sg64
(lp1057
S"set(['/home/aditi/Desktop/web2py/applications/assignment2/', '/home/aditi/Desktop/web2py/applications/admin/', '/home/aditi/Desktop/web2py/applications/welcome/', '/home/aditi/Desktop/web2py/applications/library_management_system/'])"
p1058
asbasbasbag57
(g73
g59
NtRp1059
(dp1060
g62
(dp1061
sg71
g1033
sg64
(lp1062
g57
(g78
g59
NtRp1063
(dp1064
g62
(dp1065
g82
g83
ssg71
g1059
sg64
(lp1066
S'applications_parent'
p1067
asbag57
(g78
g59
NtRp1068
(dp1069
g62
(dp1070
g89
g90
ssg71
g1059
sg64
(lp1071
S':'
asbag57
(g78
g59
NtRp1072
(dp1073
g62
(dp1074
sg71
g1059
sg64
(lp1075
g57
(g58
g59
NtRp1076
(dp1077
g62
(dp1078
g70
I4
ssg71
g1072
sg64
(lp1079
S'/home/aditi/Desktop/web2py'
p1080
asbasbasbag57
(g73
g59
NtRp1081
(dp1082
g62
(dp1083
sg71
g1033
sg64
(lp1084
g57
(g78
g59
NtRp1085
(dp1086
g62
(dp1087
g82
g83
ssg71
g1081
sg64
(lp1088
S'cmd_args'
p1089
asbag57
(g78
g59
NtRp1090
(dp1091
g62
(dp1092
g89
g90
ssg71
g1081
sg64
(lp1093
S':'
asbag57
(g78
g59
NtRp1094
(dp1095
g62
(dp1096
sg71
g1081
sg64
(lp1097
g57
(g58
g59
NtRp1098
(dp1099
g62
(dp1100
g70
I4
ssg71
g1094
sg64
(lp1101
g57
(g66
g59
NtRp1102
(dp1103
g62
(dp1104
g70
I3
ssg71
Nsg64
(lp1105
sbasbasbasbag57
(g73
g59
NtRp1106
(dp1107
g62
(dp1108
sg71
g1033
sg64
(lp1109
g57
(g78
g59
NtRp1110
(dp1111
g62
(dp1112
g82
g83
ssg71
g1106
sg64
(lp1113
S'cmd_options'
p1114
asbag57
(g78
g59
NtRp1115
(dp1116
g62
(dp1117
g89
g90
ssg71
g1106
sg64
(lp1118
S':'
asbag57
(g78
g59
NtRp1119
(dp1120
g62
(dp1121
sg71
g1106
sg64
(lp1122
g57
(g58
g59
NtRp1123
(dp1124
g62
(dp1125
g70
I4
ssg71
g1119
sg64
(lp1126
S"<Values at 0x905ba0c: {'verbose': False, 'ip': '127.0.0.1', 'with_scheduler': False, 'ips': [], 'shutdown_timeout': 5, 'taskbar': False, 'port': 8000, 'maxthreads': None, 'softcron': False, 'server_name': 'ubuntu', 'bpython': False, 'nogui': False, 'pid_filename': 'httpserver.pid', 'extcron': False, 'runcron': False, 'run_system_tests': False, 'test': None, 'folder': '/home/aditi/Desktop/web2py', 'config': '', 'import_models': False, 'winservice': '', 'shell': None, 'run': '', 'log_filename': 'httpserver.log', 'debuglevel': 30, 'args': [''], 'socket_timeout': 5, 'ssl_ca_certificate': None, 'scheduler': None, 'profiler_filename': None, 'ssl_private_key': '', 'scheduler_groups': None, 'password': '<ask>', 'request_queue_size': 5, 'ssl_certificate': '', 'cronjob': False, 'numthreads': None, 'quiet': False, 'interfaces': None, 'minthreads': None, 'timeout': 10, 'plain': False, 'nobanner': False}>"
p1127
asbasbasbag57
(g73
g59
NtRp1128
(dp1129
g62
(dp1130
sg71
g1033
sg64
(lp1131
g57
(g78
g59
NtRp1132
(dp1133
g62
(dp1134
g82
g83
ssg71
g1128
sg64
(lp1135
S'db_sessions'
p1136
asbag57
(g78
g59
NtRp1137
(dp1138
g62
(dp1139
g89
g90
ssg71
g1128
sg64
(lp1140
S':'
asbag57
(g78
g59
NtRp1141
(dp1142
g62
(dp1143
sg71
g1128
sg64
(lp1144
g57
(g58
g59
NtRp1145
(dp1146
g62
(dp1147
g70
I4
ssg71
g1141
sg64
(lp1148
S'set([])'
p1149
asbasbasbag57
(g73
g59
NtRp1150
(dp1151
g62
(dp1152
sg71
g1033
sg64
(lp1153
g57
(g78
g59
NtRp1154
(dp1155
g62
(dp1156
g82
g83
ssg71
g1150
sg64
(lp1157
S'debugging'
p1158
asbag57
(g78
g59
NtRp1159
(dp1160
g62
(dp1161
g89
g90
ssg71
g1150
sg64
(lp1162
S':'
asbag57
(g78
g59
NtRp1163
(dp1164
g62
(dp1165
sg71
g1150
sg64
(lp1166
g57
(g58
g59
NtRp1167
(dp1168
g62
(dp1169
g70
I4
ssg71
g1163
sg64
(lp1170
g100
asbasbasbag57
(g73
g59
NtRp1171
(dp1172
g62
(dp1173
sg71
g1033
sg64
(lp1174
g57
(g78
g59
NtRp1175
(dp1176
g62
(dp1177
g82
g83
ssg71
g1171
sg64
(lp1178
S'gluon_parent'
p1179
asbag57
(g78
g59
NtRp1180
(dp1181
g62
(dp1182
g89
g90
ssg71
g1171
sg64
(lp1183
S':'
asbag57
(g78
g59
NtRp1184
(dp1185
g62
(dp1186
sg71
g1171
sg64
(lp1187
g57
(g58
g59
NtRp1188
(dp1189
g62
(dp1190
g70
I4
ssg71
g1184
sg64
(lp1191
S'/home/aditi/Desktop/web2py'
p1192
asbasbasbag57
(g73
g59
NtRp1193
(dp1194
g62
(dp1195
sg71
g1033
sg64
(lp1196
g57
(g78
g59
NtRp1197
(dp1198
g62
(dp1199
g82
g83
ssg71
g1193
sg64
(lp1200
S'http_accept'
p1201
asbag57
(g78
g59
NtRp1202
(dp1203
g62
(dp1204
g89
g90
ssg71
g1193
sg64
(lp1205
S':'
asbag57
(g78
g59
NtRp1206
(dp1207
g62
(dp1208
sg71
g1193
sg64
(lp1209
g57
(g58
g59
NtRp1210
(dp1211
g62
(dp1212
g70
I4
ssg71
g1206
sg64
(lp1213
S'text/html,application/xhtml+xml,application/xml;q=0.9,*/*;q=0.8'
p1214
asbasbasbag57
(g73
g59
NtRp1215
(dp1216
g62
(dp1217
sg71
g1033
sg64
(lp1218
g57
(g78
g59
NtRp1219
(dp1220
g62
(dp1221
g82
g83
ssg71
g1215
sg64
(lp1222
S'http_accept_encoding'
p1223
asbag57
(g78
g59
NtRp1224
(dp1225
g62
(dp1226
g89
g90
ssg71
g1215
sg64
(lp1227
S':'
asbag57
(g78
g59
NtRp1228
(dp1229
g62
(dp1230
sg71
g1215
sg64
(lp1231
g57
(g58
g59
NtRp1232
(dp1233
g62
(dp1234
g70
I4
ssg71
g1228
sg64
(lp1235
S'gzip, deflate'
p1236
asbasbasbag57
(g73
g59
NtRp1237
(dp1238
g62
(dp1239
sg71
g1033
sg64
(lp1240
g57
(g78
g59
NtRp1241
(dp1242
g62
(dp1243
g82
g83
ssg71
g1237
sg64
(lp1244
S'http_accept_language'
p1245
asbag57
(g78
g59
NtRp1246
(dp1247
g62
(dp1248
g89
g90
ssg71
g1237
sg64
(lp1249
S':'
asbag57
(g78
g59
NtRp1250
(dp1251
g62
(dp1252
sg71
g1237
sg64
(lp1253
g57
(g58
g59
NtRp1254
(dp1255
g62
(dp1256
g70
I4
ssg71
g1250
sg64
(lp1257
S'en-US,en;q=0.5'
p1258
asbasbasbag57
(g73
g59
NtRp1259
(dp1260
g62
(dp1261
sg71
g1033
sg64
(lp1262
g57
(g78
g59
NtRp1263
(dp1264
g62
(dp1265
g82
g83
ssg71
g1259
sg64
(lp1266
S'http_cache_control'
p1267
asbag57
(g78
g59
NtRp1268
(dp1269
g62
(dp1270
g89
g90
ssg71
g1259
sg64
(lp1271
S':'
asbag57
(g78
g59
NtRp1272
(dp1273
g62
(dp1274
sg71
g1259
sg64
(lp1275
g57
(g58
g59
NtRp1276
(dp1277
g62
(dp1278
g70
I4
ssg71
g1272
sg64
(lp1279
S'max-age=0'
p1280
asbasbasbag57
(g73
g59
NtRp1281
(dp1282
g62
(dp1283
sg71
g1033
sg64
(lp1284
g57
(g78
g59
NtRp1285
(dp1286
g62
(dp1287
g82
g83
ssg71
g1281
sg64
(lp1288
S'http_connection'
p1289
asbag57
(g78
g59
NtRp1290
(dp1291
g62
(dp1292
g89
g90
ssg71
g1281
sg64
(lp1293
S':'
asbag57
(g78
g59
NtRp1294
(dp1295
g62
(dp1296
sg71
g1281
sg64
(lp1297
g57
(g58
g59
NtRp1298
(dp1299
g62
(dp1300
g70
I4
ssg71
g1294
sg64
(lp1301
S'keep-alive'
p1302
asbasbasbag57
(g73
g59
NtRp1303
(dp1304
g62
(dp1305
sg71
g1033
sg64
(lp1306
g57
(g78
g59
NtRp1307
(dp1308
g62
(dp1309
g82
g83
ssg71
g1303
sg64
(lp1310
S'http_cookie'
p1311
asbag57
(g78
g59
NtRp1312
(dp1313
g62
(dp1314
g89
g90
ssg71
g1303
sg64
(lp1315
S':'
asbag57
(g78
g59
NtRp1316
(dp1317
g62
(dp1318
sg71
g1303
sg64
(lp1319
g57
(g58
g59
NtRp1320
(dp1321
g62
(dp1322
g70
I4
ssg71
g1316
sg64
(lp1323
S'session_id_welcome=127.0.0.1-cfd48643-5025-4d54-94df-80f4f02f947c; session_id_admin=127.0.0.1-128cd1d1-e310-4e60-9485-341e7b3bdb1f; session_id_library_management_system=127.0.0.1-40416ab1-7d6c-40e5-86f7-be4e646c6bab; session_id_assignment2=127.0.0.1-bd4f2d5b-930a-4fcf-9bd3-173c1636e694'
p1324
asbasbasbag57
(g73
g59
NtRp1325
(dp1326
g62
(dp1327
sg71
g1033
sg64
(lp1328
g57
(g78
g59
NtRp1329
(dp1330
g62
(dp1331
g82
g83
ssg71
g1325
sg64
(lp1332
S'http_host'
p1333
asbag57
(g78
g59
NtRp1334
(dp1335
g62
(dp1336
g89
g90
ssg71
g1325
sg64
(lp1337
S':'
asbag57
(g78
g59
NtRp1338
(dp1339
g62
(dp1340
sg71
g1325
sg64
(lp1341
g57
(g58
g59
NtRp1342
(dp1343
g62
(dp1344
g70
I4
ssg71
g1338
sg64
(lp1345
S'127.0.0.1:8000'
p1346
asbasbasbag57
(g73
g59
NtRp1347
(dp1348
g62
(dp1349
sg71
g1033
sg64
(lp1350
g57
(g78
g59
NtRp1351
(dp1352
g62
(dp1353
g82
g83
ssg71
g1347
sg64
(lp1354
S'http_referer'
p1355
asbag57
(g78
g59
NtRp1356
(dp1357
g62
(dp1358
g89
g90
ssg71
g1347
sg64
(lp1359
S':'
asbag57
(g78
g59
NtRp1360
(dp1361
g62
(dp1362
sg71
g1347
sg64
(lp1363
g57
(g58
g59
NtRp1364
(dp1365
g62
(dp1366
g70
I4
ssg71
g1360
sg64
(lp1367
S'http://127.0.0.1:8000/assignment2/default/user/login?_next=/assignment2/default/index'
p1368
asbasbasbag57
(g73
g59
NtRp1369
(dp1370
g62
(dp1371
sg71
g1033
sg64
(lp1372
g57
(g78
g59
NtRp1373
(dp1374
g62
(dp1375
g82
g83
ssg71
g1369
sg64
(lp1376
S'http_user_agent'
p1377
asbag57
(g78
g59
NtRp1378
(dp1379
g62
(dp1380
g89
g90
ssg71
g1369
sg64
(lp1381
S':'
asbag57
(g78
g59
NtRp1382
(dp1383
g62
(dp1384
sg71
g1369
sg64
(lp1385
g57
(g58
g59
NtRp1386
(dp1387
g62
(dp1388
g70
I4
ssg71
g1382
sg64
(lp1389
S'Mozilla/5.0 (X11; Ubuntu; Linux i686; rv:23.0) Gecko/20100101 Firefox/23.0'
p1390
asbasbasbag57
(g73
g59
NtRp1391
(dp1392
g62
(dp1393
sg71
g1033
sg64
(lp1394
g57
(g78
g59
NtRp1395
(dp1396
g62
(dp1397
g82
g83
ssg71
g1391
sg64
(lp1398
S'is_jython'
p1399
asbag57
(g78
g59
NtRp1400
(dp1401
g62
(dp1402
g89
g90
ssg71
g1391
sg64
(lp1403
S':'
asbag57
(g78
g59
NtRp1404
(dp1405
g62
(dp1406
sg71
g1391
sg64
(lp1407
g57
(g58
g59
NtRp1408
(dp1409
g62
(dp1410
g70
I4
ssg71
g1404
sg64
(lp1411
g100
asbasbasbag57
(g73
g59
NtRp1412
(dp1413
g62
(dp1414
sg71
g1033
sg64
(lp1415
g57
(g78
g59
NtRp1416
(dp1417
g62
(dp1418
g82
g83
ssg71
g1412
sg64
(lp1419
S'is_pypy'
p1420
asbag57
(g78
g59
NtRp1421
(dp1422
g62
(dp1423
g89
g90
ssg71
g1412
sg64
(lp1424
S':'
asbag57
(g78
g59
NtRp1425
(dp1426
g62
(dp1427
sg71
g1412
sg64
(lp1428
g57
(g58
g59
NtRp1429
(dp1430
g62
(dp1431
g70
I4
ssg71
g1425
sg64
(lp1432
g100
asbasbasbag57
(g73
g59
NtRp1433
(dp1434
g62
(dp1435
sg71
g1033
sg64
(lp1436
g57
(g78
g59
NtRp1437
(dp1438
g62
(dp1439
g82
g83
ssg71
g1433
sg64
(lp1440
S'local_hosts'
p1441
asbag57
(g78
g59
NtRp1442
(dp1443
g62
(dp1444
g89
g90
ssg71
g1433
sg64
(lp1445
S':'
asbag57
(g78
g59
NtRp1446
(dp1447
g62
(dp1448
sg71
g1433
sg64
(lp1449
g57
(g58
g59
NtRp1450
(dp1451
g62
(dp1452
g70
I4
ssg71
g1446
sg64
(lp1453
g57
(g66
g59
NtRp1454
(dp1455
g62
(dp1456
g70
I3
ssg71
Nsg64
(lp1457
g57
(g73
g59
NtRp1458
(dp1459
g62
(dp1460
sg71
g1454
sg64
(lp1461
g57
(g78
g59
NtRp1462
(dp1463
g62
(dp1464
sg71
g1458
sg64
(lp1465
g57
(g58
g59
NtRp1466
(dp1467
g62
(dp1468
g70
I3
ssg71
g1462
sg64
(lp1469
S'ubuntu.ubuntu-domain'
p1470
asbasbasbag57
(g73
g59
NtRp1471
(dp1472
g62
(dp1473
sg71
g1454
sg64
(lp1474
g57
(g78
g59
NtRp1475
(dp1476
g62
(dp1477
sg71
g1471
sg64
(lp1478
g57
(g58
g59
NtRp1479
(dp1480
g62
(dp1481
g70
I3
ssg71
g1475
sg64
(lp1482
S'::ffff:127.0.0.1'
p1483
asbasbasbag57
(g73
g59
NtRp1484
(dp1485
g62
(dp1486
sg71
g1454
sg64
(lp1487
g57
(g78
g59
NtRp1488
(dp1489
g62
(dp1490
sg71
g1484
sg64
(lp1491
g57
(g58
g59
NtRp1492
(dp1493
g62
(dp1494
g70
I3
ssg71
g1488
sg64
(lp1495
S'::1'
p1496
asbasbasbag57
(g73
g59
NtRp1497
(dp1498
g62
(dp1499
sg71
g1454
sg64
(lp1500
g57
(g78
g59
NtRp1501
(dp1502
g62
(dp1503
sg71
g1497
sg64
(lp1504
g57
(g58
g59
NtRp1505
(dp1506
g62
(dp1507
g70
I3
ssg71
g1501
sg64
(lp1508
S'ubuntu'
p1509
asbasbasbag57
(g73
g59
NtRp1510
(dp1511
g62
(dp1512
sg71
g1454
sg64
(lp1513
g57
(g78
g59
NtRp1514
(dp1515
g62
(dp1516
sg71
g1510
sg64
(lp1517
g57
(g58
g59
NtRp1518
(dp1519
g62
(dp1520
g70
I3
ssg71
g1514
sg64
(lp1521
S'127.0.1.1'
p1522
asbasbasbag57
(g73
g59
NtRp1523
(dp1524
g62
(dp1525
sg71
g1454
sg64
(lp1526
g57
(g78
g59
NtRp1527
(dp1528
g62
(dp1529
sg71
g1523
sg64
(lp1530
g57
(g58
g59
NtRp1531
(dp1532
g62
(dp1533
g70
I3
ssg71
g1527
sg64
(lp1534
S'127.0.0.1'
p1535
asbasbasbasbasbasbasbag57
(g73
g59
NtRp1536
(dp1537
g62
(dp1538
sg71
g1033
sg64
(lp1539
g57
(g78
g59
NtRp1540
(dp1541
g62
(dp1542
g82
g83
ssg71
g1536
sg64
(lp1543
S'path_info'
p1544
asbag57
(g78
g59
NtRp1545
(dp1546
g62
(dp1547
g89
g90
ssg71
g1536
sg64
(lp1548
S':'
asbag57
(g78
g59
NtRp1549
(dp1550
g62
(dp1551
sg71
g1536
sg64
(lp1552
g57
(g58
g59
NtRp1553
(dp1554
g62
(dp1555
g70
I4
ssg71
g1549
sg64
(lp1556
S'/assignment2/default/user_homepage'
p1557
asbasbasbag57
(g73
g59
NtRp1558
(dp1559
g62
(dp1560
sg71
g1033
sg64
(lp1561
g57
(g78
g59
NtRp1562
(dp1563
g62
(dp1564
g82
g83
ssg71
g1558
sg64
(lp1565
S'query_string'
p1566
asbag57
(g78
g59
NtRp1567
(dp1568
g62
(dp1569
g89
g90
ssg71
g1558
sg64
(lp1570
S':'
asbag57
(g78
g59
NtRp1571
(dp1572
g62
(dp1573
sg71
g1558
sg64
(lp1574
g57
(g58
g59
NtRp1575
(dp1576
g62
(dp1577
g70
I4
ssg71
g1571
sg64
(lp1578
S''
asbasbasbag57
(g73
g59
NtRp1579
(dp1580
g62
(dp1581
sg71
g1033
sg64
(lp1582
g57
(g78
g59
NtRp1583
(dp1584
g62
(dp1585
g82
g83
ssg71
g1579
sg64
(lp1586
S'remote_addr'
p1587
asbag57
(g78
g59
NtRp1588
(dp1589
g62
(dp1590
g89
g90
ssg71
g1579
sg64
(lp1591
S':'
asbag57
(g78
g59
NtRp1592
(dp1593
g62
(dp1594
sg71
g1579
sg64
(lp1595
g57
(g58
g59
NtRp1596
(dp1597
g62
(dp1598
g70
I4
ssg71
g1592
sg64
(lp1599
g212
asbasbasbag57
(g73
g59
NtRp1600
(dp1601
g62
(dp1602
sg71
g1033
sg64
(lp1603
g57
(g78
g59
NtRp1604
(dp1605
g62
(dp1606
g82
g83
ssg71
g1600
sg64
(lp1607
S'remote_port'
p1608
asbag57
(g78
g59
NtRp1609
(dp1610
g62
(dp1611
g89
g90
ssg71
g1600
sg64
(lp1612
S':'
asbag57
(g78
g59
NtRp1613
(dp1614
g62
(dp1615
sg71
g1600
sg64
(lp1616
g57
(g58
g59
NtRp1617
(dp1618
g62
(dp1619
g70
I4
ssg71
g1613
sg64
(lp1620
S'43761'
p1621
asbasbasbag57
(g73
g59
NtRp1622
(dp1623
g62
(dp1624
sg71
g1033
sg64
(lp1625
g57
(g78
g59
NtRp1626
(dp1627
g62
(dp1628
g82
g83
ssg71
g1622
sg64
(lp1629
S'request_method'
p1630
asbag57
(g78
g59
NtRp1631
(dp1632
g62
(dp1633
g89
g90
ssg71
g1622
sg64
(lp1634
S':'
asbag57
(g78
g59
NtRp1635
(dp1636
g62
(dp1637
sg71
g1622
sg64
(lp1638
g57
(g58
g59
NtRp1639
(dp1640
g62
(dp1641
g70
I4
ssg71
g1635
sg64
(lp1642
S'GET'
p1643
asbasbasbag57
(g73
g59
NtRp1644
(dp1645
g62
(dp1646
sg71
g1033
sg64
(lp1647
g57
(g78
g59
NtRp1648
(dp1649
g62
(dp1650
g82
g83
ssg71
g1644
sg64
(lp1651
S'request_uri'
p1652
asbag57
(g78
g59
NtRp1653
(dp1654
g62
(dp1655
g89
g90
ssg71
g1644
sg64
(lp1656
S':'
asbag57
(g78
g59
NtRp1657
(dp1658
g62
(dp1659
sg71
g1644
sg64
(lp1660
g57
(g58
g59
NtRp1661
(dp1662
g62
(dp1663
g70
I4
ssg71
g1657
sg64
(lp1664
g1557
asbasbasbag57
(g73
g59
NtRp1665
(dp1666
g62
(dp1667
sg71
g1033
sg64
(lp1668
g57
(g78
g59
NtRp1669
(dp1670
g62
(dp1671
g82
g83
ssg71
g1665
sg64
(lp1672
S'script_name'
p1673
asbag57
(g78
g59
NtRp1674
(dp1675
g62
(dp1676
g89
g90
ssg71
g1665
sg64
(lp1677
S':'
asbag57
(g78
g59
NtRp1678
(dp1679
g62
(dp1680
sg71
g1665
sg64
(lp1681
g57
(g58
g59
NtRp1682
(dp1683
g62
(dp1684
g70
I4
ssg71
g1678
sg64
(lp1685
S''
asbasbasbag57
(g73
g59
NtRp1686
(dp1687
g62
(dp1688
sg71
g1033
sg64
(lp1689
g57
(g78
g59
NtRp1690
(dp1691
g62
(dp1692
g82
g83
ssg71
g1686
sg64
(lp1693
S'server_name'
p1694
asbag57
(g78
g59
NtRp1695
(dp1696
g62
(dp1697
g89
g90
ssg71
g1686
sg64
(lp1698
S':'
asbag57
(g78
g59
NtRp1699
(dp1700
g62
(dp1701
sg71
g1686
sg64
(lp1702
g57
(g58
g59
NtRp1703
(dp1704
g62
(dp1705
g70
I4
ssg71
g1699
sg64
(lp1706
S'ubuntu'
p1707
asbasbasbag57
(g73
g59
NtRp1708
(dp1709
g62
(dp1710
sg71
g1033
sg64
(lp1711
g57
(g78
g59
NtRp1712
(dp1713
g62
(dp1714
g82
g83
ssg71
g1708
sg64
(lp1715
S'server_port'
p1716
asbag57
(g78
g59
NtRp1717
(dp1718
g62
(dp1719
g89
g90
ssg71
g1708
sg64
(lp1720
S':'
asbag57
(g78
g59
NtRp1721
(dp1722
g62
(dp1723
sg71
g1708
sg64
(lp1724
g57
(g58
g59
NtRp1725
(dp1726
g62
(dp1727
g70
I4
ssg71
g1721
sg64
(lp1728
S'8000'
p1729
asbasbasbag57
(g73
g59
NtRp1730
(dp1731
g62
(dp1732
sg71
g1033
sg64
(lp1733
g57
(g78
g59
NtRp1734
(dp1735
g62
(dp1736
g82
g83
ssg71
g1730
sg64
(lp1737
S'server_protocol'
p1738
asbag57
(g78
g59
NtRp1739
(dp1740
g62
(dp1741
g89
g90
ssg71
g1730
sg64
(lp1742
S':'
asbag57
(g78
g59
NtRp1743
(dp1744
g62
(dp1745
sg71
g1730
sg64
(lp1746
g57
(g58
g59
NtRp1747
(dp1748
g62
(dp1749
g70
I4
ssg71
g1743
sg64
(lp1750
S'HTTP/1.1'
p1751
asbasbasbag57
(g73
g59
NtRp1752
(dp1753
g62
(dp1754
sg71
g1033
sg64
(lp1755
g57
(g78
g59
NtRp1756
(dp1757
g62
(dp1758
g82
g83
ssg71
g1752
sg64
(lp1759
S'server_software'
p1760
asbag57
(g78
g59
NtRp1761
(dp1762
g62
(dp1763
g89
g90
ssg71
g1752
sg64
(lp1764
S':'
asbag57
(g78
g59
NtRp1765
(dp1766
g62
(dp1767
sg71
g1752
sg64
(lp1768
g57
(g58
g59
NtRp1769
(dp1770
g62
(dp1771
g70
I4
ssg71
g1765
sg64
(lp1772
S'Rocket 1.2.6'
p1773
asbasbasbag57
(g73
g59
NtRp1774
(dp1775
g62
(dp1776
sg71
g1033
sg64
(lp1777
g57
(g78
g59
NtRp1778
(dp1779
g62
(dp1780
g82
g83
ssg71
g1774
sg64
(lp1781
S'web2py_path'
p1782
asbag57
(g78
g59
NtRp1783
(dp1784
g62
(dp1785
g89
g90
ssg71
g1774
sg64
(lp1786
S':'
asbag57
(g78
g59
NtRp1787
(dp1788
g62
(dp1789
sg71
g1774
sg64
(lp1790
g57
(g58
g59
NtRp1791
(dp1792
g62
(dp1793
g70
I4
ssg71
g1787
sg64
(lp1794
g1080
asbasbasbag57
(g73
g59
NtRp1795
(dp1796
g62
(dp1797
sg71
g1033
sg64
(lp1798
g57
(g78
g59
NtRp1799
(dp1800
g62
(dp1801
g82
g83
ssg71
g1795
sg64
(lp1802
S'web2py_version'
p1803
asbag57
(g78
g59
NtRp1804
(dp1805
g62
(dp1806
g89
g90
ssg71
g1795
sg64
(lp1807
S':'
asbag57
(g78
g59
NtRp1808
(dp1809
g62
(dp1810
sg71
g1795
sg64
(lp1811
g57
(g58
g59
NtRp1812
(dp1813
g62
(dp1814
g70
I4
ssg71
g1808
sg64
(lp1815
g57
(g66
g59
NtRp1816
(dp1817
g62
(dp1818
g70
I3
ssg71
Nsg64
(lp1819
g57
(g73
g59
NtRp1820
(dp1821
g62
(dp1822
sg71
g1816
sg64
(lp1823
g57
(g78
g59
NtRp1824
(dp1825
g62
(dp1826
sg71
g1820
sg64
(lp1827
g57
(g58
g59
NtRp1828
(dp1829
g62
(dp1830
g70
I3
ssg71
g1824
sg64
(lp1831
S'2'
asbasbasbag57
(g73
g59
NtRp1832
(dp1833
g62
(dp1834
sg71
g1816
sg64
(lp1835
g57
(g78
g59
NtRp1836
(dp1837
g62
(dp1838
sg71
g1832
sg64
(lp1839
g57
(g58
g59
NtRp1840
(dp1841
g62
(dp1842
g70
I3
ssg71
g1836
sg64
(lp1843
S'3'
asbasbasbag57
(g73
g59
NtRp1844
(dp1845
g62
(dp1846
sg71
g1816
sg64
(lp1847
g57
(g78
g59
NtRp1848
(dp1849
g62
(dp1850
sg71
g1844
sg64
(lp1851
g57
(g58
g59
NtRp1852
(dp1853
g62
(dp1854
g70
I3
ssg71
g1848
sg64
(lp1855
S'2'
asbasbasbag57
(g73
g59
NtRp1856
(dp1857
g62
(dp1858
sg71
g1816
sg64
(lp1859
g57
(g78
g59
NtRp1860
(dp1861
g62
(dp1862
sg71
g1856
sg64
(lp1863
g57
(g58
g59
NtRp1864
(dp1865
g62
(dp1866
g70
I3
ssg71
g1860
sg64
(lp1867
S'datetime.datetime(2012, 12, 17, 15, 3, 30)'
p1868
asbasbasbag57
(g73
g59
NtRp1869
(dp1870
g62
(dp1871
sg71
g1816
sg64
(lp1872
g57
(g78
g59
NtRp1873
(dp1874
g62
(dp1875
sg71
g1869
sg64
(lp1876
g57
(g58
g59
NtRp1877
(dp1878
g62
(dp1879
g70
I3
ssg71
g1873
sg64
(lp1880
S'stable'
p1881
asbasbasbasbasbasbasbag57
(g73
g59
NtRp1882
(dp1883
g62
(dp1884
sg71
g1033
sg64
(lp1885
g57
(g78
g59
NtRp1886
(dp1887
g62
(dp1888
g82
g83
ssg71
g1882
sg64
(lp1889
S'wsgi_errors'
p1890
asbag57
(g78
g59
NtRp1891
(dp1892
g62
(dp1893
g89
g90
ssg71
g1882
sg64
(lp1894
S':'
asbag57
(g78
g59
NtRp1895
(dp1896
g62
(dp1897
sg71
g1882
sg64
(lp1898
g57
(g58
g59
NtRp1899
(dp1900
g62
(dp1901
g70
I4
ssg71
g1895
sg64
(lp1902
S"<open file '<stderr>', mode 'w' at 0xb72930d0>"
p1903
asbasbasbag57
(g73
g59
NtRp1904
(dp1905
g62
(dp1906
sg71
g1033
sg64
(lp1907
g57
(g78
g59
NtRp1908
(dp1909
g62
(dp1910
g82
g83
ssg71
g1904
sg64
(lp1911
S'wsgi_file_wrapper'
p1912
asbag57
(g78
g59
NtRp1913
(dp1914
g62
(dp1915
g89
g90
ssg71
g1904
sg64
(lp1916
S':'
asbag57
(g78
g59
NtRp1917
(dp1918
g62
(dp1919
sg71
g1904
sg64
(lp1920
g57
(g58
g59
NtRp1921
(dp1922
g62
(dp1923
g70
I4
ssg71
g1917
sg64
(lp1924
S'<class wsgiref.util.FileWrapper at 0x901765c>'
p1925
asbasbasbag57
(g73
g59
NtRp1926
(dp1927
g62
(dp1928
sg71
g1033
sg64
(lp1929
g57
(g78
g59
NtRp1930
(dp1931
g62
(dp1932
g82
g83
ssg71
g1926
sg64
(lp1933
S'wsgi_input'
p1934
asbag57
(g78
g59
NtRp1935
(dp1936
g62
(dp1937
g89
g90
ssg71
g1926
sg64
(lp1938
S':'
asbag57
(g78
g59
NtRp1939
(dp1940
g62
(dp1941
sg71
g1926
sg64
(lp1942
g57
(g58
g59
NtRp1943
(dp1944
g62
(dp1945
g70
I4
ssg71
g1939
sg64
(lp1946
S'<socket._fileobject object at 0xad509b2c>'
p1947
asbasbasbag57
(g73
g59
NtRp1948
(dp1949
g62
(dp1950
sg71
g1033
sg64
(lp1951
g57
(g78
g59
NtRp1952
(dp1953
g62
(dp1954
g82
g83
ssg71
g1948
sg64
(lp1955
S'wsgi_multiprocess'
p1956
asbag57
(g78
g59
NtRp1957
(dp1958
g62
(dp1959
g89
g90
ssg71
g1948
sg64
(lp1960
S':'
asbag57
(g78
g59
NtRp1961
(dp1962
g62
(dp1963
sg71
g1948
sg64
(lp1964
g57
(g58
g59
NtRp1965
(dp1966
g62
(dp1967
g70
I4
ssg71
g1961
sg64
(lp1968
g100
asbasbasbag57
(g73
g59
NtRp1969
(dp1970
g62
(dp1971
sg71
g1033
sg64
(lp1972
g57
(g78
g59
NtRp1973
(dp1974
g62
(dp1975
g82
g83
ssg71
g1969
sg64
(lp1976
S'wsgi_multithread'
p1977
asbag57
(g78
g59
NtRp1978
(dp1979
g62
(dp1980
g89
g90
ssg71
g1969
sg64
(lp1981
S':'
asbag57
(g78
g59
NtRp1982
(dp1983
g62
(dp1984
sg71
g1969
sg64
(lp1985
g57
(g58
g59
NtRp1986
(dp1987
g62
(dp1988
g70
I4
ssg71
g1982
sg64
(lp1989
S'True'
p1990
asbasbasbag57
(g73
g59
NtRp1991
(dp1992
g62
(dp1993
sg71
g1033
sg64
(lp1994
g57
(g78
g59
NtRp1995
(dp1996
g62
(dp1997
g82
g83
ssg71
g1991
sg64
(lp1998
S'wsgi_run_once'
p1999
asbag57
(g78
g59
NtRp2000
(dp2001
g62
(dp2002
g89
g90
ssg71
g1991
sg64
(lp2003
S':'
asbag57
(g78
g59
NtRp2004
(dp2005
g62
(dp2006
sg71
g1991
sg64
(lp2007
g57
(g58
g59
NtRp2008
(dp2009
g62
(dp2010
g70
I4
ssg71
g2004
sg64
(lp2011
g100
asbasbasbag57
(g73
g59
NtRp2012
(dp2013
g62
(dp2014
sg71
g1033
sg64
(lp2015
g57
(g78
g59
NtRp2016
(dp2017
g62
(dp2018
g82
g83
ssg71
g2012
sg64
(lp2019
S'wsgi_url_scheme'
p2020
asbag57
(g78
g59
NtRp2021
(dp2022
g62
(dp2023
g89
g90
ssg71
g2012
sg64
(lp2024
S':'
asbag57
(g78
g59
NtRp2025
(dp2026
g62
(dp2027
sg71
g2012
sg64
(lp2028
g57
(g58
g59
NtRp2029
(dp2030
g62
(dp2031
g70
I4
ssg71
g2025
sg64
(lp2032
S'http'
p2033
asbasbasbag57
(g73
g59
NtRp2034
(dp2035
g62
(dp2036
sg71
g1033
sg64
(lp2037
g57
(g78
g59
NtRp2038
(dp2039
g62
(dp2040
g82
g83
ssg71
g2034
sg64
(lp2041
S'wsgi_version'
p2042
asbag57
(g78
g59
NtRp2043
(dp2044
g62
(dp2045
g89
g90
ssg71
g2034
sg64
(lp2046
S':'
asbag57
(g78
g59
NtRp2047
(dp2048
g62
(dp2049
sg71
g2034
sg64
(lp2050
g57
(g58
g59
NtRp2051
(dp2052
g62
(dp2053
g70
I4
ssg71
g2047
sg64
(lp2054
g57
(g66
g59
NtRp2055
(dp2056
g62
(dp2057
g70
I3
ssg71
Nsg64
(lp2058
g57
(g73
g59
NtRp2059
(dp2060
g62
(dp2061
sg71
g2055
sg64
(lp2062
g57
(g78
g59
NtRp2063
(dp2064
g62
(dp2065
sg71
g2059
sg64
(lp2066
g57
(g58
g59
NtRp2067
(dp2068
g62
(dp2069
g70
I3
ssg71
g2063
sg64
(lp2070
S'1'
asbasbasbag57
(g73
g59
NtRp2071
(dp2072
g62
(dp2073
sg71
g2055
sg64
(lp2074
g57
(g78
g59
NtRp2075
(dp2076
g62
(dp2077
sg71
g2071
sg64
(lp2078
g57
(g58
g59
NtRp2079
(dp2080
g62
(dp2081
g70
I3
ssg71
g2075
sg64
(lp2082
S'0'
asbasbasbasbasbasbasbasbasbasbasbag57
(g73
g59
NtRp2083
(dp2084
g62
(dp2085
sg71
g67
sg64
(lp2086
g57
(g78
g59
NtRp2087
(dp2088
g62
(dp2089
g82
g83
ssg71
g2083
sg64
(lp2090
S'extension'
p2091
asbag57
(g78
g59
NtRp2092
(dp2093
g62
(dp2094
g89
g90
ssg71
g2083
sg64
(lp2095
S':'
asbag57
(g78
g59
NtRp2096
(dp2097
g62
(dp2098
sg71
g2083
sg64
(lp2099
g57
(g58
g59
NtRp2100
(dp2101
g62
(dp2102
g70
I5
ssg71
g2096
sg64
(lp2103
S'html'
p2104
asbasbasbag57
(g73
g59
NtRp2105
(dp2106
g62
(dp2107
sg71
g67
sg64
(lp2108
g57
(g78
g59
NtRp2109
(dp2110
g62
(dp2111
g82
g83
ssg71
g2105
sg64
(lp2112
S'folder'
p2113
asbag57
(g78
g59
NtRp2114
(dp2115
g62
(dp2116
g89
g90
ssg71
g2105
sg64
(lp2117
S':'
asbag57
(g78
g59
NtRp2118
(dp2119
g62
(dp2120
sg71
g2105
sg64
(lp2121
g57
(g58
g59
NtRp2122
(dp2123
g62
(dp2124
g70
I5
ssg71
g2118
sg64
(lp2125
S'/home/aditi/Desktop/web2py/applications/assignment2/'
p2126
asbasbasbag57
(g73
g59
NtRp2127
(dp2128
g62
(dp2129
sg71
g67
sg64
(lp2130
g57
(g78
g59
NtRp2131
(dp2132
g62
(dp2133
g82
g83
ssg71
g2127
sg64
(lp2134
S'function'
p2135
asbag57
(g78
g59
NtRp2136
(dp2137
g62
(dp2138
g89
g90
ssg71
g2127
sg64
(lp2139
S':'
asbag57
(g78
g59
NtRp2140
(dp2141
g62
(dp2142
sg71
g2127
sg64
(lp2143
g57
(g58
g59
NtRp2144
(dp2145
g62
(dp2146
g70
I5
ssg71
g2140
sg64
(lp2147
S'user_homepage'
p2148
asbasbasbag57
(g73
g59
NtRp2149
(dp2150
g62
(dp2151
sg71
g67
sg64
(lp2152
g57
(g78
g59
NtRp2153
(dp2154
g62
(dp2155
g82
g83
ssg71
g2149
sg64
(lp2156
S'get_vars'
p2157
asbag57
(g78
g59
NtRp2158
(dp2159
g62
(dp2160
g89
g90
ssg71
g2149
sg64
(lp2161
S':'
asbag57
(g78
g59
NtRp2162
(dp2163
g62
(dp2164
sg71
g2149
sg64
(lp2165
g57
(g58
g59
NtRp2166
(dp2167
g62
(dp2168
g70
I5
ssg71
g2162
sg64
(lp2169
g57
(g66
g59
NtRp2170
(dp2171
g62
(dp2172
g70
I4
ssg71
Nsg64
(lp2173
sbasbasbasbag57
(g73
g59
NtRp2174
(dp2175
g62
(dp2176
sg71
g67
sg64
(lp2177
g57
(g78
g59
NtRp2178
(dp2179
g62
(dp2180
g82
g83
ssg71
g2174
sg64
(lp2181
S'global_settings'
p2182
asbag57
(g78
g59
NtRp2183
(dp2184
g62
(dp2185
g89
g90
ssg71
g2174
sg64
(lp2186
S':'
asbag57
(g78
g59
NtRp2187
(dp2188
g62
(dp2189
sg71
g2174
sg64
(lp2190
g57
(g58
g59
NtRp2191
(dp2192
g62
(dp2193
g70
I5
ssg71
g2187
sg64
(lp2194
g57
(g66
g59
NtRp2195
(dp2196
g62
(dp2197
g70
I4
ssg71
Nsg64
(lp2198
g57
(g73
g59
NtRp2199
(dp2200
g62
(dp2201
sg71
g2195
sg64
(lp2202
g57
(g78
g59
NtRp2203
(dp2204
g62
(dp2205
g82
g83
ssg71
g2199
sg64
(lp2206
g1045
asbag57
(g78
g59
NtRp2207
(dp2208
g62
(dp2209
g89
g90
ssg71
g2199
sg64
(lp2210
S':'
asbag57
(g78
g59
NtRp2211
(dp2212
g62
(dp2213
sg71
g2199
sg64
(lp2214
g57
(g58
g59
NtRp2215
(dp2216
g62
(dp2217
g70
I4
ssg71
g2211
sg64
(lp2218
S"set(['/home/aditi/Desktop/web2py/applications/assignment2/', '/home/aditi/Desktop/web2py/applications/admin/', '/home/aditi/Desktop/web2py/applications/welcome/', '/home/aditi/Desktop/web2py/applications/library_management_system/'])"
p2219
asbasbasbag57
(g73
g59
NtRp2220
(dp2221
g62
(dp2222
sg71
g2195
sg64
(lp2223
g57
(g78
g59
NtRp2224
(dp2225
g62
(dp2226
g82
g83
ssg71
g2220
sg64
(lp2227
g1067
asbag57
(g78
g59
NtRp2228
(dp2229
g62
(dp2230
g89
g90
ssg71
g2220
sg64
(lp2231
S':'
asbag57
(g78
g59
NtRp2232
(dp2233
g62
(dp2234
sg71
g2220
sg64
(lp2235
g57
(g58
g59
NtRp2236
(dp2237
g62
(dp2238
g70
I4
ssg71
g2232
sg64
(lp2239
g1080
asbasbasbag57
(g73
g59
NtRp2240
(dp2241
g62
(dp2242
sg71
g2195
sg64
(lp2243
g57
(g78
g59
NtRp2244
(dp2245
g62
(dp2246
g82
g83
ssg71
g2240
sg64
(lp2247
g1089
asbag57
(g78
g59
NtRp2248
(dp2249
g62
(dp2250
g89
g90
ssg71
g2240
sg64
(lp2251
S':'
asbag57
(g78
g59
NtRp2252
(dp2253
g62
(dp2254
sg71
g2240
sg64
(lp2255
g57
(g58
g59
NtRp2256
(dp2257
g62
(dp2258
g70
I4
ssg71
g2252
sg64
(lp2259
g57
(g66
g59
NtRp2260
(dp2261
g62
(dp2262
g70
I3
ssg71
Nsg64
(lp2263
sbasbasbasbag57
(g73
g59
NtRp2264
(dp2265
g62
(dp2266
sg71
g2195
sg64
(lp2267
g57
(g78
g59
NtRp2268
(dp2269
g62
(dp2270
g82
g83
ssg71
g2264
sg64
(lp2271
g1114
asbag57
(g78
g59
NtRp2272
(dp2273
g62
(dp2274
g89
g90
ssg71
g2264
sg64
(lp2275
S':'
asbag57
(g78
g59
NtRp2276
(dp2277
g62
(dp2278
sg71
g2264
sg64
(lp2279
g57
(g58
g59
NtRp2280
(dp2281
g62
(dp2282
g70
I4
ssg71
g2276
sg64
(lp2283
S"<Values at 0x905ba0c: {'verbose': False, 'ip': '127.0.0.1', 'with_scheduler': False, 'ips': [], 'shutdown_timeout': 5, 'taskbar': False, 'port': 8000, 'maxthreads': None, 'softcron': False, 'server_name': 'ubuntu', 'bpython': False, 'nogui': False, 'pid_filename': 'httpserver.pid', 'extcron': False, 'runcron': False, 'run_system_tests': False, 'test': None, 'folder': '/home/aditi/Desktop/web2py', 'config': '', 'import_models': False, 'winservice': '', 'shell': None, 'run': '', 'log_filename': 'httpserver.log', 'debuglevel': 30, 'args': [''], 'socket_timeout': 5, 'ssl_ca_certificate': None, 'scheduler': None, 'profiler_filename': None, 'ssl_private_key': '', 'scheduler_groups': None, 'password': '<ask>', 'request_queue_size': 5, 'ssl_certificate': '', 'cronjob': False, 'numthreads': None, 'quiet': False, 'interfaces': None, 'minthreads': None, 'timeout': 10, 'plain': False, 'nobanner': False}>"
p2284
asbasbasbag57
(g73
g59
NtRp2285
(dp2286
g62
(dp2287
sg71
g2195
sg64
(lp2288
g57
(g78
g59
NtRp2289
(dp2290
g62
(dp2291
g82
g83
ssg71
g2285
sg64
(lp2292
g1136
asbag57
(g78
g59
NtRp2293
(dp2294
g62
(dp2295
g89
g90
ssg71
g2285
sg64
(lp2296
S':'
asbag57
(g78
g59
NtRp2297
(dp2298
g62
(dp2299
sg71
g2285
sg64
(lp2300
g57
(g58
g59
NtRp2301
(dp2302
g62
(dp2303
g70
I4
ssg71
g2297
sg64
(lp2304
S'set([])'
p2305
asbasbasbag57
(g73
g59
NtRp2306
(dp2307
g62
(dp2308
sg71
g2195
sg64
(lp2309
g57
(g78
g59
NtRp2310
(dp2311
g62
(dp2312
g82
g83
ssg71
g2306
sg64
(lp2313
g1158
asbag57
(g78
g59
NtRp2314
(dp2315
g62
(dp2316
g89
g90
ssg71
g2306
sg64
(lp2317
S':'
asbag57
(g78
g59
NtRp2318
(dp2319
g62
(dp2320
sg71
g2306
sg64
(lp2321
g57
(g58
g59
NtRp2322
(dp2323
g62
(dp2324
g70
I4
ssg71
g2318
sg64
(lp2325
g100
asbasbasbag57
(g73
g59
NtRp2326
(dp2327
g62
(dp2328
sg71
g2195
sg64
(lp2329
g57
(g78
g59
NtRp2330
(dp2331
g62
(dp2332
g82
g83
ssg71
g2326
sg64
(lp2333
g1179
asbag57
(g78
g59
NtRp2334
(dp2335
g62
(dp2336
g89
g90
ssg71
g2326
sg64
(lp2337
S':'
asbag57
(g78
g59
NtRp2338
(dp2339
g62
(dp2340
sg71
g2326
sg64
(lp2341
g57
(g58
g59
NtRp2342
(dp2343
g62
(dp2344
g70
I4
ssg71
g2338
sg64
(lp2345
g1192
asbasbasbag57
(g73
g59
NtRp2346
(dp2347
g62
(dp2348
sg71
g2195
sg64
(lp2349
g57
(g78
g59
NtRp2350
(dp2351
g62
(dp2352
g82
g83
ssg71
g2346
sg64
(lp2353
g1399
asbag57
(g78
g59
NtRp2354
(dp2355
g62
(dp2356
g89
g90
ssg71
g2346
sg64
(lp2357
S':'
asbag57
(g78
g59
NtRp2358
(dp2359
g62
(dp2360
sg71
g2346
sg64
(lp2361
g57
(g58
g59
NtRp2362
(dp2363
g62
(dp2364
g70
I4
ssg71
g2358
sg64
(lp2365
g100
asbasbasbag57
(g73
g59
NtRp2366
(dp2367
g62
(dp2368
sg71
g2195
sg64
(lp2369
g57
(g78
g59
NtRp2370
(dp2371
g62
(dp2372
g82
g83
ssg71
g2366
sg64
(lp2373
g1420
asbag57
(g78
g59
NtRp2374
(dp2375
g62
(dp2376
g89
g90
ssg71
g2366
sg64
(lp2377
S':'
asbag57
(g78
g59
NtRp2378
(dp2379
g62
(dp2380
sg71
g2366
sg64
(lp2381
g57
(g58
g59
NtRp2382
(dp2383
g62
(dp2384
g70
I4
ssg71
g2378
sg64
(lp2385
g100
asbasbasbag57
(g73
g59
NtRp2386
(dp2387
g62
(dp2388
sg71
g2195
sg64
(lp2389
g57
(g78
g59
NtRp2390
(dp2391
g62
(dp2392
g82
g83
ssg71
g2386
sg64
(lp2393
g1441
asbag57
(g78
g59
NtRp2394
(dp2395
g62
(dp2396
g89
g90
ssg71
g2386
sg64
(lp2397
S':'
asbag57
(g78
g59
NtRp2398
(dp2399
g62
(dp2400
sg71
g2386
sg64
(lp2401
g57
(g58
g59
NtRp2402
(dp2403
g62
(dp2404
g70
I4
ssg71
g2398
sg64
(lp2405
g57
(g66
g59
NtRp2406
(dp2407
g62
(dp2408
g70
I3
ssg71
Nsg64
(lp2409
g57
(g73
g59
NtRp2410
(dp2411
g62
(dp2412
sg71
g2406
sg64
(lp2413
g57
(g78
g59
NtRp2414
(dp2415
g62
(dp2416
sg71
g2410
sg64
(lp2417
g57
(g58
g59
NtRp2418
(dp2419
g62
(dp2420
g70
I3
ssg71
g2414
sg64
(lp2421
g1470
asbasbasbag57
(g73
g59
NtRp2422
(dp2423
g62
(dp2424
sg71
g2406
sg64
(lp2425
g57
(g78
g59
NtRp2426
(dp2427
g62
(dp2428
sg71
g2422
sg64
(lp2429
g57
(g58
g59
NtRp2430
(dp2431
g62
(dp2432
g70
I3
ssg71
g2426
sg64
(lp2433
g1483
asbasbasbag57
(g73
g59
NtRp2434
(dp2435
g62
(dp2436
sg71
g2406
sg64
(lp2437
g57
(g78
g59
NtRp2438
(dp2439
g62
(dp2440
sg71
g2434
sg64
(lp2441
g57
(g58
g59
NtRp2442
(dp2443
g62
(dp2444
g70
I3
ssg71
g2438
sg64
(lp2445
g1496
asbasbasbag57
(g73
g59
NtRp2446
(dp2447
g62
(dp2448
sg71
g2406
sg64
(lp2449
g57
(g78
g59
NtRp2450
(dp2451
g62
(dp2452
sg71
g2446
sg64
(lp2453
g57
(g58
g59
NtRp2454
(dp2455
g62
(dp2456
g70
I3
ssg71
g2450
sg64
(lp2457
g1509
asbasbasbag57
(g73
g59
NtRp2458
(dp2459
g62
(dp2460
sg71
g2406
sg64
(lp2461
g57
(g78
g59
NtRp2462
(dp2463
g62
(dp2464
sg71
g2458
sg64
(lp2465
g57
(g58
g59
NtRp2466
(dp2467
g62
(dp2468
g70
I3
ssg71
g2462
sg64
(lp2469
g1522
asbasbasbag57
(g73
g59
NtRp2470
(dp2471
g62
(dp2472
sg71
g2406
sg64
(lp2473
g57
(g78
g59
NtRp2474
(dp2475
g62
(dp2476
sg71
g2470
sg64
(lp2477
g57
(g58
g59
NtRp2478
(dp2479
g62
(dp2480
g70
I3
ssg71
g2474
sg64
(lp2481
g1535
asbasbasbasbasbasbasbag57
(g73
g59
NtRp2482
(dp2483
g62
(dp2484
sg71
g2195
sg64
(lp2485
g57
(g78
g59
NtRp2486
(dp2487
g62
(dp2488
g82
g83
ssg71
g2482
sg64
(lp2489
g1803
asbag57
(g78
g59
NtRp2490
(dp2491
g62
(dp2492
g89
g90
ssg71
g2482
sg64
(lp2493
S':'
asbag57
(g78
g59
NtRp2494
(dp2495
g62
(dp2496
sg71
g2482
sg64
(lp2497
g57
(g58
g59
NtRp2498
(dp2499
g62
(dp2500
g70
I4
ssg71
g2494
sg64
(lp2501
g57
(g66
g59
NtRp2502
(dp2503
g62
(dp2504
g70
I3
ssg71
Nsg64
(lp2505
g57
(g73
g59
NtRp2506
(dp2507
g62
(dp2508
sg71
g2502
sg64
(lp2509
g57
(g78
g59
NtRp2510
(dp2511
g62
(dp2512
sg71
g2506
sg64
(lp2513
g57
(g58
g59
NtRp2514
(dp2515
g62
(dp2516
g70
I3
ssg71
g2510
sg64
(lp2517
S'2'
asbasbasbag57
(g73
g59
NtRp2518
(dp2519
g62
(dp2520
sg71
g2502
sg64
(lp2521
g57
(g78
g59
NtRp2522
(dp2523
g62
(dp2524
sg71
g2518
sg64
(lp2525
g57
(g58
g59
NtRp2526
(dp2527
g62
(dp2528
g70
I3
ssg71
g2522
sg64
(lp2529
S'3'
asbasbasbag57
(g73
g59
NtRp2530
(dp2531
g62
(dp2532
sg71
g2502
sg64
(lp2533
g57
(g78
g59
NtRp2534
(dp2535
g62
(dp2536
sg71
g2530
sg64
(lp2537
g57
(g58
g59
NtRp2538
(dp2539
g62
(dp2540
g70
I3
ssg71
g2534
sg64
(lp2541
S'2'
asbasbasbag57
(g73
g59
NtRp2542
(dp2543
g62
(dp2544
sg71
g2502
sg64
(lp2545
g57
(g78
g59
NtRp2546
(dp2547
g62
(dp2548
sg71
g2542
sg64
(lp2549
g57
(g58
g59
NtRp2550
(dp2551
g62
(dp2552
g70
I3
ssg71
g2546
sg64
(lp2553
S'datetime.datetime(2012, 12, 17, 15, 3, 30)'
p2554
asbasbasbag57
(g73
g59
NtRp2555
(dp2556
g62
(dp2557
sg71
g2502
sg64
(lp2558
g57
(g78
g59
NtRp2559
(dp2560
g62
(dp2561
sg71
g2555
sg64
(lp2562
g57
(g58
g59
NtRp2563
(dp2564
g62
(dp2565
g70
I3
ssg71
g2559
sg64
(lp2566
g1881
asbasbasbasbasbasbasbasbasbasbasbag57
(g73
g59
NtRp2567
(dp2568
g62
(dp2569
sg71
g67
sg64
(lp2570
g57
(g78
g59
NtRp2571
(dp2572
g62
(dp2573
g82
g83
ssg71
g2567
sg64
(lp2574
S'is_https'
p2575
asbag57
(g78
g59
NtRp2576
(dp2577
g62
(dp2578
g89
g90
ssg71
g2567
sg64
(lp2579
S':'
asbag57
(g78
g59
NtRp2580
(dp2581
g62
(dp2582
sg71
g2567
sg64
(lp2583
g57
(g58
g59
NtRp2584
(dp2585
g62
(dp2586
g70
I5
ssg71
g2580
sg64
(lp2587
g100
asbasbasbag57
(g73
g59
NtRp2588
(dp2589
g62
(dp2590
sg71
g67
sg64
(lp2591
g57
(g78
g59
NtRp2592
(dp2593
g62
(dp2594
g82
g83
ssg71
g2588
sg64
(lp2595
S'is_local'
p2596
asbag57
(g78
g59
NtRp2597
(dp2598
g62
(dp2599
g89
g90
ssg71
g2588
sg64
(lp2600
S':'
asbag57
(g78
g59
NtRp2601
(dp2602
g62
(dp2603
sg71
g2588
sg64
(lp2604
g57
(g58
g59
NtRp2605
(dp2606
g62
(dp2607
g70
I5
ssg71
g2601
sg64
(lp2608
g1990
asbasbasbag57
(g73
g59
NtRp2609
(dp2610
g62
(dp2611
sg71
g67
sg64
(lp2612
g57
(g78
g59
NtRp2613
(dp2614
g62
(dp2615
g82
g83
ssg71
g2609
sg64
(lp2616
S'is_restful'
p2617
asbag57
(g78
g59
NtRp2618
(dp2619
g62
(dp2620
g89
g90
ssg71
g2609
sg64
(lp2621
S':'
asbag57
(g78
g59
NtRp2622
(dp2623
g62
(dp2624
sg71
g2609
sg64
(lp2625
g57
(g58
g59
NtRp2626
(dp2627
g62
(dp2628
g70
I5
ssg71
g2622
sg64
(lp2629
g100
asbasbasbag57
(g73
g59
NtRp2630
(dp2631
g62
(dp2632
sg71
g67
sg64
(lp2633
g57
(g78
g59
NtRp2634
(dp2635
g62
(dp2636
g82
g83
ssg71
g2630
sg64
(lp2637
S'now'
p2638
asbag57
(g78
g59
NtRp2639
(dp2640
g62
(dp2641
g89
g90
ssg71
g2630
sg64
(lp2642
S':'
asbag57
(g78
g59
NtRp2643
(dp2644
g62
(dp2645
sg71
g2630
sg64
(lp2646
g57
(g58
g59
NtRp2647
(dp2648
g62
(dp2649
g70
I5
ssg71
g2643
sg64
(lp2650
S'datetime.datetime(2013, 8, 30, 12, 39, 13, 707706)'
p2651
asbasbasbag57
(g73
g59
NtRp2652
(dp2653
g62
(dp2654
sg71
g67
sg64
(lp2655
g57
(g78
g59
NtRp2656
(dp2657
g62
(dp2658
g82
g83
ssg71
g2652
sg64
(lp2659
S'post_vars'
p2660
asbag57
(g78
g59
NtRp2661
(dp2662
g62
(dp2663
g89
g90
ssg71
g2652
sg64
(lp2664
S':'
asbag57
(g78
g59
NtRp2665
(dp2666
g62
(dp2667
sg71
g2652
sg64
(lp2668
g57
(g58
g59
NtRp2669
(dp2670
g62
(dp2671
g70
I5
ssg71
g2665
sg64
(lp2672
g57
(g66
g59
NtRp2673
(dp2674
g62
(dp2675
g70
I4
ssg71
Nsg64
(lp2676
sbasbasbasbag57
(g73
g59
NtRp2677
(dp2678
g62
(dp2679
sg71
g67
sg64
(lp2680
g57
(g78
g59
NtRp2681
(dp2682
g62
(dp2683
g82
g83
ssg71
g2677
sg64
(lp2684
S'raw_args'
p2685
asbag57
(g78
g59
NtRp2686
(dp2687
g62
(dp2688
g89
g90
ssg71
g2677
sg64
(lp2689
S':'
asbag57
(g78
g59
NtRp2690
(dp2691
g62
(dp2692
sg71
g2677
sg64
(lp2693
g57
(g58
g59
NtRp2694
(dp2695
g62
(dp2696
g70
I5
ssg71
g2690
sg64
(lp2697
S''
asbasbasbag57
(g73
g59
NtRp2698
(dp2699
g62
(dp2700
sg71
g67
sg64
(lp2701
g57
(g78
g59
NtRp2702
(dp2703
g62
(dp2704
g82
g83
ssg71
g2698
sg64
(lp2705
S'raw_extension'
p2706
asbag57
(g78
g59
NtRp2707
(dp2708
g62
(dp2709
g89
g90
ssg71
g2698
sg64
(lp2710
S':'
asbag57
(g78
g59
NtRp2711
(dp2712
g62
(dp2713
sg71
g2698
sg64
(lp2714
g57
(g58
g59
NtRp2715
(dp2716
g62
(dp2717
g70
I5
ssg71
g2711
sg64
(lp2718
S'None'
p2719
asbasbasbag57
(g73
g59
NtRp2720
(dp2721
g62
(dp2722
sg71
g67
sg64
(lp2723
g57
(g78
g59
NtRp2724
(dp2725
g62
(dp2726
g82
g83
ssg71
g2720
sg64
(lp2727
S'url'
p2728
asbag57
(g78
g59
NtRp2729
(dp2730
g62
(dp2731
g89
g90
ssg71
g2720
sg64
(lp2732
S':'
asbag57
(g78
g59
NtRp2733
(dp2734
g62
(dp2735
sg71
g2720
sg64
(lp2736
g57
(g58
g59
NtRp2737
(dp2738
g62
(dp2739
g70
I5
ssg71
g2733
sg64
(lp2740
g1557
asbasbasbag57
(g73
g59
NtRp2741
(dp2742
g62
(dp2743
sg71
g67
sg64
(lp2744
g57
(g78
g59
NtRp2745
(dp2746
g62
(dp2747
g82
g83
ssg71
g2741
sg64
(lp2748
S'utcnow'
p2749
asbag57
(g78
g59
NtRp2750
(dp2751
g62
(dp2752
g89
g90
ssg71
g2741
sg64
(lp2753
S':'
asbag57
(g78
g59
NtRp2754
(dp2755
g62
(dp2756
sg71
g2741
sg64
(lp2757
g57
(g58
g59
NtRp2758
(dp2759
g62
(dp2760
g70
I5
ssg71
g2754
sg64
(lp2761
S'datetime.datetime(2013, 8, 30, 7, 9, 13, 707760)'
p2762
asbasbasbag57
(g73
g59
NtRp2763
(dp2764
g62
(dp2765
sg71
g67
sg64
(lp2766
g57
(g78
g59
NtRp2767
(dp2768
g62
(dp2769
g82
g83
ssg71
g2763
sg64
(lp2770
S'uuid'
p2771
asbag57
(g78
g59
NtRp2772
(dp2773
g62
(dp2774
g89
g90
ssg71
g2763
sg64
(lp2775
S':'
asbag57
(g78
g59
NtRp2776
(dp2777
g62
(dp2778
sg71
g2763
sg64
(lp2779
g57
(g58
g59
NtRp2780
(dp2781
g62
(dp2782
g70
I5
ssg71
g2776
sg64
(lp2783
S'assignment2/127.0.0.1.2013-08-30.12-39-13.b45e9af2-b925-45c0-a047-b2616eabcf1e'
p2784
asbasbasbag57
(g73
g59
NtRp2785
(dp2786
g62
(dp2787
sg71
g67
sg64
(lp2788
g57
(g78
g59
NtRp2789
(dp2790
g62
(dp2791
g82
g83
ssg71
g2785
sg64
(lp2792
S'vars'
p2793
asbag57
(g78
g59
NtRp2794
(dp2795
g62
(dp2796
g89
g90
ssg71
g2785
sg64
(lp2797
S':'
asbag57
(g78
g59
NtRp2798
(dp2799
g62
(dp2800
sg71
g2785
sg64
(lp2801
g57
(g58
g59
NtRp2802
(dp2803
g62
(dp2804
g70
I5
ssg71
g2798
sg64
(lp2805
g57
(g66
g59
NtRp2806
(dp2807
g62
(dp2808
g70
I4
ssg71
Nsg64
(lp2809
sbasbasbasbag57
(g73
g59
NtRp2810
(dp2811
g62
(dp2812
sg71
g67
sg64
(lp2813
g57
(g78
g59
NtRp2814
(dp2815
g62
(dp2816
g82
g83
ssg71
g2810
sg64
(lp2817
S'wsgi'
p2818
asbag57
(g78
g59
NtRp2819
(dp2820
g62
(dp2821
g89
g90
ssg71
g2810
sg64
(lp2822
S':'
asbag57
(g78
g59
NtRp2823
(dp2824
g62
(dp2825
sg71
g2810
sg64
(lp2826
g57
(g58
g59
NtRp2827
(dp2828
g62
(dp2829
g70
I5
ssg71
g2823
sg64
(lp2830
g57
(g66
g59
NtRp2831
(dp2832
g62
(dp2833
g70
I4
ssg71
Nsg64
(lp2834
g57
(g73
g59
NtRp2835
(dp2836
g62
(dp2837
sg71
g2831
sg64
(lp2838
g57
(g78
g59
NtRp2839
(dp2840
g62
(dp2841
g82
g83
ssg71
g2835
sg64
(lp2842
S'environ'
p2843
asbag57
(g78
g59
NtRp2844
(dp2845
g62
(dp2846
g89
g90
ssg71
g2835
sg64
(lp2847
S':'
asbag57
(g78
g59
NtRp2848
(dp2849
g62
(dp2850
sg71
g2835
sg64
(lp2851
g57
(g58
g59
NtRp2852
(dp2853
g62
(dp2854
g70
I4
ssg71
g2848
sg64
(lp2855
g57
(g66
g59
NtRp2856
(dp2857
g62
(dp2858
g70
I3
ssg71
Nsg64
(lp2859
g57
(g73
g59
NtRp2860
(dp2861
g62
(dp2862
sg71
g2856
sg64
(lp2863
g57
(g78
g59
NtRp2864
(dp2865
g62
(dp2866
g82
g83
ssg71
g2860
sg64
(lp2867
S'HTTP_ACCEPT'
p2868
asbag57
(g78
g59
NtRp2869
(dp2870
g62
(dp2871
g89
g90
ssg71
g2860
sg64
(lp2872
S':'
asbag57
(g78
g59
NtRp2873
(dp2874
g62
(dp2875
sg71
g2860
sg64
(lp2876
g57
(g58
g59
NtRp2877
(dp2878
g62
(dp2879
g70
I3
ssg71
g2873
sg64
(lp2880
g1214
asbasbasbag57
(g73
g59
NtRp2881
(dp2882
g62
(dp2883
sg71
g2856
sg64
(lp2884
g57
(g78
g59
NtRp2885
(dp2886
g62
(dp2887
g82
g83
ssg71
g2881
sg64
(lp2888
S'HTTP_ACCEPT_ENCODING'
p2889
asbag57
(g78
g59
NtRp2890
(dp2891
g62
(dp2892
g89
g90
ssg71
g2881
sg64
(lp2893
S':'
asbag57
(g78
g59
NtRp2894
(dp2895
g62
(dp2896
sg71
g2881
sg64
(lp2897
g57
(g58
g59
NtRp2898
(dp2899
g62
(dp2900
g70
I3
ssg71
g2894
sg64
(lp2901
g1236
asbasbasbag57
(g73
g59
NtRp2902
(dp2903
g62
(dp2904
sg71
g2856
sg64
(lp2905
g57
(g78
g59
NtRp2906
(dp2907
g62
(dp2908
g82
g83
ssg71
g2902
sg64
(lp2909
S'HTTP_ACCEPT_LANGUAGE'
p2910
asbag57
(g78
g59
NtRp2911
(dp2912
g62
(dp2913
g89
g90
ssg71
g2902
sg64
(lp2914
S':'
asbag57
(g78
g59
NtRp2915
(dp2916
g62
(dp2917
sg71
g2902
sg64
(lp2918
g57
(g58
g59
NtRp2919
(dp2920
g62
(dp2921
g70
I3
ssg71
g2915
sg64
(lp2922
g1258
asbasbasbag57
(g73
g59
NtRp2923
(dp2924
g62
(dp2925
sg71
g2856
sg64
(lp2926
g57
(g78
g59
NtRp2927
(dp2928
g62
(dp2929
g82
g83
ssg71
g2923
sg64
(lp2930
S'HTTP_CACHE_CONTROL'
p2931
asbag57
(g78
g59
NtRp2932
(dp2933
g62
(dp2934
g89
g90
ssg71
g2923
sg64
(lp2935
S':'
asbag57
(g78
g59
NtRp2936
(dp2937
g62
(dp2938
sg71
g2923
sg64
(lp2939
g57
(g58
g59
NtRp2940
(dp2941
g62
(dp2942
g70
I3
ssg71
g2936
sg64
(lp2943
g1280
asbasbasbag57
(g73
g59
NtRp2944
(dp2945
g62
(dp2946
sg71
g2856
sg64
(lp2947
g57
(g78
g59
NtRp2948
(dp2949
g62
(dp2950
g82
g83
ssg71
g2944
sg64
(lp2951
S'HTTP_CONNECTION'
p2952
asbag57
(g78
g59
NtRp2953
(dp2954
g62
(dp2955
g89
g90
ssg71
g2944
sg64
(lp2956
S':'
asbag57
(g78
g59
NtRp2957
(dp2958
g62
(dp2959
sg71
g2944
sg64
(lp2960
g57
(g58
g59
NtRp2961
(dp2962
g62
(dp2963
g70
I3
ssg71
g2957
sg64
(lp2964
g1302
asbasbasbag57
(g73
g59
NtRp2965
(dp2966
g62
(dp2967
sg71
g2856
sg64
(lp2968
g57
(g78
g59
NtRp2969
(dp2970
g62
(dp2971
g82
g83
ssg71
g2965
sg64
(lp2972
S'HTTP_COOKIE'
p2973
asbag57
(g78
g59
NtRp2974
(dp2975
g62
(dp2976
g89
g90
ssg71
g2965
sg64
(lp2977
S':'
asbag57
(g78
g59
NtRp2978
(dp2979
g62
(dp2980
sg71
g2965
sg64
(lp2981
g57
(g58
g59
NtRp2982
(dp2983
g62
(dp2984
g70
I3
ssg71
g2978
sg64
(lp2985
g1324
asbasbasbag57
(g73
g59
NtRp2986
(dp2987
g62
(dp2988
sg71
g2856
sg64
(lp2989
g57
(g78
g59
NtRp2990
(dp2991
g62
(dp2992
g82
g83
ssg71
g2986
sg64
(lp2993
S'HTTP_HOST'
p2994
asbag57
(g78
g59
NtRp2995
(dp2996
g62
(dp2997
g89
g90
ssg71
g2986
sg64
(lp2998
S':'
asbag57
(g78
g59
NtRp2999
(dp3000
g62
(dp3001
sg71
g2986
sg64
(lp3002
g57
(g58
g59
NtRp3003
(dp3004
g62
(dp3005
g70
I3
ssg71
g2999
sg64
(lp3006
g1346
asbasbasbag57
(g73
g59
NtRp3007
(dp3008
g62
(dp3009
sg71
g2856
sg64
(lp3010
g57
(g78
g59
NtRp3011
(dp3012
g62
(dp3013
g82
g83
ssg71
g3007
sg64
(lp3014
S'HTTP_REFERER'
p3015
asbag57
(g78
g59
NtRp3016
(dp3017
g62
(dp3018
g89
g90
ssg71
g3007
sg64
(lp3019
S':'
asbag57
(g78
g59
NtRp3020
(dp3021
g62
(dp3022
sg71
g3007
sg64
(lp3023
g57
(g58
g59
NtRp3024
(dp3025
g62
(dp3026
g70
I3
ssg71
g3020
sg64
(lp3027
g1368
asbasbasbag57
(g73
g59
NtRp3028
(dp3029
g62
(dp3030
sg71
g2856
sg64
(lp3031
g57
(g78
g59
NtRp3032
(dp3033
g62
(dp3034
g82
g83
ssg71
g3028
sg64
(lp3035
S'HTTP_USER_AGENT'
p3036
asbag57
(g78
g59
NtRp3037
(dp3038
g62
(dp3039
g89
g90
ssg71
g3028
sg64
(lp3040
S':'
asbag57
(g78
g59
NtRp3041
(dp3042
g62
(dp3043
sg71
g3028
sg64
(lp3044
g57
(g58
g59
NtRp3045
(dp3046
g62
(dp3047
g70
I3
ssg71
g3041
sg64
(lp3048
g1390
asbasbasbag57
(g73
g59
NtRp3049
(dp3050
g62
(dp3051
sg71
g2856
sg64
(lp3052
g57
(g78
g59
NtRp3053
(dp3054
g62
(dp3055
g82
g83
ssg71
g3049
sg64
(lp3056
S'PATH_INFO'
p3057
asbag57
(g78
g59
NtRp3058
(dp3059
g62
(dp3060
g89
g90
ssg71
g3049
sg64
(lp3061
S':'
asbag57
(g78
g59
NtRp3062
(dp3063
g62
(dp3064
sg71
g3049
sg64
(lp3065
g57
(g58
g59
NtRp3066
(dp3067
g62
(dp3068
g70
I3
ssg71
g3062
sg64
(lp3069
g1557
asbasbasbag57
(g73
g59
NtRp3070
(dp3071
g62
(dp3072
sg71
g2856
sg64
(lp3073
g57
(g78
g59
NtRp3074
(dp3075
g62
(dp3076
g82
g83
ssg71
g3070
sg64
(lp3077
S'QUERY_STRING'
p3078
asbag57
(g78
g59
NtRp3079
(dp3080
g62
(dp3081
g89
g90
ssg71
g3070
sg64
(lp3082
S':'
asbag57
(g78
g59
NtRp3083
(dp3084
g62
(dp3085
sg71
g3070
sg64
(lp3086
g57
(g58
g59
NtRp3087
(dp3088
g62
(dp3089
g70
I3
ssg71
g3083
sg64
(lp3090
S''
asbasbasbag57
(g73
g59
NtRp3091
(dp3092
g62
(dp3093
sg71
g2856
sg64
(lp3094
g57
(g78
g59
NtRp3095
(dp3096
g62
(dp3097
g82
g83
ssg71
g3091
sg64
(lp3098
S'REMOTE_ADDR'
p3099
asbag57
(g78
g59
NtRp3100
(dp3101
g62
(dp3102
g89
g90
ssg71
g3091
sg64
(lp3103
S':'
asbag57
(g78
g59
NtRp3104
(dp3105
g62
(dp3106
sg71
g3091
sg64
(lp3107
g57
(g58
g59
NtRp3108
(dp3109
g62
(dp3110
g70
I3
ssg71
g3104
sg64
(lp3111
g212
asbasbasbag57
(g73
g59
NtRp3112
(dp3113
g62
(dp3114
sg71
g2856
sg64
(lp3115
g57
(g78
g59
NtRp3116
(dp3117
g62
(dp3118
g82
g83
ssg71
g3112
sg64
(lp3119
S'REMOTE_PORT'
p3120
asbag57
(g78
g59
NtRp3121
(dp3122
g62
(dp3123
g89
g90
ssg71
g3112
sg64
(lp3124
S':'
asbag57
(g78
g59
NtRp3125
(dp3126
g62
(dp3127
sg71
g3112
sg64
(lp3128
g57
(g58
g59
NtRp3129
(dp3130
g62
(dp3131
g70
I3
ssg71
g3125
sg64
(lp3132
g1621
asbasbasbag57
(g73
g59
NtRp3133
(dp3134
g62
(dp3135
sg71
g2856
sg64
(lp3136
g57
(g78
g59
NtRp3137
(dp3138
g62
(dp3139
g82
g83
ssg71
g3133
sg64
(lp3140
S'REQUEST_METHOD'
p3141
asbag57
(g78
g59
NtRp3142
(dp3143
g62
(dp3144
g89
g90
ssg71
g3133
sg64
(lp3145
S':'
asbag57
(g78
g59
NtRp3146
(dp3147
g62
(dp3148
sg71
g3133
sg64
(lp3149
g57
(g58
g59
NtRp3150
(dp3151
g62
(dp3152
g70
I3
ssg71
g3146
sg64
(lp3153
g1643
asbasbasbag57
(g73
g59
NtRp3154
(dp3155
g62
(dp3156
sg71
g2856
sg64
(lp3157
g57
(g78
g59
NtRp3158
(dp3159
g62
(dp3160
g82
g83
ssg71
g3154
sg64
(lp3161
S'REQUEST_URI'
p3162
asbag57
(g78
g59
NtRp3163
(dp3164
g62
(dp3165
g89
g90
ssg71
g3154
sg64
(lp3166
S':'
asbag57
(g78
g59
NtRp3167
(dp3168
g62
(dp3169
sg71
g3154
sg64
(lp3170
g57
(g58
g59
NtRp3171
(dp3172
g62
(dp3173
g70
I3
ssg71
g3167
sg64
(lp3174
g1557
asbasbasbag57
(g73
g59
NtRp3175
(dp3176
g62
(dp3177
sg71
g2856
sg64
(lp3178
g57
(g78
g59
NtRp3179
(dp3180
g62
(dp3181
g82
g83
ssg71
g3175
sg64
(lp3182
S'SCRIPT_NAME'
p3183
asbag57
(g78
g59
NtRp3184
(dp3185
g62
(dp3186
g89
g90
ssg71
g3175
sg64
(lp3187
S':'
asbag57
(g78
g59
NtRp3188
(dp3189
g62
(dp3190
sg71
g3175
sg64
(lp3191
g57
(g58
g59
NtRp3192
(dp3193
g62
(dp3194
g70
I3
ssg71
g3188
sg64
(lp3195
S''
asbasbasbag57
(g73
g59
NtRp3196
(dp3197
g62
(dp3198
sg71
g2856
sg64
(lp3199
g57
(g78
g59
NtRp3200
(dp3201
g62
(dp3202
g82
g83
ssg71
g3196
sg64
(lp3203
S'SERVER_NAME'
p3204
asbag57
(g78
g59
NtRp3205
(dp3206
g62
(dp3207
g89
g90
ssg71
g3196
sg64
(lp3208
S':'
asbag57
(g78
g59
NtRp3209
(dp3210
g62
(dp3211
sg71
g3196
sg64
(lp3212
g57
(g58
g59
NtRp3213
(dp3214
g62
(dp3215
g70
I3
ssg71
g3209
sg64
(lp3216
g1707
asbasbasbag57
(g73
g59
NtRp3217
(dp3218
g62
(dp3219
sg71
g2856
sg64
(lp3220
g57
(g78
g59
NtRp3221
(dp3222
g62
(dp3223
g82
g83
ssg71
g3217
sg64
(lp3224
S'SERVER_PORT'
p3225
asbag57
(g78
g59
NtRp3226
(dp3227
g62
(dp3228
g89
g90
ssg71
g3217
sg64
(lp3229
S':'
asbag57
(g78
g59
NtRp3230
(dp3231
g62
(dp3232
sg71
g3217
sg64
(lp3233
g57
(g58
g59
NtRp3234
(dp3235
g62
(dp3236
g70
I3
ssg71
g3230
sg64
(lp3237
g1729
asbasbasbag57
(g73
g59
NtRp3238
(dp3239
g62
(dp3240
sg71
g2856
sg64
(lp3241
g57
(g78
g59
NtRp3242
(dp3243
g62
(dp3244
g82
g83
ssg71
g3238
sg64
(lp3245
S'SERVER_PROTOCOL'
p3246
asbag57
(g78
g59
NtRp3247
(dp3248
g62
(dp3249
g89
g90
ssg71
g3238
sg64
(lp3250
S':'
asbag57
(g78
g59
NtRp3251
(dp3252
g62
(dp3253
sg71
g3238
sg64
(lp3254
g57
(g58
g59
NtRp3255
(dp3256
g62
(dp3257
g70
I3
ssg71
g3251
sg64
(lp3258
g1751
asbasbasbag57
(g73
g59
NtRp3259
(dp3260
g62
(dp3261
sg71
g2856
sg64
(lp3262
g57
(g78
g59
NtRp3263
(dp3264
g62
(dp3265
g82
g83
ssg71
g3259
sg64
(lp3266
S'SERVER_SOFTWARE'
p3267
asbag57
(g78
g59
NtRp3268
(dp3269
g62
(dp3270
g89
g90
ssg71
g3259
sg64
(lp3271
S':'
asbag57
(g78
g59
NtRp3272
(dp3273
g62
(dp3274
sg71
g3259
sg64
(lp3275
g57
(g58
g59
NtRp3276
(dp3277
g62
(dp3278
g70
I3
ssg71
g3272
sg64
(lp3279
g1773
asbasbasbag57
(g73
g59
NtRp3280
(dp3281
g62
(dp3282
sg71
g2856
sg64
(lp3283
g57
(g78
g59
NtRp3284
(dp3285
g62
(dp3286
g82
g83
ssg71
g3280
sg64
(lp3287
S'wsgi.errors'
p3288
asbag57
(g78
g59
NtRp3289
(dp3290
g62
(dp3291
g89
g90
ssg71
g3280
sg64
(lp3292
S':'
asbag57
(g78
g59
NtRp3293
(dp3294
g62
(dp3295
sg71
g3280
sg64
(lp3296
g57
(g58
g59
NtRp3297
(dp3298
g62
(dp3299
g70
I3
ssg71
g3293
sg64
(lp3300
S"<open file '<stderr>', mode 'w' at 0xb72930d0>"
p3301
asbasbasbag57
(g73
g59
NtRp3302
(dp3303
g62
(dp3304
sg71
g2856
sg64
(lp3305
g57
(g78
g59
NtRp3306
(dp3307
g62
(dp3308
g82
g83
ssg71
g3302
sg64
(lp3309
S'wsgi.file_wrapper'
p3310
asbag57
(g78
g59
NtRp3311
(dp3312
g62
(dp3313
g89
g90
ssg71
g3302
sg64
(lp3314
S':'
asbag57
(g78
g59
NtRp3315
(dp3316
g62
(dp3317
sg71
g3302
sg64
(lp3318
g57
(g58
g59
NtRp3319
(dp3320
g62
(dp3321
g70
I3
ssg71
g3315
sg64
(lp3322
S'<class wsgiref.util.FileWrapper at 0x901765c>'
p3323
asbasbasbag57
(g73
g59
NtRp3324
(dp3325
g62
(dp3326
sg71
g2856
sg64
(lp3327
g57
(g78
g59
NtRp3328
(dp3329
g62
(dp3330
g82
g83
ssg71
g3324
sg64
(lp3331
S'wsgi.input'
p3332
asbag57
(g78
g59
NtRp3333
(dp3334
g62
(dp3335
g89
g90
ssg71
g3324
sg64
(lp3336
S':'
asbag57
(g78
g59
NtRp3337
(dp3338
g62
(dp3339
sg71
g3324
sg64
(lp3340
g57
(g58
g59
NtRp3341
(dp3342
g62
(dp3343
g70
I3
ssg71
g3337
sg64
(lp3344
S'<cStringIO.StringO object at 0xad334760>'
p3345
asbasbasbag57
(g73
g59
NtRp3346
(dp3347
g62
(dp3348
sg71
g2856
sg64
(lp3349
g57
(g78
g59
NtRp3350
(dp3351
g62
(dp3352
g82
g83
ssg71
g3346
sg64
(lp3353
S'wsgi.multiprocess'
p3354
asbag57
(g78
g59
NtRp3355
(dp3356
g62
(dp3357
g89
g90
ssg71
g3346
sg64
(lp3358
S':'
asbag57
(g78
g59
NtRp3359
(dp3360
g62
(dp3361
sg71
g3346
sg64
(lp3362
g57
(g58
g59
NtRp3363
(dp3364
g62
(dp3365
g70
I3
ssg71
g3359
sg64
(lp3366
g100
asbasbasbag57
(g73
g59
NtRp3367
(dp3368
g62
(dp3369
sg71
g2856
sg64
(lp3370
g57
(g78
g59
NtRp3371
(dp3372
g62
(dp3373
g82
g83
ssg71
g3367
sg64
(lp3374
S'wsgi.multithread'
p3375
asbag57
(g78
g59
NtRp3376
(dp3377
g62
(dp3378
g89
g90
ssg71
g3367
sg64
(lp3379
S':'
asbag57
(g78
g59
NtRp3380
(dp3381
g62
(dp3382
sg71
g3367
sg64
(lp3383
g57
(g58
g59
NtRp3384
(dp3385
g62
(dp3386
g70
I3
ssg71
g3380
sg64
(lp3387
g1990
asbasbasbag57
(g73
g59
NtRp3388
(dp3389
g62
(dp3390
sg71
g2856
sg64
(lp3391
g57
(g78
g59
NtRp3392
(dp3393
g62
(dp3394
g82
g83
ssg71
g3388
sg64
(lp3395
S'wsgi.run_once'
p3396
asbag57
(g78
g59
NtRp3397
(dp3398
g62
(dp3399
g89
g90
ssg71
g3388
sg64
(lp3400
S':'
asbag57
(g78
g59
NtRp3401
(dp3402
g62
(dp3403
sg71
g3388
sg64
(lp3404
g57
(g58
g59
NtRp3405
(dp3406
g62
(dp3407
g70
I3
ssg71
g3401
sg64
(lp3408
g100
asbasbasbag57
(g73
g59
NtRp3409
(dp3410
g62
(dp3411
sg71
g2856
sg64
(lp3412
g57
(g78
g59
NtRp3413
(dp3414
g62
(dp3415
g82
g83
ssg71
g3409
sg64
(lp3416
S'wsgi.url_scheme'
p3417
asbag57
(g78
g59
NtRp3418
(dp3419
g62
(dp3420
g89
g90
ssg71
g3409
sg64
(lp3421
S':'
asbag57
(g78
g59
NtRp3422
(dp3423
g62
(dp3424
sg71
g3409
sg64
(lp3425
g57
(g58
g59
NtRp3426
(dp3427
g62
(dp3428
g70
I3
ssg71
g3422
sg64
(lp3429
g2033
asbasbasbag57
(g73
g59
NtRp3430
(dp3431
g62
(dp3432
sg71
g2856
sg64
(lp3433
g57
(g78
g59
NtRp3434
(dp3435
g62
(dp3436
g82
g83
ssg71
g3430
sg64
(lp3437
S'wsgi.version'
p3438
asbag57
(g78
g59
NtRp3439
(dp3440
g62
(dp3441
g89
g90
ssg71
g3430
sg64
(lp3442
S':'
asbag57
(g78
g59
NtRp3443
(dp3444
g62
(dp3445
sg71
g3430
sg64
(lp3446
g57
(g58
g59
NtRp3447
(dp3448
g62
(dp3449
g70
I3
ssg71
g3443
sg64
(lp3450
S'1'
asbasbasbasbasbasbasbasbasbasbasbasbasbsS'frames'
p3451
(lp3452
(dp3453
S'file'
p3454
S'/home/aditi/Desktop/web2py/gluon/restricted.py'
p3455
sS'dump'
p3456
(dp3457
S'environment'
p3458
S"{'A': <class 'gluon.html.A'>, 'Auth': <class 'gluon.tools.Auth'>, 'B': <class 'gluon.html.B'>, 'BEAUTIFY': <class 'gluon.html.BEAUTIFY'>, 'BODY': <class 'gluon.html.BODY'>, 'BR': <class 'gluon.html.BR'>, 'BUTTON': <class 'gluon.html.BUTTON'>, 'CAT': <class 'gluon.html.CAT'>, 'CENTER': <class 'gluon.html.CENTER'>, 'CLEANUP': <class 'gluon.validators.CLEANUP'>, ...}"
p3459
sS'ccode'
p3460
S'<code object <module> at 0xad31b0f8, file "/home.../applications/assignment2/models/db.py", line 12>'
p3461
ssS'lnum'
p3462
I212
sS'lines'
p3463
(dp3464
I207
S'    try:'
p3465
sI208
S'        if isinstance(code, types.CodeType):'
p3466
sI209
S'            ccode = code'
p3467
sI210
S'        else:'
p3468
sI211
S'            ccode = compile2(code, layer)'
p3469
sI212
S'        exec ccode in environment'
p3470
sI213
S'    except HTTP:'
p3471
sI214
S'        raise'
p3472
sI215
S'    except RestrictedError:'
p3473
sI216
S'        # do not encapsulate (obfuscate) the original RestrictedError'
p3474
ssS'call'
p3475
S'(code="# -*- coding: utf-8 -*-\\n\\n#######################...nteger\'),\\n                Field(\'cmt\',\'string\'))\\n", environment={\'A\': <class \'gluon.html.A\'>, \'Auth\': <class \'gluon.tools.Auth\'>, \'B\': <class \'gluon.html.B\'>, \'BEAUTIFY\': <class \'gluon.html.BEAUTIFY\'>, \'BODY\': <class \'gluon.html.BODY\'>, \'BR\': <class \'gluon.html.BR\'>, \'BUTTON\': <class \'gluon.html.BUTTON\'>, \'CAT\': <class \'gluon.html.CAT\'>, \'CENTER\': <class \'gluon.html.CENTER\'>, \'CLEANUP\': <class \'gluon.validators.CLEANUP\'>, ...}, layer=\'/home/aditi/Desktop/web2py/applications/assignment2/models/db.py\')'
p3476
sS'func'
p3477
S'restricted'
p3478
sa(dp3479
g3454
S'/home/aditi/Desktop/web2py/applications/assignment2/models/db.py'
p3480
sg3456
(dp3481
S'default'
p3482
S'undefined'
p3483
sS'Field'
p3484
S"<class 'gluon.dal.Field'>"
p3485
sS'request'
p3486
S"<Storage {'function': 'user_homepage', 'body': <...ations/assignment2/', 'post_vars': <Storage {}>}>"
p3487
sS'request.now'
p3488
S'datetime.datetime(2013, 8, 30, 12, 39, 13, 707706)'
p3489
ssg3462
I100
sg3463
(dp3490
I96
S"                Field('url','string',requires=IS_URL()),"
p3491
sI97
S"                Field('points','integer'),"
p3492
sI98
S"                Field('likes','integer'),"
p3493
sI99
S"                Field('dislikes','integer'),"
p3494
sI100
S"                Field('dt','datetime',default=request.now()))"
p3495
sI101
S''
sI102
S"db.define_table('likedposts',"
p3496
sI103
S"                Field('userid','integer'),"
p3497
sI104
S"                Field('postid','integer'))"
p3498
sI95
S"                Field('choice','string',requires=IS_IN_SET(['article','video'])),"
p3499
ssg3475
S'()'
p3500
sg3477
S'<module>'
p3501
sasS'pyver'
p3502
S'Python 2.7.3: /usr/bin/python'
p3503
sS'session'
p3504
g57
(g58
g59
NtRp3505
(dp3506
g62
(dp3507
sg64
(lp3508
g57
(g66
g59
NtRp3509
(dp3510
g62
(dp3511
g70
I5
ssg71
Nsg64
(lp3512
g57
(g73
g59
NtRp3513
(dp3514
g62
(dp3515
sg71
g3509
sg64
(lp3516
g57
(g78
g59
NtRp3517
(dp3518
g62
(dp3519
g82
g83
ssg71
g3513
sg64
(lp3520
S'auth'
p3521
asbag57
(g78
g59
NtRp3522
(dp3523
g62
(dp3524
g89
g90
ssg71
g3513
sg64
(lp3525
S':'
asbag57
(g78
g59
NtRp3526
(dp3527
g62
(dp3528
sg71
g3513
sg64
(lp3529
g57
(g58
g59
NtRp3530
(dp3531
g62
(dp3532
g70
I5
ssg71
g3526
sg64
(lp3533
g57
(g66
g59
NtRp3534
(dp3535
g62
(dp3536
g70
I4
ssg71
Nsg64
(lp3537
g57
(g73
g59
NtRp3538
(dp3539
g62
(dp3540
sg71
g3534
sg64
(lp3541
g57
(g78
g59
NtRp3542
(dp3543
g62
(dp3544
g82
g83
ssg71
g3538
sg64
(lp3545
S'expiration'
p3546
asbag57
(g78
g59
NtRp3547
(dp3548
g62
(dp3549
g89
g90
ssg71
g3538
sg64
(lp3550
S':'
asbag57
(g78
g59
NtRp3551
(dp3552
g62
(dp3553
sg71
g3538
sg64
(lp3554
g57
(g58
g59
NtRp3555
(dp3556
g62
(dp3557
g70
I4
ssg71
g3551
sg64
(lp3558
S'3600'
p3559
asbasbasbag57
(g73
g59
NtRp3560
(dp3561
g62
(dp3562
sg71
g3534
sg64
(lp3563
g57
(g78
g59
NtRp3564
(dp3565
g62
(dp3566
g82
g83
ssg71
g3560
sg64
(lp3567
S'hmac_key'
p3568
asbag57
(g78
g59
NtRp3569
(dp3570
g62
(dp3571
g89
g90
ssg71
g3560
sg64
(lp3572
S':'
asbag57
(g78
g59
NtRp3573
(dp3574
g62
(dp3575
sg71
g3560
sg64
(lp3576
g57
(g58
g59
NtRp3577
(dp3578
g62
(dp3579
g70
I4
ssg71
g3573
sg64
(lp3580
S'5d1c2c3f-f54c-4083-823c-7704539e6deb'
p3581
asbasbasbag57
(g73
g59
NtRp3582
(dp3583
g62
(dp3584
sg71
g3534
sg64
(lp3585
g57
(g78
g59
NtRp3586
(dp3587
g62
(dp3588
g82
g83
ssg71
g3582
sg64
(lp3589
S'last_visit'
p3590
asbag57
(g78
g59
NtRp3591
(dp3592
g62
(dp3593
g89
g90
ssg71
g3582
sg64
(lp3594
S':'
asbag57
(g78
g59
NtRp3595
(dp3596
g62
(dp3597
sg71
g3582
sg64
(lp3598
g57
(g58
g59
NtRp3599
(dp3600
g62
(dp3601
g70
I4
ssg71
g3595
sg64
(lp3602
S'datetime.datetime(2013, 8, 30, 12, 39, 13, 707706)'
p3603
asbasbasbag57
(g73
g59
NtRp3604
(dp3605
g62
(dp3606
sg71
g3534
sg64
(lp3607
g57
(g78
g59
NtRp3608
(dp3609
g62
(dp3610
g82
g83
ssg71
g3604
sg64
(lp3611
S'remember'
p3612
asbag57
(g78
g59
NtRp3613
(dp3614
g62
(dp3615
g89
g90
ssg71
g3604
sg64
(lp3616
S':'
asbag57
(g78
g59
NtRp3617
(dp3618
g62
(dp3619
sg71
g3604
sg64
(lp3620
g57
(g58
g59
NtRp3621
(dp3622
g62
(dp3623
g70
I4
ssg71
g3617
sg64
(lp3624
g100
asbasbasbag57
(g73
g59
NtRp3625
(dp3626
g62
(dp3627
sg71
g3534
sg64
(lp3628
g57
(g78
g59
NtRp3629
(dp3630
g62
(dp3631
g82
g83
ssg71
g3625
sg64
(lp3632
S'user'
p3633
asbag57
(g78
g59
NtRp3634
(dp3635
g62
(dp3636
g89
g90
ssg71
g3625
sg64
(lp3637
S':'
asbag57
(g78
g59
NtRp3638
(dp3639
g62
(dp3640
sg71
g3625
sg64
(lp3641
g57
(g58
g59
NtRp3642
(dp3643
g62
(dp3644
g70
I4
ssg71
g3638
sg64
(lp3645
g57
(g66
g59
NtRp3646
(dp3647
g62
(dp3648
g70
I3
ssg71
Nsg64
(lp3649
g57
(g73
g59
NtRp3650
(dp3651
g62
(dp3652
sg71
g3646
sg64
(lp3653
g57
(g78
g59
NtRp3654
(dp3655
g62
(dp3656
g82
g83
ssg71
g3650
sg64
(lp3657
S'account_type'
p3658
asbag57
(g78
g59
NtRp3659
(dp3660
g62
(dp3661
g89
g90
ssg71
g3650
sg64
(lp3662
S':'
asbag57
(g78
g59
NtRp3663
(dp3664
g62
(dp3665
sg71
g3650
sg64
(lp3666
g57
(g58
g59
NtRp3667
(dp3668
g62
(dp3669
g70
I3
ssg71
g3663
sg64
(lp3670
S'user'
p3671
asbasbasbag57
(g73
g59
NtRp3672
(dp3673
g62
(dp3674
sg71
g3646
sg64
(lp3675
g57
(g78
g59
NtRp3676
(dp3677
g62
(dp3678
g82
g83
ssg71
g3672
sg64
(lp3679
S'alt_email'
p3680
asbag57
(g78
g59
NtRp3681
(dp3682
g62
(dp3683
g89
g90
ssg71
g3672
sg64
(lp3684
S':'
asbag57
(g78
g59
NtRp3685
(dp3686
g62
(dp3687
sg71
g3672
sg64
(lp3688
g57
(g58
g59
NtRp3689
(dp3690
g62
(dp3691
g70
I3
ssg71
g3685
sg64
(lp3692
S'switch2aditi@gmail.com'
p3693
asbasbasbag57
(g73
g59
NtRp3694
(dp3695
g62
(dp3696
sg71
g3646
sg64
(lp3697
g57
(g78
g59
NtRp3698
(dp3699
g62
(dp3700
g82
g83
ssg71
g3694
sg64
(lp3701
S'dob'
p3702
asbag57
(g78
g59
NtRp3703
(dp3704
g62
(dp3705
g89
g90
ssg71
g3694
sg64
(lp3706
S':'
asbag57
(g78
g59
NtRp3707
(dp3708
g62
(dp3709
sg71
g3694
sg64
(lp3710
g57
(g58
g59
NtRp3711
(dp3712
g62
(dp3713
g70
I3
ssg71
g3707
sg64
(lp3714
S'datetime.date(1994, 11, 5)'
p3715
asbasbasbag57
(g73
g59
NtRp3716
(dp3717
g62
(dp3718
sg71
g3646
sg64
(lp3719
g57
(g78
g59
NtRp3720
(dp3721
g62
(dp3722
g82
g83
ssg71
g3716
sg64
(lp3723
S'email'
p3724
asbag57
(g78
g59
NtRp3725
(dp3726
g62
(dp3727
g89
g90
ssg71
g3716
sg64
(lp3728
S':'
asbag57
(g78
g59
NtRp3729
(dp3730
g62
(dp3731
sg71
g3716
sg64
(lp3732
g57
(g58
g59
NtRp3733
(dp3734
g62
(dp3735
g70
I3
ssg71
g3729
sg64
(lp3736
S'aditi.mavalankar@students.iiit.ac.in'
p3737
asbasbasbag57
(g73
g59
NtRp3738
(dp3739
g62
(dp3740
sg71
g3646
sg64
(lp3741
g57
(g78
g59
NtRp3742
(dp3743
g62
(dp3744
g82
g83
ssg71
g3738
sg64
(lp3745
S'first_name'
p3746
asbag57
(g78
g59
NtRp3747
(dp3748
g62
(dp3749
g89
g90
ssg71
g3738
sg64
(lp3750
S':'
asbag57
(g78
g59
NtRp3751
(dp3752
g62
(dp3753
sg71
g3738
sg64
(lp3754
g57
(g58
g59
NtRp3755
(dp3756
g62
(dp3757
g70
I3
ssg71
g3751
sg64
(lp3758
S'aditi'
p3759
asbasbasbag57
(g73
g59
NtRp3760
(dp3761
g62
(dp3762
sg71
g3646
sg64
(lp3763
g57
(g78
g59
NtRp3764
(dp3765
g62
(dp3766
g82
g83
ssg71
g3760
sg64
(lp3767
S'id'
p3768
asbag57
(g78
g59
NtRp3769
(dp3770
g62
(dp3771
g89
g90
ssg71
g3760
sg64
(lp3772
S':'
asbag57
(g78
g59
NtRp3773
(dp3774
g62
(dp3775
sg71
g3760
sg64
(lp3776
g57
(g58
g59
NtRp3777
(dp3778
g62
(dp3779
g70
I3
ssg71
g3773
sg64
(lp3780
S'5'
asbasbasbag57
(g73
g59
NtRp3781
(dp3782
g62
(dp3783
sg71
g3646
sg64
(lp3784
g57
(g78
g59
NtRp3785
(dp3786
g62
(dp3787
g82
g83
ssg71
g3781
sg64
(lp3788
S'last_name'
p3789
asbag57
(g78
g59
NtRp3790
(dp3791
g62
(dp3792
g89
g90
ssg71
g3781
sg64
(lp3793
S':'
asbag57
(g78
g59
NtRp3794
(dp3795
g62
(dp3796
sg71
g3781
sg64
(lp3797
g57
(g58
g59
NtRp3798
(dp3799
g62
(dp3800
g70
I3
ssg71
g3794
sg64
(lp3801
S'mavalankar'
p3802
asbasbasbag57
(g73
g59
NtRp3803
(dp3804
g62
(dp3805
sg71
g3646
sg64
(lp3806
g57
(g78
g59
NtRp3807
(dp3808
g62
(dp3809
g82
g83
ssg71
g3803
sg64
(lp3810
S'registration_id'
p3811
asbag57
(g78
g59
NtRp3812
(dp3813
g62
(dp3814
g89
g90
ssg71
g3803
sg64
(lp3815
S':'
asbag57
(g78
g59
NtRp3816
(dp3817
g62
(dp3818
sg71
g3803
sg64
(lp3819
g57
(g58
g59
NtRp3820
(dp3821
g62
(dp3822
g70
I3
ssg71
g3816
sg64
(lp3823
S''
asbasbasbag57
(g73
g59
NtRp3824
(dp3825
g62
(dp3826
sg71
g3646
sg64
(lp3827
g57
(g78
g59
NtRp3828
(dp3829
g62
(dp3830
g82
g83
ssg71
g3824
sg64
(lp3831
S'registration_key'
p3832
asbag57
(g78
g59
NtRp3833
(dp3834
g62
(dp3835
g89
g90
ssg71
g3824
sg64
(lp3836
S':'
asbag57
(g78
g59
NtRp3837
(dp3838
g62
(dp3839
sg71
g3824
sg64
(lp3840
g57
(g58
g59
NtRp3841
(dp3842
g62
(dp3843
g70
I3
ssg71
g3837
sg64
(lp3844
S''
asbasbasbag57
(g73
g59
NtRp3845
(dp3846
g62
(dp3847
sg71
g3646
sg64
(lp3848
g57
(g78
g59
NtRp3849
(dp3850
g62
(dp3851
g82
g83
ssg71
g3845
sg64
(lp3852
S'reset_password_key'
p3853
asbag57
(g78
g59
NtRp3854
(dp3855
g62
(dp3856
g89
g90
ssg71
g3845
sg64
(lp3857
S':'
asbag57
(g78
g59
NtRp3858
(dp3859
g62
(dp3860
sg71
g3845
sg64
(lp3861
g57
(g58
g59
NtRp3862
(dp3863
g62
(dp3864
g70
I3
ssg71
g3858
sg64
(lp3865
S''
asbasbasbag57
(g73
g59
NtRp3866
(dp3867
g62
(dp3868
sg71
g3646
sg64
(lp3869
g57
(g78
g59
NtRp3870
(dp3871
g62
(dp3872
g82
g83
ssg71
g3866
sg64
(lp3873
S'username'
p3874
asbag57
(g78
g59
NtRp3875
(dp3876
g62
(dp3877
g89
g90
ssg71
g3866
sg64
(lp3878
S':'
asbag57
(g78
g59
NtRp3879
(dp3880
g62
(dp3881
sg71
g3866
sg64
(lp3882
g57
(g58
g59
NtRp3883
(dp3884
g62
(dp3885
g70
I3
ssg71
g3879
sg64
(lp3886
S'aditi.mavalankar'
p3887
asbasbasbasbasbasbasbag57
(g73
g59
NtRp3888
(dp3889
g62
(dp3890
sg71
g3534
sg64
(lp3891
g57
(g78
g59
NtRp3892
(dp3893
g62
(dp3894
g82
g83
ssg71
g3888
sg64
(lp3895
S'user_groups'
p3896
asbag57
(g78
g59
NtRp3897
(dp3898
g62
(dp3899
g89
g90
ssg71
g3888
sg64
(lp3900
S':'
asbag57
(g78
g59
NtRp3901
(dp3902
g62
(dp3903
sg71
g3888
sg64
(lp3904
g57
(g58
g59
NtRp3905
(dp3906
g62
(dp3907
g70
I4
ssg71
g3901
sg64
(lp3908
g57
(g66
g59
NtRp3909
(dp3910
g62
(dp3911
g70
I3
ssg71
Nsg64
(lp3912
g57
(g73
g59
NtRp3913
(dp3914
g62
(dp3915
sg71
g3909
sg64
(lp3916
g57
(g78
g59
NtRp3917
(dp3918
g62
(dp3919
g82
g83
ssg71
g3913
sg64
(lp3920
S'5'
asbag57
(g78
g59
NtRp3921
(dp3922
g62
(dp3923
g89
g90
ssg71
g3913
sg64
(lp3924
S':'
asbag57
(g78
g59
NtRp3925
(dp3926
g62
(dp3927
sg71
g3913
sg64
(lp3928
g57
(g58
g59
NtRp3929
(dp3930
g62
(dp3931
g70
I3
ssg71
g3925
sg64
(lp3932
S'user_5'
p3933
asbasbasbasbasbasbasbasbasbasbasbag57
(g73
g59
NtRp3934
(dp3935
g62
(dp3936
sg71
g3509
sg64
(lp3937
g57
(g78
g59
NtRp3938
(dp3939
g62
(dp3940
g82
g83
ssg71
g3934
sg64
(lp3941
S'flash'
p3942
asbag57
(g78
g59
NtRp3943
(dp3944
g62
(dp3945
g89
g90
ssg71
g3934
sg64
(lp3946
S':'
asbag57
(g78
g59
NtRp3947
(dp3948
g62
(dp3949
sg71
g3934
sg64
(lp3950
g57
(g58
g59
NtRp3951
(dp3952
g62
(dp3953
g70
I5
ssg71
g3947
sg64
(lp3954
S'None'
p3955
asbasbasbasbasbsS'etype'
p3956
S"<type 'exceptions.TypeError'>"
p3957
sS'date'
p3958
S'Fri Aug 30 12:39:13 2013'
p3959
sS'response'
p3960
g57
(g58
g59
NtRp3961
(dp3962
g62
(dp3963
sg64
(lp3964
g57
(g66
g59
NtRp3965
(dp3966
g62
(dp3967
g70
I5
ssg71
Nsg64
(lp3968
g57
(g73
g59
NtRp3969
(dp3970
g62
(dp3971
sg71
g3965
sg64
(lp3972
g57
(g78
g59
NtRp3973
(dp3974
g62
(dp3975
g82
g83
ssg71
g3969
sg64
(lp3976
g155
asbag57
(g78
g59
NtRp3977
(dp3978
g62
(dp3979
g89
g90
ssg71
g3969
sg64
(lp3980
S':'
asbag57
(g78
g59
NtRp3981
(dp3982
g62
(dp3983
sg71
g3969
sg64
(lp3984
g57
(g58
g59
NtRp3985
(dp3986
g62
(dp3987
g70
I5
ssg71
g3981
sg64
(lp3988
S'<cStringIO.StringO object at 0xacca0380>'
p3989
asbasbasbag57
(g73
g59
NtRp3990
(dp3991
g62
(dp3992
sg71
g3965
sg64
(lp3993
g57
(g78
g59
NtRp3994
(dp3995
g62
(dp3996
g82
g83
ssg71
g3990
sg64
(lp3997
g243
asbag57
(g78
g59
NtRp3998
(dp3999
g62
(dp4000
g89
g90
ssg71
g3990
sg64
(lp4001
S':'
asbag57
(g78
g59
NtRp4002
(dp4003
g62
(dp4004
sg71
g3990
sg64
(lp4005
g57
(g58
g59
NtRp4006
(dp4007
g62
(dp4008
g70
I5
ssg71
g4002
sg64
(lp4009
g57
(g66
g59
NtRp4010
(dp4011
g62
(dp4012
g70
I4
ssg71
Nsg64
(lp4013
g57
(g73
g59
NtRp4014
(dp4015
g62
(dp4016
sg71
g4010
sg64
(lp4017
g57
(g78
g59
NtRp4018
(dp4019
g62
(dp4020
g82
g83
ssg71
g4014
sg64
(lp4021
S'session_id_assignment2'
p4022
asbag57
(g78
g59
NtRp4023
(dp4024
g62
(dp4025
g89
g90
ssg71
g4014
sg64
(lp4026
S':'
asbag57
(g78
g59
NtRp4027
(dp4028
g62
(dp4029
sg71
g4014
sg64
(lp4030
g57
(g58
g59
NtRp4031
(dp4032
g62
(dp4033
g70
I4
ssg71
g4027
sg64
(lp4034
g475
ag57
(g66
g59
NtRp4035
(dp4036
g62
(dp4037
g70
I3
ssg71
Nsg64
(lp4038
g57
(g73
g59
NtRp4039
(dp4040
g62
(dp4041
sg71
g4035
sg64
(lp4042
g57
(g78
g59
NtRp4043
(dp4044
g62
(dp4045
g82
g83
ssg71
g4039
sg64
(lp4046
g294
asbag57
(g78
g59
NtRp4047
(dp4048
g62
(dp4049
g89
g90
ssg71
g4039
sg64
(lp4050
S':'
asbag57
(g78
g59
NtRp4051
(dp4052
g62
(dp4053
sg71
g4039
sg64
(lp4054
g57
(g58
g59
NtRp4055
(dp4056
g62
(dp4057
g70
I3
ssg71
g4051
sg64
(lp4058
S''
asbasbasbag57
(g73
g59
NtRp4059
(dp4060
g62
(dp4061
sg71
g4035
sg64
(lp4062
g57
(g78
g59
NtRp4063
(dp4064
g62
(dp4065
g82
g83
ssg71
g4059
sg64
(lp4066
g315
asbag57
(g78
g59
NtRp4067
(dp4068
g62
(dp4069
g89
g90
ssg71
g4059
sg64
(lp4070
S':'
asbag57
(g78
g59
NtRp4071
(dp4072
g62
(dp4073
sg71
g4059
sg64
(lp4074
g57
(g58
g59
NtRp4075
(dp4076
g62
(dp4077
g70
I3
ssg71
g4071
sg64
(lp4078
S''
asbasbasbag57
(g73
g59
NtRp4079
(dp4080
g62
(dp4081
sg71
g4035
sg64
(lp4082
g57
(g78
g59
NtRp4083
(dp4084
g62
(dp4085
g82
g83
ssg71
g4079
sg64
(lp4086
g336
asbag57
(g78
g59
NtRp4087
(dp4088
g62
(dp4089
g89
g90
ssg71
g4079
sg64
(lp4090
S':'
asbag57
(g78
g59
NtRp4091
(dp4092
g62
(dp4093
sg71
g4079
sg64
(lp4094
g57
(g58
g59
NtRp4095
(dp4096
g62
(dp4097
g70
I3
ssg71
g4091
sg64
(lp4098
S''
asbasbasbag57
(g73
g59
NtRp4099
(dp4100
g62
(dp4101
sg71
g4035
sg64
(lp4102
g57
(g78
g59
NtRp4103
(dp4104
g62
(dp4105
g82
g83
ssg71
g4099
sg64
(lp4106
g357
asbag57
(g78
g59
NtRp4107
(dp4108
g62
(dp4109
g89
g90
ssg71
g4099
sg64
(lp4110
S':'
asbag57
(g78
g59
NtRp4111
(dp4112
g62
(dp4113
sg71
g4099
sg64
(lp4114
g57
(g58
g59
NtRp4115
(dp4116
g62
(dp4117
g70
I3
ssg71
g4111
sg64
(lp4118
S''
asbasbasbag57
(g73
g59
NtRp4119
(dp4120
g62
(dp4121
sg71
g4035
sg64
(lp4122
g57
(g78
g59
NtRp4123
(dp4124
g62
(dp4125
g82
g83
ssg71
g4119
sg64
(lp4126
g378
asbag57
(g78
g59
NtRp4127
(dp4128
g62
(dp4129
g89
g90
ssg71
g4119
sg64
(lp4130
S':'
asbag57
(g78
g59
NtRp4131
(dp4132
g62
(dp4133
sg71
g4119
sg64
(lp4134
g57
(g58
g59
NtRp4135
(dp4136
g62
(dp4137
g70
I3
ssg71
g4131
sg64
(lp4138
S''
asbasbasbag57
(g73
g59
NtRp4139
(dp4140
g62
(dp4141
sg71
g4035
sg64
(lp4142
g57
(g78
g59
NtRp4143
(dp4144
g62
(dp4145
g82
g83
ssg71
g4139
sg64
(lp4146
g399
asbag57
(g78
g59
NtRp4147
(dp4148
g62
(dp4149
g89
g90
ssg71
g4139
sg64
(lp4150
S':'
asbag57
(g78
g59
NtRp4151
(dp4152
g62
(dp4153
sg71
g4139
sg64
(lp4154
g57
(g58
g59
NtRp4155
(dp4156
g62
(dp4157
g70
I3
ssg71
g4151
sg64
(lp4158
S'/'
asbasbasbag57
(g73
g59
NtRp4159
(dp4160
g62
(dp4161
sg71
g4035
sg64
(lp4162
g57
(g78
g59
NtRp4163
(dp4164
g62
(dp4165
g82
g83
ssg71
g4159
sg64
(lp4166
g420
asbag57
(g78
g59
NtRp4167
(dp4168
g62
(dp4169
g89
g90
ssg71
g4159
sg64
(lp4170
S':'
asbag57
(g78
g59
NtRp4171
(dp4172
g62
(dp4173
sg71
g4159
sg64
(lp4174
g57
(g58
g59
NtRp4175
(dp4176
g62
(dp4177
g70
I3
ssg71
g4171
sg64
(lp4178
S''
asbasbasbag57
(g73
g59
NtRp4179
(dp4180
g62
(dp4181
sg71
g4035
sg64
(lp4182
g57
(g78
g59
NtRp4183
(dp4184
g62
(dp4185
g82
g83
ssg71
g4179
sg64
(lp4186
g441
asbag57
(g78
g59
NtRp4187
(dp4188
g62
(dp4189
g89
g90
ssg71
g4179
sg64
(lp4190
S':'
asbag57
(g78
g59
NtRp4191
(dp4192
g62
(dp4193
sg71
g4179
sg64
(lp4194
g57
(g58
g59
NtRp4195
(dp4196
g62
(dp4197
g70
I3
ssg71
g4191
sg64
(lp4198
S''
asbasbasbasbasbasbasbasbasbasbasbag57
(g73
g59
NtRp4199
(dp4200
g62
(dp4201
sg71
g3965
sg64
(lp4202
g57
(g78
g59
NtRp4203
(dp4204
g62
(dp4205
g82
g83
ssg71
g4199
sg64
(lp4206
S'delimiters'
p4207
asbag57
(g78
g59
NtRp4208
(dp4209
g62
(dp4210
g89
g90
ssg71
g4199
sg64
(lp4211
S':'
asbag57
(g78
g59
NtRp4212
(dp4213
g62
(dp4214
sg71
g4199
sg64
(lp4215
g57
(g58
g59
NtRp4216
(dp4217
g62
(dp4218
g70
I5
ssg71
g4212
sg64
(lp4219
g57
(g66
g59
NtRp4220
(dp4221
g62
(dp4222
g70
I4
ssg71
Nsg64
(lp4223
g57
(g73
g59
NtRp4224
(dp4225
g62
(dp4226
sg71
g4220
sg64
(lp4227
g57
(g78
g59
NtRp4228
(dp4229
g62
(dp4230
sg71
g4224
sg64
(lp4231
g57
(g58
g59
NtRp4232
(dp4233
g62
(dp4234
g70
I4
ssg71
g4228
sg64
(lp4235
S'{{'
p4236
asbasbasbag57
(g73
g59
NtRp4237
(dp4238
g62
(dp4239
sg71
g4220
sg64
(lp4240
g57
(g78
g59
NtRp4241
(dp4242
g62
(dp4243
sg71
g4237
sg64
(lp4244
g57
(g58
g59
NtRp4245
(dp4246
g62
(dp4247
g70
I4
ssg71
g4241
sg64
(lp4248
S'}}'
p4249
asbasbasbasbasbasbasbag57
(g73
g59
NtRp4250
(dp4251
g62
(dp4252
sg71
g3965
sg64
(lp4253
g57
(g78
g59
NtRp4254
(dp4255
g62
(dp4256
g82
g83
ssg71
g4250
sg64
(lp4257
S'files'
p4258
asbag57
(g78
g59
NtRp4259
(dp4260
g62
(dp4261
g89
g90
ssg71
g4250
sg64
(lp4262
S':'
asbag57
(g78
g59
NtRp4263
(dp4264
g62
(dp4265
sg71
g4250
sg64
(lp4266
g57
(g58
g59
NtRp4267
(dp4268
g62
(dp4269
g70
I5
ssg71
g4263
sg64
(lp4270
g57
(g66
g59
NtRp4271
(dp4272
g62
(dp4273
g70
I4
ssg71
Nsg64
(lp4274
sbasbasbasbag57
(g73
g59
NtRp4275
(dp4276
g62
(dp4277
sg71
g3965
sg64
(lp4278
g57
(g78
g59
NtRp4279
(dp4280
g62
(dp4281
g82
g83
ssg71
g4275
sg64
(lp4282
S'flash'
p4283
asbag57
(g78
g59
NtRp4284
(dp4285
g62
(dp4286
g89
g90
ssg71
g4275
sg64
(lp4287
S':'
asbag57
(g78
g59
NtRp4288
(dp4289
g62
(dp4290
sg71
g4275
sg64
(lp4291
g57
(g58
g59
NtRp4292
(dp4293
g62
(dp4294
g70
I5
ssg71
g4288
sg64
(lp4295
S''
asbasbasbag57
(g73
g59
NtRp4296
(dp4297
g62
(dp4298
sg71
g3965
sg64
(lp4299
g57
(g78
g59
NtRp4300
(dp4301
g62
(dp4302
g82
g83
ssg71
g4296
sg64
(lp4303
S'generic_patterns'
p4304
asbag57
(g78
g59
NtRp4305
(dp4306
g62
(dp4307
g89
g90
ssg71
g4296
sg64
(lp4308
S':'
asbag57
(g78
g59
NtRp4309
(dp4310
g62
(dp4311
sg71
g4296
sg64
(lp4312
g57
(g58
g59
NtRp4313
(dp4314
g62
(dp4315
g70
I5
ssg71
g4309
sg64
(lp4316
g57
(g66
g59
NtRp4317
(dp4318
g62
(dp4319
g70
I4
ssg71
Nsg64
(lp4320
g57
(g73
g59
NtRp4321
(dp4322
g62
(dp4323
sg71
g4317
sg64
(lp4324
g57
(g78
g59
NtRp4325
(dp4326
g62
(dp4327
sg71
g4321
sg64
(lp4328
g57
(g58
g59
NtRp4329
(dp4330
g62
(dp4331
g70
I4
ssg71
g4325
sg64
(lp4332
S'*'
asbasbasbasbasbasbasbag57
(g73
g59
NtRp4333
(dp4334
g62
(dp4335
sg71
g3965
sg64
(lp4336
g57
(g78
g59
NtRp4337
(dp4338
g62
(dp4339
g82
g83
ssg71
g4333
sg64
(lp4340
S'headers'
p4341
asbag57
(g78
g59
NtRp4342
(dp4343
g62
(dp4344
g89
g90
ssg71
g4333
sg64
(lp4345
S':'
asbag57
(g78
g59
NtRp4346
(dp4347
g62
(dp4348
sg71
g4333
sg64
(lp4349
g57
(g58
g59
NtRp4350
(dp4351
g62
(dp4352
g70
I5
ssg71
g4346
sg64
(lp4353
g57
(g66
g59
NtRp4354
(dp4355
g62
(dp4356
g70
I4
ssg71
Nsg64
(lp4357
g57
(g73
g59
NtRp4358
(dp4359
g62
(dp4360
sg71
g4354
sg64
(lp4361
g57
(g78
g59
NtRp4362
(dp4363
g62
(dp4364
g82
g83
ssg71
g4358
sg64
(lp4365
S'X-Powered-By'
p4366
asbag57
(g78
g59
NtRp4367
(dp4368
g62
(dp4369
g89
g90
ssg71
g4358
sg64
(lp4370
S':'
asbag57
(g78
g59
NtRp4371
(dp4372
g62
(dp4373
sg71
g4358
sg64
(lp4374
g57
(g58
g59
NtRp4375
(dp4376
g62
(dp4377
g70
I4
ssg71
g4371
sg64
(lp4378
S'web2py'
p4379
asbasbasbasbasbasbasbag57
(g73
g59
NtRp4380
(dp4381
g62
(dp4382
sg71
g3965
sg64
(lp4383
g57
(g78
g59
NtRp4384
(dp4385
g62
(dp4386
g82
g83
ssg71
g4380
sg64
(lp4387
S'menu'
p4388
asbag57
(g78
g59
NtRp4389
(dp4390
g62
(dp4391
g89
g90
ssg71
g4380
sg64
(lp4392
S':'
asbag57
(g78
g59
NtRp4393
(dp4394
g62
(dp4395
sg71
g4380
sg64
(lp4396
g57
(g58
g59
NtRp4397
(dp4398
g62
(dp4399
g70
I5
ssg71
g4393
sg64
(lp4400
g57
(g66
g59
NtRp4401
(dp4402
g62
(dp4403
g70
I4
ssg71
Nsg64
(lp4404
sbasbasbasbag57
(g73
g59
NtRp4405
(dp4406
g62
(dp4407
sg71
g3965
sg64
(lp4408
g57
(g78
g59
NtRp4409
(dp4410
g62
(dp4411
g82
g83
ssg71
g4405
sg64
(lp4412
S'meta'
p4413
asbag57
(g78
g59
NtRp4414
(dp4415
g62
(dp4416
g89
g90
ssg71
g4405
sg64
(lp4417
S':'
asbag57
(g78
g59
NtRp4418
(dp4419
g62
(dp4420
sg71
g4405
sg64
(lp4421
g57
(g58
g59
NtRp4422
(dp4423
g62
(dp4424
g70
I5
ssg71
g4418
sg64
(lp4425
g57
(g66
g59
NtRp4426
(dp4427
g62
(dp4428
g70
I4
ssg71
Nsg64
(lp4429
sbasbasbasbag57
(g73
g59
NtRp4430
(dp4431
g62
(dp4432
sg71
g3965
sg64
(lp4433
g57
(g78
g59
NtRp4434
(dp4435
g62
(dp4436
g82
g83
ssg71
g4430
sg64
(lp4437
S'models_to_run'
p4438
asbag57
(g78
g59
NtRp4439
(dp4440
g62
(dp4441
g89
g90
ssg71
g4430
sg64
(lp4442
S':'
asbag57
(g78
g59
NtRp4443
(dp4444
g62
(dp4445
sg71
g4430
sg64
(lp4446
g57
(g58
g59
NtRp4447
(dp4448
g62
(dp4449
g70
I5
ssg71
g4443
sg64
(lp4450
g57
(g66
g59
NtRp4451
(dp4452
g62
(dp4453
g70
I4
ssg71
Nsg64
(lp4454
g57
(g73
g59
NtRp4455
(dp4456
g62
(dp4457
sg71
g4451
sg64
(lp4458
g57
(g78
g59
NtRp4459
(dp4460
g62
(dp4461
sg71
g4455
sg64
(lp4462
g57
(g58
g59
NtRp4463
(dp4464
g62
(dp4465
g70
I4
ssg71
g4459
sg64
(lp4466
S'^\\w+\\.py$'
p4467
asbasbasbag57
(g73
g59
NtRp4468
(dp4469
g62
(dp4470
sg71
g4451
sg64
(lp4471
g57
(g78
g59
NtRp4472
(dp4473
g62
(dp4474
sg71
g4468
sg64
(lp4475
g57
(g58
g59
NtRp4476
(dp4477
g62
(dp4478
g70
I4
ssg71
g4472
sg64
(lp4479
S'^default/\\w+\\.py$'
p4480
asbasbasbag57
(g73
g59
NtRp4481
(dp4482
g62
(dp4483
sg71
g4451
sg64
(lp4484
g57
(g78
g59
NtRp4485
(dp4486
g62
(dp4487
sg71
g4481
sg64
(lp4488
g57
(g58
g59
NtRp4489
(dp4490
g62
(dp4491
g70
I4
ssg71
g4485
sg64
(lp4492
S'^default/user_homepage/\\w+\\.py$'
p4493
asbasbasbasbasbasbasbag57
(g73
g59
NtRp4494
(dp4495
g62
(dp4496
sg71
g3965
sg64
(lp4497
g57
(g78
g59
NtRp4498
(dp4499
g62
(dp4500
g82
g83
ssg71
g4494
sg64
(lp4501
S'postprocessing'
p4502
asbag57
(g78
g59
NtRp4503
(dp4504
g62
(dp4505
g89
g90
ssg71
g4494
sg64
(lp4506
S':'
asbag57
(g78
g59
NtRp4507
(dp4508
g62
(dp4509
sg71
g4494
sg64
(lp4510
g57
(g58
g59
NtRp4511
(dp4512
g62
(dp4513
g70
I5
ssg71
g4507
sg64
(lp4514
g57
(g66
g59
NtRp4515
(dp4516
g62
(dp4517
g70
I4
ssg71
Nsg64
(lp4518
sbasbasbasbag57
(g73
g59
NtRp4519
(dp4520
g62
(dp4521
sg71
g3965
sg64
(lp4522
g57
(g78
g59
NtRp4523
(dp4524
g62
(dp4525
g82
g83
ssg71
g4519
sg64
(lp4526
S'session_cookie_expires'
p4527
asbag57
(g78
g59
NtRp4528
(dp4529
g62
(dp4530
g89
g90
ssg71
g4519
sg64
(lp4531
S':'
asbag57
(g78
g59
NtRp4532
(dp4533
g62
(dp4534
sg71
g4519
sg64
(lp4535
g57
(g58
g59
NtRp4536
(dp4537
g62
(dp4538
g70
I5
ssg71
g4532
sg64
(lp4539
S'None'
p4540
asbasbasbag57
(g73
g59
NtRp4541
(dp4542
g62
(dp4543
sg71
g3965
sg64
(lp4544
g57
(g78
g59
NtRp4545
(dp4546
g62
(dp4547
g82
g83
ssg71
g4541
sg64
(lp4548
S'session_data_name'
p4549
asbag57
(g78
g59
NtRp4550
(dp4551
g62
(dp4552
g89
g90
ssg71
g4541
sg64
(lp4553
S':'
asbag57
(g78
g59
NtRp4554
(dp4555
g62
(dp4556
sg71
g4541
sg64
(lp4557
g57
(g58
g59
NtRp4558
(dp4559
g62
(dp4560
g70
I5
ssg71
g4554
sg64
(lp4561
S'session_data_assignment2'
p4562
asbasbasbag57
(g73
g59
NtRp4563
(dp4564
g62
(dp4565
sg71
g3965
sg64
(lp4566
g57
(g78
g59
NtRp4567
(dp4568
g62
(dp4569
g82
g83
ssg71
g4563
sg64
(lp4570
S'session_file'
p4571
asbag57
(g78
g59
NtRp4572
(dp4573
g62
(dp4574
g89
g90
ssg71
g4563
sg64
(lp4575
S':'
asbag57
(g78
g59
NtRp4576
(dp4577
g62
(dp4578
sg71
g4563
sg64
(lp4579
g57
(g58
g59
NtRp4580
(dp4581
g62
(dp4582
g70
I5
ssg71
g4576
sg64
(lp4583
S"<open file '/home/aditi/Desktop/web2py/applications/assignment2/sessions/127.0.0.1-bd4f2d5b-930a-4fcf-9bd3-173c1636e694', mode 'rb+' at 0xad20bd88>"
p4584
asbasbasbag57
(g73
g59
NtRp4585
(dp4586
g62
(dp4587
sg71
g3965
sg64
(lp4588
g57
(g78
g59
NtRp4589
(dp4590
g62
(dp4591
g82
g83
ssg71
g4585
sg64
(lp4592
S'session_filename'
p4593
asbag57
(g78
g59
NtRp4594
(dp4595
g62
(dp4596
g89
g90
ssg71
g4585
sg64
(lp4597
S':'
asbag57
(g78
g59
NtRp4598
(dp4599
g62
(dp4600
sg71
g4585
sg64
(lp4601
g57
(g58
g59
NtRp4602
(dp4603
g62
(dp4604
g70
I5
ssg71
g4598
sg64
(lp4605
S'/home/aditi/Desktop/web2py/applications/assignment2/sessions/127.0.0.1-bd4f2d5b-930a-4fcf-9bd3-173c1636e694'
p4606
asbasbasbag57
(g73
g59
NtRp4607
(dp4608
g62
(dp4609
sg71
g3965
sg64
(lp4610
g57
(g78
g59
NtRp4611
(dp4612
g62
(dp4613
g82
g83
ssg71
g4607
sg64
(lp4614
S'session_id'
p4615
asbag57
(g78
g59
NtRp4616
(dp4617
g62
(dp4618
g89
g90
ssg71
g4607
sg64
(lp4619
S':'
asbag57
(g78
g59
NtRp4620
(dp4621
g62
(dp4622
sg71
g4607
sg64
(lp4623
g57
(g58
g59
NtRp4624
(dp4625
g62
(dp4626
g70
I5
ssg71
g4620
sg64
(lp4627
g475
asbasbasbag57
(g73
g59
NtRp4628
(dp4629
g62
(dp4630
sg71
g3965
sg64
(lp4631
g57
(g78
g59
NtRp4632
(dp4633
g62
(dp4634
g82
g83
ssg71
g4628
sg64
(lp4635
S'session_id_name'
p4636
asbag57
(g78
g59
NtRp4637
(dp4638
g62
(dp4639
g89
g90
ssg71
g4628
sg64
(lp4640
S':'
asbag57
(g78
g59
NtRp4641
(dp4642
g62
(dp4643
sg71
g4628
sg64
(lp4644
g57
(g58
g59
NtRp4645
(dp4646
g62
(dp4647
g70
I5
ssg71
g4641
sg64
(lp4648
g4022
asbasbasbag57
(g73
g59
NtRp4649
(dp4650
g62
(dp4651
sg71
g3965
sg64
(lp4652
g57
(g78
g59
NtRp4653
(dp4654
g62
(dp4655
g82
g83
ssg71
g4649
sg64
(lp4656
S'session_locked'
p4657
asbag57
(g78
g59
NtRp4658
(dp4659
g62
(dp4660
g89
g90
ssg71
g4649
sg64
(lp4661
S':'
asbag57
(g78
g59
NtRp4662
(dp4663
g62
(dp4664
sg71
g4649
sg64
(lp4665
g57
(g58
g59
NtRp4666
(dp4667
g62
(dp4668
g70
I5
ssg71
g4662
sg64
(lp4669
g1990
asbasbasbag57
(g73
g59
NtRp4670
(dp4671
g62
(dp4672
sg71
g3965
sg64
(lp4673
g57
(g78
g59
NtRp4674
(dp4675
g62
(dp4676
g82
g83
ssg71
g4670
sg64
(lp4677
S'session_new'
p4678
asbag57
(g78
g59
NtRp4679
(dp4680
g62
(dp4681
g89
g90
ssg71
g4670
sg64
(lp4682
S':'
asbag57
(g78
g59
NtRp4683
(dp4684
g62
(dp4685
sg71
g4670
sg64
(lp4686
g57
(g58
g59
NtRp4687
(dp4688
g62
(dp4689
g70
I5
ssg71
g4683
sg64
(lp4690
g100
asbasbasbag57
(g73
g59
NtRp4691
(dp4692
g62
(dp4693
sg71
g3965
sg64
(lp4694
g57
(g78
g59
NtRp4695
(dp4696
g62
(dp4697
g82
g83
ssg71
g4691
sg64
(lp4698
S'session_storage_type'
p4699
asbag57
(g78
g59
NtRp4700
(dp4701
g62
(dp4702
g89
g90
ssg71
g4691
sg64
(lp4703
S':'
asbag57
(g78
g59
NtRp4704
(dp4705
g62
(dp4706
sg71
g4691
sg64
(lp4707
g57
(g58
g59
NtRp4708
(dp4709
g62
(dp4710
g70
I5
ssg71
g4704
sg64
(lp4711
g3454
asbasbasbag57
(g73
g59
NtRp4712
(dp4713
g62
(dp4714
sg71
g3965
sg64
(lp4715
g57
(g78
g59
NtRp4716
(dp4717
g62
(dp4718
g82
g83
ssg71
g4712
sg64
(lp4719
S'status'
p4720
asbag57
(g78
g59
NtRp4721
(dp4722
g62
(dp4723
g89
g90
ssg71
g4712
sg64
(lp4724
S':'
asbag57
(g78
g59
NtRp4725
(dp4726
g62
(dp4727
sg71
g4712
sg64
(lp4728
g57
(g58
g59
NtRp4729
(dp4730
g62
(dp4731
g70
I5
ssg71
g4725
sg64
(lp4732
S'200'
p4733
asbasbasbag57
(g73
g59
NtRp4734
(dp4735
g62
(dp4736
sg71
g3965
sg64
(lp4737
g57
(g78
g59
NtRp4738
(dp4739
g62
(dp4740
g82
g83
ssg71
g4734
sg64
(lp4741
S'view'
p4742
asbag57
(g78
g59
NtRp4743
(dp4744
g62
(dp4745
g89
g90
ssg71
g4734
sg64
(lp4746
S':'
asbag57
(g78
g59
NtRp4747
(dp4748
g62
(dp4749
sg71
g4734
sg64
(lp4750
g57
(g58
g59
NtRp4751
(dp4752
g62
(dp4753
g70
I5
ssg71
g4747
sg64
(lp4754
S'default/user_homepage.html'
p4755
asbasbasbasbasbsS'locals'
p4756
(dp4757
S'Service'
p4758
S"<class 'gluon.tools.Service'>"
p4759
sS'OBJECT'
p4760
S"<class 'gluon.html.OBJECT'>"
p4761
sS'SQLDB'
p4762
S"<class 'gluon.dal.DAL'>"
p4763
sg3504
S"<Storage {'_formkey[dislikeform[0]]': '4221e3a5-...ssion_hash': 'af754b4f9ee717a633994d1c0f0fd410'}>"
p4764
sS'LINK'
p4765
S"<class 'gluon.html.LINK'>"
p4766
sS'BR'
p4767
S"<class 'gluon.html.BR'>"
p4768
sS'local_import'
p4769
S'<function <lambda>>'
p4770
sS'OPTGROUP'
p4771
S"<class 'gluon.html.OPTGROUP'>"
p4772
sS'__package__'
p4773
S'None'
p4774
sS'PRE'
p4775
S"<class 'gluon.html.PRE'>"
p4776
sS'IS_INT_IN_RANGE'
p4777
S"<class 'gluon.validators.IS_INT_IN_RANGE'>"
p4778
sS'IS_LOWER'
p4779
S"<class 'gluon.validators.IS_LOWER'>"
p4780
sS'IS_STRONG'
p4781
S"<class 'gluon.validators.IS_STRONG'>"
p4782
sS'cache'
p4783
S'<gluon.cache.Cache object>'
p4784
sS'IS_IN_DB'
p4785
S"<class 'gluon.validators.IS_IN_DB'>"
p4786
sS'TAG'
p4787
S'<gluon.html.__TAG__ object>'
p4788
sS'SQLField'
p4789
S"<class 'gluon.dal.Field'>"
p4790
sS'mail'
p4791
S'<gluon.tools.Mail object>'
p4792
sS'BODY'
p4793
S"<class 'gluon.html.BODY'>"
p4794
sS'IS_DATE_IN_RANGE'
p4795
S"<class 'gluon.validators.IS_DATE_IN_RANGE'>"
p4796
sS'TH'
p4797
S"<class 'gluon.html.TH'>"
p4798
sS'URL'
p4799
S'<function URL>'
p4800
sS'__file__'
p4801
S"'/home/aditi/Desktop/web2py/applications/assignment2/models/db.py'"
p4802
sS'db'
p4803
S'<DAL uri="sqlite://storage.sqlite">'
p4804
sS'auth'
p4805
S'<gluon.tools.Auth object>'
p4806
sS'P'
S"<class 'gluon.html.P'>"
p4807
sS'TFOOT'
p4808
S"<class 'gluon.html.TFOOT'>"
p4809
sS'XHTML'
p4810
S"<class 'gluon.html.XHTML'>"
p4811
sS'ON'
p4812
g1990
sS'OL'
p4813
S"<class 'gluon.html.OL'>"
p4814
sS'TEXTAREA'
p4815
S"<class 'gluon.html.TEXTAREA'>"
p4816
sS'MENU'
p4817
S"<class 'gluon.html.MENU'>"
p4818
sS'LOAD'
p4819
S'<function LOAD>'
p4820
sS'CODE'
p4821
S"<class 'gluon.html.CODE'>"
p4822
sS'HTTP'
p4823
S"<class 'gluon.http.HTTP'>"
p4824
sS'HR'
p4825
S"<class 'gluon.html.HR'>"
p4826
sS'IS_DATETIME'
p4827
S"<class 'gluon.validators.IS_DATETIME'>"
p4828
sS'HEAD'
p4829
S"<class 'gluon.html.HEAD'>"
p4830
sS'LABEL'
p4831
S"<class 'gluon.html.LABEL'>"
p4832
sS'CLEANUP'
p4833
S"<class 'gluon.validators.CLEANUP'>"
p4834
sS'plugins'
p4835
S'<gluon.tools.PluginManager object>'
p4836
sS'SELECT'
p4837
S"<class 'gluon.html.SELECT'>"
p4838
sS'use_janrain'
p4839
S'<function use_janrain>'
p4840
sS'CENTER'
p4841
S"<class 'gluon.html.CENTER'>"
p4842
sS'prettydate'
p4843
S'<function prettydate>'
p4844
sS'Crud'
p4845
S"<class 'gluon.tools.Crud'>"
p4846
sS'Auth'
p4847
S"<class 'gluon.tools.Auth'>"
p4848
sS'__builtins__'
p4849
S"{'ArithmeticError': <type 'exceptions.ArithmeticError'>, 'AssertionError': <type 'exceptions.AssertionError'>, 'AttributeError': <type 'exceptions.AttributeError'>, 'BaseException': <type 'exceptions.BaseException'>, 'BufferError': <type 'exceptions.BufferError'>, 'BytesWarning': <type 'exceptions.BytesWarning'>, 'DeprecationWarning': <type 'exceptions.DeprecationWarning'>, 'EOFError': <type 'exceptions.EOFError'>, 'Ellipsis': Ellipsis, 'EnvironmentError': <type 'exceptions.EnvironmentError'>, ...}"
p4850
sS'HTML'
p4851
S"<class 'gluon.html.HTML'>"
p4852
sS'SQLFORM'
p4853
S"<class 'gluon.sqlhtml.SQLFORM'>"
p4854
sS'EM'
p4855
S"<class 'gluon.html.EM'>"
p4856
sS'redirect'
p4857
S'<function redirect>'
p4858
sS'FIELDSET'
p4859
S"<class 'gluon.html.FIELDSET'>"
p4860
sS'IS_EQUAL_TO'
p4861
S"<class 'gluon.validators.IS_EQUAL_TO'>"
p4862
sS'embed64'
p4863
S'<function embed64>'
p4864
sS'IS_LIST_OF'
p4865
S"<class 'gluon.validators.IS_LIST_OF'>"
p4866
sS'__name__'
p4867
S"'__restricted__'"
p4868
sS'EMBED'
p4869
S"<class 'gluon.html.EMBED'>"
p4870
sS'FORM'
p4871
S"<class 'gluon.html.FORM'>"
p4872
sS'H2'
p4873
S"<class 'gluon.html.H2'>"
p4874
sS'H3'
p4875
S"<class 'gluon.html.H3'>"
p4876
sS'BUTTON'
p4877
S"<class 'gluon.html.BUTTON'>"
p4878
sS'H1'
p4879
S"<class 'gluon.html.H1'>"
p4880
sS'H6'
p4881
S"<class 'gluon.html.H6'>"
p4882
sS'H4'
p4883
S"<class 'gluon.html.H4'>"
p4884
sS'H5'
p4885
S"<class 'gluon.html.H5'>"
p4886
sS'UL'
p4887
S"<class 'gluon.html.UL'>"
p4888
sS'IS_UPPER'
p4889
S"<class 'gluon.validators.IS_UPPER'>"
p4890
sS'xmlescape'
p4891
S'<function xmlescape>'
p4892
sS'IS_TIME'
p4893
S"<class 'gluon.validators.IS_TIME'>"
p4894
sS'OPTION'
p4895
S"<class 'gluon.html.OPTION'>"
p4896
sS'TITLE'
p4897
S"<class 'gluon.html.TITLE'>"
p4898
sS'CRYPT'
p4899
S"<class 'gluon.validators.CRYPT'>"
p4900
sS'IS_EMPTY_OR'
p4901
S"<class 'gluon.validators.IS_EMPTY_OR'>"
p4902
sS'MARKMIN'
p4903
S"<class 'gluon.html.MARKMIN'>"
p4904
sS'INPUT'
p4905
S"<class 'gluon.html.INPUT'>"
p4906
sS'STRONG'
p4907
S"<class 'gluon.html.STRONG'>"
p4908
sS'COL'
p4909
S"<class 'gluon.html.COL'>"
p4910
sS'service'
p4911
S'<gluon.tools.Service object>'
p4912
sS'SCRIPT'
p4913
S"<class 'gluon.html.SCRIPT'>"
p4914
sS'TABLE'
p4915
S"<class 'gluon.html.TABLE'>"
p4916
sS'IS_IPV4'
p4917
S"<class 'gluon.validators.IS_IPV4'>"
p4918
sS'IS_LENGTH'
p4919
S"<class 'gluon.validators.IS_LENGTH'>"
p4920
sS'XML'
p4921
S"<class 'gluon.html.XML'>"
p4922
sS'B'
S"<class 'gluon.html.B'>"
p4923
sS'IMG'
p4924
S"<class 'gluon.html.IMG'>"
p4925
sS'SQLTABLE'
p4926
S"<class 'gluon.sqlhtml.SQLTABLE'>"
p4927
sS'IS_MATCH'
p4928
S"<class 'gluon.validators.IS_MATCH'>"
p4929
sS'IS_ALPHANUMERIC'
p4930
S"<class 'gluon.validators.IS_ALPHANUMERIC'>"
p4931
sS'SPAN'
p4932
S"<class 'gluon.html.SPAN'>"
p4933
sS'IS_SLUG'
p4934
S"<class 'gluon.validators.IS_SLUG'>"
p4935
sS'BEAUTIFY'
p4936
S"<class 'gluon.html.BEAUTIFY'>"
p4937
sS'META'
p4938
S"<class 'gluon.html.META'>"
p4939
sS'IS_DATE'
p4940
S"<class 'gluon.validators.IS_DATE'>"
p4941
sS'IS_EMAIL'
p4942
S"<class 'gluon.validators.IS_EMAIL'>"
p4943
sS'IS_NOT_EMPTY'
p4944
S"<class 'gluon.validators.IS_NOT_EMPTY'>"
p4945
sS'IS_FLOAT_IN_RANGE'
p4946
S"<class 'gluon.validators.IS_FLOAT_IN_RANGE'>"
p4947
sS'TBODY'
p4948
S"<class 'gluon.html.TBODY'>"
p4949
sS'CAT'
p4950
S"<class 'gluon.html.CAT'>"
p4951
sS'Field'
p4952
S"<class 'gluon.dal.Field'>"
p4953
sS'DIV'
p4954
S"<class 'gluon.html.DIV'>"
p4955
sS'LEGEND'
p4956
S"<class 'gluon.html.LEGEND'>"
p4957
sS'COLGROUP'
p4958
S"<class 'gluon.html.COLGROUP'>"
p4959
sS'DAL'
p4960
S"<class 'gluon.dal.DAL'>"
p4961
sS'TT'
p4962
S"<class 'gluon.html.TT'>"
p4963
sS'TR'
p4964
S"<class 'gluon.html.TR'>"
p4965
sS'LI'
p4966
S"<class 'gluon.html.LI'>"
p4967
sS'IFRAME'
p4968
S"<class 'gluon.html.IFRAME'>"
p4969
sS'TD'
p4970
S"<class 'gluon.html.TD'>"
p4971
sS'PluginManager'
p4972
S"<class 'gluon.tools.PluginManager'>"
p4973
sS'IS_URL'
p4974
S"<class 'gluon.validators.IS_URL'>"
p4975
sS'A'
S"<class 'gluon.html.A'>"
p4976
sS'STYLE'
p4977
S"<class 'gluon.html.STYLE'>"
p4978
sS'IS_DATETIME_IN_RANGE'
p4979
S"<class 'gluon.validators.IS_DATETIME_IN_RANGE'>"
p4980
sS'IS_IMAGE'
p4981
S"<class 'gluon.validators.IS_IMAGE'>"
p4982
sS'I'
S"<class 'gluon.html.I'>"
p4983
sS'crud'
p4984
S'<gluon.tools.Crud object>'
p4985
sS'IS_NOT_IN_DB'
p4986
S"<class 'gluon.validators.IS_NOT_IN_DB'>"
p4987
sg3960
S"<Storage {'body': <cStringIO.StringO object at 0...ad0865a4>, 'view': 'default/user_homepage.html'}>"
p4988
sS'THEAD'
p4989
S"<class 'gluon.html.THEAD'>"
p4990
sS'IS_NULL_OR'
p4991
S"<class 'gluon.validators.IS_EMPTY_OR'>"
p4992
sg56
S"<Storage {'function': 'user_homepage', 'body': <...ations/assignment2/', 'post_vars': <Storage {}>}>"
p4993
sS'IS_EXPR'
p4994
S"<class 'gluon.validators.IS_EXPR'>"
p4995
sS'IS_IN_SET'
p4996
S"<class 'gluon.validators.IS_IN_SET'>"
p4997
sS'IS_UPLOAD_FILENAME'
p4998
S"<class 'gluon.validators.IS_UPLOAD_FILENAME'>"
p4999
sS'IS_DECIMAL_IN_RANGE'
p5000
S"<class 'gluon.validators.IS_DECIMAL_IN_RANGE'>"
p5001
sS'T'
S'<gluon.languages.translator object>'
p5002
sssS'traceback'
p5003
S'Traceback (most recent call last):\n  File "/home/aditi/Desktop/web2py/gluon/restricted.py", line 212, in restricted\n    exec ccode in environment\n  File "/home/aditi/Desktop/web2py/applications/assignment2/models/db.py", line 100, in <module>\n    Field(\'dt\',\'datetime\',default=request.now()))\nTypeError: \'datetime.datetime\' object is not callable\n'
p5004
s.