(dp1
S'output'
p2
S"<type 'exceptions.UnboundLocalError'> local variable 'total' referenced before assignment"
p3
sS'layer'
p4
S'/home/aditi/Desktop/web2py/applications/assignment2/controllers/default.py'
p5
sS'code'
p6
S'# -*- coding: utf-8 -*-\n# this file is released under public domain and you can use without limitations\n\n#########################################################################\n## This is a samples controller\n## - index is the default action of any application\n## - user is required for authentication and authorization\n## - download is for downloading files uploaded in the db (does streaming)\n## - call exposes all registered services (none by default)\n#########################################################################\n\ntotal=0\n@auth.requires_login()\ndef index():\n    """\n    example action using the internationalization operator T and flash\n    rendered by views/default/index.html or views/generic.html\n\n    if you need a simple wiki simple replace the two lines below with:\n    return auth.wiki()\n    """\n    a=auth.user.id\n    b=db(db.auth_user.id==a).select(db.auth_user.username,db.auth_user.account_type)\n    if b[0][\'account_type\']==\'user\':\n        redirect(URL(r=request,f=\'user_homepage\'))\n    elif b[0][\'account_type\']==\'admin\':\n        redirect(URL(r=request,f=\'intermediate\'))\n    else:\n        response.flash="You may not be having an account"\n    return locals()\n\ndef user_homepage():\n    a=auth.user.id\n    f=db(db.auth_user.id==a).select(db.auth_user.first_name)\n    l=db(db.auth_user.id==a).select(db.auth_user.last_name)\n    c=db().select(db.category.name)\n    form=SQLFORM.factory(db.Field(\'category\',\'string\',requires=IS_IN_SET([c[0][\'name\']]),label=\'Enter category\'),\n                        Field(\'heading\',\'string\',label=\'Enter heading\'),\n                        Field(\'choice\',\'string\',requires=IS_IN_SET([\'article\',\'video\'])),\n                        Field(\'url\',\'string\',requires=IS_URL(),label=\'Enter URL\'))\n    if(form.accepts(request.vars,session)):\n        db.newsitem.insert(category=form.vars.category,heading=form.vars.heading,url=form.vars.url,points=100,likes=0,dislikes=0,rating=1)\n        total+=1\n        response.flash=\'News item successfully added\'\n    n=db().select(db.newsitem.ALL)\n    return locals()\n\ndef intermediate():\n    form=SQLFORM.factory(db.Field(\'key\',\'password\',readable=False))\n    if(form.accepts(request.vars,session)):\n        if form.vars.key==\'ab%k20*(kd12$\':\n            redirect(URL(r=request,f=\'admin_homepage\'))\n        else:\n            response.flash="Wrong key entered."\n    return locals()\n\ndef admin_homepage():\n    a=auth.user.id\n    count=0\n    f=db(db.auth_user.id==a).select(db.auth_user.first_name)\n    l=db(db.auth_user.id==a).select(db.auth_user.last_name)\n    form1=SQLFORM.factory(db.Field(\'category\',\'string\',label=\'Enter category\'))\n    if(form1.accepts(request.vars,session)):\n        db.category.insert(name=form1.vars.category)\n        response.flash=\'New category successfully added.\'\n    n=db().select(db.newsitem.ALL)\n    c=db().select(db.category.name)\n    form2=[]\n    for i in range(len(c)):\n        for j in range(total):\n             if n[j][\'category\']==c[i][\'name\']:\n                  form2.append(SQLFORM.factory(submit_button="Delete post"))\n                  if form2[count].process(formname=\'form2[%d]\'%count).accepted:\n                      db(db.newsitem.heading==n[j][\'heading\'] & db.newsitem.url==n[j][\'url\']).delete()\n                      redirect(URL(r=request,f=\'admin_homepage\'))\n                  count+=1\n    return locals()\n\ndef user():\n    """\n    exposes:\n    http://..../[app]/default/user/login\n    http://..../[app]/default/user/logout\n    http://..../[app]/default/user/register\n    http://..../[app]/default/user/profile\n    http://..../[app]/default/user/retrieve_password\n    http://..../[app]/default/user/change_password\n    use @auth.requires_login()\n        @auth.requires_membership(\'group name\')\n        @auth.requires_permission(\'read\',\'table name\',record_id)\n    to decorate functions that need access control\n    """\n    return dict(form=auth())\n\n\ndef download():\n    """\n    allows downloading of uploaded files\n    http://..../[app]/default/download/[filename]\n    """\n    return response.download(request, db)\n\n\ndef call():\n    """\n    exposes services. for example:\n    http://..../[app]/default/call/jsonrpc\n    decorate with @services.jsonrpc the functions to expose\n    supports xml, json, xmlrpc, jsonrpc, amfrpc, rss, csv\n    """\n    return service()\n\n\n@auth.requires_signature()\ndef data():\n    """\n    http://..../[app]/default/data/tables\n    http://..../[app]/default/data/create/[table]\n    http://..../[app]/default/data/read/[table]/[id]\n    http://..../[app]/default/data/update/[table]/[id]\n    http://..../[app]/default/data/delete/[table]/[id]\n    http://..../[app]/default/data/select/[table]\n    http://..../[app]/default/data/search/[table]\n    but URLs must be signed, i.e. linked with\n      A(\'table\',_href=URL(\'data/tables\',user_signature=True))\n    or with the signed load operator\n      LOAD(\'default\',\'data.load\',args=\'tables\',ajax=True,user_signature=True)\n    """\n    return dict(form=crud())\n\nresponse._vars=response._caller(user_homepage)\n'
p7
sS'snapshot'
p8
(dp9
S'exception'
p10
(dp11
S'__hash__'
p12
S"<method-wrapper '__hash__' of exceptions.UnboundLocalError object>"
p13
sS'__setattr__'
p14
S"<method-wrapper '__setattr__' of exceptions.UnboundLocalError object>"
p15
sS'__reduce_ex__'
p16
S'<built-in method __reduce_ex__ of exceptions.UnboundLocalError object>'
p17
sS'__getslice__'
p18
S"<method-wrapper '__getslice__' of exceptions.UnboundLocalError object>"
p19
sS'__getitem__'
p20
S"<method-wrapper '__getitem__' of exceptions.UnboundLocalError object>"
p21
sS'__setstate__'
p22
S'<built-in method __setstate__ of exceptions.UnboundLocalError object>'
p23
sS'__reduce__'
p24
S'<built-in method __reduce__ of exceptions.UnboundLocalError object>'
p25
sS'__str__'
p26
S"<method-wrapper '__str__' of exceptions.UnboundLocalError object>"
p27
sS'__format__'
p28
S'<built-in method __format__ of exceptions.UnboundLocalError object>'
p29
sS'__getattribute__'
p30
S"<method-wrapper '__getattribute__' of exceptions.UnboundLocalError object>"
p31
sS'__class__'
p32
S"<type 'exceptions.UnboundLocalError'>"
p33
sS'__unicode__'
p34
S'<built-in method __unicode__ of exceptions.UnboundLocalError object>'
p35
sS'__delattr__'
p36
S"<method-wrapper '__delattr__' of exceptions.UnboundLocalError object>"
p37
sS'__subclasshook__'
p38
S'<built-in method __subclasshook__ of type object>'
p39
sS'__repr__'
p40
S"<method-wrapper '__repr__' of exceptions.UnboundLocalError object>"
p41
sS'args'
p42
S'("local variable \'total\' referenced before assignment",)'
p43
sS'__dict__'
p44
S'{}'
p45
sS'__sizeof__'
p46
S'<built-in method __sizeof__ of exceptions.UnboundLocalError object>'
p47
sS'__doc__'
p48
S"'Local name referenced but not bound to a value.'"
p49
sS'__init__'
p50
S"<method-wrapper '__init__' of exceptions.UnboundLocalError object>"
p51
sS'__new__'
p52
S'<built-in method __new__ of type object>'
p53
ssS'evalue'
p54
S"local variable 'total' referenced before assignment"
p55
sS'request'
p56
ccopy_reg
_reconstructor
p57
(cgluon.html
BEAUTIFY
p58
c__builtin__
object
p59
NtRp60
(dp61
S'attributes'
p62
(dp63
sS'components'
p64
(lp65
g57
(cgluon.html
TABLE
p66
g59
NtRp67
(dp68
g62
(dp69
S'level'
p70
I5
ssS'parent'
p71
Nsg64
(lp72
g57
(cgluon.html
TR
p73
g59
NtRp74
(dp75
g62
(dp76
sg71
g67
sg64
(lp77
g57
(cgluon.html
TD
p78
g59
NtRp79
(dp80
g62
(dp81
S'_style'
p82
S'font-weight:bold;vertical-align:top'
p83
ssg71
g74
sg64
(lp84
S'ajax'
p85
asbag57
(g78
g59
NtRp86
(dp87
g62
(dp88
S'_valign'
p89
S'top'
p90
ssg71
g74
sg64
(lp91
S':'
asbag57
(g78
g59
NtRp92
(dp93
g62
(dp94
sg71
g74
sg64
(lp95
g57
(g58
g59
NtRp96
(dp97
g62
(dp98
g70
I5
ssg71
g92
sg64
(lp99
S'False'
p100
asbasbasbag57
(g73
g59
NtRp101
(dp102
g62
(dp103
sg71
g67
sg64
(lp104
g57
(g78
g59
NtRp105
(dp106
g62
(dp107
g82
g83
ssg71
g101
sg64
(lp108
S'application'
p109
asbag57
(g78
g59
NtRp110
(dp111
g62
(dp112
g89
g90
ssg71
g101
sg64
(lp113
S':'
asbag57
(g78
g59
NtRp114
(dp115
g62
(dp116
sg71
g101
sg64
(lp117
g57
(g58
g59
NtRp118
(dp119
g62
(dp120
g70
I5
ssg71
g114
sg64
(lp121
S'assignment2'
p122
asbasbasbag57
(g73
g59
NtRp123
(dp124
g62
(dp125
sg71
g67
sg64
(lp126
g57
(g78
g59
NtRp127
(dp128
g62
(dp129
g82
g83
ssg71
g123
sg64
(lp130
g42
asbag57
(g78
g59
NtRp131
(dp132
g62
(dp133
g89
g90
ssg71
g123
sg64
(lp134
S':'
asbag57
(g78
g59
NtRp135
(dp136
g62
(dp137
sg71
g123
sg64
(lp138
g57
(g58
g59
NtRp139
(dp140
g62
(dp141
g70
I5
ssg71
g135
sg64
(lp142
g57
(g66
g59
NtRp143
(dp144
g62
(dp145
g70
I4
ssg71
Nsg64
(lp146
sbasbasbasbag57
(g73
g59
NtRp147
(dp148
g62
(dp149
sg71
g67
sg64
(lp150
g57
(g78
g59
NtRp151
(dp152
g62
(dp153
g82
g83
ssg71
g147
sg64
(lp154
S'body'
p155
asbag57
(g78
g59
NtRp156
(dp157
g62
(dp158
g89
g90
ssg71
g147
sg64
(lp159
S':'
asbag57
(g78
g59
NtRp160
(dp161
g62
(dp162
sg71
g147
sg64
(lp163
g57
(g58
g59
NtRp164
(dp165
g62
(dp166
g70
I5
ssg71
g160
sg64
(lp167
S"<open file '<fdopen>', mode 'w+b' at 0xac41f968>"
p168
asbasbasbag57
(g73
g59
NtRp169
(dp170
g62
(dp171
sg71
g67
sg64
(lp172
g57
(g78
g59
NtRp173
(dp174
g62
(dp175
g82
g83
ssg71
g169
sg64
(lp176
S'cid'
p177
asbag57
(g78
g59
NtRp178
(dp179
g62
(dp180
g89
g90
ssg71
g169
sg64
(lp181
S':'
asbag57
(g78
g59
NtRp182
(dp183
g62
(dp184
sg71
g169
sg64
(lp185
g57
(g58
g59
NtRp186
(dp187
g62
(dp188
g70
I5
ssg71
g182
sg64
(lp189
S'None'
p190
asbasbasbag57
(g73
g59
NtRp191
(dp192
g62
(dp193
sg71
g67
sg64
(lp194
g57
(g78
g59
NtRp195
(dp196
g62
(dp197
g82
g83
ssg71
g191
sg64
(lp198
S'client'
p199
asbag57
(g78
g59
NtRp200
(dp201
g62
(dp202
g89
g90
ssg71
g191
sg64
(lp203
S':'
asbag57
(g78
g59
NtRp204
(dp205
g62
(dp206
sg71
g191
sg64
(lp207
g57
(g58
g59
NtRp208
(dp209
g62
(dp210
g70
I5
ssg71
g204
sg64
(lp211
S'127.0.0.1'
p212
asbasbasbag57
(g73
g59
NtRp213
(dp214
g62
(dp215
sg71
g67
sg64
(lp216
g57
(g78
g59
NtRp217
(dp218
g62
(dp219
g82
g83
ssg71
g213
sg64
(lp220
S'controller'
p221
asbag57
(g78
g59
NtRp222
(dp223
g62
(dp224
g89
g90
ssg71
g213
sg64
(lp225
S':'
asbag57
(g78
g59
NtRp226
(dp227
g62
(dp228
sg71
g213
sg64
(lp229
g57
(g58
g59
NtRp230
(dp231
g62
(dp232
g70
I5
ssg71
g226
sg64
(lp233
S'default'
p234
asbasbasbag57
(g73
g59
NtRp235
(dp236
g62
(dp237
sg71
g67
sg64
(lp238
g57
(g78
g59
NtRp239
(dp240
g62
(dp241
g82
g83
ssg71
g235
sg64
(lp242
S'cookies'
p243
asbag57
(g78
g59
NtRp244
(dp245
g62
(dp246
g89
g90
ssg71
g235
sg64
(lp247
S':'
asbag57
(g78
g59
NtRp248
(dp249
g62
(dp250
sg71
g235
sg64
(lp251
g57
(g58
g59
NtRp252
(dp253
g62
(dp254
g70
I5
ssg71
g248
sg64
(lp255
g57
(g66
g59
NtRp256
(dp257
g62
(dp258
g70
I4
ssg71
Nsg64
(lp259
g57
(g73
g59
NtRp260
(dp261
g62
(dp262
sg71
g256
sg64
(lp263
g57
(g78
g59
NtRp264
(dp265
g62
(dp266
g82
g83
ssg71
g260
sg64
(lp267
S'session_id_admin'
p268
asbag57
(g78
g59
NtRp269
(dp270
g62
(dp271
g89
g90
ssg71
g260
sg64
(lp272
S':'
asbag57
(g78
g59
NtRp273
(dp274
g62
(dp275
sg71
g260
sg64
(lp276
g57
(g58
g59
NtRp277
(dp278
g62
(dp279
g70
I4
ssg71
g273
sg64
(lp280
S'127.0.0.1-9c0e4d2d-c8df-42da-a1dd-3cd897b96f95'
p281
ag57
(g66
g59
NtRp282
(dp283
g62
(dp284
g70
I3
ssg71
Nsg64
(lp285
g57
(g73
g59
NtRp286
(dp287
g62
(dp288
sg71
g282
sg64
(lp289
g57
(g78
g59
NtRp290
(dp291
g62
(dp292
g82
g83
ssg71
g286
sg64
(lp293
S'comment'
p294
asbag57
(g78
g59
NtRp295
(dp296
g62
(dp297
g89
g90
ssg71
g286
sg64
(lp298
S':'
asbag57
(g78
g59
NtRp299
(dp300
g62
(dp301
sg71
g286
sg64
(lp302
g57
(g58
g59
NtRp303
(dp304
g62
(dp305
g70
I3
ssg71
g299
sg64
(lp306
S''
asbasbasbag57
(g73
g59
NtRp307
(dp308
g62
(dp309
sg71
g282
sg64
(lp310
g57
(g78
g59
NtRp311
(dp312
g62
(dp313
g82
g83
ssg71
g307
sg64
(lp314
S'domain'
p315
asbag57
(g78
g59
NtRp316
(dp317
g62
(dp318
g89
g90
ssg71
g307
sg64
(lp319
S':'
asbag57
(g78
g59
NtRp320
(dp321
g62
(dp322
sg71
g307
sg64
(lp323
g57
(g58
g59
NtRp324
(dp325
g62
(dp326
g70
I3
ssg71
g320
sg64
(lp327
S''
asbasbasbag57
(g73
g59
NtRp328
(dp329
g62
(dp330
sg71
g282
sg64
(lp331
g57
(g78
g59
NtRp332
(dp333
g62
(dp334
g82
g83
ssg71
g328
sg64
(lp335
S'expires'
p336
asbag57
(g78
g59
NtRp337
(dp338
g62
(dp339
g89
g90
ssg71
g328
sg64
(lp340
S':'
asbag57
(g78
g59
NtRp341
(dp342
g62
(dp343
sg71
g328
sg64
(lp344
g57
(g58
g59
NtRp345
(dp346
g62
(dp347
g70
I3
ssg71
g341
sg64
(lp348
S''
asbasbasbag57
(g73
g59
NtRp349
(dp350
g62
(dp351
sg71
g282
sg64
(lp352
g57
(g78
g59
NtRp353
(dp354
g62
(dp355
g82
g83
ssg71
g349
sg64
(lp356
S'httponly'
p357
asbag57
(g78
g59
NtRp358
(dp359
g62
(dp360
g89
g90
ssg71
g349
sg64
(lp361
S':'
asbag57
(g78
g59
NtRp362
(dp363
g62
(dp364
sg71
g349
sg64
(lp365
g57
(g58
g59
NtRp366
(dp367
g62
(dp368
g70
I3
ssg71
g362
sg64
(lp369
S''
asbasbasbag57
(g73
g59
NtRp370
(dp371
g62
(dp372
sg71
g282
sg64
(lp373
g57
(g78
g59
NtRp374
(dp375
g62
(dp376
g82
g83
ssg71
g370
sg64
(lp377
S'max-age'
p378
asbag57
(g78
g59
NtRp379
(dp380
g62
(dp381
g89
g90
ssg71
g370
sg64
(lp382
S':'
asbag57
(g78
g59
NtRp383
(dp384
g62
(dp385
sg71
g370
sg64
(lp386
g57
(g58
g59
NtRp387
(dp388
g62
(dp389
g70
I3
ssg71
g383
sg64
(lp390
S''
asbasbasbag57
(g73
g59
NtRp391
(dp392
g62
(dp393
sg71
g282
sg64
(lp394
g57
(g78
g59
NtRp395
(dp396
g62
(dp397
g82
g83
ssg71
g391
sg64
(lp398
S'path'
p399
asbag57
(g78
g59
NtRp400
(dp401
g62
(dp402
g89
g90
ssg71
g391
sg64
(lp403
S':'
asbag57
(g78
g59
NtRp404
(dp405
g62
(dp406
sg71
g391
sg64
(lp407
g57
(g58
g59
NtRp408
(dp409
g62
(dp410
g70
I3
ssg71
g404
sg64
(lp411
S''
asbasbasbag57
(g73
g59
NtRp412
(dp413
g62
(dp414
sg71
g282
sg64
(lp415
g57
(g78
g59
NtRp416
(dp417
g62
(dp418
g82
g83
ssg71
g412
sg64
(lp419
S'secure'
p420
asbag57
(g78
g59
NtRp421
(dp422
g62
(dp423
g89
g90
ssg71
g412
sg64
(lp424
S':'
asbag57
(g78
g59
NtRp425
(dp426
g62
(dp427
sg71
g412
sg64
(lp428
g57
(g58
g59
NtRp429
(dp430
g62
(dp431
g70
I3
ssg71
g425
sg64
(lp432
S''
asbasbasbag57
(g73
g59
NtRp433
(dp434
g62
(dp435
sg71
g282
sg64
(lp436
g57
(g78
g59
NtRp437
(dp438
g62
(dp439
g82
g83
ssg71
g433
sg64
(lp440
S'version'
p441
asbag57
(g78
g59
NtRp442
(dp443
g62
(dp444
g89
g90
ssg71
g433
sg64
(lp445
S':'
asbag57
(g78
g59
NtRp446
(dp447
g62
(dp448
sg71
g433
sg64
(lp449
g57
(g58
g59
NtRp450
(dp451
g62
(dp452
g70
I3
ssg71
g446
sg64
(lp453
S''
asbasbasbasbasbasbasbag57
(g73
g59
NtRp454
(dp455
g62
(dp456
sg71
g256
sg64
(lp457
g57
(g78
g59
NtRp458
(dp459
g62
(dp460
g82
g83
ssg71
g454
sg64
(lp461
S'session_id_assignment2'
p462
asbag57
(g78
g59
NtRp463
(dp464
g62
(dp465
g89
g90
ssg71
g454
sg64
(lp466
S':'
asbag57
(g78
g59
NtRp467
(dp468
g62
(dp469
sg71
g454
sg64
(lp470
g57
(g58
g59
NtRp471
(dp472
g62
(dp473
g70
I4
ssg71
g467
sg64
(lp474
S'127.0.0.1-df3317b1-fbdf-40a6-bfa1-0af1b15533cc'
p475
ag57
(g66
g59
NtRp476
(dp477
g62
(dp478
g70
I3
ssg71
Nsg64
(lp479
g57
(g73
g59
NtRp480
(dp481
g62
(dp482
sg71
g476
sg64
(lp483
g57
(g78
g59
NtRp484
(dp485
g62
(dp486
g82
g83
ssg71
g480
sg64
(lp487
g294
asbag57
(g78
g59
NtRp488
(dp489
g62
(dp490
g89
g90
ssg71
g480
sg64
(lp491
S':'
asbag57
(g78
g59
NtRp492
(dp493
g62
(dp494
sg71
g480
sg64
(lp495
g57
(g58
g59
NtRp496
(dp497
g62
(dp498
g70
I3
ssg71
g492
sg64
(lp499
S''
asbasbasbag57
(g73
g59
NtRp500
(dp501
g62
(dp502
sg71
g476
sg64
(lp503
g57
(g78
g59
NtRp504
(dp505
g62
(dp506
g82
g83
ssg71
g500
sg64
(lp507
g315
asbag57
(g78
g59
NtRp508
(dp509
g62
(dp510
g89
g90
ssg71
g500
sg64
(lp511
S':'
asbag57
(g78
g59
NtRp512
(dp513
g62
(dp514
sg71
g500
sg64
(lp515
g57
(g58
g59
NtRp516
(dp517
g62
(dp518
g70
I3
ssg71
g512
sg64
(lp519
S''
asbasbasbag57
(g73
g59
NtRp520
(dp521
g62
(dp522
sg71
g476
sg64
(lp523
g57
(g78
g59
NtRp524
(dp525
g62
(dp526
g82
g83
ssg71
g520
sg64
(lp527
g336
asbag57
(g78
g59
NtRp528
(dp529
g62
(dp530
g89
g90
ssg71
g520
sg64
(lp531
S':'
asbag57
(g78
g59
NtRp532
(dp533
g62
(dp534
sg71
g520
sg64
(lp535
g57
(g58
g59
NtRp536
(dp537
g62
(dp538
g70
I3
ssg71
g532
sg64
(lp539
S''
asbasbasbag57
(g73
g59
NtRp540
(dp541
g62
(dp542
sg71
g476
sg64
(lp543
g57
(g78
g59
NtRp544
(dp545
g62
(dp546
g82
g83
ssg71
g540
sg64
(lp547
g357
asbag57
(g78
g59
NtRp548
(dp549
g62
(dp550
g89
g90
ssg71
g540
sg64
(lp551
S':'
asbag57
(g78
g59
NtRp552
(dp553
g62
(dp554
sg71
g540
sg64
(lp555
g57
(g58
g59
NtRp556
(dp557
g62
(dp558
g70
I3
ssg71
g552
sg64
(lp559
S''
asbasbasbag57
(g73
g59
NtRp560
(dp561
g62
(dp562
sg71
g476
sg64
(lp563
g57
(g78
g59
NtRp564
(dp565
g62
(dp566
g82
g83
ssg71
g560
sg64
(lp567
g378
asbag57
(g78
g59
NtRp568
(dp569
g62
(dp570
g89
g90
ssg71
g560
sg64
(lp571
S':'
asbag57
(g78
g59
NtRp572
(dp573
g62
(dp574
sg71
g560
sg64
(lp575
g57
(g58
g59
NtRp576
(dp577
g62
(dp578
g70
I3
ssg71
g572
sg64
(lp579
S''
asbasbasbag57
(g73
g59
NtRp580
(dp581
g62
(dp582
sg71
g476
sg64
(lp583
g57
(g78
g59
NtRp584
(dp585
g62
(dp586
g82
g83
ssg71
g580
sg64
(lp587
g399
asbag57
(g78
g59
NtRp588
(dp589
g62
(dp590
g89
g90
ssg71
g580
sg64
(lp591
S':'
asbag57
(g78
g59
NtRp592
(dp593
g62
(dp594
sg71
g580
sg64
(lp595
g57
(g58
g59
NtRp596
(dp597
g62
(dp598
g70
I3
ssg71
g592
sg64
(lp599
S''
asbasbasbag57
(g73
g59
NtRp600
(dp601
g62
(dp602
sg71
g476
sg64
(lp603
g57
(g78
g59
NtRp604
(dp605
g62
(dp606
g82
g83
ssg71
g600
sg64
(lp607
g420
asbag57
(g78
g59
NtRp608
(dp609
g62
(dp610
g89
g90
ssg71
g600
sg64
(lp611
S':'
asbag57
(g78
g59
NtRp612
(dp613
g62
(dp614
sg71
g600
sg64
(lp615
g57
(g58
g59
NtRp616
(dp617
g62
(dp618
g70
I3
ssg71
g612
sg64
(lp619
S''
asbasbasbag57
(g73
g59
NtRp620
(dp621
g62
(dp622
sg71
g476
sg64
(lp623
g57
(g78
g59
NtRp624
(dp625
g62
(dp626
g82
g83
ssg71
g620
sg64
(lp627
g441
asbag57
(g78
g59
NtRp628
(dp629
g62
(dp630
g89
g90
ssg71
g620
sg64
(lp631
S':'
asbag57
(g78
g59
NtRp632
(dp633
g62
(dp634
sg71
g620
sg64
(lp635
g57
(g58
g59
NtRp636
(dp637
g62
(dp638
g70
I3
ssg71
g632
sg64
(lp639
S''
asbasbasbasbasbasbasbag57
(g73
g59
NtRp640
(dp641
g62
(dp642
sg71
g256
sg64
(lp643
g57
(g78
g59
NtRp644
(dp645
g62
(dp646
g82
g83
ssg71
g640
sg64
(lp647
S'session_id_welcome'
p648
asbag57
(g78
g59
NtRp649
(dp650
g62
(dp651
g89
g90
ssg71
g640
sg64
(lp652
S':'
asbag57
(g78
g59
NtRp653
(dp654
g62
(dp655
sg71
g640
sg64
(lp656
g57
(g58
g59
NtRp657
(dp658
g62
(dp659
g70
I4
ssg71
g653
sg64
(lp660
S'127.0.0.1-6aa11d39-ce3f-4f8c-b6ea-9cd6a4750daa'
p661
ag57
(g66
g59
NtRp662
(dp663
g62
(dp664
g70
I3
ssg71
Nsg64
(lp665
g57
(g73
g59
NtRp666
(dp667
g62
(dp668
sg71
g662
sg64
(lp669
g57
(g78
g59
NtRp670
(dp671
g62
(dp672
g82
g83
ssg71
g666
sg64
(lp673
g294
asbag57
(g78
g59
NtRp674
(dp675
g62
(dp676
g89
g90
ssg71
g666
sg64
(lp677
S':'
asbag57
(g78
g59
NtRp678
(dp679
g62
(dp680
sg71
g666
sg64
(lp681
g57
(g58
g59
NtRp682
(dp683
g62
(dp684
g70
I3
ssg71
g678
sg64
(lp685
S''
asbasbasbag57
(g73
g59
NtRp686
(dp687
g62
(dp688
sg71
g662
sg64
(lp689
g57
(g78
g59
NtRp690
(dp691
g62
(dp692
g82
g83
ssg71
g686
sg64
(lp693
g315
asbag57
(g78
g59
NtRp694
(dp695
g62
(dp696
g89
g90
ssg71
g686
sg64
(lp697
S':'
asbag57
(g78
g59
NtRp698
(dp699
g62
(dp700
sg71
g686
sg64
(lp701
g57
(g58
g59
NtRp702
(dp703
g62
(dp704
g70
I3
ssg71
g698
sg64
(lp705
S''
asbasbasbag57
(g73
g59
NtRp706
(dp707
g62
(dp708
sg71
g662
sg64
(lp709
g57
(g78
g59
NtRp710
(dp711
g62
(dp712
g82
g83
ssg71
g706
sg64
(lp713
g336
asbag57
(g78
g59
NtRp714
(dp715
g62
(dp716
g89
g90
ssg71
g706
sg64
(lp717
S':'
asbag57
(g78
g59
NtRp718
(dp719
g62
(dp720
sg71
g706
sg64
(lp721
g57
(g58
g59
NtRp722
(dp723
g62
(dp724
g70
I3
ssg71
g718
sg64
(lp725
S''
asbasbasbag57
(g73
g59
NtRp726
(dp727
g62
(dp728
sg71
g662
sg64
(lp729
g57
(g78
g59
NtRp730
(dp731
g62
(dp732
g82
g83
ssg71
g726
sg64
(lp733
g357
asbag57
(g78
g59
NtRp734
(dp735
g62
(dp736
g89
g90
ssg71
g726
sg64
(lp737
S':'
asbag57
(g78
g59
NtRp738
(dp739
g62
(dp740
sg71
g726
sg64
(lp741
g57
(g58
g59
NtRp742
(dp743
g62
(dp744
g70
I3
ssg71
g738
sg64
(lp745
S''
asbasbasbag57
(g73
g59
NtRp746
(dp747
g62
(dp748
sg71
g662
sg64
(lp749
g57
(g78
g59
NtRp750
(dp751
g62
(dp752
g82
g83
ssg71
g746
sg64
(lp753
g378
asbag57
(g78
g59
NtRp754
(dp755
g62
(dp756
g89
g90
ssg71
g746
sg64
(lp757
S':'
asbag57
(g78
g59
NtRp758
(dp759
g62
(dp760
sg71
g746
sg64
(lp761
g57
(g58
g59
NtRp762
(dp763
g62
(dp764
g70
I3
ssg71
g758
sg64
(lp765
S''
asbasbasbag57
(g73
g59
NtRp766
(dp767
g62
(dp768
sg71
g662
sg64
(lp769
g57
(g78
g59
NtRp770
(dp771
g62
(dp772
g82
g83
ssg71
g766
sg64
(lp773
g399
asbag57
(g78
g59
NtRp774
(dp775
g62
(dp776
g89
g90
ssg71
g766
sg64
(lp777
S':'
asbag57
(g78
g59
NtRp778
(dp779
g62
(dp780
sg71
g766
sg64
(lp781
g57
(g58
g59
NtRp782
(dp783
g62
(dp784
g70
I3
ssg71
g778
sg64
(lp785
S''
asbasbasbag57
(g73
g59
NtRp786
(dp787
g62
(dp788
sg71
g662
sg64
(lp789
g57
(g78
g59
NtRp790
(dp791
g62
(dp792
g82
g83
ssg71
g786
sg64
(lp793
g420
asbag57
(g78
g59
NtRp794
(dp795
g62
(dp796
g89
g90
ssg71
g786
sg64
(lp797
S':'
asbag57
(g78
g59
NtRp798
(dp799
g62
(dp800
sg71
g786
sg64
(lp801
g57
(g58
g59
NtRp802
(dp803
g62
(dp804
g70
I3
ssg71
g798
sg64
(lp805
S''
asbasbasbag57
(g73
g59
NtRp806
(dp807
g62
(dp808
sg71
g662
sg64
(lp809
g57
(g78
g59
NtRp810
(dp811
g62
(dp812
g82
g83
ssg71
g806
sg64
(lp813
g441
asbag57
(g78
g59
NtRp814
(dp815
g62
(dp816
g89
g90
ssg71
g806
sg64
(lp817
S':'
asbag57
(g78
g59
NtRp818
(dp819
g62
(dp820
sg71
g806
sg64
(lp821
g57
(g58
g59
NtRp822
(dp823
g62
(dp824
g70
I3
ssg71
g818
sg64
(lp825
S''
asbasbasbasbasbasbasbasbasbasbasbag57
(g73
g59
NtRp826
(dp827
g62
(dp828
sg71
g67
sg64
(lp829
g57
(g78
g59
NtRp830
(dp831
g62
(dp832
g82
g83
ssg71
g826
sg64
(lp833
S'env'
p834
asbag57
(g78
g59
NtRp835
(dp836
g62
(dp837
g89
g90
ssg71
g826
sg64
(lp838
S':'
asbag57
(g78
g59
NtRp839
(dp840
g62
(dp841
sg71
g826
sg64
(lp842
g57
(g58
g59
NtRp843
(dp844
g62
(dp845
g70
I5
ssg71
g839
sg64
(lp846
g57
(g66
g59
NtRp847
(dp848
g62
(dp849
g70
I4
ssg71
Nsg64
(lp850
g57
(g73
g59
NtRp851
(dp852
g62
(dp853
sg71
g847
sg64
(lp854
g57
(g78
g59
NtRp855
(dp856
g62
(dp857
g82
g83
ssg71
g851
sg64
(lp858
S'app_folders'
p859
asbag57
(g78
g59
NtRp860
(dp861
g62
(dp862
g89
g90
ssg71
g851
sg64
(lp863
S':'
asbag57
(g78
g59
NtRp864
(dp865
g62
(dp866
sg71
g851
sg64
(lp867
g57
(g58
g59
NtRp868
(dp869
g62
(dp870
g70
I4
ssg71
g864
sg64
(lp871
S"set(['/home/aditi/Desktop/web2py/applications/assignment2/', '/home/aditi/Desktop/web2py/applications/admin/', '/home/aditi/Desktop/web2py/applications/welcome/'])"
p872
asbasbasbag57
(g73
g59
NtRp873
(dp874
g62
(dp875
sg71
g847
sg64
(lp876
g57
(g78
g59
NtRp877
(dp878
g62
(dp879
g82
g83
ssg71
g873
sg64
(lp880
S'applications_parent'
p881
asbag57
(g78
g59
NtRp882
(dp883
g62
(dp884
g89
g90
ssg71
g873
sg64
(lp885
S':'
asbag57
(g78
g59
NtRp886
(dp887
g62
(dp888
sg71
g873
sg64
(lp889
g57
(g58
g59
NtRp890
(dp891
g62
(dp892
g70
I4
ssg71
g886
sg64
(lp893
S'/home/aditi/Desktop/web2py'
p894
asbasbasbag57
(g73
g59
NtRp895
(dp896
g62
(dp897
sg71
g847
sg64
(lp898
g57
(g78
g59
NtRp899
(dp900
g62
(dp901
g82
g83
ssg71
g895
sg64
(lp902
S'cmd_args'
p903
asbag57
(g78
g59
NtRp904
(dp905
g62
(dp906
g89
g90
ssg71
g895
sg64
(lp907
S':'
asbag57
(g78
g59
NtRp908
(dp909
g62
(dp910
sg71
g895
sg64
(lp911
g57
(g58
g59
NtRp912
(dp913
g62
(dp914
g70
I4
ssg71
g908
sg64
(lp915
g57
(g66
g59
NtRp916
(dp917
g62
(dp918
g70
I3
ssg71
Nsg64
(lp919
sbasbasbasbag57
(g73
g59
NtRp920
(dp921
g62
(dp922
sg71
g847
sg64
(lp923
g57
(g78
g59
NtRp924
(dp925
g62
(dp926
g82
g83
ssg71
g920
sg64
(lp927
S'cmd_options'
p928
asbag57
(g78
g59
NtRp929
(dp930
g62
(dp931
g89
g90
ssg71
g920
sg64
(lp932
S':'
asbag57
(g78
g59
NtRp933
(dp934
g62
(dp935
sg71
g920
sg64
(lp936
g57
(g58
g59
NtRp937
(dp938
g62
(dp939
g70
I4
ssg71
g933
sg64
(lp940
S"<Values at 0xa651a0c: {'verbose': False, 'ip': '127.0.0.1', 'with_scheduler': False, 'ips': [], 'shutdown_timeout': 5, 'taskbar': False, 'port': 8000, 'maxthreads': None, 'softcron': False, 'server_name': 'ubuntu', 'bpython': False, 'nogui': False, 'pid_filename': 'httpserver.pid', 'extcron': False, 'runcron': False, 'run_system_tests': False, 'test': None, 'folder': '/home/aditi/Desktop/web2py', 'config': '', 'import_models': False, 'winservice': '', 'shell': None, 'run': '', 'log_filename': 'httpserver.log', 'debuglevel': 30, 'args': [''], 'socket_timeout': 5, 'ssl_ca_certificate': None, 'scheduler': None, 'profiler_filename': None, 'ssl_private_key': '', 'scheduler_groups': None, 'password': '<ask>', 'request_queue_size': 5, 'ssl_certificate': '', 'cronjob': False, 'numthreads': None, 'quiet': False, 'interfaces': None, 'minthreads': None, 'timeout': 10, 'plain': False, 'nobanner': False}>"
p941
asbasbasbag57
(g73
g59
NtRp942
(dp943
g62
(dp944
sg71
g847
sg64
(lp945
g57
(g78
g59
NtRp946
(dp947
g62
(dp948
g82
g83
ssg71
g942
sg64
(lp949
S'content_length'
p950
asbag57
(g78
g59
NtRp951
(dp952
g62
(dp953
g89
g90
ssg71
g942
sg64
(lp954
S':'
asbag57
(g78
g59
NtRp955
(dp956
g62
(dp957
sg71
g942
sg64
(lp958
g57
(g58
g59
NtRp959
(dp960
g62
(dp961
g70
I4
ssg71
g955
sg64
(lp962
S'842'
p963
asbasbasbag57
(g73
g59
NtRp964
(dp965
g62
(dp966
sg71
g847
sg64
(lp967
g57
(g78
g59
NtRp968
(dp969
g62
(dp970
g82
g83
ssg71
g964
sg64
(lp971
S'content_type'
p972
asbag57
(g78
g59
NtRp973
(dp974
g62
(dp975
g89
g90
ssg71
g964
sg64
(lp976
S':'
asbag57
(g78
g59
NtRp977
(dp978
g62
(dp979
sg71
g964
sg64
(lp980
g57
(g58
g59
NtRp981
(dp982
g62
(dp983
g70
I4
ssg71
g977
sg64
(lp984
S'multipart/form-data; boundary=---------------------------58972720513755364931271828469'
p985
asbasbasbag57
(g73
g59
NtRp986
(dp987
g62
(dp988
sg71
g847
sg64
(lp989
g57
(g78
g59
NtRp990
(dp991
g62
(dp992
g82
g83
ssg71
g986
sg64
(lp993
S'db_sessions'
p994
asbag57
(g78
g59
NtRp995
(dp996
g62
(dp997
g89
g90
ssg71
g986
sg64
(lp998
S':'
asbag57
(g78
g59
NtRp999
(dp1000
g62
(dp1001
sg71
g986
sg64
(lp1002
g57
(g58
g59
NtRp1003
(dp1004
g62
(dp1005
g70
I4
ssg71
g999
sg64
(lp1006
S'set([])'
p1007
asbasbasbag57
(g73
g59
NtRp1008
(dp1009
g62
(dp1010
sg71
g847
sg64
(lp1011
g57
(g78
g59
NtRp1012
(dp1013
g62
(dp1014
g82
g83
ssg71
g1008
sg64
(lp1015
S'debugging'
p1016
asbag57
(g78
g59
NtRp1017
(dp1018
g62
(dp1019
g89
g90
ssg71
g1008
sg64
(lp1020
S':'
asbag57
(g78
g59
NtRp1021
(dp1022
g62
(dp1023
sg71
g1008
sg64
(lp1024
g57
(g58
g59
NtRp1025
(dp1026
g62
(dp1027
g70
I4
ssg71
g1021
sg64
(lp1028
g100
asbasbasbag57
(g73
g59
NtRp1029
(dp1030
g62
(dp1031
sg71
g847
sg64
(lp1032
g57
(g78
g59
NtRp1033
(dp1034
g62
(dp1035
g82
g83
ssg71
g1029
sg64
(lp1036
S'gluon_parent'
p1037
asbag57
(g78
g59
NtRp1038
(dp1039
g62
(dp1040
g89
g90
ssg71
g1029
sg64
(lp1041
S':'
asbag57
(g78
g59
NtRp1042
(dp1043
g62
(dp1044
sg71
g1029
sg64
(lp1045
g57
(g58
g59
NtRp1046
(dp1047
g62
(dp1048
g70
I4
ssg71
g1042
sg64
(lp1049
S'/home/aditi/Desktop/web2py'
p1050
asbasbasbag57
(g73
g59
NtRp1051
(dp1052
g62
(dp1053
sg71
g847
sg64
(lp1054
g57
(g78
g59
NtRp1055
(dp1056
g62
(dp1057
g82
g83
ssg71
g1051
sg64
(lp1058
S'http_accept'
p1059
asbag57
(g78
g59
NtRp1060
(dp1061
g62
(dp1062
g89
g90
ssg71
g1051
sg64
(lp1063
S':'
asbag57
(g78
g59
NtRp1064
(dp1065
g62
(dp1066
sg71
g1051
sg64
(lp1067
g57
(g58
g59
NtRp1068
(dp1069
g62
(dp1070
g70
I4
ssg71
g1064
sg64
(lp1071
S'text/html,application/xhtml+xml,application/xml;q=0.9,*/*;q=0.8'
p1072
asbasbasbag57
(g73
g59
NtRp1073
(dp1074
g62
(dp1075
sg71
g847
sg64
(lp1076
g57
(g78
g59
NtRp1077
(dp1078
g62
(dp1079
g82
g83
ssg71
g1073
sg64
(lp1080
S'http_accept_encoding'
p1081
asbag57
(g78
g59
NtRp1082
(dp1083
g62
(dp1084
g89
g90
ssg71
g1073
sg64
(lp1085
S':'
asbag57
(g78
g59
NtRp1086
(dp1087
g62
(dp1088
sg71
g1073
sg64
(lp1089
g57
(g58
g59
NtRp1090
(dp1091
g62
(dp1092
g70
I4
ssg71
g1086
sg64
(lp1093
S'gzip, deflate'
p1094
asbasbasbag57
(g73
g59
NtRp1095
(dp1096
g62
(dp1097
sg71
g847
sg64
(lp1098
g57
(g78
g59
NtRp1099
(dp1100
g62
(dp1101
g82
g83
ssg71
g1095
sg64
(lp1102
S'http_accept_language'
p1103
asbag57
(g78
g59
NtRp1104
(dp1105
g62
(dp1106
g89
g90
ssg71
g1095
sg64
(lp1107
S':'
asbag57
(g78
g59
NtRp1108
(dp1109
g62
(dp1110
sg71
g1095
sg64
(lp1111
g57
(g58
g59
NtRp1112
(dp1113
g62
(dp1114
g70
I4
ssg71
g1108
sg64
(lp1115
S'en-US,en;q=0.5'
p1116
asbasbasbag57
(g73
g59
NtRp1117
(dp1118
g62
(dp1119
sg71
g847
sg64
(lp1120
g57
(g78
g59
NtRp1121
(dp1122
g62
(dp1123
g82
g83
ssg71
g1117
sg64
(lp1124
S'http_connection'
p1125
asbag57
(g78
g59
NtRp1126
(dp1127
g62
(dp1128
g89
g90
ssg71
g1117
sg64
(lp1129
S':'
asbag57
(g78
g59
NtRp1130
(dp1131
g62
(dp1132
sg71
g1117
sg64
(lp1133
g57
(g58
g59
NtRp1134
(dp1135
g62
(dp1136
g70
I4
ssg71
g1130
sg64
(lp1137
S'keep-alive'
p1138
asbasbasbag57
(g73
g59
NtRp1139
(dp1140
g62
(dp1141
sg71
g847
sg64
(lp1142
g57
(g78
g59
NtRp1143
(dp1144
g62
(dp1145
g82
g83
ssg71
g1139
sg64
(lp1146
S'http_content_length'
p1147
asbag57
(g78
g59
NtRp1148
(dp1149
g62
(dp1150
g89
g90
ssg71
g1139
sg64
(lp1151
S':'
asbag57
(g78
g59
NtRp1152
(dp1153
g62
(dp1154
sg71
g1139
sg64
(lp1155
g57
(g58
g59
NtRp1156
(dp1157
g62
(dp1158
g70
I4
ssg71
g1152
sg64
(lp1159
g963
asbasbasbag57
(g73
g59
NtRp1160
(dp1161
g62
(dp1162
sg71
g847
sg64
(lp1163
g57
(g78
g59
NtRp1164
(dp1165
g62
(dp1166
g82
g83
ssg71
g1160
sg64
(lp1167
S'http_content_type'
p1168
asbag57
(g78
g59
NtRp1169
(dp1170
g62
(dp1171
g89
g90
ssg71
g1160
sg64
(lp1172
S':'
asbag57
(g78
g59
NtRp1173
(dp1174
g62
(dp1175
sg71
g1160
sg64
(lp1176
g57
(g58
g59
NtRp1177
(dp1178
g62
(dp1179
g70
I4
ssg71
g1173
sg64
(lp1180
g985
asbasbasbag57
(g73
g59
NtRp1181
(dp1182
g62
(dp1183
sg71
g847
sg64
(lp1184
g57
(g78
g59
NtRp1185
(dp1186
g62
(dp1187
g82
g83
ssg71
g1181
sg64
(lp1188
S'http_cookie'
p1189
asbag57
(g78
g59
NtRp1190
(dp1191
g62
(dp1192
g89
g90
ssg71
g1181
sg64
(lp1193
S':'
asbag57
(g78
g59
NtRp1194
(dp1195
g62
(dp1196
sg71
g1181
sg64
(lp1197
g57
(g58
g59
NtRp1198
(dp1199
g62
(dp1200
g70
I4
ssg71
g1194
sg64
(lp1201
S'session_id_welcome=127.0.0.1-6aa11d39-ce3f-4f8c-b6ea-9cd6a4750daa; session_id_admin=127.0.0.1-9c0e4d2d-c8df-42da-a1dd-3cd897b96f95; session_id_assignment2=127.0.0.1-df3317b1-fbdf-40a6-bfa1-0af1b15533cc'
p1202
asbasbasbag57
(g73
g59
NtRp1203
(dp1204
g62
(dp1205
sg71
g847
sg64
(lp1206
g57
(g78
g59
NtRp1207
(dp1208
g62
(dp1209
g82
g83
ssg71
g1203
sg64
(lp1210
S'http_host'
p1211
asbag57
(g78
g59
NtRp1212
(dp1213
g62
(dp1214
g89
g90
ssg71
g1203
sg64
(lp1215
S':'
asbag57
(g78
g59
NtRp1216
(dp1217
g62
(dp1218
sg71
g1203
sg64
(lp1219
g57
(g58
g59
NtRp1220
(dp1221
g62
(dp1222
g70
I4
ssg71
g1216
sg64
(lp1223
S'127.0.0.1:8000'
p1224
asbasbasbag57
(g73
g59
NtRp1225
(dp1226
g62
(dp1227
sg71
g847
sg64
(lp1228
g57
(g78
g59
NtRp1229
(dp1230
g62
(dp1231
g82
g83
ssg71
g1225
sg64
(lp1232
S'http_referer'
p1233
asbag57
(g78
g59
NtRp1234
(dp1235
g62
(dp1236
g89
g90
ssg71
g1225
sg64
(lp1237
S':'
asbag57
(g78
g59
NtRp1238
(dp1239
g62
(dp1240
sg71
g1225
sg64
(lp1241
g57
(g58
g59
NtRp1242
(dp1243
g62
(dp1244
g70
I4
ssg71
g1238
sg64
(lp1245
S'http://127.0.0.1:8000/assignment2/default/user_homepage'
p1246
asbasbasbag57
(g73
g59
NtRp1247
(dp1248
g62
(dp1249
sg71
g847
sg64
(lp1250
g57
(g78
g59
NtRp1251
(dp1252
g62
(dp1253
g82
g83
ssg71
g1247
sg64
(lp1254
S'http_user_agent'
p1255
asbag57
(g78
g59
NtRp1256
(dp1257
g62
(dp1258
g89
g90
ssg71
g1247
sg64
(lp1259
S':'
asbag57
(g78
g59
NtRp1260
(dp1261
g62
(dp1262
sg71
g1247
sg64
(lp1263
g57
(g58
g59
NtRp1264
(dp1265
g62
(dp1266
g70
I4
ssg71
g1260
sg64
(lp1267
S'Mozilla/5.0 (X11; Ubuntu; Linux i686; rv:23.0) Gecko/20100101 Firefox/23.0'
p1268
asbasbasbag57
(g73
g59
NtRp1269
(dp1270
g62
(dp1271
sg71
g847
sg64
(lp1272
g57
(g78
g59
NtRp1273
(dp1274
g62
(dp1275
g82
g83
ssg71
g1269
sg64
(lp1276
S'is_jython'
p1277
asbag57
(g78
g59
NtRp1278
(dp1279
g62
(dp1280
g89
g90
ssg71
g1269
sg64
(lp1281
S':'
asbag57
(g78
g59
NtRp1282
(dp1283
g62
(dp1284
sg71
g1269
sg64
(lp1285
g57
(g58
g59
NtRp1286
(dp1287
g62
(dp1288
g70
I4
ssg71
g1282
sg64
(lp1289
g100
asbasbasbag57
(g73
g59
NtRp1290
(dp1291
g62
(dp1292
sg71
g847
sg64
(lp1293
g57
(g78
g59
NtRp1294
(dp1295
g62
(dp1296
g82
g83
ssg71
g1290
sg64
(lp1297
S'is_pypy'
p1298
asbag57
(g78
g59
NtRp1299
(dp1300
g62
(dp1301
g89
g90
ssg71
g1290
sg64
(lp1302
S':'
asbag57
(g78
g59
NtRp1303
(dp1304
g62
(dp1305
sg71
g1290
sg64
(lp1306
g57
(g58
g59
NtRp1307
(dp1308
g62
(dp1309
g70
I4
ssg71
g1303
sg64
(lp1310
g100
asbasbasbag57
(g73
g59
NtRp1311
(dp1312
g62
(dp1313
sg71
g847
sg64
(lp1314
g57
(g78
g59
NtRp1315
(dp1316
g62
(dp1317
g82
g83
ssg71
g1311
sg64
(lp1318
S'local_hosts'
p1319
asbag57
(g78
g59
NtRp1320
(dp1321
g62
(dp1322
g89
g90
ssg71
g1311
sg64
(lp1323
S':'
asbag57
(g78
g59
NtRp1324
(dp1325
g62
(dp1326
sg71
g1311
sg64
(lp1327
g57
(g58
g59
NtRp1328
(dp1329
g62
(dp1330
g70
I4
ssg71
g1324
sg64
(lp1331
g57
(g66
g59
NtRp1332
(dp1333
g62
(dp1334
g70
I3
ssg71
Nsg64
(lp1335
g57
(g73
g59
NtRp1336
(dp1337
g62
(dp1338
sg71
g1332
sg64
(lp1339
g57
(g78
g59
NtRp1340
(dp1341
g62
(dp1342
sg71
g1336
sg64
(lp1343
g57
(g58
g59
NtRp1344
(dp1345
g62
(dp1346
g70
I3
ssg71
g1340
sg64
(lp1347
S'ubuntu.ubuntu-domain'
p1348
asbasbasbag57
(g73
g59
NtRp1349
(dp1350
g62
(dp1351
sg71
g1332
sg64
(lp1352
g57
(g78
g59
NtRp1353
(dp1354
g62
(dp1355
sg71
g1349
sg64
(lp1356
g57
(g58
g59
NtRp1357
(dp1358
g62
(dp1359
g70
I3
ssg71
g1353
sg64
(lp1360
S'::ffff:127.0.0.1'
p1361
asbasbasbag57
(g73
g59
NtRp1362
(dp1363
g62
(dp1364
sg71
g1332
sg64
(lp1365
g57
(g78
g59
NtRp1366
(dp1367
g62
(dp1368
sg71
g1362
sg64
(lp1369
g57
(g58
g59
NtRp1370
(dp1371
g62
(dp1372
g70
I3
ssg71
g1366
sg64
(lp1373
S'::1'
p1374
asbasbasbag57
(g73
g59
NtRp1375
(dp1376
g62
(dp1377
sg71
g1332
sg64
(lp1378
g57
(g78
g59
NtRp1379
(dp1380
g62
(dp1381
sg71
g1375
sg64
(lp1382
g57
(g58
g59
NtRp1383
(dp1384
g62
(dp1385
g70
I3
ssg71
g1379
sg64
(lp1386
S'ubuntu'
p1387
asbasbasbag57
(g73
g59
NtRp1388
(dp1389
g62
(dp1390
sg71
g1332
sg64
(lp1391
g57
(g78
g59
NtRp1392
(dp1393
g62
(dp1394
sg71
g1388
sg64
(lp1395
g57
(g58
g59
NtRp1396
(dp1397
g62
(dp1398
g70
I3
ssg71
g1392
sg64
(lp1399
S'127.0.1.1'
p1400
asbasbasbag57
(g73
g59
NtRp1401
(dp1402
g62
(dp1403
sg71
g1332
sg64
(lp1404
g57
(g78
g59
NtRp1405
(dp1406
g62
(dp1407
sg71
g1401
sg64
(lp1408
g57
(g58
g59
NtRp1409
(dp1410
g62
(dp1411
g70
I3
ssg71
g1405
sg64
(lp1412
S'127.0.0.1'
p1413
asbasbasbasbasbasbasbag57
(g73
g59
NtRp1414
(dp1415
g62
(dp1416
sg71
g847
sg64
(lp1417
g57
(g78
g59
NtRp1418
(dp1419
g62
(dp1420
g82
g83
ssg71
g1414
sg64
(lp1421
S'path_info'
p1422
asbag57
(g78
g59
NtRp1423
(dp1424
g62
(dp1425
g89
g90
ssg71
g1414
sg64
(lp1426
S':'
asbag57
(g78
g59
NtRp1427
(dp1428
g62
(dp1429
sg71
g1414
sg64
(lp1430
g57
(g58
g59
NtRp1431
(dp1432
g62
(dp1433
g70
I4
ssg71
g1427
sg64
(lp1434
S'/assignment2/default/user_homepage'
p1435
asbasbasbag57
(g73
g59
NtRp1436
(dp1437
g62
(dp1438
sg71
g847
sg64
(lp1439
g57
(g78
g59
NtRp1440
(dp1441
g62
(dp1442
g82
g83
ssg71
g1436
sg64
(lp1443
S'query_string'
p1444
asbag57
(g78
g59
NtRp1445
(dp1446
g62
(dp1447
g89
g90
ssg71
g1436
sg64
(lp1448
S':'
asbag57
(g78
g59
NtRp1449
(dp1450
g62
(dp1451
sg71
g1436
sg64
(lp1452
g57
(g58
g59
NtRp1453
(dp1454
g62
(dp1455
g70
I4
ssg71
g1449
sg64
(lp1456
S''
asbasbasbag57
(g73
g59
NtRp1457
(dp1458
g62
(dp1459
sg71
g847
sg64
(lp1460
g57
(g78
g59
NtRp1461
(dp1462
g62
(dp1463
g82
g83
ssg71
g1457
sg64
(lp1464
S'remote_addr'
p1465
asbag57
(g78
g59
NtRp1466
(dp1467
g62
(dp1468
g89
g90
ssg71
g1457
sg64
(lp1469
S':'
asbag57
(g78
g59
NtRp1470
(dp1471
g62
(dp1472
sg71
g1457
sg64
(lp1473
g57
(g58
g59
NtRp1474
(dp1475
g62
(dp1476
g70
I4
ssg71
g1470
sg64
(lp1477
g212
asbasbasbag57
(g73
g59
NtRp1478
(dp1479
g62
(dp1480
sg71
g847
sg64
(lp1481
g57
(g78
g59
NtRp1482
(dp1483
g62
(dp1484
g82
g83
ssg71
g1478
sg64
(lp1485
S'remote_port'
p1486
asbag57
(g78
g59
NtRp1487
(dp1488
g62
(dp1489
g89
g90
ssg71
g1478
sg64
(lp1490
S':'
asbag57
(g78
g59
NtRp1491
(dp1492
g62
(dp1493
sg71
g1478
sg64
(lp1494
g57
(g58
g59
NtRp1495
(dp1496
g62
(dp1497
g70
I4
ssg71
g1491
sg64
(lp1498
S'32819'
p1499
asbasbasbag57
(g73
g59
NtRp1500
(dp1501
g62
(dp1502
sg71
g847
sg64
(lp1503
g57
(g78
g59
NtRp1504
(dp1505
g62
(dp1506
g82
g83
ssg71
g1500
sg64
(lp1507
S'request_method'
p1508
asbag57
(g78
g59
NtRp1509
(dp1510
g62
(dp1511
g89
g90
ssg71
g1500
sg64
(lp1512
S':'
asbag57
(g78
g59
NtRp1513
(dp1514
g62
(dp1515
sg71
g1500
sg64
(lp1516
g57
(g58
g59
NtRp1517
(dp1518
g62
(dp1519
g70
I4
ssg71
g1513
sg64
(lp1520
S'POST'
p1521
asbasbasbag57
(g73
g59
NtRp1522
(dp1523
g62
(dp1524
sg71
g847
sg64
(lp1525
g57
(g78
g59
NtRp1526
(dp1527
g62
(dp1528
g82
g83
ssg71
g1522
sg64
(lp1529
S'request_uri'
p1530
asbag57
(g78
g59
NtRp1531
(dp1532
g62
(dp1533
g89
g90
ssg71
g1522
sg64
(lp1534
S':'
asbag57
(g78
g59
NtRp1535
(dp1536
g62
(dp1537
sg71
g1522
sg64
(lp1538
g57
(g58
g59
NtRp1539
(dp1540
g62
(dp1541
g70
I4
ssg71
g1535
sg64
(lp1542
g1435
asbasbasbag57
(g73
g59
NtRp1543
(dp1544
g62
(dp1545
sg71
g847
sg64
(lp1546
g57
(g78
g59
NtRp1547
(dp1548
g62
(dp1549
g82
g83
ssg71
g1543
sg64
(lp1550
S'script_name'
p1551
asbag57
(g78
g59
NtRp1552
(dp1553
g62
(dp1554
g89
g90
ssg71
g1543
sg64
(lp1555
S':'
asbag57
(g78
g59
NtRp1556
(dp1557
g62
(dp1558
sg71
g1543
sg64
(lp1559
g57
(g58
g59
NtRp1560
(dp1561
g62
(dp1562
g70
I4
ssg71
g1556
sg64
(lp1563
S''
asbasbasbag57
(g73
g59
NtRp1564
(dp1565
g62
(dp1566
sg71
g847
sg64
(lp1567
g57
(g78
g59
NtRp1568
(dp1569
g62
(dp1570
g82
g83
ssg71
g1564
sg64
(lp1571
S'server_name'
p1572
asbag57
(g78
g59
NtRp1573
(dp1574
g62
(dp1575
g89
g90
ssg71
g1564
sg64
(lp1576
S':'
asbag57
(g78
g59
NtRp1577
(dp1578
g62
(dp1579
sg71
g1564
sg64
(lp1580
g57
(g58
g59
NtRp1581
(dp1582
g62
(dp1583
g70
I4
ssg71
g1577
sg64
(lp1584
S'ubuntu'
p1585
asbasbasbag57
(g73
g59
NtRp1586
(dp1587
g62
(dp1588
sg71
g847
sg64
(lp1589
g57
(g78
g59
NtRp1590
(dp1591
g62
(dp1592
g82
g83
ssg71
g1586
sg64
(lp1593
S'server_port'
p1594
asbag57
(g78
g59
NtRp1595
(dp1596
g62
(dp1597
g89
g90
ssg71
g1586
sg64
(lp1598
S':'
asbag57
(g78
g59
NtRp1599
(dp1600
g62
(dp1601
sg71
g1586
sg64
(lp1602
g57
(g58
g59
NtRp1603
(dp1604
g62
(dp1605
g70
I4
ssg71
g1599
sg64
(lp1606
S'8000'
p1607
asbasbasbag57
(g73
g59
NtRp1608
(dp1609
g62
(dp1610
sg71
g847
sg64
(lp1611
g57
(g78
g59
NtRp1612
(dp1613
g62
(dp1614
g82
g83
ssg71
g1608
sg64
(lp1615
S'server_protocol'
p1616
asbag57
(g78
g59
NtRp1617
(dp1618
g62
(dp1619
g89
g90
ssg71
g1608
sg64
(lp1620
S':'
asbag57
(g78
g59
NtRp1621
(dp1622
g62
(dp1623
sg71
g1608
sg64
(lp1624
g57
(g58
g59
NtRp1625
(dp1626
g62
(dp1627
g70
I4
ssg71
g1621
sg64
(lp1628
S'HTTP/1.1'
p1629
asbasbasbag57
(g73
g59
NtRp1630
(dp1631
g62
(dp1632
sg71
g847
sg64
(lp1633
g57
(g78
g59
NtRp1634
(dp1635
g62
(dp1636
g82
g83
ssg71
g1630
sg64
(lp1637
S'server_software'
p1638
asbag57
(g78
g59
NtRp1639
(dp1640
g62
(dp1641
g89
g90
ssg71
g1630
sg64
(lp1642
S':'
asbag57
(g78
g59
NtRp1643
(dp1644
g62
(dp1645
sg71
g1630
sg64
(lp1646
g57
(g58
g59
NtRp1647
(dp1648
g62
(dp1649
g70
I4
ssg71
g1643
sg64
(lp1650
S'Rocket 1.2.6'
p1651
asbasbasbag57
(g73
g59
NtRp1652
(dp1653
g62
(dp1654
sg71
g847
sg64
(lp1655
g57
(g78
g59
NtRp1656
(dp1657
g62
(dp1658
g82
g83
ssg71
g1652
sg64
(lp1659
S'web2py_path'
p1660
asbag57
(g78
g59
NtRp1661
(dp1662
g62
(dp1663
g89
g90
ssg71
g1652
sg64
(lp1664
S':'
asbag57
(g78
g59
NtRp1665
(dp1666
g62
(dp1667
sg71
g1652
sg64
(lp1668
g57
(g58
g59
NtRp1669
(dp1670
g62
(dp1671
g70
I4
ssg71
g1665
sg64
(lp1672
g894
asbasbasbag57
(g73
g59
NtRp1673
(dp1674
g62
(dp1675
sg71
g847
sg64
(lp1676
g57
(g78
g59
NtRp1677
(dp1678
g62
(dp1679
g82
g83
ssg71
g1673
sg64
(lp1680
S'web2py_version'
p1681
asbag57
(g78
g59
NtRp1682
(dp1683
g62
(dp1684
g89
g90
ssg71
g1673
sg64
(lp1685
S':'
asbag57
(g78
g59
NtRp1686
(dp1687
g62
(dp1688
sg71
g1673
sg64
(lp1689
g57
(g58
g59
NtRp1690
(dp1691
g62
(dp1692
g70
I4
ssg71
g1686
sg64
(lp1693
g57
(g66
g59
NtRp1694
(dp1695
g62
(dp1696
g70
I3
ssg71
Nsg64
(lp1697
g57
(g73
g59
NtRp1698
(dp1699
g62
(dp1700
sg71
g1694
sg64
(lp1701
g57
(g78
g59
NtRp1702
(dp1703
g62
(dp1704
sg71
g1698
sg64
(lp1705
g57
(g58
g59
NtRp1706
(dp1707
g62
(dp1708
g70
I3
ssg71
g1702
sg64
(lp1709
S'2'
asbasbasbag57
(g73
g59
NtRp1710
(dp1711
g62
(dp1712
sg71
g1694
sg64
(lp1713
g57
(g78
g59
NtRp1714
(dp1715
g62
(dp1716
sg71
g1710
sg64
(lp1717
g57
(g58
g59
NtRp1718
(dp1719
g62
(dp1720
g70
I3
ssg71
g1714
sg64
(lp1721
S'3'
asbasbasbag57
(g73
g59
NtRp1722
(dp1723
g62
(dp1724
sg71
g1694
sg64
(lp1725
g57
(g78
g59
NtRp1726
(dp1727
g62
(dp1728
sg71
g1722
sg64
(lp1729
g57
(g58
g59
NtRp1730
(dp1731
g62
(dp1732
g70
I3
ssg71
g1726
sg64
(lp1733
S'2'
asbasbasbag57
(g73
g59
NtRp1734
(dp1735
g62
(dp1736
sg71
g1694
sg64
(lp1737
g57
(g78
g59
NtRp1738
(dp1739
g62
(dp1740
sg71
g1734
sg64
(lp1741
g57
(g58
g59
NtRp1742
(dp1743
g62
(dp1744
g70
I3
ssg71
g1738
sg64
(lp1745
S'datetime.datetime(2012, 12, 17, 15, 3, 30)'
p1746
asbasbasbag57
(g73
g59
NtRp1747
(dp1748
g62
(dp1749
sg71
g1694
sg64
(lp1750
g57
(g78
g59
NtRp1751
(dp1752
g62
(dp1753
sg71
g1747
sg64
(lp1754
g57
(g58
g59
NtRp1755
(dp1756
g62
(dp1757
g70
I3
ssg71
g1751
sg64
(lp1758
S'stable'
p1759
asbasbasbasbasbasbasbag57
(g73
g59
NtRp1760
(dp1761
g62
(dp1762
sg71
g847
sg64
(lp1763
g57
(g78
g59
NtRp1764
(dp1765
g62
(dp1766
g82
g83
ssg71
g1760
sg64
(lp1767
S'wsgi_errors'
p1768
asbag57
(g78
g59
NtRp1769
(dp1770
g62
(dp1771
g89
g90
ssg71
g1760
sg64
(lp1772
S':'
asbag57
(g78
g59
NtRp1773
(dp1774
g62
(dp1775
sg71
g1760
sg64
(lp1776
g57
(g58
g59
NtRp1777
(dp1778
g62
(dp1779
g70
I4
ssg71
g1773
sg64
(lp1780
S"<open file '<stderr>', mode 'w' at 0xb72990d0>"
p1781
asbasbasbag57
(g73
g59
NtRp1782
(dp1783
g62
(dp1784
sg71
g847
sg64
(lp1785
g57
(g78
g59
NtRp1786
(dp1787
g62
(dp1788
g82
g83
ssg71
g1782
sg64
(lp1789
S'wsgi_file_wrapper'
p1790
asbag57
(g78
g59
NtRp1791
(dp1792
g62
(dp1793
g89
g90
ssg71
g1782
sg64
(lp1794
S':'
asbag57
(g78
g59
NtRp1795
(dp1796
g62
(dp1797
sg71
g1782
sg64
(lp1798
g57
(g58
g59
NtRp1799
(dp1800
g62
(dp1801
g70
I4
ssg71
g1795
sg64
(lp1802
S'<class wsgiref.util.FileWrapper at 0xa60d65c>'
p1803
asbasbasbag57
(g73
g59
NtRp1804
(dp1805
g62
(dp1806
sg71
g847
sg64
(lp1807
g57
(g78
g59
NtRp1808
(dp1809
g62
(dp1810
g82
g83
ssg71
g1804
sg64
(lp1811
S'wsgi_input'
p1812
asbag57
(g78
g59
NtRp1813
(dp1814
g62
(dp1815
g89
g90
ssg71
g1804
sg64
(lp1816
S':'
asbag57
(g78
g59
NtRp1817
(dp1818
g62
(dp1819
sg71
g1804
sg64
(lp1820
g57
(g58
g59
NtRp1821
(dp1822
g62
(dp1823
g70
I4
ssg71
g1817
sg64
(lp1824
S'<socket._fileobject object at 0xac78fbac>'
p1825
asbasbasbag57
(g73
g59
NtRp1826
(dp1827
g62
(dp1828
sg71
g847
sg64
(lp1829
g57
(g78
g59
NtRp1830
(dp1831
g62
(dp1832
g82
g83
ssg71
g1826
sg64
(lp1833
S'wsgi_multiprocess'
p1834
asbag57
(g78
g59
NtRp1835
(dp1836
g62
(dp1837
g89
g90
ssg71
g1826
sg64
(lp1838
S':'
asbag57
(g78
g59
NtRp1839
(dp1840
g62
(dp1841
sg71
g1826
sg64
(lp1842
g57
(g58
g59
NtRp1843
(dp1844
g62
(dp1845
g70
I4
ssg71
g1839
sg64
(lp1846
g100
asbasbasbag57
(g73
g59
NtRp1847
(dp1848
g62
(dp1849
sg71
g847
sg64
(lp1850
g57
(g78
g59
NtRp1851
(dp1852
g62
(dp1853
g82
g83
ssg71
g1847
sg64
(lp1854
S'wsgi_multithread'
p1855
asbag57
(g78
g59
NtRp1856
(dp1857
g62
(dp1858
g89
g90
ssg71
g1847
sg64
(lp1859
S':'
asbag57
(g78
g59
NtRp1860
(dp1861
g62
(dp1862
sg71
g1847
sg64
(lp1863
g57
(g58
g59
NtRp1864
(dp1865
g62
(dp1866
g70
I4
ssg71
g1860
sg64
(lp1867
S'True'
p1868
asbasbasbag57
(g73
g59
NtRp1869
(dp1870
g62
(dp1871
sg71
g847
sg64
(lp1872
g57
(g78
g59
NtRp1873
(dp1874
g62
(dp1875
g82
g83
ssg71
g1869
sg64
(lp1876
S'wsgi_run_once'
p1877
asbag57
(g78
g59
NtRp1878
(dp1879
g62
(dp1880
g89
g90
ssg71
g1869
sg64
(lp1881
S':'
asbag57
(g78
g59
NtRp1882
(dp1883
g62
(dp1884
sg71
g1869
sg64
(lp1885
g57
(g58
g59
NtRp1886
(dp1887
g62
(dp1888
g70
I4
ssg71
g1882
sg64
(lp1889
g100
asbasbasbag57
(g73
g59
NtRp1890
(dp1891
g62
(dp1892
sg71
g847
sg64
(lp1893
g57
(g78
g59
NtRp1894
(dp1895
g62
(dp1896
g82
g83
ssg71
g1890
sg64
(lp1897
S'wsgi_url_scheme'
p1898
asbag57
(g78
g59
NtRp1899
(dp1900
g62
(dp1901
g89
g90
ssg71
g1890
sg64
(lp1902
S':'
asbag57
(g78
g59
NtRp1903
(dp1904
g62
(dp1905
sg71
g1890
sg64
(lp1906
g57
(g58
g59
NtRp1907
(dp1908
g62
(dp1909
g70
I4
ssg71
g1903
sg64
(lp1910
S'http'
p1911
asbasbasbag57
(g73
g59
NtRp1912
(dp1913
g62
(dp1914
sg71
g847
sg64
(lp1915
g57
(g78
g59
NtRp1916
(dp1917
g62
(dp1918
g82
g83
ssg71
g1912
sg64
(lp1919
S'wsgi_version'
p1920
asbag57
(g78
g59
NtRp1921
(dp1922
g62
(dp1923
g89
g90
ssg71
g1912
sg64
(lp1924
S':'
asbag57
(g78
g59
NtRp1925
(dp1926
g62
(dp1927
sg71
g1912
sg64
(lp1928
g57
(g58
g59
NtRp1929
(dp1930
g62
(dp1931
g70
I4
ssg71
g1925
sg64
(lp1932
g57
(g66
g59
NtRp1933
(dp1934
g62
(dp1935
g70
I3
ssg71
Nsg64
(lp1936
g57
(g73
g59
NtRp1937
(dp1938
g62
(dp1939
sg71
g1933
sg64
(lp1940
g57
(g78
g59
NtRp1941
(dp1942
g62
(dp1943
sg71
g1937
sg64
(lp1944
g57
(g58
g59
NtRp1945
(dp1946
g62
(dp1947
g70
I3
ssg71
g1941
sg64
(lp1948
S'1'
asbasbasbag57
(g73
g59
NtRp1949
(dp1950
g62
(dp1951
sg71
g1933
sg64
(lp1952
g57
(g78
g59
NtRp1953
(dp1954
g62
(dp1955
sg71
g1949
sg64
(lp1956
g57
(g58
g59
NtRp1957
(dp1958
g62
(dp1959
g70
I3
ssg71
g1953
sg64
(lp1960
S'0'
asbasbasbasbasbasbasbasbasbasbasbag57
(g73
g59
NtRp1961
(dp1962
g62
(dp1963
sg71
g67
sg64
(lp1964
g57
(g78
g59
NtRp1965
(dp1966
g62
(dp1967
g82
g83
ssg71
g1961
sg64
(lp1968
S'extension'
p1969
asbag57
(g78
g59
NtRp1970
(dp1971
g62
(dp1972
g89
g90
ssg71
g1961
sg64
(lp1973
S':'
asbag57
(g78
g59
NtRp1974
(dp1975
g62
(dp1976
sg71
g1961
sg64
(lp1977
g57
(g58
g59
NtRp1978
(dp1979
g62
(dp1980
g70
I5
ssg71
g1974
sg64
(lp1981
S'html'
p1982
asbasbasbag57
(g73
g59
NtRp1983
(dp1984
g62
(dp1985
sg71
g67
sg64
(lp1986
g57
(g78
g59
NtRp1987
(dp1988
g62
(dp1989
g82
g83
ssg71
g1983
sg64
(lp1990
S'folder'
p1991
asbag57
(g78
g59
NtRp1992
(dp1993
g62
(dp1994
g89
g90
ssg71
g1983
sg64
(lp1995
S':'
asbag57
(g78
g59
NtRp1996
(dp1997
g62
(dp1998
sg71
g1983
sg64
(lp1999
g57
(g58
g59
NtRp2000
(dp2001
g62
(dp2002
g70
I5
ssg71
g1996
sg64
(lp2003
S'/home/aditi/Desktop/web2py/applications/assignment2/'
p2004
asbasbasbag57
(g73
g59
NtRp2005
(dp2006
g62
(dp2007
sg71
g67
sg64
(lp2008
g57
(g78
g59
NtRp2009
(dp2010
g62
(dp2011
g82
g83
ssg71
g2005
sg64
(lp2012
S'function'
p2013
asbag57
(g78
g59
NtRp2014
(dp2015
g62
(dp2016
g89
g90
ssg71
g2005
sg64
(lp2017
S':'
asbag57
(g78
g59
NtRp2018
(dp2019
g62
(dp2020
sg71
g2005
sg64
(lp2021
g57
(g58
g59
NtRp2022
(dp2023
g62
(dp2024
g70
I5
ssg71
g2018
sg64
(lp2025
S'user_homepage'
p2026
asbasbasbag57
(g73
g59
NtRp2027
(dp2028
g62
(dp2029
sg71
g67
sg64
(lp2030
g57
(g78
g59
NtRp2031
(dp2032
g62
(dp2033
g82
g83
ssg71
g2027
sg64
(lp2034
S'get_vars'
p2035
asbag57
(g78
g59
NtRp2036
(dp2037
g62
(dp2038
g89
g90
ssg71
g2027
sg64
(lp2039
S':'
asbag57
(g78
g59
NtRp2040
(dp2041
g62
(dp2042
sg71
g2027
sg64
(lp2043
g57
(g58
g59
NtRp2044
(dp2045
g62
(dp2046
g70
I5
ssg71
g2040
sg64
(lp2047
g57
(g66
g59
NtRp2048
(dp2049
g62
(dp2050
g70
I4
ssg71
Nsg64
(lp2051
sbasbasbasbag57
(g73
g59
NtRp2052
(dp2053
g62
(dp2054
sg71
g67
sg64
(lp2055
g57
(g78
g59
NtRp2056
(dp2057
g62
(dp2058
g82
g83
ssg71
g2052
sg64
(lp2059
S'global_settings'
p2060
asbag57
(g78
g59
NtRp2061
(dp2062
g62
(dp2063
g89
g90
ssg71
g2052
sg64
(lp2064
S':'
asbag57
(g78
g59
NtRp2065
(dp2066
g62
(dp2067
sg71
g2052
sg64
(lp2068
g57
(g58
g59
NtRp2069
(dp2070
g62
(dp2071
g70
I5
ssg71
g2065
sg64
(lp2072
g57
(g66
g59
NtRp2073
(dp2074
g62
(dp2075
g70
I4
ssg71
Nsg64
(lp2076
g57
(g73
g59
NtRp2077
(dp2078
g62
(dp2079
sg71
g2073
sg64
(lp2080
g57
(g78
g59
NtRp2081
(dp2082
g62
(dp2083
g82
g83
ssg71
g2077
sg64
(lp2084
g859
asbag57
(g78
g59
NtRp2085
(dp2086
g62
(dp2087
g89
g90
ssg71
g2077
sg64
(lp2088
S':'
asbag57
(g78
g59
NtRp2089
(dp2090
g62
(dp2091
sg71
g2077
sg64
(lp2092
g57
(g58
g59
NtRp2093
(dp2094
g62
(dp2095
g70
I4
ssg71
g2089
sg64
(lp2096
S"set(['/home/aditi/Desktop/web2py/applications/assignment2/', '/home/aditi/Desktop/web2py/applications/admin/', '/home/aditi/Desktop/web2py/applications/welcome/'])"
p2097
asbasbasbag57
(g73
g59
NtRp2098
(dp2099
g62
(dp2100
sg71
g2073
sg64
(lp2101
g57
(g78
g59
NtRp2102
(dp2103
g62
(dp2104
g82
g83
ssg71
g2098
sg64
(lp2105
g881
asbag57
(g78
g59
NtRp2106
(dp2107
g62
(dp2108
g89
g90
ssg71
g2098
sg64
(lp2109
S':'
asbag57
(g78
g59
NtRp2110
(dp2111
g62
(dp2112
sg71
g2098
sg64
(lp2113
g57
(g58
g59
NtRp2114
(dp2115
g62
(dp2116
g70
I4
ssg71
g2110
sg64
(lp2117
g894
asbasbasbag57
(g73
g59
NtRp2118
(dp2119
g62
(dp2120
sg71
g2073
sg64
(lp2121
g57
(g78
g59
NtRp2122
(dp2123
g62
(dp2124
g82
g83
ssg71
g2118
sg64
(lp2125
g903
asbag57
(g78
g59
NtRp2126
(dp2127
g62
(dp2128
g89
g90
ssg71
g2118
sg64
(lp2129
S':'
asbag57
(g78
g59
NtRp2130
(dp2131
g62
(dp2132
sg71
g2118
sg64
(lp2133
g57
(g58
g59
NtRp2134
(dp2135
g62
(dp2136
g70
I4
ssg71
g2130
sg64
(lp2137
g57
(g66
g59
NtRp2138
(dp2139
g62
(dp2140
g70
I3
ssg71
Nsg64
(lp2141
sbasbasbasbag57
(g73
g59
NtRp2142
(dp2143
g62
(dp2144
sg71
g2073
sg64
(lp2145
g57
(g78
g59
NtRp2146
(dp2147
g62
(dp2148
g82
g83
ssg71
g2142
sg64
(lp2149
g928
asbag57
(g78
g59
NtRp2150
(dp2151
g62
(dp2152
g89
g90
ssg71
g2142
sg64
(lp2153
S':'
asbag57
(g78
g59
NtRp2154
(dp2155
g62
(dp2156
sg71
g2142
sg64
(lp2157
g57
(g58
g59
NtRp2158
(dp2159
g62
(dp2160
g70
I4
ssg71
g2154
sg64
(lp2161
S"<Values at 0xa651a0c: {'verbose': False, 'ip': '127.0.0.1', 'with_scheduler': False, 'ips': [], 'shutdown_timeout': 5, 'taskbar': False, 'port': 8000, 'maxthreads': None, 'softcron': False, 'server_name': 'ubuntu', 'bpython': False, 'nogui': False, 'pid_filename': 'httpserver.pid', 'extcron': False, 'runcron': False, 'run_system_tests': False, 'test': None, 'folder': '/home/aditi/Desktop/web2py', 'config': '', 'import_models': False, 'winservice': '', 'shell': None, 'run': '', 'log_filename': 'httpserver.log', 'debuglevel': 30, 'args': [''], 'socket_timeout': 5, 'ssl_ca_certificate': None, 'scheduler': None, 'profiler_filename': None, 'ssl_private_key': '', 'scheduler_groups': None, 'password': '<ask>', 'request_queue_size': 5, 'ssl_certificate': '', 'cronjob': False, 'numthreads': None, 'quiet': False, 'interfaces': None, 'minthreads': None, 'timeout': 10, 'plain': False, 'nobanner': False}>"
p2162
asbasbasbag57
(g73
g59
NtRp2163
(dp2164
g62
(dp2165
sg71
g2073
sg64
(lp2166
g57
(g78
g59
NtRp2167
(dp2168
g62
(dp2169
g82
g83
ssg71
g2163
sg64
(lp2170
g994
asbag57
(g78
g59
NtRp2171
(dp2172
g62
(dp2173
g89
g90
ssg71
g2163
sg64
(lp2174
S':'
asbag57
(g78
g59
NtRp2175
(dp2176
g62
(dp2177
sg71
g2163
sg64
(lp2178
g57
(g58
g59
NtRp2179
(dp2180
g62
(dp2181
g70
I4
ssg71
g2175
sg64
(lp2182
S'set([])'
p2183
asbasbasbag57
(g73
g59
NtRp2184
(dp2185
g62
(dp2186
sg71
g2073
sg64
(lp2187
g57
(g78
g59
NtRp2188
(dp2189
g62
(dp2190
g82
g83
ssg71
g2184
sg64
(lp2191
g1016
asbag57
(g78
g59
NtRp2192
(dp2193
g62
(dp2194
g89
g90
ssg71
g2184
sg64
(lp2195
S':'
asbag57
(g78
g59
NtRp2196
(dp2197
g62
(dp2198
sg71
g2184
sg64
(lp2199
g57
(g58
g59
NtRp2200
(dp2201
g62
(dp2202
g70
I4
ssg71
g2196
sg64
(lp2203
g100
asbasbasbag57
(g73
g59
NtRp2204
(dp2205
g62
(dp2206
sg71
g2073
sg64
(lp2207
g57
(g78
g59
NtRp2208
(dp2209
g62
(dp2210
g82
g83
ssg71
g2204
sg64
(lp2211
g1037
asbag57
(g78
g59
NtRp2212
(dp2213
g62
(dp2214
g89
g90
ssg71
g2204
sg64
(lp2215
S':'
asbag57
(g78
g59
NtRp2216
(dp2217
g62
(dp2218
sg71
g2204
sg64
(lp2219
g57
(g58
g59
NtRp2220
(dp2221
g62
(dp2222
g70
I4
ssg71
g2216
sg64
(lp2223
g1050
asbasbasbag57
(g73
g59
NtRp2224
(dp2225
g62
(dp2226
sg71
g2073
sg64
(lp2227
g57
(g78
g59
NtRp2228
(dp2229
g62
(dp2230
g82
g83
ssg71
g2224
sg64
(lp2231
g1277
asbag57
(g78
g59
NtRp2232
(dp2233
g62
(dp2234
g89
g90
ssg71
g2224
sg64
(lp2235
S':'
asbag57
(g78
g59
NtRp2236
(dp2237
g62
(dp2238
sg71
g2224
sg64
(lp2239
g57
(g58
g59
NtRp2240
(dp2241
g62
(dp2242
g70
I4
ssg71
g2236
sg64
(lp2243
g100
asbasbasbag57
(g73
g59
NtRp2244
(dp2245
g62
(dp2246
sg71
g2073
sg64
(lp2247
g57
(g78
g59
NtRp2248
(dp2249
g62
(dp2250
g82
g83
ssg71
g2244
sg64
(lp2251
g1298
asbag57
(g78
g59
NtRp2252
(dp2253
g62
(dp2254
g89
g90
ssg71
g2244
sg64
(lp2255
S':'
asbag57
(g78
g59
NtRp2256
(dp2257
g62
(dp2258
sg71
g2244
sg64
(lp2259
g57
(g58
g59
NtRp2260
(dp2261
g62
(dp2262
g70
I4
ssg71
g2256
sg64
(lp2263
g100
asbasbasbag57
(g73
g59
NtRp2264
(dp2265
g62
(dp2266
sg71
g2073
sg64
(lp2267
g57
(g78
g59
NtRp2268
(dp2269
g62
(dp2270
g82
g83
ssg71
g2264
sg64
(lp2271
g1319
asbag57
(g78
g59
NtRp2272
(dp2273
g62
(dp2274
g89
g90
ssg71
g2264
sg64
(lp2275
S':'
asbag57
(g78
g59
NtRp2276
(dp2277
g62
(dp2278
sg71
g2264
sg64
(lp2279
g57
(g58
g59
NtRp2280
(dp2281
g62
(dp2282
g70
I4
ssg71
g2276
sg64
(lp2283
g57
(g66
g59
NtRp2284
(dp2285
g62
(dp2286
g70
I3
ssg71
Nsg64
(lp2287
g57
(g73
g59
NtRp2288
(dp2289
g62
(dp2290
sg71
g2284
sg64
(lp2291
g57
(g78
g59
NtRp2292
(dp2293
g62
(dp2294
sg71
g2288
sg64
(lp2295
g57
(g58
g59
NtRp2296
(dp2297
g62
(dp2298
g70
I3
ssg71
g2292
sg64
(lp2299
g1348
asbasbasbag57
(g73
g59
NtRp2300
(dp2301
g62
(dp2302
sg71
g2284
sg64
(lp2303
g57
(g78
g59
NtRp2304
(dp2305
g62
(dp2306
sg71
g2300
sg64
(lp2307
g57
(g58
g59
NtRp2308
(dp2309
g62
(dp2310
g70
I3
ssg71
g2304
sg64
(lp2311
g1361
asbasbasbag57
(g73
g59
NtRp2312
(dp2313
g62
(dp2314
sg71
g2284
sg64
(lp2315
g57
(g78
g59
NtRp2316
(dp2317
g62
(dp2318
sg71
g2312
sg64
(lp2319
g57
(g58
g59
NtRp2320
(dp2321
g62
(dp2322
g70
I3
ssg71
g2316
sg64
(lp2323
g1374
asbasbasbag57
(g73
g59
NtRp2324
(dp2325
g62
(dp2326
sg71
g2284
sg64
(lp2327
g57
(g78
g59
NtRp2328
(dp2329
g62
(dp2330
sg71
g2324
sg64
(lp2331
g57
(g58
g59
NtRp2332
(dp2333
g62
(dp2334
g70
I3
ssg71
g2328
sg64
(lp2335
g1387
asbasbasbag57
(g73
g59
NtRp2336
(dp2337
g62
(dp2338
sg71
g2284
sg64
(lp2339
g57
(g78
g59
NtRp2340
(dp2341
g62
(dp2342
sg71
g2336
sg64
(lp2343
g57
(g58
g59
NtRp2344
(dp2345
g62
(dp2346
g70
I3
ssg71
g2340
sg64
(lp2347
g1400
asbasbasbag57
(g73
g59
NtRp2348
(dp2349
g62
(dp2350
sg71
g2284
sg64
(lp2351
g57
(g78
g59
NtRp2352
(dp2353
g62
(dp2354
sg71
g2348
sg64
(lp2355
g57
(g58
g59
NtRp2356
(dp2357
g62
(dp2358
g70
I3
ssg71
g2352
sg64
(lp2359
g1413
asbasbasbasbasbasbasbag57
(g73
g59
NtRp2360
(dp2361
g62
(dp2362
sg71
g2073
sg64
(lp2363
g57
(g78
g59
NtRp2364
(dp2365
g62
(dp2366
g82
g83
ssg71
g2360
sg64
(lp2367
g1681
asbag57
(g78
g59
NtRp2368
(dp2369
g62
(dp2370
g89
g90
ssg71
g2360
sg64
(lp2371
S':'
asbag57
(g78
g59
NtRp2372
(dp2373
g62
(dp2374
sg71
g2360
sg64
(lp2375
g57
(g58
g59
NtRp2376
(dp2377
g62
(dp2378
g70
I4
ssg71
g2372
sg64
(lp2379
g57
(g66
g59
NtRp2380
(dp2381
g62
(dp2382
g70
I3
ssg71
Nsg64
(lp2383
g57
(g73
g59
NtRp2384
(dp2385
g62
(dp2386
sg71
g2380
sg64
(lp2387
g57
(g78
g59
NtRp2388
(dp2389
g62
(dp2390
sg71
g2384
sg64
(lp2391
g57
(g58
g59
NtRp2392
(dp2393
g62
(dp2394
g70
I3
ssg71
g2388
sg64
(lp2395
S'2'
asbasbasbag57
(g73
g59
NtRp2396
(dp2397
g62
(dp2398
sg71
g2380
sg64
(lp2399
g57
(g78
g59
NtRp2400
(dp2401
g62
(dp2402
sg71
g2396
sg64
(lp2403
g57
(g58
g59
NtRp2404
(dp2405
g62
(dp2406
g70
I3
ssg71
g2400
sg64
(lp2407
S'3'
asbasbasbag57
(g73
g59
NtRp2408
(dp2409
g62
(dp2410
sg71
g2380
sg64
(lp2411
g57
(g78
g59
NtRp2412
(dp2413
g62
(dp2414
sg71
g2408
sg64
(lp2415
g57
(g58
g59
NtRp2416
(dp2417
g62
(dp2418
g70
I3
ssg71
g2412
sg64
(lp2419
S'2'
asbasbasbag57
(g73
g59
NtRp2420
(dp2421
g62
(dp2422
sg71
g2380
sg64
(lp2423
g57
(g78
g59
NtRp2424
(dp2425
g62
(dp2426
sg71
g2420
sg64
(lp2427
g57
(g58
g59
NtRp2428
(dp2429
g62
(dp2430
g70
I3
ssg71
g2424
sg64
(lp2431
S'datetime.datetime(2012, 12, 17, 15, 3, 30)'
p2432
asbasbasbag57
(g73
g59
NtRp2433
(dp2434
g62
(dp2435
sg71
g2380
sg64
(lp2436
g57
(g78
g59
NtRp2437
(dp2438
g62
(dp2439
sg71
g2433
sg64
(lp2440
g57
(g58
g59
NtRp2441
(dp2442
g62
(dp2443
g70
I3
ssg71
g2437
sg64
(lp2444
g1759
asbasbasbasbasbasbasbasbasbasbasbag57
(g73
g59
NtRp2445
(dp2446
g62
(dp2447
sg71
g67
sg64
(lp2448
g57
(g78
g59
NtRp2449
(dp2450
g62
(dp2451
g82
g83
ssg71
g2445
sg64
(lp2452
S'is_https'
p2453
asbag57
(g78
g59
NtRp2454
(dp2455
g62
(dp2456
g89
g90
ssg71
g2445
sg64
(lp2457
S':'
asbag57
(g78
g59
NtRp2458
(dp2459
g62
(dp2460
sg71
g2445
sg64
(lp2461
g57
(g58
g59
NtRp2462
(dp2463
g62
(dp2464
g70
I5
ssg71
g2458
sg64
(lp2465
g100
asbasbasbag57
(g73
g59
NtRp2466
(dp2467
g62
(dp2468
sg71
g67
sg64
(lp2469
g57
(g78
g59
NtRp2470
(dp2471
g62
(dp2472
g82
g83
ssg71
g2466
sg64
(lp2473
S'is_local'
p2474
asbag57
(g78
g59
NtRp2475
(dp2476
g62
(dp2477
g89
g90
ssg71
g2466
sg64
(lp2478
S':'
asbag57
(g78
g59
NtRp2479
(dp2480
g62
(dp2481
sg71
g2466
sg64
(lp2482
g57
(g58
g59
NtRp2483
(dp2484
g62
(dp2485
g70
I5
ssg71
g2479
sg64
(lp2486
g1868
asbasbasbag57
(g73
g59
NtRp2487
(dp2488
g62
(dp2489
sg71
g67
sg64
(lp2490
g57
(g78
g59
NtRp2491
(dp2492
g62
(dp2493
g82
g83
ssg71
g2487
sg64
(lp2494
S'is_restful'
p2495
asbag57
(g78
g59
NtRp2496
(dp2497
g62
(dp2498
g89
g90
ssg71
g2487
sg64
(lp2499
S':'
asbag57
(g78
g59
NtRp2500
(dp2501
g62
(dp2502
sg71
g2487
sg64
(lp2503
g57
(g58
g59
NtRp2504
(dp2505
g62
(dp2506
g70
I5
ssg71
g2500
sg64
(lp2507
g100
asbasbasbag57
(g73
g59
NtRp2508
(dp2509
g62
(dp2510
sg71
g67
sg64
(lp2511
g57
(g78
g59
NtRp2512
(dp2513
g62
(dp2514
g82
g83
ssg71
g2508
sg64
(lp2515
S'now'
p2516
asbag57
(g78
g59
NtRp2517
(dp2518
g62
(dp2519
g89
g90
ssg71
g2508
sg64
(lp2520
S':'
asbag57
(g78
g59
NtRp2521
(dp2522
g62
(dp2523
sg71
g2508
sg64
(lp2524
g57
(g58
g59
NtRp2525
(dp2526
g62
(dp2527
g70
I5
ssg71
g2521
sg64
(lp2528
S'datetime.datetime(2013, 8, 26, 17, 59, 57, 507790)'
p2529
asbasbasbag57
(g73
g59
NtRp2530
(dp2531
g62
(dp2532
sg71
g67
sg64
(lp2533
g57
(g78
g59
NtRp2534
(dp2535
g62
(dp2536
g82
g83
ssg71
g2530
sg64
(lp2537
S'post_vars'
p2538
asbag57
(g78
g59
NtRp2539
(dp2540
g62
(dp2541
g89
g90
ssg71
g2530
sg64
(lp2542
S':'
asbag57
(g78
g59
NtRp2543
(dp2544
g62
(dp2545
sg71
g2530
sg64
(lp2546
g57
(g58
g59
NtRp2547
(dp2548
g62
(dp2549
g70
I5
ssg71
g2543
sg64
(lp2550
g57
(g66
g59
NtRp2551
(dp2552
g62
(dp2553
g70
I4
ssg71
Nsg64
(lp2554
g57
(g73
g59
NtRp2555
(dp2556
g62
(dp2557
sg71
g2551
sg64
(lp2558
g57
(g78
g59
NtRp2559
(dp2560
g62
(dp2561
g82
g83
ssg71
g2555
sg64
(lp2562
S'category'
p2563
asbag57
(g78
g59
NtRp2564
(dp2565
g62
(dp2566
g89
g90
ssg71
g2555
sg64
(lp2567
S':'
asbag57
(g78
g59
NtRp2568
(dp2569
g62
(dp2570
sg71
g2555
sg64
(lp2571
g57
(g58
g59
NtRp2572
(dp2573
g62
(dp2574
g70
I4
ssg71
g2568
sg64
(lp2575
S'computer science'
p2576
asbasbasbag57
(g73
g59
NtRp2577
(dp2578
g62
(dp2579
sg71
g2551
sg64
(lp2580
g57
(g78
g59
NtRp2581
(dp2582
g62
(dp2583
g82
g83
ssg71
g2577
sg64
(lp2584
S'choice'
p2585
asbag57
(g78
g59
NtRp2586
(dp2587
g62
(dp2588
g89
g90
ssg71
g2577
sg64
(lp2589
S':'
asbag57
(g78
g59
NtRp2590
(dp2591
g62
(dp2592
sg71
g2577
sg64
(lp2593
g57
(g58
g59
NtRp2594
(dp2595
g62
(dp2596
g70
I4
ssg71
g2590
sg64
(lp2597
S'article'
p2598
asbasbasbag57
(g73
g59
NtRp2599
(dp2600
g62
(dp2601
sg71
g2551
sg64
(lp2602
g57
(g78
g59
NtRp2603
(dp2604
g62
(dp2605
g82
g83
ssg71
g2599
sg64
(lp2606
S'heading'
p2607
asbag57
(g78
g59
NtRp2608
(dp2609
g62
(dp2610
g89
g90
ssg71
g2599
sg64
(lp2611
S':'
asbag57
(g78
g59
NtRp2612
(dp2613
g62
(dp2614
sg71
g2599
sg64
(lp2615
g57
(g58
g59
NtRp2616
(dp2617
g62
(dp2618
g70
I4
ssg71
g2612
sg64
(lp2619
S'random'
p2620
asbasbasbag57
(g73
g59
NtRp2621
(dp2622
g62
(dp2623
sg71
g2551
sg64
(lp2624
g57
(g78
g59
NtRp2625
(dp2626
g62
(dp2627
g82
g83
ssg71
g2621
sg64
(lp2628
S'url'
p2629
asbag57
(g78
g59
NtRp2630
(dp2631
g62
(dp2632
g89
g90
ssg71
g2621
sg64
(lp2633
S':'
asbag57
(g78
g59
NtRp2634
(dp2635
g62
(dp2636
sg71
g2621
sg64
(lp2637
g57
(g58
g59
NtRp2638
(dp2639
g62
(dp2640
g70
I4
ssg71
g2634
sg64
(lp2641
S'http://www.cs.washington.edu/'
p2642
asbasbasbasbasbasbasbag57
(g73
g59
NtRp2643
(dp2644
g62
(dp2645
sg71
g67
sg64
(lp2646
g57
(g78
g59
NtRp2647
(dp2648
g62
(dp2649
g82
g83
ssg71
g2643
sg64
(lp2650
S'raw_args'
p2651
asbag57
(g78
g59
NtRp2652
(dp2653
g62
(dp2654
g89
g90
ssg71
g2643
sg64
(lp2655
S':'
asbag57
(g78
g59
NtRp2656
(dp2657
g62
(dp2658
sg71
g2643
sg64
(lp2659
g57
(g58
g59
NtRp2660
(dp2661
g62
(dp2662
g70
I5
ssg71
g2656
sg64
(lp2663
S''
asbasbasbag57
(g73
g59
NtRp2664
(dp2665
g62
(dp2666
sg71
g67
sg64
(lp2667
g57
(g78
g59
NtRp2668
(dp2669
g62
(dp2670
g82
g83
ssg71
g2664
sg64
(lp2671
S'raw_extension'
p2672
asbag57
(g78
g59
NtRp2673
(dp2674
g62
(dp2675
g89
g90
ssg71
g2664
sg64
(lp2676
S':'
asbag57
(g78
g59
NtRp2677
(dp2678
g62
(dp2679
sg71
g2664
sg64
(lp2680
g57
(g58
g59
NtRp2681
(dp2682
g62
(dp2683
g70
I5
ssg71
g2677
sg64
(lp2684
S'None'
p2685
asbasbasbag57
(g73
g59
NtRp2686
(dp2687
g62
(dp2688
sg71
g67
sg64
(lp2689
g57
(g78
g59
NtRp2690
(dp2691
g62
(dp2692
g82
g83
ssg71
g2686
sg64
(lp2693
S'url'
p2694
asbag57
(g78
g59
NtRp2695
(dp2696
g62
(dp2697
g89
g90
ssg71
g2686
sg64
(lp2698
S':'
asbag57
(g78
g59
NtRp2699
(dp2700
g62
(dp2701
sg71
g2686
sg64
(lp2702
g57
(g58
g59
NtRp2703
(dp2704
g62
(dp2705
g70
I5
ssg71
g2699
sg64
(lp2706
g1435
asbasbasbag57
(g73
g59
NtRp2707
(dp2708
g62
(dp2709
sg71
g67
sg64
(lp2710
g57
(g78
g59
NtRp2711
(dp2712
g62
(dp2713
g82
g83
ssg71
g2707
sg64
(lp2714
S'utcnow'
p2715
asbag57
(g78
g59
NtRp2716
(dp2717
g62
(dp2718
g89
g90
ssg71
g2707
sg64
(lp2719
S':'
asbag57
(g78
g59
NtRp2720
(dp2721
g62
(dp2722
sg71
g2707
sg64
(lp2723
g57
(g58
g59
NtRp2724
(dp2725
g62
(dp2726
g70
I5
ssg71
g2720
sg64
(lp2727
S'datetime.datetime(2013, 8, 26, 12, 29, 57, 507834)'
p2728
asbasbasbag57
(g73
g59
NtRp2729
(dp2730
g62
(dp2731
sg71
g67
sg64
(lp2732
g57
(g78
g59
NtRp2733
(dp2734
g62
(dp2735
g82
g83
ssg71
g2729
sg64
(lp2736
S'uuid'
p2737
asbag57
(g78
g59
NtRp2738
(dp2739
g62
(dp2740
g89
g90
ssg71
g2729
sg64
(lp2741
S':'
asbag57
(g78
g59
NtRp2742
(dp2743
g62
(dp2744
sg71
g2729
sg64
(lp2745
g57
(g58
g59
NtRp2746
(dp2747
g62
(dp2748
g70
I5
ssg71
g2742
sg64
(lp2749
S'assignment2/127.0.0.1.2013-08-26.17-59-57.99d378fa-749a-4eed-be6c-fcee2298cb47'
p2750
asbasbasbag57
(g73
g59
NtRp2751
(dp2752
g62
(dp2753
sg71
g67
sg64
(lp2754
g57
(g78
g59
NtRp2755
(dp2756
g62
(dp2757
g82
g83
ssg71
g2751
sg64
(lp2758
S'vars'
p2759
asbag57
(g78
g59
NtRp2760
(dp2761
g62
(dp2762
g89
g90
ssg71
g2751
sg64
(lp2763
S':'
asbag57
(g78
g59
NtRp2764
(dp2765
g62
(dp2766
sg71
g2751
sg64
(lp2767
g57
(g58
g59
NtRp2768
(dp2769
g62
(dp2770
g70
I5
ssg71
g2764
sg64
(lp2771
g57
(g66
g59
NtRp2772
(dp2773
g62
(dp2774
g70
I4
ssg71
Nsg64
(lp2775
g57
(g73
g59
NtRp2776
(dp2777
g62
(dp2778
sg71
g2772
sg64
(lp2779
g57
(g78
g59
NtRp2780
(dp2781
g62
(dp2782
g82
g83
ssg71
g2776
sg64
(lp2783
g2563
asbag57
(g78
g59
NtRp2784
(dp2785
g62
(dp2786
g89
g90
ssg71
g2776
sg64
(lp2787
S':'
asbag57
(g78
g59
NtRp2788
(dp2789
g62
(dp2790
sg71
g2776
sg64
(lp2791
g57
(g58
g59
NtRp2792
(dp2793
g62
(dp2794
g70
I4
ssg71
g2788
sg64
(lp2795
g2576
asbasbasbag57
(g73
g59
NtRp2796
(dp2797
g62
(dp2798
sg71
g2772
sg64
(lp2799
g57
(g78
g59
NtRp2800
(dp2801
g62
(dp2802
g82
g83
ssg71
g2796
sg64
(lp2803
g2585
asbag57
(g78
g59
NtRp2804
(dp2805
g62
(dp2806
g89
g90
ssg71
g2796
sg64
(lp2807
S':'
asbag57
(g78
g59
NtRp2808
(dp2809
g62
(dp2810
sg71
g2796
sg64
(lp2811
g57
(g58
g59
NtRp2812
(dp2813
g62
(dp2814
g70
I4
ssg71
g2808
sg64
(lp2815
g2598
asbasbasbag57
(g73
g59
NtRp2816
(dp2817
g62
(dp2818
sg71
g2772
sg64
(lp2819
g57
(g78
g59
NtRp2820
(dp2821
g62
(dp2822
g82
g83
ssg71
g2816
sg64
(lp2823
g2607
asbag57
(g78
g59
NtRp2824
(dp2825
g62
(dp2826
g89
g90
ssg71
g2816
sg64
(lp2827
S':'
asbag57
(g78
g59
NtRp2828
(dp2829
g62
(dp2830
sg71
g2816
sg64
(lp2831
g57
(g58
g59
NtRp2832
(dp2833
g62
(dp2834
g70
I4
ssg71
g2828
sg64
(lp2835
g2620
asbasbasbag57
(g73
g59
NtRp2836
(dp2837
g62
(dp2838
sg71
g2772
sg64
(lp2839
g57
(g78
g59
NtRp2840
(dp2841
g62
(dp2842
g82
g83
ssg71
g2836
sg64
(lp2843
g2629
asbag57
(g78
g59
NtRp2844
(dp2845
g62
(dp2846
g89
g90
ssg71
g2836
sg64
(lp2847
S':'
asbag57
(g78
g59
NtRp2848
(dp2849
g62
(dp2850
sg71
g2836
sg64
(lp2851
g57
(g58
g59
NtRp2852
(dp2853
g62
(dp2854
g70
I4
ssg71
g2848
sg64
(lp2855
g2642
asbasbasbasbasbasbasbag57
(g73
g59
NtRp2856
(dp2857
g62
(dp2858
sg71
g67
sg64
(lp2859
g57
(g78
g59
NtRp2860
(dp2861
g62
(dp2862
g82
g83
ssg71
g2856
sg64
(lp2863
S'wsgi'
p2864
asbag57
(g78
g59
NtRp2865
(dp2866
g62
(dp2867
g89
g90
ssg71
g2856
sg64
(lp2868
S':'
asbag57
(g78
g59
NtRp2869
(dp2870
g62
(dp2871
sg71
g2856
sg64
(lp2872
g57
(g58
g59
NtRp2873
(dp2874
g62
(dp2875
g70
I5
ssg71
g2869
sg64
(lp2876
g57
(g66
g59
NtRp2877
(dp2878
g62
(dp2879
g70
I4
ssg71
Nsg64
(lp2880
g57
(g73
g59
NtRp2881
(dp2882
g62
(dp2883
sg71
g2877
sg64
(lp2884
g57
(g78
g59
NtRp2885
(dp2886
g62
(dp2887
g82
g83
ssg71
g2881
sg64
(lp2888
S'environ'
p2889
asbag57
(g78
g59
NtRp2890
(dp2891
g62
(dp2892
g89
g90
ssg71
g2881
sg64
(lp2893
S':'
asbag57
(g78
g59
NtRp2894
(dp2895
g62
(dp2896
sg71
g2881
sg64
(lp2897
g57
(g58
g59
NtRp2898
(dp2899
g62
(dp2900
g70
I4
ssg71
g2894
sg64
(lp2901
g57
(g66
g59
NtRp2902
(dp2903
g62
(dp2904
g70
I3
ssg71
Nsg64
(lp2905
g57
(g73
g59
NtRp2906
(dp2907
g62
(dp2908
sg71
g2902
sg64
(lp2909
g57
(g78
g59
NtRp2910
(dp2911
g62
(dp2912
g82
g83
ssg71
g2906
sg64
(lp2913
S'CONTENT_LENGTH'
p2914
asbag57
(g78
g59
NtRp2915
(dp2916
g62
(dp2917
g89
g90
ssg71
g2906
sg64
(lp2918
S':'
asbag57
(g78
g59
NtRp2919
(dp2920
g62
(dp2921
sg71
g2906
sg64
(lp2922
g57
(g58
g59
NtRp2923
(dp2924
g62
(dp2925
g70
I3
ssg71
g2919
sg64
(lp2926
g963
asbasbasbag57
(g73
g59
NtRp2927
(dp2928
g62
(dp2929
sg71
g2902
sg64
(lp2930
g57
(g78
g59
NtRp2931
(dp2932
g62
(dp2933
g82
g83
ssg71
g2927
sg64
(lp2934
S'CONTENT_TYPE'
p2935
asbag57
(g78
g59
NtRp2936
(dp2937
g62
(dp2938
g89
g90
ssg71
g2927
sg64
(lp2939
S':'
asbag57
(g78
g59
NtRp2940
(dp2941
g62
(dp2942
sg71
g2927
sg64
(lp2943
g57
(g58
g59
NtRp2944
(dp2945
g62
(dp2946
g70
I3
ssg71
g2940
sg64
(lp2947
g985
asbasbasbag57
(g73
g59
NtRp2948
(dp2949
g62
(dp2950
sg71
g2902
sg64
(lp2951
g57
(g78
g59
NtRp2952
(dp2953
g62
(dp2954
g82
g83
ssg71
g2948
sg64
(lp2955
S'HTTP_ACCEPT'
p2956
asbag57
(g78
g59
NtRp2957
(dp2958
g62
(dp2959
g89
g90
ssg71
g2948
sg64
(lp2960
S':'
asbag57
(g78
g59
NtRp2961
(dp2962
g62
(dp2963
sg71
g2948
sg64
(lp2964
g57
(g58
g59
NtRp2965
(dp2966
g62
(dp2967
g70
I3
ssg71
g2961
sg64
(lp2968
g1072
asbasbasbag57
(g73
g59
NtRp2969
(dp2970
g62
(dp2971
sg71
g2902
sg64
(lp2972
g57
(g78
g59
NtRp2973
(dp2974
g62
(dp2975
g82
g83
ssg71
g2969
sg64
(lp2976
S'HTTP_ACCEPT_ENCODING'
p2977
asbag57
(g78
g59
NtRp2978
(dp2979
g62
(dp2980
g89
g90
ssg71
g2969
sg64
(lp2981
S':'
asbag57
(g78
g59
NtRp2982
(dp2983
g62
(dp2984
sg71
g2969
sg64
(lp2985
g57
(g58
g59
NtRp2986
(dp2987
g62
(dp2988
g70
I3
ssg71
g2982
sg64
(lp2989
g1094
asbasbasbag57
(g73
g59
NtRp2990
(dp2991
g62
(dp2992
sg71
g2902
sg64
(lp2993
g57
(g78
g59
NtRp2994
(dp2995
g62
(dp2996
g82
g83
ssg71
g2990
sg64
(lp2997
S'HTTP_ACCEPT_LANGUAGE'
p2998
asbag57
(g78
g59
NtRp2999
(dp3000
g62
(dp3001
g89
g90
ssg71
g2990
sg64
(lp3002
S':'
asbag57
(g78
g59
NtRp3003
(dp3004
g62
(dp3005
sg71
g2990
sg64
(lp3006
g57
(g58
g59
NtRp3007
(dp3008
g62
(dp3009
g70
I3
ssg71
g3003
sg64
(lp3010
g1116
asbasbasbag57
(g73
g59
NtRp3011
(dp3012
g62
(dp3013
sg71
g2902
sg64
(lp3014
g57
(g78
g59
NtRp3015
(dp3016
g62
(dp3017
g82
g83
ssg71
g3011
sg64
(lp3018
S'HTTP_CONNECTION'
p3019
asbag57
(g78
g59
NtRp3020
(dp3021
g62
(dp3022
g89
g90
ssg71
g3011
sg64
(lp3023
S':'
asbag57
(g78
g59
NtRp3024
(dp3025
g62
(dp3026
sg71
g3011
sg64
(lp3027
g57
(g58
g59
NtRp3028
(dp3029
g62
(dp3030
g70
I3
ssg71
g3024
sg64
(lp3031
g1138
asbasbasbag57
(g73
g59
NtRp3032
(dp3033
g62
(dp3034
sg71
g2902
sg64
(lp3035
g57
(g78
g59
NtRp3036
(dp3037
g62
(dp3038
g82
g83
ssg71
g3032
sg64
(lp3039
S'HTTP_CONTENT_LENGTH'
p3040
asbag57
(g78
g59
NtRp3041
(dp3042
g62
(dp3043
g89
g90
ssg71
g3032
sg64
(lp3044
S':'
asbag57
(g78
g59
NtRp3045
(dp3046
g62
(dp3047
sg71
g3032
sg64
(lp3048
g57
(g58
g59
NtRp3049
(dp3050
g62
(dp3051
g70
I3
ssg71
g3045
sg64
(lp3052
g963
asbasbasbag57
(g73
g59
NtRp3053
(dp3054
g62
(dp3055
sg71
g2902
sg64
(lp3056
g57
(g78
g59
NtRp3057
(dp3058
g62
(dp3059
g82
g83
ssg71
g3053
sg64
(lp3060
S'HTTP_CONTENT_TYPE'
p3061
asbag57
(g78
g59
NtRp3062
(dp3063
g62
(dp3064
g89
g90
ssg71
g3053
sg64
(lp3065
S':'
asbag57
(g78
g59
NtRp3066
(dp3067
g62
(dp3068
sg71
g3053
sg64
(lp3069
g57
(g58
g59
NtRp3070
(dp3071
g62
(dp3072
g70
I3
ssg71
g3066
sg64
(lp3073
g985
asbasbasbag57
(g73
g59
NtRp3074
(dp3075
g62
(dp3076
sg71
g2902
sg64
(lp3077
g57
(g78
g59
NtRp3078
(dp3079
g62
(dp3080
g82
g83
ssg71
g3074
sg64
(lp3081
S'HTTP_COOKIE'
p3082
asbag57
(g78
g59
NtRp3083
(dp3084
g62
(dp3085
g89
g90
ssg71
g3074
sg64
(lp3086
S':'
asbag57
(g78
g59
NtRp3087
(dp3088
g62
(dp3089
sg71
g3074
sg64
(lp3090
g57
(g58
g59
NtRp3091
(dp3092
g62
(dp3093
g70
I3
ssg71
g3087
sg64
(lp3094
g1202
asbasbasbag57
(g73
g59
NtRp3095
(dp3096
g62
(dp3097
sg71
g2902
sg64
(lp3098
g57
(g78
g59
NtRp3099
(dp3100
g62
(dp3101
g82
g83
ssg71
g3095
sg64
(lp3102
S'HTTP_HOST'
p3103
asbag57
(g78
g59
NtRp3104
(dp3105
g62
(dp3106
g89
g90
ssg71
g3095
sg64
(lp3107
S':'
asbag57
(g78
g59
NtRp3108
(dp3109
g62
(dp3110
sg71
g3095
sg64
(lp3111
g57
(g58
g59
NtRp3112
(dp3113
g62
(dp3114
g70
I3
ssg71
g3108
sg64
(lp3115
g1224
asbasbasbag57
(g73
g59
NtRp3116
(dp3117
g62
(dp3118
sg71
g2902
sg64
(lp3119
g57
(g78
g59
NtRp3120
(dp3121
g62
(dp3122
g82
g83
ssg71
g3116
sg64
(lp3123
S'HTTP_REFERER'
p3124
asbag57
(g78
g59
NtRp3125
(dp3126
g62
(dp3127
g89
g90
ssg71
g3116
sg64
(lp3128
S':'
asbag57
(g78
g59
NtRp3129
(dp3130
g62
(dp3131
sg71
g3116
sg64
(lp3132
g57
(g58
g59
NtRp3133
(dp3134
g62
(dp3135
g70
I3
ssg71
g3129
sg64
(lp3136
g1246
asbasbasbag57
(g73
g59
NtRp3137
(dp3138
g62
(dp3139
sg71
g2902
sg64
(lp3140
g57
(g78
g59
NtRp3141
(dp3142
g62
(dp3143
g82
g83
ssg71
g3137
sg64
(lp3144
S'HTTP_USER_AGENT'
p3145
asbag57
(g78
g59
NtRp3146
(dp3147
g62
(dp3148
g89
g90
ssg71
g3137
sg64
(lp3149
S':'
asbag57
(g78
g59
NtRp3150
(dp3151
g62
(dp3152
sg71
g3137
sg64
(lp3153
g57
(g58
g59
NtRp3154
(dp3155
g62
(dp3156
g70
I3
ssg71
g3150
sg64
(lp3157
g1268
asbasbasbag57
(g73
g59
NtRp3158
(dp3159
g62
(dp3160
sg71
g2902
sg64
(lp3161
g57
(g78
g59
NtRp3162
(dp3163
g62
(dp3164
g82
g83
ssg71
g3158
sg64
(lp3165
S'PATH_INFO'
p3166
asbag57
(g78
g59
NtRp3167
(dp3168
g62
(dp3169
g89
g90
ssg71
g3158
sg64
(lp3170
S':'
asbag57
(g78
g59
NtRp3171
(dp3172
g62
(dp3173
sg71
g3158
sg64
(lp3174
g57
(g58
g59
NtRp3175
(dp3176
g62
(dp3177
g70
I3
ssg71
g3171
sg64
(lp3178
g1435
asbasbasbag57
(g73
g59
NtRp3179
(dp3180
g62
(dp3181
sg71
g2902
sg64
(lp3182
g57
(g78
g59
NtRp3183
(dp3184
g62
(dp3185
g82
g83
ssg71
g3179
sg64
(lp3186
S'QUERY_STRING'
p3187
asbag57
(g78
g59
NtRp3188
(dp3189
g62
(dp3190
g89
g90
ssg71
g3179
sg64
(lp3191
S':'
asbag57
(g78
g59
NtRp3192
(dp3193
g62
(dp3194
sg71
g3179
sg64
(lp3195
g57
(g58
g59
NtRp3196
(dp3197
g62
(dp3198
g70
I3
ssg71
g3192
sg64
(lp3199
S''
asbasbasbag57
(g73
g59
NtRp3200
(dp3201
g62
(dp3202
sg71
g2902
sg64
(lp3203
g57
(g78
g59
NtRp3204
(dp3205
g62
(dp3206
g82
g83
ssg71
g3200
sg64
(lp3207
S'REMOTE_ADDR'
p3208
asbag57
(g78
g59
NtRp3209
(dp3210
g62
(dp3211
g89
g90
ssg71
g3200
sg64
(lp3212
S':'
asbag57
(g78
g59
NtRp3213
(dp3214
g62
(dp3215
sg71
g3200
sg64
(lp3216
g57
(g58
g59
NtRp3217
(dp3218
g62
(dp3219
g70
I3
ssg71
g3213
sg64
(lp3220
g212
asbasbasbag57
(g73
g59
NtRp3221
(dp3222
g62
(dp3223
sg71
g2902
sg64
(lp3224
g57
(g78
g59
NtRp3225
(dp3226
g62
(dp3227
g82
g83
ssg71
g3221
sg64
(lp3228
S'REMOTE_PORT'
p3229
asbag57
(g78
g59
NtRp3230
(dp3231
g62
(dp3232
g89
g90
ssg71
g3221
sg64
(lp3233
S':'
asbag57
(g78
g59
NtRp3234
(dp3235
g62
(dp3236
sg71
g3221
sg64
(lp3237
g57
(g58
g59
NtRp3238
(dp3239
g62
(dp3240
g70
I3
ssg71
g3234
sg64
(lp3241
g1499
asbasbasbag57
(g73
g59
NtRp3242
(dp3243
g62
(dp3244
sg71
g2902
sg64
(lp3245
g57
(g78
g59
NtRp3246
(dp3247
g62
(dp3248
g82
g83
ssg71
g3242
sg64
(lp3249
S'REQUEST_METHOD'
p3250
asbag57
(g78
g59
NtRp3251
(dp3252
g62
(dp3253
g89
g90
ssg71
g3242
sg64
(lp3254
S':'
asbag57
(g78
g59
NtRp3255
(dp3256
g62
(dp3257
sg71
g3242
sg64
(lp3258
g57
(g58
g59
NtRp3259
(dp3260
g62
(dp3261
g70
I3
ssg71
g3255
sg64
(lp3262
g1521
asbasbasbag57
(g73
g59
NtRp3263
(dp3264
g62
(dp3265
sg71
g2902
sg64
(lp3266
g57
(g78
g59
NtRp3267
(dp3268
g62
(dp3269
g82
g83
ssg71
g3263
sg64
(lp3270
S'REQUEST_URI'
p3271
asbag57
(g78
g59
NtRp3272
(dp3273
g62
(dp3274
g89
g90
ssg71
g3263
sg64
(lp3275
S':'
asbag57
(g78
g59
NtRp3276
(dp3277
g62
(dp3278
sg71
g3263
sg64
(lp3279
g57
(g58
g59
NtRp3280
(dp3281
g62
(dp3282
g70
I3
ssg71
g3276
sg64
(lp3283
g1435
asbasbasbag57
(g73
g59
NtRp3284
(dp3285
g62
(dp3286
sg71
g2902
sg64
(lp3287
g57
(g78
g59
NtRp3288
(dp3289
g62
(dp3290
g82
g83
ssg71
g3284
sg64
(lp3291
S'SCRIPT_NAME'
p3292
asbag57
(g78
g59
NtRp3293
(dp3294
g62
(dp3295
g89
g90
ssg71
g3284
sg64
(lp3296
S':'
asbag57
(g78
g59
NtRp3297
(dp3298
g62
(dp3299
sg71
g3284
sg64
(lp3300
g57
(g58
g59
NtRp3301
(dp3302
g62
(dp3303
g70
I3
ssg71
g3297
sg64
(lp3304
S''
asbasbasbag57
(g73
g59
NtRp3305
(dp3306
g62
(dp3307
sg71
g2902
sg64
(lp3308
g57
(g78
g59
NtRp3309
(dp3310
g62
(dp3311
g82
g83
ssg71
g3305
sg64
(lp3312
S'SERVER_NAME'
p3313
asbag57
(g78
g59
NtRp3314
(dp3315
g62
(dp3316
g89
g90
ssg71
g3305
sg64
(lp3317
S':'
asbag57
(g78
g59
NtRp3318
(dp3319
g62
(dp3320
sg71
g3305
sg64
(lp3321
g57
(g58
g59
NtRp3322
(dp3323
g62
(dp3324
g70
I3
ssg71
g3318
sg64
(lp3325
g1585
asbasbasbag57
(g73
g59
NtRp3326
(dp3327
g62
(dp3328
sg71
g2902
sg64
(lp3329
g57
(g78
g59
NtRp3330
(dp3331
g62
(dp3332
g82
g83
ssg71
g3326
sg64
(lp3333
S'SERVER_PORT'
p3334
asbag57
(g78
g59
NtRp3335
(dp3336
g62
(dp3337
g89
g90
ssg71
g3326
sg64
(lp3338
S':'
asbag57
(g78
g59
NtRp3339
(dp3340
g62
(dp3341
sg71
g3326
sg64
(lp3342
g57
(g58
g59
NtRp3343
(dp3344
g62
(dp3345
g70
I3
ssg71
g3339
sg64
(lp3346
g1607
asbasbasbag57
(g73
g59
NtRp3347
(dp3348
g62
(dp3349
sg71
g2902
sg64
(lp3350
g57
(g78
g59
NtRp3351
(dp3352
g62
(dp3353
g82
g83
ssg71
g3347
sg64
(lp3354
S'SERVER_PROTOCOL'
p3355
asbag57
(g78
g59
NtRp3356
(dp3357
g62
(dp3358
g89
g90
ssg71
g3347
sg64
(lp3359
S':'
asbag57
(g78
g59
NtRp3360
(dp3361
g62
(dp3362
sg71
g3347
sg64
(lp3363
g57
(g58
g59
NtRp3364
(dp3365
g62
(dp3366
g70
I3
ssg71
g3360
sg64
(lp3367
g1629
asbasbasbag57
(g73
g59
NtRp3368
(dp3369
g62
(dp3370
sg71
g2902
sg64
(lp3371
g57
(g78
g59
NtRp3372
(dp3373
g62
(dp3374
g82
g83
ssg71
g3368
sg64
(lp3375
S'SERVER_SOFTWARE'
p3376
asbag57
(g78
g59
NtRp3377
(dp3378
g62
(dp3379
g89
g90
ssg71
g3368
sg64
(lp3380
S':'
asbag57
(g78
g59
NtRp3381
(dp3382
g62
(dp3383
sg71
g3368
sg64
(lp3384
g57
(g58
g59
NtRp3385
(dp3386
g62
(dp3387
g70
I3
ssg71
g3381
sg64
(lp3388
g1651
asbasbasbag57
(g73
g59
NtRp3389
(dp3390
g62
(dp3391
sg71
g2902
sg64
(lp3392
g57
(g78
g59
NtRp3393
(dp3394
g62
(dp3395
g82
g83
ssg71
g3389
sg64
(lp3396
S'wsgi.errors'
p3397
asbag57
(g78
g59
NtRp3398
(dp3399
g62
(dp3400
g89
g90
ssg71
g3389
sg64
(lp3401
S':'
asbag57
(g78
g59
NtRp3402
(dp3403
g62
(dp3404
sg71
g3389
sg64
(lp3405
g57
(g58
g59
NtRp3406
(dp3407
g62
(dp3408
g70
I3
ssg71
g3402
sg64
(lp3409
S"<open file '<stderr>', mode 'w' at 0xb72990d0>"
p3410
asbasbasbag57
(g73
g59
NtRp3411
(dp3412
g62
(dp3413
sg71
g2902
sg64
(lp3414
g57
(g78
g59
NtRp3415
(dp3416
g62
(dp3417
g82
g83
ssg71
g3411
sg64
(lp3418
S'wsgi.file_wrapper'
p3419
asbag57
(g78
g59
NtRp3420
(dp3421
g62
(dp3422
g89
g90
ssg71
g3411
sg64
(lp3423
S':'
asbag57
(g78
g59
NtRp3424
(dp3425
g62
(dp3426
sg71
g3411
sg64
(lp3427
g57
(g58
g59
NtRp3428
(dp3429
g62
(dp3430
g70
I3
ssg71
g3424
sg64
(lp3431
S'<class wsgiref.util.FileWrapper at 0xa60d65c>'
p3432
asbasbasbag57
(g73
g59
NtRp3433
(dp3434
g62
(dp3435
sg71
g2902
sg64
(lp3436
g57
(g78
g59
NtRp3437
(dp3438
g62
(dp3439
g82
g83
ssg71
g3433
sg64
(lp3440
S'wsgi.input'
p3441
asbag57
(g78
g59
NtRp3442
(dp3443
g62
(dp3444
g89
g90
ssg71
g3433
sg64
(lp3445
S':'
asbag57
(g78
g59
NtRp3446
(dp3447
g62
(dp3448
sg71
g3433
sg64
(lp3449
g57
(g58
g59
NtRp3450
(dp3451
g62
(dp3452
g70
I3
ssg71
g3446
sg64
(lp3453
S"<open file '<fdopen>', mode 'w+b' at 0xac41f968>"
p3454
asbasbasbag57
(g73
g59
NtRp3455
(dp3456
g62
(dp3457
sg71
g2902
sg64
(lp3458
g57
(g78
g59
NtRp3459
(dp3460
g62
(dp3461
g82
g83
ssg71
g3455
sg64
(lp3462
S'wsgi.multiprocess'
p3463
asbag57
(g78
g59
NtRp3464
(dp3465
g62
(dp3466
g89
g90
ssg71
g3455
sg64
(lp3467
S':'
asbag57
(g78
g59
NtRp3468
(dp3469
g62
(dp3470
sg71
g3455
sg64
(lp3471
g57
(g58
g59
NtRp3472
(dp3473
g62
(dp3474
g70
I3
ssg71
g3468
sg64
(lp3475
g100
asbasbasbag57
(g73
g59
NtRp3476
(dp3477
g62
(dp3478
sg71
g2902
sg64
(lp3479
g57
(g78
g59
NtRp3480
(dp3481
g62
(dp3482
g82
g83
ssg71
g3476
sg64
(lp3483
S'wsgi.multithread'
p3484
asbag57
(g78
g59
NtRp3485
(dp3486
g62
(dp3487
g89
g90
ssg71
g3476
sg64
(lp3488
S':'
asbag57
(g78
g59
NtRp3489
(dp3490
g62
(dp3491
sg71
g3476
sg64
(lp3492
g57
(g58
g59
NtRp3493
(dp3494
g62
(dp3495
g70
I3
ssg71
g3489
sg64
(lp3496
g1868
asbasbasbag57
(g73
g59
NtRp3497
(dp3498
g62
(dp3499
sg71
g2902
sg64
(lp3500
g57
(g78
g59
NtRp3501
(dp3502
g62
(dp3503
g82
g83
ssg71
g3497
sg64
(lp3504
S'wsgi.run_once'
p3505
asbag57
(g78
g59
NtRp3506
(dp3507
g62
(dp3508
g89
g90
ssg71
g3497
sg64
(lp3509
S':'
asbag57
(g78
g59
NtRp3510
(dp3511
g62
(dp3512
sg71
g3497
sg64
(lp3513
g57
(g58
g59
NtRp3514
(dp3515
g62
(dp3516
g70
I3
ssg71
g3510
sg64
(lp3517
g100
asbasbasbag57
(g73
g59
NtRp3518
(dp3519
g62
(dp3520
sg71
g2902
sg64
(lp3521
g57
(g78
g59
NtRp3522
(dp3523
g62
(dp3524
g82
g83
ssg71
g3518
sg64
(lp3525
S'wsgi.url_scheme'
p3526
asbag57
(g78
g59
NtRp3527
(dp3528
g62
(dp3529
g89
g90
ssg71
g3518
sg64
(lp3530
S':'
asbag57
(g78
g59
NtRp3531
(dp3532
g62
(dp3533
sg71
g3518
sg64
(lp3534
g57
(g58
g59
NtRp3535
(dp3536
g62
(dp3537
g70
I3
ssg71
g3531
sg64
(lp3538
g1911
asbasbasbag57
(g73
g59
NtRp3539
(dp3540
g62
(dp3541
sg71
g2902
sg64
(lp3542
g57
(g78
g59
NtRp3543
(dp3544
g62
(dp3545
g82
g83
ssg71
g3539
sg64
(lp3546
S'wsgi.version'
p3547
asbag57
(g78
g59
NtRp3548
(dp3549
g62
(dp3550
g89
g90
ssg71
g3539
sg64
(lp3551
S':'
asbag57
(g78
g59
NtRp3552
(dp3553
g62
(dp3554
sg71
g3539
sg64
(lp3555
g57
(g58
g59
NtRp3556
(dp3557
g62
(dp3558
g70
I3
ssg71
g3552
sg64
(lp3559
S'1'
asbasbasbasbasbasbasbasbasbasbasbasbasbsS'frames'
p3560
(lp3561
(dp3562
S'file'
p3563
S'/home/aditi/Desktop/web2py/gluon/restricted.py'
p3564
sS'dump'
p3565
(dp3566
S'environment'
p3567
S"{'A': <class 'gluon.html.A'>, 'Auth': <class 'gluon.tools.Auth'>, 'B': <class 'gluon.html.B'>, 'BEAUTIFY': <class 'gluon.html.BEAUTIFY'>, 'BODY': <class 'gluon.html.BODY'>, 'BR': <class 'gluon.html.BR'>, 'BUTTON': <class 'gluon.html.BUTTON'>, 'CAT': <class 'gluon.html.CAT'>, 'CENTER': <class 'gluon.html.CENTER'>, 'CLEANUP': <class 'gluon.validators.CLEANUP'>, ...}"
p3568
sS'ccode'
p3569
S'<code object <module> at 0xac4128d8, file "/home...ons/assignment2/controllers/default.py", line 12>'
p3570
ssS'lnum'
p3571
I212
sS'lines'
p3572
(dp3573
I207
S'    try:'
p3574
sI208
S'        if isinstance(code, types.CodeType):'
p3575
sI209
S'            ccode = code'
p3576
sI210
S'        else:'
p3577
sI211
S'            ccode = compile2(code, layer)'
p3578
sI212
S'        exec ccode in environment'
p3579
sI213
S'    except HTTP:'
p3580
sI214
S'        raise'
p3581
sI215
S'    except RestrictedError:'
p3582
sI216
S'        # do not encapsulate (obfuscate) the original RestrictedError'
p3583
ssS'call'
p3584
S"(code='# -*- coding: utf-8 -*-\\n# this file is released ...\\n\\nresponse._vars=response._caller(user_homepage)\\n', environment={'A': <class 'gluon.html.A'>, 'Auth': <class 'gluon.tools.Auth'>, 'B': <class 'gluon.html.B'>, 'BEAUTIFY': <class 'gluon.html.BEAUTIFY'>, 'BODY': <class 'gluon.html.BODY'>, 'BR': <class 'gluon.html.BR'>, 'BUTTON': <class 'gluon.html.BUTTON'>, 'CAT': <class 'gluon.html.CAT'>, 'CENTER': <class 'gluon.html.CENTER'>, 'CLEANUP': <class 'gluon.validators.CLEANUP'>, ...}, layer='/home/aditi/Desktop/web2py/applications/assignment2/controllers/default.py')"
p3585
sS'func'
p3586
S'restricted'
p3587
sa(dp3588
g3563
S'/home/aditi/Desktop/web2py/applications/assignment2/controllers/default.py'
p3589
sg3565
(dp3590
sg3571
I131
sg3572
(dp3591
I128
S'    """'
p3592
sI129
S'    return dict(form=crud())'
p3593
sI120
S'    http://..../[app]/default/data/update/[table]/[id]'
p3594
sI121
S'    http://..../[app]/default/data/delete/[table]/[id]'
p3595
sI122
S'    http://..../[app]/default/data/select/[table]'
p3596
sI123
S'    http://..../[app]/default/data/search/[table]'
p3597
sI124
S'    but URLs must be signed, i.e. linked with'
p3598
sI125
S"      A('table',_href=URL('data/tables',user_signature=True))"
p3599
sI126
S'    or with the signed load operator'
p3600
sI127
S"      LOAD('default','data.load',args='tables',ajax=True,user_signature=True)"
p3601
ssg3584
S'()'
p3602
sg3586
S'<module>'
p3603
sa(dp3604
g3563
S'/home/aditi/Desktop/web2py/gluon/globals.py'
p3605
sg3565
(dp3606
S'self'
p3607
S'undefined'
p3608
sS'f'
S'<function user_homepage>'
p3609
ssg3571
I193
sg3572
(dp3610
I192
S'        self._vars = None'
p3611
sI193
S'        self._caller = lambda f: f()'
p3612
sI194
S'        self._view_environment = None'
p3613
sI195
S'        self._custom_commit = None'
p3614
sI196
S'        self._custom_rollback = None'
p3615
sI197
S''
sI188
S'        self.menu = []             # used by the default view layout'
p3616
sI189
S'        self.files = []            # used by web2py_ajax.html'
p3617
sI190
S'        self.generic_patterns = []  # patterns to allow generic views'
p3618
sI191
S"        self.delimiters = ('{{', '}}')"
p3619
ssg3584
S'(f=<function user_homepage>)'
p3620
sg3586
S'<lambda>'
p3621
sa(dp3622
g3563
S'/home/aditi/Desktop/web2py/applications/assignment2/controllers/default.py'
p3623
sg3565
(dp3624
S'global total'
p3625
S'0'
ssg3571
I43
sg3572
(dp3626
I38
S"                        Field('heading','string',label='Enter heading'),"
p3627
sI39
S"                        Field('choice','string',requires=IS_IN_SET(['article','video'])),"
p3628
sI40
S"                        Field('url','string',requires=IS_URL(),label='Enter URL'))"
p3629
sI41
S'    if(form.accepts(request.vars,session)):'
p3630
sI42
S'        db.newsitem.insert(category=form.vars.category,heading=form.vars.heading,url=form.vars.url,points=100,likes=0,dislikes=0,rating=1)'
p3631
sI43
S'        total+=1'
p3632
sI44
S"        response.flash='News item successfully added'"
p3633
sI45
S'    n=db().select(db.newsitem.ALL)'
p3634
sI46
S'    return locals()'
p3635
sI47
S''
ssg3584
S'()'
p3636
sg3586
S'user_homepage'
p3637
sasS'pyver'
p3638
S'Python 2.7.3: /usr/bin/python'
p3639
sS'session'
p3640
g57
(g58
g59
NtRp3641
(dp3642
g62
(dp3643
sg64
(lp3644
g57
(g66
g59
NtRp3645
(dp3646
g62
(dp3647
g70
I5
ssg71
Nsg64
(lp3648
g57
(g73
g59
NtRp3649
(dp3650
g62
(dp3651
sg71
g3645
sg64
(lp3652
g57
(g78
g59
NtRp3653
(dp3654
g62
(dp3655
g82
g83
ssg71
g3649
sg64
(lp3656
S'auth'
p3657
asbag57
(g78
g59
NtRp3658
(dp3659
g62
(dp3660
g89
g90
ssg71
g3649
sg64
(lp3661
S':'
asbag57
(g78
g59
NtRp3662
(dp3663
g62
(dp3664
sg71
g3649
sg64
(lp3665
g57
(g58
g59
NtRp3666
(dp3667
g62
(dp3668
g70
I5
ssg71
g3662
sg64
(lp3669
g57
(g66
g59
NtRp3670
(dp3671
g62
(dp3672
g70
I4
ssg71
Nsg64
(lp3673
g57
(g73
g59
NtRp3674
(dp3675
g62
(dp3676
sg71
g3670
sg64
(lp3677
g57
(g78
g59
NtRp3678
(dp3679
g62
(dp3680
g82
g83
ssg71
g3674
sg64
(lp3681
S'expiration'
p3682
asbag57
(g78
g59
NtRp3683
(dp3684
g62
(dp3685
g89
g90
ssg71
g3674
sg64
(lp3686
S':'
asbag57
(g78
g59
NtRp3687
(dp3688
g62
(dp3689
sg71
g3674
sg64
(lp3690
g57
(g58
g59
NtRp3691
(dp3692
g62
(dp3693
g70
I4
ssg71
g3687
sg64
(lp3694
S'3600'
p3695
asbasbasbag57
(g73
g59
NtRp3696
(dp3697
g62
(dp3698
sg71
g3670
sg64
(lp3699
g57
(g78
g59
NtRp3700
(dp3701
g62
(dp3702
g82
g83
ssg71
g3696
sg64
(lp3703
S'hmac_key'
p3704
asbag57
(g78
g59
NtRp3705
(dp3706
g62
(dp3707
g89
g90
ssg71
g3696
sg64
(lp3708
S':'
asbag57
(g78
g59
NtRp3709
(dp3710
g62
(dp3711
sg71
g3696
sg64
(lp3712
g57
(g58
g59
NtRp3713
(dp3714
g62
(dp3715
g70
I4
ssg71
g3709
sg64
(lp3716
S'd1823e26-4257-47e9-b0ad-9b464ec5bcde'
p3717
asbasbasbag57
(g73
g59
NtRp3718
(dp3719
g62
(dp3720
sg71
g3670
sg64
(lp3721
g57
(g78
g59
NtRp3722
(dp3723
g62
(dp3724
g82
g83
ssg71
g3718
sg64
(lp3725
S'last_visit'
p3726
asbag57
(g78
g59
NtRp3727
(dp3728
g62
(dp3729
g89
g90
ssg71
g3718
sg64
(lp3730
S':'
asbag57
(g78
g59
NtRp3731
(dp3732
g62
(dp3733
sg71
g3718
sg64
(lp3734
g57
(g58
g59
NtRp3735
(dp3736
g62
(dp3737
g70
I4
ssg71
g3731
sg64
(lp3738
S'datetime.datetime(2013, 8, 26, 17, 57, 57, 645118)'
p3739
asbasbasbag57
(g73
g59
NtRp3740
(dp3741
g62
(dp3742
sg71
g3670
sg64
(lp3743
g57
(g78
g59
NtRp3744
(dp3745
g62
(dp3746
g82
g83
ssg71
g3740
sg64
(lp3747
S'remember'
p3748
asbag57
(g78
g59
NtRp3749
(dp3750
g62
(dp3751
g89
g90
ssg71
g3740
sg64
(lp3752
S':'
asbag57
(g78
g59
NtRp3753
(dp3754
g62
(dp3755
sg71
g3740
sg64
(lp3756
g57
(g58
g59
NtRp3757
(dp3758
g62
(dp3759
g70
I4
ssg71
g3753
sg64
(lp3760
g100
asbasbasbag57
(g73
g59
NtRp3761
(dp3762
g62
(dp3763
sg71
g3670
sg64
(lp3764
g57
(g78
g59
NtRp3765
(dp3766
g62
(dp3767
g82
g83
ssg71
g3761
sg64
(lp3768
S'user'
p3769
asbag57
(g78
g59
NtRp3770
(dp3771
g62
(dp3772
g89
g90
ssg71
g3761
sg64
(lp3773
S':'
asbag57
(g78
g59
NtRp3774
(dp3775
g62
(dp3776
sg71
g3761
sg64
(lp3777
g57
(g58
g59
NtRp3778
(dp3779
g62
(dp3780
g70
I4
ssg71
g3774
sg64
(lp3781
g57
(g66
g59
NtRp3782
(dp3783
g62
(dp3784
g70
I3
ssg71
Nsg64
(lp3785
g57
(g73
g59
NtRp3786
(dp3787
g62
(dp3788
sg71
g3782
sg64
(lp3789
g57
(g78
g59
NtRp3790
(dp3791
g62
(dp3792
g82
g83
ssg71
g3786
sg64
(lp3793
S'account_type'
p3794
asbag57
(g78
g59
NtRp3795
(dp3796
g62
(dp3797
g89
g90
ssg71
g3786
sg64
(lp3798
S':'
asbag57
(g78
g59
NtRp3799
(dp3800
g62
(dp3801
sg71
g3786
sg64
(lp3802
g57
(g58
g59
NtRp3803
(dp3804
g62
(dp3805
g70
I3
ssg71
g3799
sg64
(lp3806
S'user'
p3807
asbasbasbag57
(g73
g59
NtRp3808
(dp3809
g62
(dp3810
sg71
g3782
sg64
(lp3811
g57
(g78
g59
NtRp3812
(dp3813
g62
(dp3814
g82
g83
ssg71
g3808
sg64
(lp3815
S'alt_email'
p3816
asbag57
(g78
g59
NtRp3817
(dp3818
g62
(dp3819
g89
g90
ssg71
g3808
sg64
(lp3820
S':'
asbag57
(g78
g59
NtRp3821
(dp3822
g62
(dp3823
sg71
g3808
sg64
(lp3824
g57
(g58
g59
NtRp3825
(dp3826
g62
(dp3827
g70
I3
ssg71
g3821
sg64
(lp3828
S'switch2aditi@gmail.com'
p3829
asbasbasbag57
(g73
g59
NtRp3830
(dp3831
g62
(dp3832
sg71
g3782
sg64
(lp3833
g57
(g78
g59
NtRp3834
(dp3835
g62
(dp3836
g82
g83
ssg71
g3830
sg64
(lp3837
S'dob'
p3838
asbag57
(g78
g59
NtRp3839
(dp3840
g62
(dp3841
g89
g90
ssg71
g3830
sg64
(lp3842
S':'
asbag57
(g78
g59
NtRp3843
(dp3844
g62
(dp3845
sg71
g3830
sg64
(lp3846
g57
(g58
g59
NtRp3847
(dp3848
g62
(dp3849
g70
I3
ssg71
g3843
sg64
(lp3850
S'datetime.date(1994, 5, 11)'
p3851
asbasbasbag57
(g73
g59
NtRp3852
(dp3853
g62
(dp3854
sg71
g3782
sg64
(lp3855
g57
(g78
g59
NtRp3856
(dp3857
g62
(dp3858
g82
g83
ssg71
g3852
sg64
(lp3859
S'email'
p3860
asbag57
(g78
g59
NtRp3861
(dp3862
g62
(dp3863
g89
g90
ssg71
g3852
sg64
(lp3864
S':'
asbag57
(g78
g59
NtRp3865
(dp3866
g62
(dp3867
sg71
g3852
sg64
(lp3868
g57
(g58
g59
NtRp3869
(dp3870
g62
(dp3871
g70
I3
ssg71
g3865
sg64
(lp3872
S'aditi.mavalankar@students.iiit.ac.in'
p3873
asbasbasbag57
(g73
g59
NtRp3874
(dp3875
g62
(dp3876
sg71
g3782
sg64
(lp3877
g57
(g78
g59
NtRp3878
(dp3879
g62
(dp3880
g82
g83
ssg71
g3874
sg64
(lp3881
S'first_name'
p3882
asbag57
(g78
g59
NtRp3883
(dp3884
g62
(dp3885
g89
g90
ssg71
g3874
sg64
(lp3886
S':'
asbag57
(g78
g59
NtRp3887
(dp3888
g62
(dp3889
sg71
g3874
sg64
(lp3890
g57
(g58
g59
NtRp3891
(dp3892
g62
(dp3893
g70
I3
ssg71
g3887
sg64
(lp3894
S'aditi'
p3895
asbasbasbag57
(g73
g59
NtRp3896
(dp3897
g62
(dp3898
sg71
g3782
sg64
(lp3899
g57
(g78
g59
NtRp3900
(dp3901
g62
(dp3902
g82
g83
ssg71
g3896
sg64
(lp3903
S'id'
p3904
asbag57
(g78
g59
NtRp3905
(dp3906
g62
(dp3907
g89
g90
ssg71
g3896
sg64
(lp3908
S':'
asbag57
(g78
g59
NtRp3909
(dp3910
g62
(dp3911
sg71
g3896
sg64
(lp3912
g57
(g58
g59
NtRp3913
(dp3914
g62
(dp3915
g70
I3
ssg71
g3909
sg64
(lp3916
S'1'
asbasbasbag57
(g73
g59
NtRp3917
(dp3918
g62
(dp3919
sg71
g3782
sg64
(lp3920
g57
(g78
g59
NtRp3921
(dp3922
g62
(dp3923
g82
g83
ssg71
g3917
sg64
(lp3924
S'last_name'
p3925
asbag57
(g78
g59
NtRp3926
(dp3927
g62
(dp3928
g89
g90
ssg71
g3917
sg64
(lp3929
S':'
asbag57
(g78
g59
NtRp3930
(dp3931
g62
(dp3932
sg71
g3917
sg64
(lp3933
g57
(g58
g59
NtRp3934
(dp3935
g62
(dp3936
g70
I3
ssg71
g3930
sg64
(lp3937
S'mavalankar'
p3938
asbasbasbag57
(g73
g59
NtRp3939
(dp3940
g62
(dp3941
sg71
g3782
sg64
(lp3942
g57
(g78
g59
NtRp3943
(dp3944
g62
(dp3945
g82
g83
ssg71
g3939
sg64
(lp3946
S'registration_id'
p3947
asbag57
(g78
g59
NtRp3948
(dp3949
g62
(dp3950
g89
g90
ssg71
g3939
sg64
(lp3951
S':'
asbag57
(g78
g59
NtRp3952
(dp3953
g62
(dp3954
sg71
g3939
sg64
(lp3955
g57
(g58
g59
NtRp3956
(dp3957
g62
(dp3958
g70
I3
ssg71
g3952
sg64
(lp3959
S''
asbasbasbag57
(g73
g59
NtRp3960
(dp3961
g62
(dp3962
sg71
g3782
sg64
(lp3963
g57
(g78
g59
NtRp3964
(dp3965
g62
(dp3966
g82
g83
ssg71
g3960
sg64
(lp3967
S'registration_key'
p3968
asbag57
(g78
g59
NtRp3969
(dp3970
g62
(dp3971
g89
g90
ssg71
g3960
sg64
(lp3972
S':'
asbag57
(g78
g59
NtRp3973
(dp3974
g62
(dp3975
sg71
g3960
sg64
(lp3976
g57
(g58
g59
NtRp3977
(dp3978
g62
(dp3979
g70
I3
ssg71
g3973
sg64
(lp3980
S''
asbasbasbag57
(g73
g59
NtRp3981
(dp3982
g62
(dp3983
sg71
g3782
sg64
(lp3984
g57
(g78
g59
NtRp3985
(dp3986
g62
(dp3987
g82
g83
ssg71
g3981
sg64
(lp3988
S'reset_password_key'
p3989
asbag57
(g78
g59
NtRp3990
(dp3991
g62
(dp3992
g89
g90
ssg71
g3981
sg64
(lp3993
S':'
asbag57
(g78
g59
NtRp3994
(dp3995
g62
(dp3996
sg71
g3981
sg64
(lp3997
g57
(g58
g59
NtRp3998
(dp3999
g62
(dp4000
g70
I3
ssg71
g3994
sg64
(lp4001
S''
asbasbasbag57
(g73
g59
NtRp4002
(dp4003
g62
(dp4004
sg71
g3782
sg64
(lp4005
g57
(g78
g59
NtRp4006
(dp4007
g62
(dp4008
g82
g83
ssg71
g4002
sg64
(lp4009
S'username'
p4010
asbag57
(g78
g59
NtRp4011
(dp4012
g62
(dp4013
g89
g90
ssg71
g4002
sg64
(lp4014
S':'
asbag57
(g78
g59
NtRp4015
(dp4016
g62
(dp4017
sg71
g4002
sg64
(lp4018
g57
(g58
g59
NtRp4019
(dp4020
g62
(dp4021
g70
I3
ssg71
g4015
sg64
(lp4022
S'aditi.mavalankar'
p4023
asbasbasbasbasbasbasbag57
(g73
g59
NtRp4024
(dp4025
g62
(dp4026
sg71
g3670
sg64
(lp4027
g57
(g78
g59
NtRp4028
(dp4029
g62
(dp4030
g82
g83
ssg71
g4024
sg64
(lp4031
S'user_groups'
p4032
asbag57
(g78
g59
NtRp4033
(dp4034
g62
(dp4035
g89
g90
ssg71
g4024
sg64
(lp4036
S':'
asbag57
(g78
g59
NtRp4037
(dp4038
g62
(dp4039
sg71
g4024
sg64
(lp4040
g57
(g58
g59
NtRp4041
(dp4042
g62
(dp4043
g70
I4
ssg71
g4037
sg64
(lp4044
g57
(g66
g59
NtRp4045
(dp4046
g62
(dp4047
g70
I3
ssg71
Nsg64
(lp4048
g57
(g73
g59
NtRp4049
(dp4050
g62
(dp4051
sg71
g4045
sg64
(lp4052
g57
(g78
g59
NtRp4053
(dp4054
g62
(dp4055
g82
g83
ssg71
g4049
sg64
(lp4056
S'1'
asbag57
(g78
g59
NtRp4057
(dp4058
g62
(dp4059
g89
g90
ssg71
g4049
sg64
(lp4060
S':'
asbag57
(g78
g59
NtRp4061
(dp4062
g62
(dp4063
sg71
g4049
sg64
(lp4064
g57
(g58
g59
NtRp4065
(dp4066
g62
(dp4067
g70
I3
ssg71
g4061
sg64
(lp4068
S'user_1'
p4069
asbasbasbasbasbasbasbasbasbasbasbag57
(g73
g59
NtRp4070
(dp4071
g62
(dp4072
sg71
g3645
sg64
(lp4073
g57
(g78
g59
NtRp4074
(dp4075
g62
(dp4076
g82
g83
ssg71
g4070
sg64
(lp4077
S'flash'
p4078
asbag57
(g78
g59
NtRp4079
(dp4080
g62
(dp4081
g89
g90
ssg71
g4070
sg64
(lp4082
S':'
asbag57
(g78
g59
NtRp4083
(dp4084
g62
(dp4085
sg71
g4070
sg64
(lp4086
g57
(g58
g59
NtRp4087
(dp4088
g62
(dp4089
g70
I5
ssg71
g4083
sg64
(lp4090
S'None'
p4091
asbasbasbasbasbsS'etype'
p4092
S"<type 'exceptions.UnboundLocalError'>"
p4093
sS'date'
p4094
S'Mon Aug 26 17:59:57 2013'
p4095
sS'response'
p4096
g57
(g58
g59
NtRp4097
(dp4098
g62
(dp4099
sg64
(lp4100
g57
(g66
g59
NtRp4101
(dp4102
g62
(dp4103
g70
I5
ssg71
Nsg64
(lp4104
g57
(g73
g59
NtRp4105
(dp4106
g62
(dp4107
sg71
g4101
sg64
(lp4108
g57
(g78
g59
NtRp4109
(dp4110
g62
(dp4111
g82
g83
ssg71
g4105
sg64
(lp4112
g155
asbag57
(g78
g59
NtRp4113
(dp4114
g62
(dp4115
g89
g90
ssg71
g4105
sg64
(lp4116
S':'
asbag57
(g78
g59
NtRp4117
(dp4118
g62
(dp4119
sg71
g4105
sg64
(lp4120
g57
(g58
g59
NtRp4121
(dp4122
g62
(dp4123
g70
I5
ssg71
g4117
sg64
(lp4124
S'<cStringIO.StringO object at 0xad426280>'
p4125
asbasbasbag57
(g73
g59
NtRp4126
(dp4127
g62
(dp4128
sg71
g4101
sg64
(lp4129
g57
(g78
g59
NtRp4130
(dp4131
g62
(dp4132
g82
g83
ssg71
g4126
sg64
(lp4133
g243
asbag57
(g78
g59
NtRp4134
(dp4135
g62
(dp4136
g89
g90
ssg71
g4126
sg64
(lp4137
S':'
asbag57
(g78
g59
NtRp4138
(dp4139
g62
(dp4140
sg71
g4126
sg64
(lp4141
g57
(g58
g59
NtRp4142
(dp4143
g62
(dp4144
g70
I5
ssg71
g4138
sg64
(lp4145
g57
(g66
g59
NtRp4146
(dp4147
g62
(dp4148
g70
I4
ssg71
Nsg64
(lp4149
g57
(g73
g59
NtRp4150
(dp4151
g62
(dp4152
sg71
g4146
sg64
(lp4153
g57
(g78
g59
NtRp4154
(dp4155
g62
(dp4156
g82
g83
ssg71
g4150
sg64
(lp4157
S'session_id_assignment2'
p4158
asbag57
(g78
g59
NtRp4159
(dp4160
g62
(dp4161
g89
g90
ssg71
g4150
sg64
(lp4162
S':'
asbag57
(g78
g59
NtRp4163
(dp4164
g62
(dp4165
sg71
g4150
sg64
(lp4166
g57
(g58
g59
NtRp4167
(dp4168
g62
(dp4169
g70
I4
ssg71
g4163
sg64
(lp4170
g475
ag57
(g66
g59
NtRp4171
(dp4172
g62
(dp4173
g70
I3
ssg71
Nsg64
(lp4174
g57
(g73
g59
NtRp4175
(dp4176
g62
(dp4177
sg71
g4171
sg64
(lp4178
g57
(g78
g59
NtRp4179
(dp4180
g62
(dp4181
g82
g83
ssg71
g4175
sg64
(lp4182
g294
asbag57
(g78
g59
NtRp4183
(dp4184
g62
(dp4185
g89
g90
ssg71
g4175
sg64
(lp4186
S':'
asbag57
(g78
g59
NtRp4187
(dp4188
g62
(dp4189
sg71
g4175
sg64
(lp4190
g57
(g58
g59
NtRp4191
(dp4192
g62
(dp4193
g70
I3
ssg71
g4187
sg64
(lp4194
S''
asbasbasbag57
(g73
g59
NtRp4195
(dp4196
g62
(dp4197
sg71
g4171
sg64
(lp4198
g57
(g78
g59
NtRp4199
(dp4200
g62
(dp4201
g82
g83
ssg71
g4195
sg64
(lp4202
g315
asbag57
(g78
g59
NtRp4203
(dp4204
g62
(dp4205
g89
g90
ssg71
g4195
sg64
(lp4206
S':'
asbag57
(g78
g59
NtRp4207
(dp4208
g62
(dp4209
sg71
g4195
sg64
(lp4210
g57
(g58
g59
NtRp4211
(dp4212
g62
(dp4213
g70
I3
ssg71
g4207
sg64
(lp4214
S''
asbasbasbag57
(g73
g59
NtRp4215
(dp4216
g62
(dp4217
sg71
g4171
sg64
(lp4218
g57
(g78
g59
NtRp4219
(dp4220
g62
(dp4221
g82
g83
ssg71
g4215
sg64
(lp4222
g336
asbag57
(g78
g59
NtRp4223
(dp4224
g62
(dp4225
g89
g90
ssg71
g4215
sg64
(lp4226
S':'
asbag57
(g78
g59
NtRp4227
(dp4228
g62
(dp4229
sg71
g4215
sg64
(lp4230
g57
(g58
g59
NtRp4231
(dp4232
g62
(dp4233
g70
I3
ssg71
g4227
sg64
(lp4234
S''
asbasbasbag57
(g73
g59
NtRp4235
(dp4236
g62
(dp4237
sg71
g4171
sg64
(lp4238
g57
(g78
g59
NtRp4239
(dp4240
g62
(dp4241
g82
g83
ssg71
g4235
sg64
(lp4242
g357
asbag57
(g78
g59
NtRp4243
(dp4244
g62
(dp4245
g89
g90
ssg71
g4235
sg64
(lp4246
S':'
asbag57
(g78
g59
NtRp4247
(dp4248
g62
(dp4249
sg71
g4235
sg64
(lp4250
g57
(g58
g59
NtRp4251
(dp4252
g62
(dp4253
g70
I3
ssg71
g4247
sg64
(lp4254
S''
asbasbasbag57
(g73
g59
NtRp4255
(dp4256
g62
(dp4257
sg71
g4171
sg64
(lp4258
g57
(g78
g59
NtRp4259
(dp4260
g62
(dp4261
g82
g83
ssg71
g4255
sg64
(lp4262
g378
asbag57
(g78
g59
NtRp4263
(dp4264
g62
(dp4265
g89
g90
ssg71
g4255
sg64
(lp4266
S':'
asbag57
(g78
g59
NtRp4267
(dp4268
g62
(dp4269
sg71
g4255
sg64
(lp4270
g57
(g58
g59
NtRp4271
(dp4272
g62
(dp4273
g70
I3
ssg71
g4267
sg64
(lp4274
S''
asbasbasbag57
(g73
g59
NtRp4275
(dp4276
g62
(dp4277
sg71
g4171
sg64
(lp4278
g57
(g78
g59
NtRp4279
(dp4280
g62
(dp4281
g82
g83
ssg71
g4275
sg64
(lp4282
g399
asbag57
(g78
g59
NtRp4283
(dp4284
g62
(dp4285
g89
g90
ssg71
g4275
sg64
(lp4286
S':'
asbag57
(g78
g59
NtRp4287
(dp4288
g62
(dp4289
sg71
g4275
sg64
(lp4290
g57
(g58
g59
NtRp4291
(dp4292
g62
(dp4293
g70
I3
ssg71
g4287
sg64
(lp4294
S'/'
asbasbasbag57
(g73
g59
NtRp4295
(dp4296
g62
(dp4297
sg71
g4171
sg64
(lp4298
g57
(g78
g59
NtRp4299
(dp4300
g62
(dp4301
g82
g83
ssg71
g4295
sg64
(lp4302
g420
asbag57
(g78
g59
NtRp4303
(dp4304
g62
(dp4305
g89
g90
ssg71
g4295
sg64
(lp4306
S':'
asbag57
(g78
g59
NtRp4307
(dp4308
g62
(dp4309
sg71
g4295
sg64
(lp4310
g57
(g58
g59
NtRp4311
(dp4312
g62
(dp4313
g70
I3
ssg71
g4307
sg64
(lp4314
S''
asbasbasbag57
(g73
g59
NtRp4315
(dp4316
g62
(dp4317
sg71
g4171
sg64
(lp4318
g57
(g78
g59
NtRp4319
(dp4320
g62
(dp4321
g82
g83
ssg71
g4315
sg64
(lp4322
g441
asbag57
(g78
g59
NtRp4323
(dp4324
g62
(dp4325
g89
g90
ssg71
g4315
sg64
(lp4326
S':'
asbag57
(g78
g59
NtRp4327
(dp4328
g62
(dp4329
sg71
g4315
sg64
(lp4330
g57
(g58
g59
NtRp4331
(dp4332
g62
(dp4333
g70
I3
ssg71
g4327
sg64
(lp4334
S''
asbasbasbasbasbasbasbasbasbasbasbag57
(g73
g59
NtRp4335
(dp4336
g62
(dp4337
sg71
g4101
sg64
(lp4338
g57
(g78
g59
NtRp4339
(dp4340
g62
(dp4341
g82
g83
ssg71
g4335
sg64
(lp4342
S'delimiters'
p4343
asbag57
(g78
g59
NtRp4344
(dp4345
g62
(dp4346
g89
g90
ssg71
g4335
sg64
(lp4347
S':'
asbag57
(g78
g59
NtRp4348
(dp4349
g62
(dp4350
sg71
g4335
sg64
(lp4351
g57
(g58
g59
NtRp4352
(dp4353
g62
(dp4354
g70
I5
ssg71
g4348
sg64
(lp4355
g57
(g66
g59
NtRp4356
(dp4357
g62
(dp4358
g70
I4
ssg71
Nsg64
(lp4359
g57
(g73
g59
NtRp4360
(dp4361
g62
(dp4362
sg71
g4356
sg64
(lp4363
g57
(g78
g59
NtRp4364
(dp4365
g62
(dp4366
sg71
g4360
sg64
(lp4367
g57
(g58
g59
NtRp4368
(dp4369
g62
(dp4370
g70
I4
ssg71
g4364
sg64
(lp4371
S'{{'
p4372
asbasbasbag57
(g73
g59
NtRp4373
(dp4374
g62
(dp4375
sg71
g4356
sg64
(lp4376
g57
(g78
g59
NtRp4377
(dp4378
g62
(dp4379
sg71
g4373
sg64
(lp4380
g57
(g58
g59
NtRp4381
(dp4382
g62
(dp4383
g70
I4
ssg71
g4377
sg64
(lp4384
S'}}'
p4385
asbasbasbasbasbasbasbag57
(g73
g59
NtRp4386
(dp4387
g62
(dp4388
sg71
g4101
sg64
(lp4389
g57
(g78
g59
NtRp4390
(dp4391
g62
(dp4392
g82
g83
ssg71
g4386
sg64
(lp4393
S'files'
p4394
asbag57
(g78
g59
NtRp4395
(dp4396
g62
(dp4397
g89
g90
ssg71
g4386
sg64
(lp4398
S':'
asbag57
(g78
g59
NtRp4399
(dp4400
g62
(dp4401
sg71
g4386
sg64
(lp4402
g57
(g58
g59
NtRp4403
(dp4404
g62
(dp4405
g70
I5
ssg71
g4399
sg64
(lp4406
g57
(g66
g59
NtRp4407
(dp4408
g62
(dp4409
g70
I4
ssg71
Nsg64
(lp4410
sbasbasbasbag57
(g73
g59
NtRp4411
(dp4412
g62
(dp4413
sg71
g4101
sg64
(lp4414
g57
(g78
g59
NtRp4415
(dp4416
g62
(dp4417
g82
g83
ssg71
g4411
sg64
(lp4418
S'flash'
p4419
asbag57
(g78
g59
NtRp4420
(dp4421
g62
(dp4422
g89
g90
ssg71
g4411
sg64
(lp4423
S':'
asbag57
(g78
g59
NtRp4424
(dp4425
g62
(dp4426
sg71
g4411
sg64
(lp4427
g57
(g58
g59
NtRp4428
(dp4429
g62
(dp4430
g70
I5
ssg71
g4424
sg64
(lp4431
S''
asbasbasbag57
(g73
g59
NtRp4432
(dp4433
g62
(dp4434
sg71
g4101
sg64
(lp4435
g57
(g78
g59
NtRp4436
(dp4437
g62
(dp4438
g82
g83
ssg71
g4432
sg64
(lp4439
S'generic_patterns'
p4440
asbag57
(g78
g59
NtRp4441
(dp4442
g62
(dp4443
g89
g90
ssg71
g4432
sg64
(lp4444
S':'
asbag57
(g78
g59
NtRp4445
(dp4446
g62
(dp4447
sg71
g4432
sg64
(lp4448
g57
(g58
g59
NtRp4449
(dp4450
g62
(dp4451
g70
I5
ssg71
g4445
sg64
(lp4452
g57
(g66
g59
NtRp4453
(dp4454
g62
(dp4455
g70
I4
ssg71
Nsg64
(lp4456
g57
(g73
g59
NtRp4457
(dp4458
g62
(dp4459
sg71
g4453
sg64
(lp4460
g57
(g78
g59
NtRp4461
(dp4462
g62
(dp4463
sg71
g4457
sg64
(lp4464
g57
(g58
g59
NtRp4465
(dp4466
g62
(dp4467
g70
I4
ssg71
g4461
sg64
(lp4468
S'*'
asbasbasbasbasbasbasbag57
(g73
g59
NtRp4469
(dp4470
g62
(dp4471
sg71
g4101
sg64
(lp4472
g57
(g78
g59
NtRp4473
(dp4474
g62
(dp4475
g82
g83
ssg71
g4469
sg64
(lp4476
S'google_analytics_id'
p4477
asbag57
(g78
g59
NtRp4478
(dp4479
g62
(dp4480
g89
g90
ssg71
g4469
sg64
(lp4481
S':'
asbag57
(g78
g59
NtRp4482
(dp4483
g62
(dp4484
sg71
g4469
sg64
(lp4485
g57
(g58
g59
NtRp4486
(dp4487
g62
(dp4488
g70
I5
ssg71
g4482
sg64
(lp4489
S'None'
p4490
asbasbasbag57
(g73
g59
NtRp4491
(dp4492
g62
(dp4493
sg71
g4101
sg64
(lp4494
g57
(g78
g59
NtRp4495
(dp4496
g62
(dp4497
g82
g83
ssg71
g4491
sg64
(lp4498
S'headers'
p4499
asbag57
(g78
g59
NtRp4500
(dp4501
g62
(dp4502
g89
g90
ssg71
g4491
sg64
(lp4503
S':'
asbag57
(g78
g59
NtRp4504
(dp4505
g62
(dp4506
sg71
g4491
sg64
(lp4507
g57
(g58
g59
NtRp4508
(dp4509
g62
(dp4510
g70
I5
ssg71
g4504
sg64
(lp4511
g57
(g66
g59
NtRp4512
(dp4513
g62
(dp4514
g70
I4
ssg71
Nsg64
(lp4515
g57
(g73
g59
NtRp4516
(dp4517
g62
(dp4518
sg71
g4512
sg64
(lp4519
g57
(g78
g59
NtRp4520
(dp4521
g62
(dp4522
g82
g83
ssg71
g4516
sg64
(lp4523
S'X-Powered-By'
p4524
asbag57
(g78
g59
NtRp4525
(dp4526
g62
(dp4527
g89
g90
ssg71
g4516
sg64
(lp4528
S':'
asbag57
(g78
g59
NtRp4529
(dp4530
g62
(dp4531
sg71
g4516
sg64
(lp4532
g57
(g58
g59
NtRp4533
(dp4534
g62
(dp4535
g70
I4
ssg71
g4529
sg64
(lp4536
S'web2py'
p4537
asbasbasbasbasbasbasbag57
(g73
g59
NtRp4538
(dp4539
g62
(dp4540
sg71
g4101
sg64
(lp4541
g57
(g78
g59
NtRp4542
(dp4543
g62
(dp4544
g82
g83
ssg71
g4538
sg64
(lp4545
S'logo'
p4546
asbag57
(g78
g59
NtRp4547
(dp4548
g62
(dp4549
g89
g90
ssg71
g4538
sg64
(lp4550
S':'
asbag57
(g78
g59
NtRp4551
(dp4552
g62
(dp4553
sg71
g4538
sg64
(lp4554
g57
(g58
g59
NtRp4555
(dp4556
g62
(dp4557
g70
I5
ssg71
g4551
sg64
(lp4558
g57
(cgluon.html
A
p4559
g59
NtRp4560
(dp4561
g62
(dp4562
S'_class'
p4563
S'brand'
p4564
sS'_href'
p4565
S'http://www.web2py.com/'
p4566
ssg71
Nsg64
(lp4567
g57
(cgluon.html
B
p4568
g59
NtRp4569
(dp4570
g62
(dp4571
sg71
g4560
sg64
(lp4572
S'web'
p4573
ag57
(cgluon.html
SPAN
p4574
g59
NtRp4575
(dp4576
g62
(dp4577
sg71
g4569
sg64
(lp4578
I2
asbaS'py'
p4579
asbacgluon.html
XML_unpickle
p4580
(S's\r\x00\x00\x00&trade;&nbsp;'
tRp4581
asbasbasbasbag57
(g73
g59
NtRp4582
(dp4583
g62
(dp4584
sg71
g4101
sg64
(lp4585
g57
(g78
g59
NtRp4586
(dp4587
g62
(dp4588
g82
g83
ssg71
g4582
sg64
(lp4589
S'menu'
p4590
asbag57
(g78
g59
NtRp4591
(dp4592
g62
(dp4593
g89
g90
ssg71
g4582
sg64
(lp4594
S':'
asbag57
(g78
g59
NtRp4595
(dp4596
g62
(dp4597
sg71
g4582
sg64
(lp4598
g57
(g58
g59
NtRp4599
(dp4600
g62
(dp4601
g70
I5
ssg71
g4595
sg64
(lp4602
g57
(g66
g59
NtRp4603
(dp4604
g62
(dp4605
g70
I4
ssg71
Nsg64
(lp4606
g57
(g73
g59
NtRp4607
(dp4608
g62
(dp4609
sg71
g4603
sg64
(lp4610
g57
(g78
g59
NtRp4611
(dp4612
g62
(dp4613
sg71
g4607
sg64
(lp4614
g57
(g58
g59
NtRp4615
(dp4616
g62
(dp4617
g70
I4
ssg71
g4611
sg64
(lp4618
g57
(g66
g59
NtRp4619
(dp4620
g62
(dp4621
g70
I3
ssg71
Nsg64
(lp4622
g57
(g73
g59
NtRp4623
(dp4624
g62
(dp4625
sg71
g4619
sg64
(lp4626
g57
(g78
g59
NtRp4627
(dp4628
g62
(dp4629
sg71
g4623
sg64
(lp4630
g57
(g58
g59
NtRp4631
(dp4632
g62
(dp4633
g70
I3
ssg71
g4627
sg64
(lp4634
cgluon.languages
lazyT_unpickle
p4635
(S's\x04\x00\x00\x00Home'
tRp4636
asbasbasbag57
(g73
g59
NtRp4637
(dp4638
g62
(dp4639
sg71
g4619
sg64
(lp4640
g57
(g78
g59
NtRp4641
(dp4642
g62
(dp4643
sg71
g4637
sg64
(lp4644
g57
(g58
g59
NtRp4645
(dp4646
g62
(dp4647
g70
I3
ssg71
g4641
sg64
(lp4648
g100
asbasbasbag57
(g73
g59
NtRp4649
(dp4650
g62
(dp4651
sg71
g4619
sg64
(lp4652
g57
(g78
g59
NtRp4653
(dp4654
g62
(dp4655
sg71
g4649
sg64
(lp4656
g57
(g58
g59
NtRp4657
(dp4658
g62
(dp4659
g70
I3
ssg71
g4653
sg64
(lp4660
S'/assignment2/default/index'
p4661
asbasbasbag57
(g73
g59
NtRp4662
(dp4663
g62
(dp4664
sg71
g4619
sg64
(lp4665
g57
(g78
g59
NtRp4666
(dp4667
g62
(dp4668
sg71
g4662
sg64
(lp4669
g57
(g58
g59
NtRp4670
(dp4671
g62
(dp4672
g70
I3
ssg71
g4666
sg64
(lp4673
g57
(g66
g59
NtRp4674
(dp4675
g62
(dp4676
g70
I2
ssg71
Nsg64
(lp4677
sbasbasbasbasbasbasbasbag57
(g73
g59
NtRp4678
(dp4679
g62
(dp4680
sg71
g4603
sg64
(lp4681
g57
(g78
g59
NtRp4682
(dp4683
g62
(dp4684
sg71
g4678
sg64
(lp4685
g57
(g58
g59
NtRp4686
(dp4687
g62
(dp4688
g70
I4
ssg71
g4682
sg64
(lp4689
g57
(g66
g59
NtRp4690
(dp4691
g62
(dp4692
g70
I3
ssg71
Nsg64
(lp4693
g57
(g73
g59
NtRp4694
(dp4695
g62
(dp4696
sg71
g4690
sg64
(lp4697
g57
(g78
g59
NtRp4698
(dp4699
g62
(dp4700
sg71
g4694
sg64
(lp4701
g57
(g58
g59
NtRp4702
(dp4703
g62
(dp4704
g70
I3
ssg71
g4698
sg64
(lp4705
g57
(g4574
g59
NtRp4706
(dp4707
g62
(dp4708
g4563
S'highlighted'
p4709
ssg71
Nsg64
(lp4710
g4537
asbasbasbasbag57
(g73
g59
NtRp4711
(dp4712
g62
(dp4713
sg71
g4690
sg64
(lp4714
g57
(g78
g59
NtRp4715
(dp4716
g62
(dp4717
sg71
g4711
sg64
(lp4718
g57
(g58
g59
NtRp4719
(dp4720
g62
(dp4721
g70
I3
ssg71
g4715
sg64
(lp4722
g100
asbasbasbag57
(g73
g59
NtRp4723
(dp4724
g62
(dp4725
sg71
g4690
sg64
(lp4726
g57
(g78
g59
NtRp4727
(dp4728
g62
(dp4729
sg71
g4723
sg64
(lp4730
g57
(g58
g59
NtRp4731
(dp4732
g62
(dp4733
g70
I3
ssg71
g4727
sg64
(lp4734
S'http://web2py.com'
p4735
asbasbasbag57
(g73
g59
NtRp4736
(dp4737
g62
(dp4738
sg71
g4690
sg64
(lp4739
g57
(g78
g59
NtRp4740
(dp4741
g62
(dp4742
sg71
g4736
sg64
(lp4743
g57
(g58
g59
NtRp4744
(dp4745
g62
(dp4746
g70
I3
ssg71
g4740
sg64
(lp4747
g57
(g66
g59
NtRp4748
(dp4749
g62
(dp4750
g70
I2
ssg71
Nsg64
(lp4751
g57
(g73
g59
NtRp4752
(dp4753
g62
(dp4754
sg71
g4748
sg64
(lp4755
g57
(g78
g59
NtRp4756
(dp4757
g62
(dp4758
sg71
g4752
sg64
(lp4759
g57
(g58
g59
NtRp4760
(dp4761
g62
(dp4762
g70
I2
ssg71
g4756
sg64
(lp4763
g57
(g66
g59
NtRp4764
(dp4765
g62
(dp4766
g70
I1
ssg71
Nsg64
(lp4767
g57
(g73
g59
NtRp4768
(dp4769
g62
(dp4770
sg71
g4764
sg64
(lp4771
g57
(g78
g59
NtRp4772
(dp4773
g62
(dp4774
sg71
g4768
sg64
(lp4775
g57
(g58
g59
NtRp4776
(dp4777
g62
(dp4778
g70
I1
ssg71
g4772
sg64
(lp4779
g4635
(S's\x08\x00\x00\x00My Sites'
tRp4780
asbasbasbag57
(g73
g59
NtRp4781
(dp4782
g62
(dp4783
sg71
g4764
sg64
(lp4784
g57
(g78
g59
NtRp4785
(dp4786
g62
(dp4787
sg71
g4781
sg64
(lp4788
g57
(g58
g59
NtRp4789
(dp4790
g62
(dp4791
g70
I1
ssg71
g4785
sg64
(lp4792
I00
asbasbasbag57
(g73
g59
NtRp4793
(dp4794
g62
(dp4795
sg71
g4764
sg64
(lp4796
g57
(g78
g59
NtRp4797
(dp4798
g62
(dp4799
sg71
g4793
sg64
(lp4800
g57
(g58
g59
NtRp4801
(dp4802
g62
(dp4803
g70
I1
ssg71
g4797
sg64
(lp4804
S'/admin/default/site'
p4805
asbasbasbasbasbasbasbag57
(g73
g59
NtRp4806
(dp4807
g62
(dp4808
sg71
g4748
sg64
(lp4809
g57
(g78
g59
NtRp4810
(dp4811
g62
(dp4812
sg71
g4806
sg64
(lp4813
g57
(g58
g59
NtRp4814
(dp4815
g62
(dp4816
g70
I2
ssg71
g4810
sg64
(lp4817
g57
(g66
g59
NtRp4818
(dp4819
g62
(dp4820
g70
I1
ssg71
Nsg64
(lp4821
g57
(g73
g59
NtRp4822
(dp4823
g62
(dp4824
sg71
g4818
sg64
(lp4825
g57
(g78
g59
NtRp4826
(dp4827
g62
(dp4828
sg71
g4822
sg64
(lp4829
g57
(g58
g59
NtRp4830
(dp4831
g62
(dp4832
g70
I1
ssg71
g4826
sg64
(lp4833
g4635
(S's\x08\x00\x00\x00This App'
tRp4834
asbasbasbag57
(g73
g59
NtRp4835
(dp4836
g62
(dp4837
sg71
g4818
sg64
(lp4838
g57
(g78
g59
NtRp4839
(dp4840
g62
(dp4841
sg71
g4835
sg64
(lp4842
g57
(g58
g59
NtRp4843
(dp4844
g62
(dp4845
g70
I1
ssg71
g4839
sg64
(lp4846
I00
asbasbasbag57
(g73
g59
NtRp4847
(dp4848
g62
(dp4849
sg71
g4818
sg64
(lp4850
g57
(g78
g59
NtRp4851
(dp4852
g62
(dp4853
sg71
g4847
sg64
(lp4854
g57
(g58
g59
NtRp4855
(dp4856
g62
(dp4857
g70
I1
ssg71
g4851
sg64
(lp4858
S'/admin/default/design/assignment2'
p4859
asbasbasbag57
(g73
g59
NtRp4860
(dp4861
g62
(dp4862
sg71
g4818
sg64
(lp4863
g57
(g78
g59
NtRp4864
(dp4865
g62
(dp4866
sg71
g4860
sg64
(lp4867
g57
(g58
g59
NtRp4868
(dp4869
g62
(dp4870
g70
I1
ssg71
g4864
sg64
(lp4871
(lp4872
(g4635
(S's\n\x00\x00\x00Controller'
tRp4873
I00
S'/admin/default/edit/assignment2/controllers/default.py'
tp4874
a(g4635
(S's\x04\x00\x00\x00View'
tRp4875
I00
S'/admin/default/edit/assignment2/views/default/user_homepage.html'
tp4876
a(g4635
(S's\x06\x00\x00\x00Layout'
tRp4877
I00
S'/admin/default/edit/assignment2/views/layout.html'
tp4878
a(g4635
(S's\n\x00\x00\x00Stylesheet'
tRp4879
I00
S'/admin/default/edit/assignment2/static/css/web2py.css'
tp4880
a(g4635
(S's\x08\x00\x00\x00DB Model'
tRp4881
I00
S'/admin/default/edit/assignment2/models/db.py'
tp4882
a(g4635
(S's\n\x00\x00\x00Menu Model'
tRp4883
I00
S'/admin/default/edit/assignment2/models/menu.py'
tp4884
a(g4635
(S's\x08\x00\x00\x00Database'
tRp4885
I00
S'/assignment2/appadmin/index'
tp4886
a(g4635
(S's\x06\x00\x00\x00Errors'
tRp4887
I00
S'/admin/default/errors/assignment2'
tp4888
a(g4635
(S's\x05\x00\x00\x00About'
tRp4889
I00
S'/admin/default/about/assignment2'
tp4890
aasbasbasbasbasbasbasbag57
(g73
g59
NtRp4891
(dp4892
g62
(dp4893
sg71
g4748
sg64
(lp4894
g57
(g78
g59
NtRp4895
(dp4896
g62
(dp4897
sg71
g4891
sg64
(lp4898
g57
(g58
g59
NtRp4899
(dp4900
g62
(dp4901
g70
I2
ssg71
g4895
sg64
(lp4902
g57
(g66
g59
NtRp4903
(dp4904
g62
(dp4905
g70
I1
ssg71
Nsg64
(lp4906
g57
(g73
g59
NtRp4907
(dp4908
g62
(dp4909
sg71
g4903
sg64
(lp4910
g57
(g78
g59
NtRp4911
(dp4912
g62
(dp4913
sg71
g4907
sg64
(lp4914
g57
(g58
g59
NtRp4915
(dp4916
g62
(dp4917
g70
I1
ssg71
g4911
sg64
(lp4918
S'web2py.com'
p4919
asbasbasbag57
(g73
g59
NtRp4920
(dp4921
g62
(dp4922
sg71
g4903
sg64
(lp4923
g57
(g78
g59
NtRp4924
(dp4925
g62
(dp4926
sg71
g4920
sg64
(lp4927
g57
(g58
g59
NtRp4928
(dp4929
g62
(dp4930
g70
I1
ssg71
g4924
sg64
(lp4931
I00
asbasbasbag57
(g73
g59
NtRp4932
(dp4933
g62
(dp4934
sg71
g4903
sg64
(lp4935
g57
(g78
g59
NtRp4936
(dp4937
g62
(dp4938
sg71
g4932
sg64
(lp4939
g57
(g58
g59
NtRp4940
(dp4941
g62
(dp4942
g70
I1
ssg71
g4936
sg64
(lp4943
S'http://www.web2py.com'
p4944
asbasbasbag57
(g73
g59
NtRp4945
(dp4946
g62
(dp4947
sg71
g4903
sg64
(lp4948
g57
(g78
g59
NtRp4949
(dp4950
g62
(dp4951
sg71
g4945
sg64
(lp4952
g57
(g58
g59
NtRp4953
(dp4954
g62
(dp4955
g70
I1
ssg71
g4949
sg64
(lp4956
(lp4957
(g4635
(S's\x08\x00\x00\x00Download'
tRp4958
I00
S'http://www.web2py.com/examples/default/download'
p4959
tp4960
a(g4635
(S's\x07\x00\x00\x00Support'
tRp4961
I00
S'http://www.web2py.com/examples/default/support'
p4962
tp4963
a(g4635
(S's\x04\x00\x00\x00Demo'
tRp4964
I00
S'http://web2py.com/demo_admin'
p4965
tp4966
a(g4635
(S's\x0e\x00\x00\x00Quick Examples'
tRp4967
I00
S'http://web2py.com/examples/default/examples'
p4968
tp4969
a(g4635
(S's\x03\x00\x00\x00FAQ'
tRp4970
I00
S'http://web2py.com/AlterEgo'
p4971
tp4972
a(g4635
(S's\x06\x00\x00\x00Videos'
tRp4973
I00
S'http://www.web2py.com/examples/default/videos/'
p4974
tp4975
a(g4635
(S's\x11\x00\x00\x00Free Applications'
tRp4976
I00
S'http://web2py.com/appliances'
p4977
tp4978
a(g4635
(S's\x07\x00\x00\x00Plugins'
tRp4979
I00
S'http://web2py.com/plugins'
p4980
tp4981
a(g4635
(S's\x07\x00\x00\x00Layouts'
tRp4982
I00
S'http://web2py.com/layouts'
p4983
tp4984
a(g4635
(S's\x07\x00\x00\x00Recipes'
tRp4985
I00
S'http://web2pyslices.com/'
p4986
tp4987
a(g4635
(S's\x08\x00\x00\x00Semantic'
tRp4988
I00
S'http://web2py.com/semantic'
p4989
tp4990
aasbasbasbasbasbasbasbag57
(g73
g59
NtRp4991
(dp4992
g62
(dp4993
sg71
g4748
sg64
(lp4994
g57
(g78
g59
NtRp4995
(dp4996
g62
(dp4997
sg71
g4991
sg64
(lp4998
g57
(g58
g59
NtRp4999
(dp5000
g62
(dp5001
g70
I2
ssg71
g4995
sg64
(lp5002
g57
(g66
g59
NtRp5003
(dp5004
g62
(dp5005
g70
I1
ssg71
Nsg64
(lp5006
g57
(g73
g59
NtRp5007
(dp5008
g62
(dp5009
sg71
g5003
sg64
(lp5010
g57
(g78
g59
NtRp5011
(dp5012
g62
(dp5013
sg71
g5007
sg64
(lp5014
g57
(g58
g59
NtRp5015
(dp5016
g62
(dp5017
g70
I1
ssg71
g5011
sg64
(lp5018
g4635
(S's\r\x00\x00\x00Documentation'
tRp5019
asbasbasbag57
(g73
g59
NtRp5020
(dp5021
g62
(dp5022
sg71
g5003
sg64
(lp5023
g57
(g78
g59
NtRp5024
(dp5025
g62
(dp5026
sg71
g5020
sg64
(lp5027
g57
(g58
g59
NtRp5028
(dp5029
g62
(dp5030
g70
I1
ssg71
g5024
sg64
(lp5031
I00
asbasbasbag57
(g73
g59
NtRp5032
(dp5033
g62
(dp5034
sg71
g5003
sg64
(lp5035
g57
(g78
g59
NtRp5036
(dp5037
g62
(dp5038
sg71
g5032
sg64
(lp5039
g57
(g58
g59
NtRp5040
(dp5041
g62
(dp5042
g70
I1
ssg71
g5036
sg64
(lp5043
S'http://www.web2py.com/book'
p5044
asbasbasbag57
(g73
g59
NtRp5045
(dp5046
g62
(dp5047
sg71
g5003
sg64
(lp5048
g57
(g78
g59
NtRp5049
(dp5050
g62
(dp5051
sg71
g5045
sg64
(lp5052
g57
(g58
g59
NtRp5053
(dp5054
g62
(dp5055
g70
I1
ssg71
g5049
sg64
(lp5056
(lp5057
(g4635
(S's\x07\x00\x00\x00Preface'
tRp5058
I00
S'http://www.web2py.com/book/default/chapter/00'
p5059
tp5060
a(g4635
(S's\x0c\x00\x00\x00Introduction'
tRp5061
I00
S'http://www.web2py.com/book/default/chapter/01'
p5062
tp5063
a(g4635
(S's\x06\x00\x00\x00Python'
tRp5064
I00
S'http://www.web2py.com/book/default/chapter/02'
p5065
tp5066
a(g4635
(S's\x08\x00\x00\x00Overview'
tRp5067
I00
S'http://www.web2py.com/book/default/chapter/03'
p5068
tp5069
a(g4635
(S's\x08\x00\x00\x00The Core'
tRp5070
I00
S'http://www.web2py.com/book/default/chapter/04'
p5071
tp5072
a(g4635
(S's\t\x00\x00\x00The Views'
tRp5073
I00
S'http://www.web2py.com/book/default/chapter/05'
p5074
tp5075
a(g4635
(S's\x08\x00\x00\x00Database'
tRp5076
I00
S'http://www.web2py.com/book/default/chapter/06'
p5077
tp5078
a(g4635
(S's\x14\x00\x00\x00Forms and Validators'
tRp5079
I00
S'http://www.web2py.com/book/default/chapter/07'
p5080
tp5081
a(g4635
(S's\r\x00\x00\x00Email and SMS'
tRp5082
I00
S'http://www.web2py.com/book/default/chapter/08'
p5083
tp5084
a(g4635
(S's\x0e\x00\x00\x00Access Control'
tRp5085
I00
S'http://www.web2py.com/book/default/chapter/09'
p5086
tp5087
a(g4635
(S's\x08\x00\x00\x00Services'
tRp5088
I00
S'http://www.web2py.com/book/default/chapter/10'
p5089
tp5090
a(g4635
(S's\x0c\x00\x00\x00Ajax Recipes'
tRp5091
I00
S'http://www.web2py.com/book/default/chapter/11'
p5092
tp5093
a(g4635
(S's\x16\x00\x00\x00Components and Plugins'
tRp5094
I00
S'http://www.web2py.com/book/default/chapter/12'
p5095
tp5096
a(g4635
(S's\x12\x00\x00\x00Deployment Recipes'
tRp5097
I00
S'http://www.web2py.com/book/default/chapter/13'
p5098
tp5099
a(g4635
(S's\r\x00\x00\x00Other Recipes'
tRp5100
I00
S'http://www.web2py.com/book/default/chapter/14'
p5101
tp5102
a(g4635
(S's\r\x00\x00\x00Buy this book'
tRp5103
I00
S'http://stores.lulu.com/web2py'
p5104
tp5105
aasbasbasbasbasbasbasbag57
(g73
g59
NtRp5106
(dp5107
g62
(dp5108
sg71
g4748
sg64
(lp5109
g57
(g78
g59
NtRp5110
(dp5111
g62
(dp5112
sg71
g5106
sg64
(lp5113
g57
(g58
g59
NtRp5114
(dp5115
g62
(dp5116
g70
I2
ssg71
g5110
sg64
(lp5117
g57
(g66
g59
NtRp5118
(dp5119
g62
(dp5120
g70
I1
ssg71
Nsg64
(lp5121
g57
(g73
g59
NtRp5122
(dp5123
g62
(dp5124
sg71
g5118
sg64
(lp5125
g57
(g78
g59
NtRp5126
(dp5127
g62
(dp5128
sg71
g5122
sg64
(lp5129
g57
(g58
g59
NtRp5130
(dp5131
g62
(dp5132
g70
I1
ssg71
g5126
sg64
(lp5133
g4635
(S's\t\x00\x00\x00Community'
tRp5134
asbasbasbag57
(g73
g59
NtRp5135
(dp5136
g62
(dp5137
sg71
g5118
sg64
(lp5138
g57
(g78
g59
NtRp5139
(dp5140
g62
(dp5141
sg71
g5135
sg64
(lp5142
g57
(g58
g59
NtRp5143
(dp5144
g62
(dp5145
g70
I1
ssg71
g5139
sg64
(lp5146
I00
asbasbasbag57
(g73
g59
NtRp5147
(dp5148
g62
(dp5149
sg71
g5118
sg64
(lp5150
g57
(g78
g59
NtRp5151
(dp5152
g62
(dp5153
sg71
g5147
sg64
(lp5154
g57
(g58
g59
NtRp5155
(dp5156
g62
(dp5157
g70
I1
ssg71
g5151
sg64
(lp5158
Nasbasbasbag57
(g73
g59
NtRp5159
(dp5160
g62
(dp5161
sg71
g5118
sg64
(lp5162
g57
(g78
g59
NtRp5163
(dp5164
g62
(dp5165
sg71
g5159
sg64
(lp5166
g57
(g58
g59
NtRp5167
(dp5168
g62
(dp5169
g70
I1
ssg71
g5163
sg64
(lp5170
(lp5171
(g4635
(S's\x06\x00\x00\x00Groups'
tRp5172
I00
S'http://www.web2py.com/examples/default/usergroups'
p5173
tp5174
a(g4635
(S's\x07\x00\x00\x00Twitter'
tRp5175
I00
S'http://twitter.com/web2py'
p5176
tp5177
a(g4635
(S's\t\x00\x00\x00Live Chat'
tRp5178
I00
S'http://webchat.freenode.net/?channels=web2py'
p5179
tp5180
aasbasbasbasbasbasbasbag57
(g73
g59
NtRp5181
(dp5182
g62
(dp5183
sg71
g4748
sg64
(lp5184
g57
(g78
g59
NtRp5185
(dp5186
g62
(dp5187
sg71
g5181
sg64
(lp5188
g57
(g58
g59
NtRp5189
(dp5190
g62
(dp5191
g70
I2
ssg71
g5185
sg64
(lp5192
g57
(g66
g59
NtRp5193
(dp5194
g62
(dp5195
g70
I1
ssg71
Nsg64
(lp5196
g57
(g73
g59
NtRp5197
(dp5198
g62
(dp5199
sg71
g5193
sg64
(lp5200
g57
(g78
g59
NtRp5201
(dp5202
g62
(dp5203
sg71
g5197
sg64
(lp5204
g57
(g58
g59
NtRp5205
(dp5206
g62
(dp5207
g70
I1
ssg71
g5201
sg64
(lp5208
g4635
(S's\x07\x00\x00\x00Plugins'
tRp5209
asbasbasbag57
(g73
g59
NtRp5210
(dp5211
g62
(dp5212
sg71
g5193
sg64
(lp5213
g57
(g78
g59
NtRp5214
(dp5215
g62
(dp5216
sg71
g5210
sg64
(lp5217
g57
(g58
g59
NtRp5218
(dp5219
g62
(dp5220
g70
I1
ssg71
g5214
sg64
(lp5221
I00
asbasbasbag57
(g73
g59
NtRp5222
(dp5223
g62
(dp5224
sg71
g5193
sg64
(lp5225
g57
(g78
g59
NtRp5226
(dp5227
g62
(dp5228
sg71
g5222
sg64
(lp5229
g57
(g58
g59
NtRp5230
(dp5231
g62
(dp5232
g70
I1
ssg71
g5226
sg64
(lp5233
Nasbasbasbag57
(g73
g59
NtRp5234
(dp5235
g62
(dp5236
sg71
g5193
sg64
(lp5237
g57
(g78
g59
NtRp5238
(dp5239
g62
(dp5240
sg71
g5234
sg64
(lp5241
g57
(g58
g59
NtRp5242
(dp5243
g62
(dp5244
g70
I1
ssg71
g5238
sg64
(lp5245
(lp5246
(S'plugin_wiki'
p5247
I00
S'http://web2py.com/examples/default/download'
p5248
tp5249
a(g4635
(S's\r\x00\x00\x00Other Plugins'
tRp5250
I00
g4980
tp5251
a(g4635
(S's\x0e\x00\x00\x00Layout Plugins'
tRp5252
I00
g4983
tp5253
aasbasbasbasbasbasbasbasbasbasbasbasbasbasbasbasbasbasbasbag57
(g73
g59
NtRp5254
(dp5255
g62
(dp5256
sg71
g4101
sg64
(lp5257
g57
(g78
g59
NtRp5258
(dp5259
g62
(dp5260
g82
g83
ssg71
g5254
sg64
(lp5261
S'meta'
p5262
asbag57
(g78
g59
NtRp5263
(dp5264
g62
(dp5265
g89
g90
ssg71
g5254
sg64
(lp5266
S':'
asbag57
(g78
g59
NtRp5267
(dp5268
g62
(dp5269
sg71
g5254
sg64
(lp5270
g57
(g58
g59
NtRp5271
(dp5272
g62
(dp5273
g70
I5
ssg71
g5267
sg64
(lp5274
g57
(g66
g59
NtRp5275
(dp5276
g62
(dp5277
g70
I4
ssg71
Nsg64
(lp5278
g57
(g73
g59
NtRp5279
(dp5280
g62
(dp5281
sg71
g5275
sg64
(lp5282
g57
(g78
g59
NtRp5283
(dp5284
g62
(dp5285
g82
g83
ssg71
g5279
sg64
(lp5286
S'author'
p5287
asbag57
(g78
g59
NtRp5288
(dp5289
g62
(dp5290
g89
g90
ssg71
g5279
sg64
(lp5291
S':'
asbag57
(g78
g59
NtRp5292
(dp5293
g62
(dp5294
sg71
g5279
sg64
(lp5295
g57
(g58
g59
NtRp5296
(dp5297
g62
(dp5298
g70
I4
ssg71
g5292
sg64
(lp5299
S'Your Name <you@example.com>'
p5300
asbasbasbag57
(g73
g59
NtRp5301
(dp5302
g62
(dp5303
sg71
g5275
sg64
(lp5304
g57
(g78
g59
NtRp5305
(dp5306
g62
(dp5307
g82
g83
ssg71
g5301
sg64
(lp5308
S'description'
p5309
asbag57
(g78
g59
NtRp5310
(dp5311
g62
(dp5312
g89
g90
ssg71
g5301
sg64
(lp5313
S':'
asbag57
(g78
g59
NtRp5314
(dp5315
g62
(dp5316
sg71
g5301
sg64
(lp5317
g57
(g58
g59
NtRp5318
(dp5319
g62
(dp5320
g70
I4
ssg71
g5314
sg64
(lp5321
S'a cool new app'
p5322
asbasbasbag57
(g73
g59
NtRp5323
(dp5324
g62
(dp5325
sg71
g5275
sg64
(lp5326
g57
(g78
g59
NtRp5327
(dp5328
g62
(dp5329
g82
g83
ssg71
g5323
sg64
(lp5330
S'generator'
p5331
asbag57
(g78
g59
NtRp5332
(dp5333
g62
(dp5334
g89
g90
ssg71
g5323
sg64
(lp5335
S':'
asbag57
(g78
g59
NtRp5336
(dp5337
g62
(dp5338
sg71
g5323
sg64
(lp5339
g57
(g58
g59
NtRp5340
(dp5341
g62
(dp5342
g70
I4
ssg71
g5336
sg64
(lp5343
S'Web2py Web Framework'
p5344
asbasbasbag57
(g73
g59
NtRp5345
(dp5346
g62
(dp5347
sg71
g5275
sg64
(lp5348
g57
(g78
g59
NtRp5349
(dp5350
g62
(dp5351
g82
g83
ssg71
g5345
sg64
(lp5352
S'keywords'
p5353
asbag57
(g78
g59
NtRp5354
(dp5355
g62
(dp5356
g89
g90
ssg71
g5345
sg64
(lp5357
S':'
asbag57
(g78
g59
NtRp5358
(dp5359
g62
(dp5360
sg71
g5345
sg64
(lp5361
g57
(g58
g59
NtRp5362
(dp5363
g62
(dp5364
g70
I4
ssg71
g5358
sg64
(lp5365
S'web2py, python, framework'
p5366
asbasbasbasbasbasbasbag57
(g73
g59
NtRp5367
(dp5368
g62
(dp5369
sg71
g4101
sg64
(lp5370
g57
(g78
g59
NtRp5371
(dp5372
g62
(dp5373
g82
g83
ssg71
g5367
sg64
(lp5374
S'models_to_run'
p5375
asbag57
(g78
g59
NtRp5376
(dp5377
g62
(dp5378
g89
g90
ssg71
g5367
sg64
(lp5379
S':'
asbag57
(g78
g59
NtRp5380
(dp5381
g62
(dp5382
sg71
g5367
sg64
(lp5383
g57
(g58
g59
NtRp5384
(dp5385
g62
(dp5386
g70
I5
ssg71
g5380
sg64
(lp5387
g57
(g66
g59
NtRp5388
(dp5389
g62
(dp5390
g70
I4
ssg71
Nsg64
(lp5391
g57
(g73
g59
NtRp5392
(dp5393
g62
(dp5394
sg71
g5388
sg64
(lp5395
g57
(g78
g59
NtRp5396
(dp5397
g62
(dp5398
sg71
g5392
sg64
(lp5399
g57
(g58
g59
NtRp5400
(dp5401
g62
(dp5402
g70
I4
ssg71
g5396
sg64
(lp5403
S'^\\w+\\.py$'
p5404
asbasbasbag57
(g73
g59
NtRp5405
(dp5406
g62
(dp5407
sg71
g5388
sg64
(lp5408
g57
(g78
g59
NtRp5409
(dp5410
g62
(dp5411
sg71
g5405
sg64
(lp5412
g57
(g58
g59
NtRp5413
(dp5414
g62
(dp5415
g70
I4
ssg71
g5409
sg64
(lp5416
S'^default/\\w+\\.py$'
p5417
asbasbasbag57
(g73
g59
NtRp5418
(dp5419
g62
(dp5420
sg71
g5388
sg64
(lp5421
g57
(g78
g59
NtRp5422
(dp5423
g62
(dp5424
sg71
g5418
sg64
(lp5425
g57
(g58
g59
NtRp5426
(dp5427
g62
(dp5428
g70
I4
ssg71
g5422
sg64
(lp5429
S'^default/user_homepage/\\w+\\.py$'
p5430
asbasbasbasbasbasbasbag57
(g73
g59
NtRp5431
(dp5432
g62
(dp5433
sg71
g4101
sg64
(lp5434
g57
(g78
g59
NtRp5435
(dp5436
g62
(dp5437
g82
g83
ssg71
g5431
sg64
(lp5438
S'postprocessing'
p5439
asbag57
(g78
g59
NtRp5440
(dp5441
g62
(dp5442
g89
g90
ssg71
g5431
sg64
(lp5443
S':'
asbag57
(g78
g59
NtRp5444
(dp5445
g62
(dp5446
sg71
g5431
sg64
(lp5447
g57
(g58
g59
NtRp5448
(dp5449
g62
(dp5450
g70
I5
ssg71
g5444
sg64
(lp5451
g57
(g66
g59
NtRp5452
(dp5453
g62
(dp5454
g70
I4
ssg71
Nsg64
(lp5455
sbasbasbasbag57
(g73
g59
NtRp5456
(dp5457
g62
(dp5458
sg71
g4101
sg64
(lp5459
g57
(g78
g59
NtRp5460
(dp5461
g62
(dp5462
g82
g83
ssg71
g5456
sg64
(lp5463
S'session_cookie_expires'
p5464
asbag57
(g78
g59
NtRp5465
(dp5466
g62
(dp5467
g89
g90
ssg71
g5456
sg64
(lp5468
S':'
asbag57
(g78
g59
NtRp5469
(dp5470
g62
(dp5471
sg71
g5456
sg64
(lp5472
g57
(g58
g59
NtRp5473
(dp5474
g62
(dp5475
g70
I5
ssg71
g5469
sg64
(lp5476
S'None'
p5477
asbasbasbag57
(g73
g59
NtRp5478
(dp5479
g62
(dp5480
sg71
g4101
sg64
(lp5481
g57
(g78
g59
NtRp5482
(dp5483
g62
(dp5484
g82
g83
ssg71
g5478
sg64
(lp5485
S'session_data_name'
p5486
asbag57
(g78
g59
NtRp5487
(dp5488
g62
(dp5489
g89
g90
ssg71
g5478
sg64
(lp5490
S':'
asbag57
(g78
g59
NtRp5491
(dp5492
g62
(dp5493
sg71
g5478
sg64
(lp5494
g57
(g58
g59
NtRp5495
(dp5496
g62
(dp5497
g70
I5
ssg71
g5491
sg64
(lp5498
S'session_data_assignment2'
p5499
asbasbasbag57
(g73
g59
NtRp5500
(dp5501
g62
(dp5502
sg71
g4101
sg64
(lp5503
g57
(g78
g59
NtRp5504
(dp5505
g62
(dp5506
g82
g83
ssg71
g5500
sg64
(lp5507
S'session_file'
p5508
asbag57
(g78
g59
NtRp5509
(dp5510
g62
(dp5511
g89
g90
ssg71
g5500
sg64
(lp5512
S':'
asbag57
(g78
g59
NtRp5513
(dp5514
g62
(dp5515
sg71
g5500
sg64
(lp5516
g57
(g58
g59
NtRp5517
(dp5518
g62
(dp5519
g70
I5
ssg71
g5513
sg64
(lp5520
S"<open file '/home/aditi/Desktop/web2py/applications/assignment2/sessions/127.0.0.1-df3317b1-fbdf-40a6-bfa1-0af1b15533cc', mode 'rb+' at 0xac41f0d0>"
p5521
asbasbasbag57
(g73
g59
NtRp5522
(dp5523
g62
(dp5524
sg71
g4101
sg64
(lp5525
g57
(g78
g59
NtRp5526
(dp5527
g62
(dp5528
g82
g83
ssg71
g5522
sg64
(lp5529
S'session_filename'
p5530
asbag57
(g78
g59
NtRp5531
(dp5532
g62
(dp5533
g89
g90
ssg71
g5522
sg64
(lp5534
S':'
asbag57
(g78
g59
NtRp5535
(dp5536
g62
(dp5537
sg71
g5522
sg64
(lp5538
g57
(g58
g59
NtRp5539
(dp5540
g62
(dp5541
g70
I5
ssg71
g5535
sg64
(lp5542
S'/home/aditi/Desktop/web2py/applications/assignment2/sessions/127.0.0.1-df3317b1-fbdf-40a6-bfa1-0af1b15533cc'
p5543
asbasbasbag57
(g73
g59
NtRp5544
(dp5545
g62
(dp5546
sg71
g4101
sg64
(lp5547
g57
(g78
g59
NtRp5548
(dp5549
g62
(dp5550
g82
g83
ssg71
g5544
sg64
(lp5551
S'session_id'
p5552
asbag57
(g78
g59
NtRp5553
(dp5554
g62
(dp5555
g89
g90
ssg71
g5544
sg64
(lp5556
S':'
asbag57
(g78
g59
NtRp5557
(dp5558
g62
(dp5559
sg71
g5544
sg64
(lp5560
g57
(g58
g59
NtRp5561
(dp5562
g62
(dp5563
g70
I5
ssg71
g5557
sg64
(lp5564
g475
asbasbasbag57
(g73
g59
NtRp5565
(dp5566
g62
(dp5567
sg71
g4101
sg64
(lp5568
g57
(g78
g59
NtRp5569
(dp5570
g62
(dp5571
g82
g83
ssg71
g5565
sg64
(lp5572
S'session_id_name'
p5573
asbag57
(g78
g59
NtRp5574
(dp5575
g62
(dp5576
g89
g90
ssg71
g5565
sg64
(lp5577
S':'
asbag57
(g78
g59
NtRp5578
(dp5579
g62
(dp5580
sg71
g5565
sg64
(lp5581
g57
(g58
g59
NtRp5582
(dp5583
g62
(dp5584
g70
I5
ssg71
g5578
sg64
(lp5585
g4158
asbasbasbag57
(g73
g59
NtRp5586
(dp5587
g62
(dp5588
sg71
g4101
sg64
(lp5589
g57
(g78
g59
NtRp5590
(dp5591
g62
(dp5592
g82
g83
ssg71
g5586
sg64
(lp5593
S'session_locked'
p5594
asbag57
(g78
g59
NtRp5595
(dp5596
g62
(dp5597
g89
g90
ssg71
g5586
sg64
(lp5598
S':'
asbag57
(g78
g59
NtRp5599
(dp5600
g62
(dp5601
sg71
g5586
sg64
(lp5602
g57
(g58
g59
NtRp5603
(dp5604
g62
(dp5605
g70
I5
ssg71
g5599
sg64
(lp5606
g1868
asbasbasbag57
(g73
g59
NtRp5607
(dp5608
g62
(dp5609
sg71
g4101
sg64
(lp5610
g57
(g78
g59
NtRp5611
(dp5612
g62
(dp5613
g82
g83
ssg71
g5607
sg64
(lp5614
S'session_new'
p5615
asbag57
(g78
g59
NtRp5616
(dp5617
g62
(dp5618
g89
g90
ssg71
g5607
sg64
(lp5619
S':'
asbag57
(g78
g59
NtRp5620
(dp5621
g62
(dp5622
sg71
g5607
sg64
(lp5623
g57
(g58
g59
NtRp5624
(dp5625
g62
(dp5626
g70
I5
ssg71
g5620
sg64
(lp5627
g100
asbasbasbag57
(g73
g59
NtRp5628
(dp5629
g62
(dp5630
sg71
g4101
sg64
(lp5631
g57
(g78
g59
NtRp5632
(dp5633
g62
(dp5634
g82
g83
ssg71
g5628
sg64
(lp5635
S'session_storage_type'
p5636
asbag57
(g78
g59
NtRp5637
(dp5638
g62
(dp5639
g89
g90
ssg71
g5628
sg64
(lp5640
S':'
asbag57
(g78
g59
NtRp5641
(dp5642
g62
(dp5643
sg71
g5628
sg64
(lp5644
g57
(g58
g59
NtRp5645
(dp5646
g62
(dp5647
g70
I5
ssg71
g5641
sg64
(lp5648
g3563
asbasbasbag57
(g73
g59
NtRp5649
(dp5650
g62
(dp5651
sg71
g4101
sg64
(lp5652
g57
(g78
g59
NtRp5653
(dp5654
g62
(dp5655
g82
g83
ssg71
g5649
sg64
(lp5656
S'status'
p5657
asbag57
(g78
g59
NtRp5658
(dp5659
g62
(dp5660
g89
g90
ssg71
g5649
sg64
(lp5661
S':'
asbag57
(g78
g59
NtRp5662
(dp5663
g62
(dp5664
sg71
g5649
sg64
(lp5665
g57
(g58
g59
NtRp5666
(dp5667
g62
(dp5668
g70
I5
ssg71
g5662
sg64
(lp5669
S'200'
p5670
asbasbasbag57
(g73
g59
NtRp5671
(dp5672
g62
(dp5673
sg71
g4101
sg64
(lp5674
g57
(g78
g59
NtRp5675
(dp5676
g62
(dp5677
g82
g83
ssg71
g5671
sg64
(lp5678
S'subtitle'
p5679
asbag57
(g78
g59
NtRp5680
(dp5681
g62
(dp5682
g89
g90
ssg71
g5671
sg64
(lp5683
S':'
asbag57
(g78
g59
NtRp5684
(dp5685
g62
(dp5686
sg71
g5671
sg64
(lp5687
g57
(g58
g59
NtRp5688
(dp5689
g62
(dp5690
g70
I5
ssg71
g5684
sg64
(lp5691
g4635
(S's\r\x00\x00\x00customize me!'
tRp5692
asbasbasbag57
(g73
g59
NtRp5693
(dp5694
g62
(dp5695
sg71
g4101
sg64
(lp5696
g57
(g78
g59
NtRp5697
(dp5698
g62
(dp5699
g82
g83
ssg71
g5693
sg64
(lp5700
S'title'
p5701
asbag57
(g78
g59
NtRp5702
(dp5703
g62
(dp5704
g89
g90
ssg71
g5693
sg64
(lp5705
S':'
asbag57
(g78
g59
NtRp5706
(dp5707
g62
(dp5708
sg71
g5693
sg64
(lp5709
g57
(g58
g59
NtRp5710
(dp5711
g62
(dp5712
g70
I5
ssg71
g5706
sg64
(lp5713
S'Assignment2'
p5714
asbasbasbag57
(g73
g59
NtRp5715
(dp5716
g62
(dp5717
sg71
g4101
sg64
(lp5718
g57
(g78
g59
NtRp5719
(dp5720
g62
(dp5721
g82
g83
ssg71
g5715
sg64
(lp5722
S'view'
p5723
asbag57
(g78
g59
NtRp5724
(dp5725
g62
(dp5726
g89
g90
ssg71
g5715
sg64
(lp5727
S':'
asbag57
(g78
g59
NtRp5728
(dp5729
g62
(dp5730
sg71
g5715
sg64
(lp5731
g57
(g58
g59
NtRp5732
(dp5733
g62
(dp5734
g70
I5
ssg71
g5728
sg64
(lp5735
S'default/user_homepage.html'
p5736
asbasbasbasbasbsS'locals'
p5737
(dp5738
S'a'
S'1'
sS'c'
S'<Rows (1)>'
p5739
sS'l'
S'<Rows (1)>'
p5740
sS'form'
p5741
S'<gluon.sqlhtml.SQLFORM object>'
p5742
sS'f'
S'<Rows (1)>'
p5743
sssS'traceback'
p5744
S'Traceback (most recent call last):\n  File "/home/aditi/Desktop/web2py/gluon/restricted.py", line 212, in restricted\n    exec ccode in environment\n  File "/home/aditi/Desktop/web2py/applications/assignment2/controllers/default.py", line 131, in <module>\n  File "/home/aditi/Desktop/web2py/gluon/globals.py", line 193, in <lambda>\n    self._caller = lambda f: f()\n  File "/home/aditi/Desktop/web2py/applications/assignment2/controllers/default.py", line 43, in user_homepage\n    total+=1\nUnboundLocalError: local variable \'total\' referenced before assignment\n'
p5745
s.