(dp1
S'output'
p2
S"<type 'exceptions.AttributeError'> 'DAL' object has no attribute 'news_item'"
p3
sS'layer'
p4
S'/home/aditi/Desktop/web2py/applications/assignment2/controllers/default.py'
p5
sS'code'
p6
S'# -*- coding: utf-8 -*-\n# this file is released under public domain and you can use without limitations\n\n#########################################################################\n## This is a samples controller\n## - index is the default action of any application\n## - user is required for authentication and authorization\n## - download is for downloading files uploaded in the db (does streaming)\n## - call exposes all registered services (none by default)\n#########################################################################\n\n\n@auth.requires_login()\ndef index():\n    """\n    example action using the internationalization operator T and flash\n    rendered by views/default/index.html or views/generic.html\n\n    if you need a simple wiki simple replace the two lines below with:\n    return auth.wiki()\n    """\n    a=auth.user.id\n    b=db(db.auth_user.id==a).select(db.auth_user.username,db.auth_user.account_type)\n    if b[0][\'account_type\']==\'user\':\n        redirect(URL(r=request,f=\'user_homepage\'))\n    elif b[0][\'account_type\']==\'admin\':\n        redirect(URL(r=request,f=\'intermediate\'))\n    else:\n        response.flash="You may not be having an account"\n    return locals()\n\ndef user_homepage():\n    a=auth.user.id\n    f=db(db.auth_user.id==a).select(db.auth_user.first_name)\n    l=db(db.auth_user.id==a).select(db.auth_user.last_name)\n    c=db().select(db.category.name)\n    temp=[]\n    for i in range(len(c)):\n        temp.append(c[i][\'name\'])\n    form=SQLFORM.factory(db.Field(\'category\',\'string\',requires=IS_IN_SET(temp),required=True,label=\'Enter category\'),\n                        Field(\'heading\',\'string\',label=\'Enter heading\',required=True),\n                        Field(\'choice\',\'string\',requires=IS_IN_SET([\'article\',\'video\']),required=True,default=\'article\'),\n                        Field(\'url\',\'string\',requires=IS_URL(),label=\'Enter URL\',required=True))\n    if(form.accepts(request.vars,session)):\n        db.newsitem.insert(userid=a,category=form.vars.category,choice=form.vars.choice,heading=form.vars.heading,url=form.vars.url,points=100,likes=0,dislikes=0,rating=1)\n        response.flash=\'News item successfully added\'\n        redirect(URL(r=request,f=\'user_homepage\'))\n    n=db().select(db.newsitem.ALL)\n    count=0\n    deleteform=[]\n    editform=[]\n    likeform=[]\n    dislikeform=[]\n    totallike=[]\n    totaldislike=[]\n    dislikes=[]\n    likes=[]\n    commentform=[]\n    for j in range(len(n)):\n        p=n[j][\'id\']\n        if n[j][\'userid\']==a:\n            deleteform.append(SQLFORM.factory(submit_button="Delete post"))\n            if deleteform[count].process(formname=\'deleteform[%d]\' % (count)).accepted:\n                db(db.newsitem.id==p).delete()\n                db(db.likedposts.postid==p).delete()\n                db(db.dislikedposts.postid==p).delete()\n                redirect(URL(r=request,f=\'user_homepage\'))\n            editform.append(SQLFORM.factory(submit_button="Edit post"))\n            likeform.append(SQLFORM.factory(submit_button="Like post"))\n            dislikeform.append(SQLFORM.factory(submit_button="Dislike post"))\n            commentform.append(SQLFORM.factory(db.Field(\'cmt\',\'string\',required=True,label=\'Comment\'),\n                                submit_button="Post comment"))\n            if editform[count].process(formname=\'editform[%d]\'%count).accepted:\n                redirect(URL(r=request,f=\'changedetails?id=%d\'%p))\n            if likeform[count].process(formname=\'likeform[%d]\'%count).accepted:\n                flag=0\n            lk=db(db.likedposts.postid==p).select(db.likedposts.ALL)\n            dlk=db(db.dislikedposts.postid==p).select(db.dislikedposts.ALL)\n            for k in range(len(lk)):\n                if lk[k][\'userid\']==a and lk[k][\'postid\']==p:\n                    flag=1\n                    response.flash="You have already liked this post"\n            for k in range(len(dlk)):\n                flag=1\n                if dlk[k][\'userid\']==a and dlk[k][\'postid\']==p:\n                    db.likedposts.insert(userid=a,postid=p)\n                    pt=db(db.newsitem.id==p).select(db.newsitem.points)\n                    pts=pt[0][\'points\']\n                    db(db.dislikedposts.id==dlk[k][\'id\']).delete()\n                    db(db.newsitem.id==p).update(points=pts+8)\n            if flag==0:\n                db.likedposts.insert(userid=a,postid=p)\n                pt=db(db.newsitem.id==p).select(db.newsitem.points)\n                pts=pt[0][\'points\']\n                db(db.newsitem.id==p).update(points=pts+5)\n                redirect(URL(r=request,f=\'user_homepage\'))\n            if dislikeform[count].process(formname=\'dislikeform[%d]\'%count).accepted:\n                lk=db(db.likedposts.postid==p).select(db.likedposts.ALL)\n                dlk=db(db.dislikedposts.postid==p).select(db.dislikedposts.ALL)\n                flag=0\n                for k in range(len(dlk)):\n                    if dlk[k][\'userid\']==a and dlk[k][\'postid\']==p:\n                        flag=1\n                        response.flash="You have already disliked this post"\n                for k in range(len(lk)):\n                    if lk[k][\'postid\']==p and lk[k][\'userid\']==a:\n                        flag=1\n                        db.dislikedposts.insert(userid=a,postid=p)\n                        pt=db(db.newsitem.id==p).select(db.newsitem.points)\n                        pts=pt[0][\'points\']\n                        db(db.likedposts.id==lk[k][\'id\']).delete()\n                        db(db.newsitem.id==p).update(points=pts-8)\n                if flag==0:\n                    db.dislikedposts.insert(userid=a,postid=p)\n                    pt=db(db.newsitem.id==p).select(db.newsitem.points)\n                    pts=pt[0][\'points\']\n                    db(db.newsitem.id==p).update(points=pts-3)\n                    redirect(URL(r=request,f=\'user_homepage\'))\n            if commentform[count].process(formname=\'commentform[%d]\'%count).accepted:\n                db.comments.insert(userid=a,postid=p,cmt=commentform.vars.cmt)\n                redirect(URL(r=request,f=\'user_homepage\'))\n            count+=1\n        else:\n            p=n[j][\'id\']\n            deleteform.append(SQLFORM.factory())\n            editform.append(SQLFORM.factory())\n            likeform.append(SQLFORM.factory(submit_button="Like post"))\n            dislikeform.append(SQLFORM.factory(submit_button="Dislike post"))\n            commentform.append(SQLFORM.factory(db.Field(\'cmt\',\'string\',required=True,label=\'Comment\'),\n                                submit_button="Post comment"))\n            if likeform[count].process(formname=\'likeform[%d]\'%count).accepted:\n                flag=0\n                lk=db(db.likedposts.postid==p).select(db.likedposts.ALL)\n                dlk=db(db.dislikedposts.postid==p).select(db.dislikedposts.ALL)\n                for k in range(len(lk)):\n                    if lk[k][\'userid\']==a and lk[k][\'postid\']==p:\n                        flag=1\n                        response.flash="You have already liked this post"\n                for k in range(len(dlk)):\n                    flag=1\n                    if dlk[k][\'userid\']==a and dlk[k][\'postid\']==p:\n                        db.likedposts.insert(userid=a,postid=p)\n                        pt=db(db.newsitem.id==p).select(db.newsitem.points)\n                        pts=pt[0][\'points\']\n                        db(db.dislikedposts.id==dlk[k][\'id\']).delete()\n                        db(db.newsitem.id==p).update(points=pts+8)\n                        redirect(URL(r=request,f=\'user_homepage\'))\n                if flag==0:\n                    db.likedposts.insert(userid=a,postid=p)\n                    pt=db(db.newsitem.id==p).select(db.newsitem.points)\n                    pts=pt[0][\'points\']\n                    db(db.newsitem.id==p).update(points=pts+5)\n                    redirect(URL(r=request,f=\'user_homepage\'))\n            if dislikeform[count].process(formname=\'dislikeform[%d]\'%count).accepted:\n                lk=db(db.likedposts.postid==p).select(db.likedposts.ALL)\n                dlk=db(db.dislikedposts.postid==p).select(db.dislikedposts.ALL)\n                flag=0\n                for k in range(len(dlk)):\n                    if dlk[k][\'userid\']==a and dlk[k][\'postid\']==p:\n                        flag=1\n                        response.flash="You have already disliked this post"\n                for k in range(len(lk)):\n                    if lk[k][\'postid\']==p and lk[k][\'userid\']==a:\n                        flag=1\n                        db.dislikedposts.insert(userid=a,postid=p)\n                        pt=db(db.newsitem.id==p).select(db.newsitem.points)\n                        pts=pt[0][\'points\']\n                        db(db.likedposts.id==lk[k][\'id\']).delete()\n                        db(db.newsitem.id==p).update(points=pts-8)\n                        redirect(URL(r=request,f=\'user_homepage\'))\n                if flag==0:\n                    db.dislikedposts.insert(userid=a,postid=p)\n                    pt=db(db.newsitem.id==p).select(db.newsitem.points)\n                    pts=pt[0][\'points\']\n                    db(db.newsitem.id==p).update(points=pts-3)\n                    redirect(URL(r=request,f=\'user_homepage\'))\n            if commentform[count].process(formname=\'commentform[%d]\'%count).accepted:\n                db.comments.insert(userid=a,postid=p,cmt=request.vars.cmt)\n                redirect(URL(r=request,f=\'user_homepage\'))\n            count+=1\n    cm=db().select(db.comments.ALL)\n    us=db().select(db.auth_user.ALL)\n    n=db().select(db.news_item.ALL,orderby=~db.newsitem.points)\n    return locals()\n\ndef changedetails():\n    p=request.vars.id\n    x=db(db.newsitem.id==p).select(db.newsitem.ALL)\n    c=db().select(db.category.ALL)\n    temp=[]\n    for i in range(len(c)):\n        temp.append(c[i][\'name\'])\n    form=SQLFORM.factory(db.Field(\'category\',\'string\',requires=IS_IN_SET(temp),required=True,default=x[0][\'category\']),\n                        Field(\'heading\',\'string\',required=True,default=x[0][\'heading\']),\n                        Field(\'choice\',\'string\',requires=IS_IN_SET([\'article\',\'video\']),required=True,default=x[0][\'choice\']),\n                        Field(\'url\',\'string\',requires=IS_URL(),required=True,default=x[0][\'url\']))\n    if(form.accepts(request.vars,session)):\n        db(db.newsitem.id==p).update(category=form.vars.category,heading=form.vars.heading,choice=form.vars.choice,url=form.vars.url)\n        redirect(URL(r=request,f=\'user_homepage\'))\n        response.flash="Your news item has been updated successfully!"\n    return locals()\n\ndef intermediate():\n    form=SQLFORM.factory(db.Field(\'key\',\'password\',readable=False,required=True))\n    if(form.accepts(request.vars,session)):\n        if form.vars.key==\'ab%k20*(kd12$\':\n            redirect(URL(r=request,f=\'admin_homepage\'))\n        else:\n            response.flash="Wrong key entered."\n    return locals()\n\ndef admin_homepage():\n    a=auth.user.id\n    count=0\n    f=db(db.auth_user.id==a).select(db.auth_user.first_name)\n    l=db(db.auth_user.id==a).select(db.auth_user.last_name)\n    form1=SQLFORM.factory(db.Field(\'category\',\'string\',label=\'Enter category\',required=True))\n    if(form1.accepts(request.vars,session)):\n        db.category.insert(name=form1.vars.category)\n        response.flash=\'New category successfully added.\'\n    n=db().select(db.newsitem.ALL)\n    c=db().select(db.category.name)\n    form2=[]\n    for i in range(len(c)):\n        for j in range(len(n)):\n             p=n[j][\'id\']\n             if n[j][\'category\']==c[i][\'name\']:\n                  form2.append(SQLFORM.factory(submit_button="Delete post"))\n                  if form2[count].process(formname=\'form2[%d]\'%count).accepted:\n                      db(db.newsitem.id==p).delete()\n                      redirect(URL(r=request,f=\'admin_homepage\'))\n                  count+=1\n    return locals()\n\ndef user():\n    """\n    exposes:\n    http://..../[app]/default/user/login\n    http://..../[app]/default/user/logout\n    http://..../[app]/default/user/register\n    http://..../[app]/default/user/profile\n    http://..../[app]/default/user/retrieve_password\n    http://..../[app]/default/user/change_password\n    use @auth.requires_login()\n        @auth.requires_membership(\'group name\')\n        @auth.requires_permission(\'read\',\'table name\',record_id)\n    to decorate functions that need access control\n    """\n    return dict(form=auth())\n\n\ndef download():\n    """\n    allows downloading of uploaded files\n    http://..../[app]/default/download/[filename]\n    """\n    return response.download(request, db)\n\n\ndef call():\n    """\n    exposes services. for example:\n    http://..../[app]/default/call/jsonrpc\n    decorate with @services.jsonrpc the functions to expose\n    supports xml, json, xmlrpc, jsonrpc, amfrpc, rss, csv\n    """\n    return service()\n\n\n@auth.requires_signature()\ndef data():\n    """\n    http://..../[app]/default/data/tables\n    http://..../[app]/default/data/create/[table]\n    http://..../[app]/default/data/read/[table]/[id]\n    http://..../[app]/default/data/update/[table]/[id]\n    http://..../[app]/default/data/delete/[table]/[id]\n    http://..../[app]/default/data/select/[table]\n    http://..../[app]/default/data/search/[table]\n    but URLs must be signed, i.e. linked with\n      A(\'table\',_href=URL(\'data/tables\',user_signature=True))\n    or with the signed load operator\n      LOAD(\'default\',\'data.load\',args=\'tables\',ajax=True,user_signature=True)\n    """\n    return dict(form=crud())\n\nresponse._vars=response._caller(user_homepage)\n'
p7
sS'snapshot'
p8
(dp9
S'exception'
p10
(dp11
S'__hash__'
p12
S"<method-wrapper '__hash__' of exceptions.AttributeError object>"
p13
sS'__setattr__'
p14
S"<method-wrapper '__setattr__' of exceptions.AttributeError object>"
p15
sS'__reduce_ex__'
p16
S'<built-in method __reduce_ex__ of exceptions.AttributeError object>'
p17
sS'__getslice__'
p18
S"<method-wrapper '__getslice__' of exceptions.AttributeError object>"
p19
sS'__getitem__'
p20
S"<method-wrapper '__getitem__' of exceptions.AttributeError object>"
p21
sS'__setstate__'
p22
S'<built-in method __setstate__ of exceptions.AttributeError object>'
p23
sS'__reduce__'
p24
S'<built-in method __reduce__ of exceptions.AttributeError object>'
p25
sS'__str__'
p26
S"<method-wrapper '__str__' of exceptions.AttributeError object>"
p27
sS'__format__'
p28
S'<built-in method __format__ of exceptions.AttributeError object>'
p29
sS'__getattribute__'
p30
S"<method-wrapper '__getattribute__' of exceptions.AttributeError object>"
p31
sS'__class__'
p32
S"<type 'exceptions.AttributeError'>"
p33
sS'__unicode__'
p34
S'<built-in method __unicode__ of exceptions.AttributeError object>'
p35
sS'__delattr__'
p36
S"<method-wrapper '__delattr__' of exceptions.AttributeError object>"
p37
sS'__subclasshook__'
p38
S'<built-in method __subclasshook__ of type object>'
p39
sS'__repr__'
p40
S"<method-wrapper '__repr__' of exceptions.AttributeError object>"
p41
sS'args'
p42
S'("\'DAL\' object has no attribute \'news_item\'",)'
p43
sS'__dict__'
p44
S'{}'
p45
sS'__sizeof__'
p46
S'<built-in method __sizeof__ of exceptions.AttributeError object>'
p47
sS'__doc__'
p48
S"'Attribute not found.'"
p49
sS'__init__'
p50
S"<method-wrapper '__init__' of exceptions.AttributeError object>"
p51
sS'__new__'
p52
S'<built-in method __new__ of type object>'
p53
ssS'evalue'
p54
S"'DAL' object has no attribute 'news_item'"
p55
sS'request'
p56
ccopy_reg
_reconstructor
p57
(cgluon.html
BEAUTIFY
p58
c__builtin__
object
p59
NtRp60
(dp61
S'attributes'
p62
(dp63
sS'components'
p64
(lp65
g57
(cgluon.html
TABLE
p66
g59
NtRp67
(dp68
g62
(dp69
S'level'
p70
I5
ssS'parent'
p71
Nsg64
(lp72
g57
(cgluon.html
TR
p73
g59
NtRp74
(dp75
g62
(dp76
sg71
g67
sg64
(lp77
g57
(cgluon.html
TD
p78
g59
NtRp79
(dp80
g62
(dp81
S'_style'
p82
S'font-weight:bold;vertical-align:top'
p83
ssg71
g74
sg64
(lp84
S'ajax'
p85
asbag57
(g78
g59
NtRp86
(dp87
g62
(dp88
S'_valign'
p89
S'top'
p90
ssg71
g74
sg64
(lp91
S':'
asbag57
(g78
g59
NtRp92
(dp93
g62
(dp94
sg71
g74
sg64
(lp95
g57
(g58
g59
NtRp96
(dp97
g62
(dp98
g70
I5
ssg71
g92
sg64
(lp99
S'False'
p100
asbasbasbag57
(g73
g59
NtRp101
(dp102
g62
(dp103
sg71
g67
sg64
(lp104
g57
(g78
g59
NtRp105
(dp106
g62
(dp107
g82
g83
ssg71
g101
sg64
(lp108
S'application'
p109
asbag57
(g78
g59
NtRp110
(dp111
g62
(dp112
g89
g90
ssg71
g101
sg64
(lp113
S':'
asbag57
(g78
g59
NtRp114
(dp115
g62
(dp116
sg71
g101
sg64
(lp117
g57
(g58
g59
NtRp118
(dp119
g62
(dp120
g70
I5
ssg71
g114
sg64
(lp121
S'assignment2'
p122
asbasbasbag57
(g73
g59
NtRp123
(dp124
g62
(dp125
sg71
g67
sg64
(lp126
g57
(g78
g59
NtRp127
(dp128
g62
(dp129
g82
g83
ssg71
g123
sg64
(lp130
g42
asbag57
(g78
g59
NtRp131
(dp132
g62
(dp133
g89
g90
ssg71
g123
sg64
(lp134
S':'
asbag57
(g78
g59
NtRp135
(dp136
g62
(dp137
sg71
g123
sg64
(lp138
g57
(g58
g59
NtRp139
(dp140
g62
(dp141
g70
I5
ssg71
g135
sg64
(lp142
g57
(g66
g59
NtRp143
(dp144
g62
(dp145
g70
I4
ssg71
Nsg64
(lp146
sbasbasbasbag57
(g73
g59
NtRp147
(dp148
g62
(dp149
sg71
g67
sg64
(lp150
g57
(g78
g59
NtRp151
(dp152
g62
(dp153
g82
g83
ssg71
g147
sg64
(lp154
S'body'
p155
asbag57
(g78
g59
NtRp156
(dp157
g62
(dp158
g89
g90
ssg71
g147
sg64
(lp159
S':'
asbag57
(g78
g59
NtRp160
(dp161
g62
(dp162
sg71
g147
sg64
(lp163
g57
(g58
g59
NtRp164
(dp165
g62
(dp166
g70
I5
ssg71
g160
sg64
(lp167
S'<cStringIO.StringO object at 0xad0a89a0>'
p168
asbasbasbag57
(g73
g59
NtRp169
(dp170
g62
(dp171
sg71
g67
sg64
(lp172
g57
(g78
g59
NtRp173
(dp174
g62
(dp175
g82
g83
ssg71
g169
sg64
(lp176
S'cid'
p177
asbag57
(g78
g59
NtRp178
(dp179
g62
(dp180
g89
g90
ssg71
g169
sg64
(lp181
S':'
asbag57
(g78
g59
NtRp182
(dp183
g62
(dp184
sg71
g169
sg64
(lp185
g57
(g58
g59
NtRp186
(dp187
g62
(dp188
g70
I5
ssg71
g182
sg64
(lp189
S'None'
p190
asbasbasbag57
(g73
g59
NtRp191
(dp192
g62
(dp193
sg71
g67
sg64
(lp194
g57
(g78
g59
NtRp195
(dp196
g62
(dp197
g82
g83
ssg71
g191
sg64
(lp198
S'client'
p199
asbag57
(g78
g59
NtRp200
(dp201
g62
(dp202
g89
g90
ssg71
g191
sg64
(lp203
S':'
asbag57
(g78
g59
NtRp204
(dp205
g62
(dp206
sg71
g191
sg64
(lp207
g57
(g58
g59
NtRp208
(dp209
g62
(dp210
g70
I5
ssg71
g204
sg64
(lp211
S'127.0.0.1'
p212
asbasbasbag57
(g73
g59
NtRp213
(dp214
g62
(dp215
sg71
g67
sg64
(lp216
g57
(g78
g59
NtRp217
(dp218
g62
(dp219
g82
g83
ssg71
g213
sg64
(lp220
S'controller'
p221
asbag57
(g78
g59
NtRp222
(dp223
g62
(dp224
g89
g90
ssg71
g213
sg64
(lp225
S':'
asbag57
(g78
g59
NtRp226
(dp227
g62
(dp228
sg71
g213
sg64
(lp229
g57
(g58
g59
NtRp230
(dp231
g62
(dp232
g70
I5
ssg71
g226
sg64
(lp233
S'default'
p234
asbasbasbag57
(g73
g59
NtRp235
(dp236
g62
(dp237
sg71
g67
sg64
(lp238
g57
(g78
g59
NtRp239
(dp240
g62
(dp241
g82
g83
ssg71
g235
sg64
(lp242
S'cookies'
p243
asbag57
(g78
g59
NtRp244
(dp245
g62
(dp246
g89
g90
ssg71
g235
sg64
(lp247
S':'
asbag57
(g78
g59
NtRp248
(dp249
g62
(dp250
sg71
g235
sg64
(lp251
g57
(g58
g59
NtRp252
(dp253
g62
(dp254
g70
I5
ssg71
g248
sg64
(lp255
g57
(g66
g59
NtRp256
(dp257
g62
(dp258
g70
I4
ssg71
Nsg64
(lp259
g57
(g73
g59
NtRp260
(dp261
g62
(dp262
sg71
g256
sg64
(lp263
g57
(g78
g59
NtRp264
(dp265
g62
(dp266
g82
g83
ssg71
g260
sg64
(lp267
S'session_id_admin'
p268
asbag57
(g78
g59
NtRp269
(dp270
g62
(dp271
g89
g90
ssg71
g260
sg64
(lp272
S':'
asbag57
(g78
g59
NtRp273
(dp274
g62
(dp275
sg71
g260
sg64
(lp276
g57
(g58
g59
NtRp277
(dp278
g62
(dp279
g70
I4
ssg71
g273
sg64
(lp280
S'127.0.0.1-f62c110b-7e8b-41d1-b2a4-c544f2842a3f'
p281
ag57
(g66
g59
NtRp282
(dp283
g62
(dp284
g70
I3
ssg71
Nsg64
(lp285
g57
(g73
g59
NtRp286
(dp287
g62
(dp288
sg71
g282
sg64
(lp289
g57
(g78
g59
NtRp290
(dp291
g62
(dp292
g82
g83
ssg71
g286
sg64
(lp293
S'comment'
p294
asbag57
(g78
g59
NtRp295
(dp296
g62
(dp297
g89
g90
ssg71
g286
sg64
(lp298
S':'
asbag57
(g78
g59
NtRp299
(dp300
g62
(dp301
sg71
g286
sg64
(lp302
g57
(g58
g59
NtRp303
(dp304
g62
(dp305
g70
I3
ssg71
g299
sg64
(lp306
S''
asbasbasbag57
(g73
g59
NtRp307
(dp308
g62
(dp309
sg71
g282
sg64
(lp310
g57
(g78
g59
NtRp311
(dp312
g62
(dp313
g82
g83
ssg71
g307
sg64
(lp314
S'domain'
p315
asbag57
(g78
g59
NtRp316
(dp317
g62
(dp318
g89
g90
ssg71
g307
sg64
(lp319
S':'
asbag57
(g78
g59
NtRp320
(dp321
g62
(dp322
sg71
g307
sg64
(lp323
g57
(g58
g59
NtRp324
(dp325
g62
(dp326
g70
I3
ssg71
g320
sg64
(lp327
S''
asbasbasbag57
(g73
g59
NtRp328
(dp329
g62
(dp330
sg71
g282
sg64
(lp331
g57
(g78
g59
NtRp332
(dp333
g62
(dp334
g82
g83
ssg71
g328
sg64
(lp335
S'expires'
p336
asbag57
(g78
g59
NtRp337
(dp338
g62
(dp339
g89
g90
ssg71
g328
sg64
(lp340
S':'
asbag57
(g78
g59
NtRp341
(dp342
g62
(dp343
sg71
g328
sg64
(lp344
g57
(g58
g59
NtRp345
(dp346
g62
(dp347
g70
I3
ssg71
g341
sg64
(lp348
S''
asbasbasbag57
(g73
g59
NtRp349
(dp350
g62
(dp351
sg71
g282
sg64
(lp352
g57
(g78
g59
NtRp353
(dp354
g62
(dp355
g82
g83
ssg71
g349
sg64
(lp356
S'httponly'
p357
asbag57
(g78
g59
NtRp358
(dp359
g62
(dp360
g89
g90
ssg71
g349
sg64
(lp361
S':'
asbag57
(g78
g59
NtRp362
(dp363
g62
(dp364
sg71
g349
sg64
(lp365
g57
(g58
g59
NtRp366
(dp367
g62
(dp368
g70
I3
ssg71
g362
sg64
(lp369
S''
asbasbasbag57
(g73
g59
NtRp370
(dp371
g62
(dp372
sg71
g282
sg64
(lp373
g57
(g78
g59
NtRp374
(dp375
g62
(dp376
g82
g83
ssg71
g370
sg64
(lp377
S'max-age'
p378
asbag57
(g78
g59
NtRp379
(dp380
g62
(dp381
g89
g90
ssg71
g370
sg64
(lp382
S':'
asbag57
(g78
g59
NtRp383
(dp384
g62
(dp385
sg71
g370
sg64
(lp386
g57
(g58
g59
NtRp387
(dp388
g62
(dp389
g70
I3
ssg71
g383
sg64
(lp390
S''
asbasbasbag57
(g73
g59
NtRp391
(dp392
g62
(dp393
sg71
g282
sg64
(lp394
g57
(g78
g59
NtRp395
(dp396
g62
(dp397
g82
g83
ssg71
g391
sg64
(lp398
S'path'
p399
asbag57
(g78
g59
NtRp400
(dp401
g62
(dp402
g89
g90
ssg71
g391
sg64
(lp403
S':'
asbag57
(g78
g59
NtRp404
(dp405
g62
(dp406
sg71
g391
sg64
(lp407
g57
(g58
g59
NtRp408
(dp409
g62
(dp410
g70
I3
ssg71
g404
sg64
(lp411
S''
asbasbasbag57
(g73
g59
NtRp412
(dp413
g62
(dp414
sg71
g282
sg64
(lp415
g57
(g78
g59
NtRp416
(dp417
g62
(dp418
g82
g83
ssg71
g412
sg64
(lp419
S'secure'
p420
asbag57
(g78
g59
NtRp421
(dp422
g62
(dp423
g89
g90
ssg71
g412
sg64
(lp424
S':'
asbag57
(g78
g59
NtRp425
(dp426
g62
(dp427
sg71
g412
sg64
(lp428
g57
(g58
g59
NtRp429
(dp430
g62
(dp431
g70
I3
ssg71
g425
sg64
(lp432
S''
asbasbasbag57
(g73
g59
NtRp433
(dp434
g62
(dp435
sg71
g282
sg64
(lp436
g57
(g78
g59
NtRp437
(dp438
g62
(dp439
g82
g83
ssg71
g433
sg64
(lp440
S'version'
p441
asbag57
(g78
g59
NtRp442
(dp443
g62
(dp444
g89
g90
ssg71
g433
sg64
(lp445
S':'
asbag57
(g78
g59
NtRp446
(dp447
g62
(dp448
sg71
g433
sg64
(lp449
g57
(g58
g59
NtRp450
(dp451
g62
(dp452
g70
I3
ssg71
g446
sg64
(lp453
S''
asbasbasbasbasbasbasbag57
(g73
g59
NtRp454
(dp455
g62
(dp456
sg71
g256
sg64
(lp457
g57
(g78
g59
NtRp458
(dp459
g62
(dp460
g82
g83
ssg71
g454
sg64
(lp461
S'session_id_assignment2'
p462
asbag57
(g78
g59
NtRp463
(dp464
g62
(dp465
g89
g90
ssg71
g454
sg64
(lp466
S':'
asbag57
(g78
g59
NtRp467
(dp468
g62
(dp469
sg71
g454
sg64
(lp470
g57
(g58
g59
NtRp471
(dp472
g62
(dp473
g70
I4
ssg71
g467
sg64
(lp474
S'127.0.0.1-8d570691-9fef-4051-bb01-b4497c1dfc12'
p475
ag57
(g66
g59
NtRp476
(dp477
g62
(dp478
g70
I3
ssg71
Nsg64
(lp479
g57
(g73
g59
NtRp480
(dp481
g62
(dp482
sg71
g476
sg64
(lp483
g57
(g78
g59
NtRp484
(dp485
g62
(dp486
g82
g83
ssg71
g480
sg64
(lp487
g294
asbag57
(g78
g59
NtRp488
(dp489
g62
(dp490
g89
g90
ssg71
g480
sg64
(lp491
S':'
asbag57
(g78
g59
NtRp492
(dp493
g62
(dp494
sg71
g480
sg64
(lp495
g57
(g58
g59
NtRp496
(dp497
g62
(dp498
g70
I3
ssg71
g492
sg64
(lp499
S''
asbasbasbag57
(g73
g59
NtRp500
(dp501
g62
(dp502
sg71
g476
sg64
(lp503
g57
(g78
g59
NtRp504
(dp505
g62
(dp506
g82
g83
ssg71
g500
sg64
(lp507
g315
asbag57
(g78
g59
NtRp508
(dp509
g62
(dp510
g89
g90
ssg71
g500
sg64
(lp511
S':'
asbag57
(g78
g59
NtRp512
(dp513
g62
(dp514
sg71
g500
sg64
(lp515
g57
(g58
g59
NtRp516
(dp517
g62
(dp518
g70
I3
ssg71
g512
sg64
(lp519
S''
asbasbasbag57
(g73
g59
NtRp520
(dp521
g62
(dp522
sg71
g476
sg64
(lp523
g57
(g78
g59
NtRp524
(dp525
g62
(dp526
g82
g83
ssg71
g520
sg64
(lp527
g336
asbag57
(g78
g59
NtRp528
(dp529
g62
(dp530
g89
g90
ssg71
g520
sg64
(lp531
S':'
asbag57
(g78
g59
NtRp532
(dp533
g62
(dp534
sg71
g520
sg64
(lp535
g57
(g58
g59
NtRp536
(dp537
g62
(dp538
g70
I3
ssg71
g532
sg64
(lp539
S''
asbasbasbag57
(g73
g59
NtRp540
(dp541
g62
(dp542
sg71
g476
sg64
(lp543
g57
(g78
g59
NtRp544
(dp545
g62
(dp546
g82
g83
ssg71
g540
sg64
(lp547
g357
asbag57
(g78
g59
NtRp548
(dp549
g62
(dp550
g89
g90
ssg71
g540
sg64
(lp551
S':'
asbag57
(g78
g59
NtRp552
(dp553
g62
(dp554
sg71
g540
sg64
(lp555
g57
(g58
g59
NtRp556
(dp557
g62
(dp558
g70
I3
ssg71
g552
sg64
(lp559
S''
asbasbasbag57
(g73
g59
NtRp560
(dp561
g62
(dp562
sg71
g476
sg64
(lp563
g57
(g78
g59
NtRp564
(dp565
g62
(dp566
g82
g83
ssg71
g560
sg64
(lp567
g378
asbag57
(g78
g59
NtRp568
(dp569
g62
(dp570
g89
g90
ssg71
g560
sg64
(lp571
S':'
asbag57
(g78
g59
NtRp572
(dp573
g62
(dp574
sg71
g560
sg64
(lp575
g57
(g58
g59
NtRp576
(dp577
g62
(dp578
g70
I3
ssg71
g572
sg64
(lp579
S''
asbasbasbag57
(g73
g59
NtRp580
(dp581
g62
(dp582
sg71
g476
sg64
(lp583
g57
(g78
g59
NtRp584
(dp585
g62
(dp586
g82
g83
ssg71
g580
sg64
(lp587
g399
asbag57
(g78
g59
NtRp588
(dp589
g62
(dp590
g89
g90
ssg71
g580
sg64
(lp591
S':'
asbag57
(g78
g59
NtRp592
(dp593
g62
(dp594
sg71
g580
sg64
(lp595
g57
(g58
g59
NtRp596
(dp597
g62
(dp598
g70
I3
ssg71
g592
sg64
(lp599
S''
asbasbasbag57
(g73
g59
NtRp600
(dp601
g62
(dp602
sg71
g476
sg64
(lp603
g57
(g78
g59
NtRp604
(dp605
g62
(dp606
g82
g83
ssg71
g600
sg64
(lp607
g420
asbag57
(g78
g59
NtRp608
(dp609
g62
(dp610
g89
g90
ssg71
g600
sg64
(lp611
S':'
asbag57
(g78
g59
NtRp612
(dp613
g62
(dp614
sg71
g600
sg64
(lp615
g57
(g58
g59
NtRp616
(dp617
g62
(dp618
g70
I3
ssg71
g612
sg64
(lp619
S''
asbasbasbag57
(g73
g59
NtRp620
(dp621
g62
(dp622
sg71
g476
sg64
(lp623
g57
(g78
g59
NtRp624
(dp625
g62
(dp626
g82
g83
ssg71
g620
sg64
(lp627
g441
asbag57
(g78
g59
NtRp628
(dp629
g62
(dp630
g89
g90
ssg71
g620
sg64
(lp631
S':'
asbag57
(g78
g59
NtRp632
(dp633
g62
(dp634
sg71
g620
sg64
(lp635
g57
(g58
g59
NtRp636
(dp637
g62
(dp638
g70
I3
ssg71
g632
sg64
(lp639
S''
asbasbasbasbasbasbasbag57
(g73
g59
NtRp640
(dp641
g62
(dp642
sg71
g256
sg64
(lp643
g57
(g78
g59
NtRp644
(dp645
g62
(dp646
g82
g83
ssg71
g640
sg64
(lp647
S'session_id_welcome'
p648
asbag57
(g78
g59
NtRp649
(dp650
g62
(dp651
g89
g90
ssg71
g640
sg64
(lp652
S':'
asbag57
(g78
g59
NtRp653
(dp654
g62
(dp655
sg71
g640
sg64
(lp656
g57
(g58
g59
NtRp657
(dp658
g62
(dp659
g70
I4
ssg71
g653
sg64
(lp660
S'127.0.0.1-38d0672e-334a-4529-83ed-1185abbc44d8'
p661
ag57
(g66
g59
NtRp662
(dp663
g62
(dp664
g70
I3
ssg71
Nsg64
(lp665
g57
(g73
g59
NtRp666
(dp667
g62
(dp668
sg71
g662
sg64
(lp669
g57
(g78
g59
NtRp670
(dp671
g62
(dp672
g82
g83
ssg71
g666
sg64
(lp673
g294
asbag57
(g78
g59
NtRp674
(dp675
g62
(dp676
g89
g90
ssg71
g666
sg64
(lp677
S':'
asbag57
(g78
g59
NtRp678
(dp679
g62
(dp680
sg71
g666
sg64
(lp681
g57
(g58
g59
NtRp682
(dp683
g62
(dp684
g70
I3
ssg71
g678
sg64
(lp685
S''
asbasbasbag57
(g73
g59
NtRp686
(dp687
g62
(dp688
sg71
g662
sg64
(lp689
g57
(g78
g59
NtRp690
(dp691
g62
(dp692
g82
g83
ssg71
g686
sg64
(lp693
g315
asbag57
(g78
g59
NtRp694
(dp695
g62
(dp696
g89
g90
ssg71
g686
sg64
(lp697
S':'
asbag57
(g78
g59
NtRp698
(dp699
g62
(dp700
sg71
g686
sg64
(lp701
g57
(g58
g59
NtRp702
(dp703
g62
(dp704
g70
I3
ssg71
g698
sg64
(lp705
S''
asbasbasbag57
(g73
g59
NtRp706
(dp707
g62
(dp708
sg71
g662
sg64
(lp709
g57
(g78
g59
NtRp710
(dp711
g62
(dp712
g82
g83
ssg71
g706
sg64
(lp713
g336
asbag57
(g78
g59
NtRp714
(dp715
g62
(dp716
g89
g90
ssg71
g706
sg64
(lp717
S':'
asbag57
(g78
g59
NtRp718
(dp719
g62
(dp720
sg71
g706
sg64
(lp721
g57
(g58
g59
NtRp722
(dp723
g62
(dp724
g70
I3
ssg71
g718
sg64
(lp725
S''
asbasbasbag57
(g73
g59
NtRp726
(dp727
g62
(dp728
sg71
g662
sg64
(lp729
g57
(g78
g59
NtRp730
(dp731
g62
(dp732
g82
g83
ssg71
g726
sg64
(lp733
g357
asbag57
(g78
g59
NtRp734
(dp735
g62
(dp736
g89
g90
ssg71
g726
sg64
(lp737
S':'
asbag57
(g78
g59
NtRp738
(dp739
g62
(dp740
sg71
g726
sg64
(lp741
g57
(g58
g59
NtRp742
(dp743
g62
(dp744
g70
I3
ssg71
g738
sg64
(lp745
S''
asbasbasbag57
(g73
g59
NtRp746
(dp747
g62
(dp748
sg71
g662
sg64
(lp749
g57
(g78
g59
NtRp750
(dp751
g62
(dp752
g82
g83
ssg71
g746
sg64
(lp753
g378
asbag57
(g78
g59
NtRp754
(dp755
g62
(dp756
g89
g90
ssg71
g746
sg64
(lp757
S':'
asbag57
(g78
g59
NtRp758
(dp759
g62
(dp760
sg71
g746
sg64
(lp761
g57
(g58
g59
NtRp762
(dp763
g62
(dp764
g70
I3
ssg71
g758
sg64
(lp765
S''
asbasbasbag57
(g73
g59
NtRp766
(dp767
g62
(dp768
sg71
g662
sg64
(lp769
g57
(g78
g59
NtRp770
(dp771
g62
(dp772
g82
g83
ssg71
g766
sg64
(lp773
g399
asbag57
(g78
g59
NtRp774
(dp775
g62
(dp776
g89
g90
ssg71
g766
sg64
(lp777
S':'
asbag57
(g78
g59
NtRp778
(dp779
g62
(dp780
sg71
g766
sg64
(lp781
g57
(g58
g59
NtRp782
(dp783
g62
(dp784
g70
I3
ssg71
g778
sg64
(lp785
S''
asbasbasbag57
(g73
g59
NtRp786
(dp787
g62
(dp788
sg71
g662
sg64
(lp789
g57
(g78
g59
NtRp790
(dp791
g62
(dp792
g82
g83
ssg71
g786
sg64
(lp793
g420
asbag57
(g78
g59
NtRp794
(dp795
g62
(dp796
g89
g90
ssg71
g786
sg64
(lp797
S':'
asbag57
(g78
g59
NtRp798
(dp799
g62
(dp800
sg71
g786
sg64
(lp801
g57
(g58
g59
NtRp802
(dp803
g62
(dp804
g70
I3
ssg71
g798
sg64
(lp805
S''
asbasbasbag57
(g73
g59
NtRp806
(dp807
g62
(dp808
sg71
g662
sg64
(lp809
g57
(g78
g59
NtRp810
(dp811
g62
(dp812
g82
g83
ssg71
g806
sg64
(lp813
g441
asbag57
(g78
g59
NtRp814
(dp815
g62
(dp816
g89
g90
ssg71
g806
sg64
(lp817
S':'
asbag57
(g78
g59
NtRp818
(dp819
g62
(dp820
sg71
g806
sg64
(lp821
g57
(g58
g59
NtRp822
(dp823
g62
(dp824
g70
I3
ssg71
g818
sg64
(lp825
S''
asbasbasbasbasbasbasbasbasbasbasbag57
(g73
g59
NtRp826
(dp827
g62
(dp828
sg71
g67
sg64
(lp829
g57
(g78
g59
NtRp830
(dp831
g62
(dp832
g82
g83
ssg71
g826
sg64
(lp833
S'env'
p834
asbag57
(g78
g59
NtRp835
(dp836
g62
(dp837
g89
g90
ssg71
g826
sg64
(lp838
S':'
asbag57
(g78
g59
NtRp839
(dp840
g62
(dp841
sg71
g826
sg64
(lp842
g57
(g58
g59
NtRp843
(dp844
g62
(dp845
g70
I5
ssg71
g839
sg64
(lp846
g57
(g66
g59
NtRp847
(dp848
g62
(dp849
g70
I4
ssg71
Nsg64
(lp850
g57
(g73
g59
NtRp851
(dp852
g62
(dp853
sg71
g847
sg64
(lp854
g57
(g78
g59
NtRp855
(dp856
g62
(dp857
g82
g83
ssg71
g851
sg64
(lp858
S'app_folders'
p859
asbag57
(g78
g59
NtRp860
(dp861
g62
(dp862
g89
g90
ssg71
g851
sg64
(lp863
S':'
asbag57
(g78
g59
NtRp864
(dp865
g62
(dp866
sg71
g851
sg64
(lp867
g57
(g58
g59
NtRp868
(dp869
g62
(dp870
g70
I4
ssg71
g864
sg64
(lp871
S"set(['/home/aditi/Desktop/web2py/applications/assignment2/', '/home/aditi/Desktop/web2py/applications/admin/', '/home/aditi/Desktop/web2py/applications/welcome/'])"
p872
asbasbasbag57
(g73
g59
NtRp873
(dp874
g62
(dp875
sg71
g847
sg64
(lp876
g57
(g78
g59
NtRp877
(dp878
g62
(dp879
g82
g83
ssg71
g873
sg64
(lp880
S'applications_parent'
p881
asbag57
(g78
g59
NtRp882
(dp883
g62
(dp884
g89
g90
ssg71
g873
sg64
(lp885
S':'
asbag57
(g78
g59
NtRp886
(dp887
g62
(dp888
sg71
g873
sg64
(lp889
g57
(g58
g59
NtRp890
(dp891
g62
(dp892
g70
I4
ssg71
g886
sg64
(lp893
S'/home/aditi/Desktop/web2py'
p894
asbasbasbag57
(g73
g59
NtRp895
(dp896
g62
(dp897
sg71
g847
sg64
(lp898
g57
(g78
g59
NtRp899
(dp900
g62
(dp901
g82
g83
ssg71
g895
sg64
(lp902
S'cmd_args'
p903
asbag57
(g78
g59
NtRp904
(dp905
g62
(dp906
g89
g90
ssg71
g895
sg64
(lp907
S':'
asbag57
(g78
g59
NtRp908
(dp909
g62
(dp910
sg71
g895
sg64
(lp911
g57
(g58
g59
NtRp912
(dp913
g62
(dp914
g70
I4
ssg71
g908
sg64
(lp915
g57
(g66
g59
NtRp916
(dp917
g62
(dp918
g70
I3
ssg71
Nsg64
(lp919
sbasbasbasbag57
(g73
g59
NtRp920
(dp921
g62
(dp922
sg71
g847
sg64
(lp923
g57
(g78
g59
NtRp924
(dp925
g62
(dp926
g82
g83
ssg71
g920
sg64
(lp927
S'cmd_options'
p928
asbag57
(g78
g59
NtRp929
(dp930
g62
(dp931
g89
g90
ssg71
g920
sg64
(lp932
S':'
asbag57
(g78
g59
NtRp933
(dp934
g62
(dp935
sg71
g920
sg64
(lp936
g57
(g58
g59
NtRp937
(dp938
g62
(dp939
g70
I4
ssg71
g933
sg64
(lp940
S"<Values at 0x95c5a0c: {'verbose': False, 'ip': '127.0.0.1', 'with_scheduler': False, 'ips': [], 'shutdown_timeout': 5, 'taskbar': False, 'port': 8000, 'maxthreads': None, 'softcron': False, 'server_name': 'ubuntu', 'bpython': False, 'nogui': False, 'pid_filename': 'httpserver.pid', 'extcron': False, 'runcron': False, 'run_system_tests': False, 'test': None, 'folder': '/home/aditi/Desktop/web2py', 'config': '', 'import_models': False, 'winservice': '', 'shell': None, 'run': '', 'log_filename': 'httpserver.log', 'debuglevel': 30, 'args': [''], 'socket_timeout': 5, 'ssl_ca_certificate': None, 'scheduler': None, 'profiler_filename': None, 'ssl_private_key': '', 'scheduler_groups': None, 'password': '<ask>', 'request_queue_size': 5, 'ssl_certificate': '', 'cronjob': False, 'numthreads': None, 'quiet': False, 'interfaces': None, 'minthreads': None, 'timeout': 10, 'plain': False, 'nobanner': False}>"
p941
asbasbasbag57
(g73
g59
NtRp942
(dp943
g62
(dp944
sg71
g847
sg64
(lp945
g57
(g78
g59
NtRp946
(dp947
g62
(dp948
g82
g83
ssg71
g942
sg64
(lp949
S'db_sessions'
p950
asbag57
(g78
g59
NtRp951
(dp952
g62
(dp953
g89
g90
ssg71
g942
sg64
(lp954
S':'
asbag57
(g78
g59
NtRp955
(dp956
g62
(dp957
sg71
g942
sg64
(lp958
g57
(g58
g59
NtRp959
(dp960
g62
(dp961
g70
I4
ssg71
g955
sg64
(lp962
S'set([])'
p963
asbasbasbag57
(g73
g59
NtRp964
(dp965
g62
(dp966
sg71
g847
sg64
(lp967
g57
(g78
g59
NtRp968
(dp969
g62
(dp970
g82
g83
ssg71
g964
sg64
(lp971
S'debugging'
p972
asbag57
(g78
g59
NtRp973
(dp974
g62
(dp975
g89
g90
ssg71
g964
sg64
(lp976
S':'
asbag57
(g78
g59
NtRp977
(dp978
g62
(dp979
sg71
g964
sg64
(lp980
g57
(g58
g59
NtRp981
(dp982
g62
(dp983
g70
I4
ssg71
g977
sg64
(lp984
g100
asbasbasbag57
(g73
g59
NtRp985
(dp986
g62
(dp987
sg71
g847
sg64
(lp988
g57
(g78
g59
NtRp989
(dp990
g62
(dp991
g82
g83
ssg71
g985
sg64
(lp992
S'gluon_parent'
p993
asbag57
(g78
g59
NtRp994
(dp995
g62
(dp996
g89
g90
ssg71
g985
sg64
(lp997
S':'
asbag57
(g78
g59
NtRp998
(dp999
g62
(dp1000
sg71
g985
sg64
(lp1001
g57
(g58
g59
NtRp1002
(dp1003
g62
(dp1004
g70
I4
ssg71
g998
sg64
(lp1005
S'/home/aditi/Desktop/web2py'
p1006
asbasbasbag57
(g73
g59
NtRp1007
(dp1008
g62
(dp1009
sg71
g847
sg64
(lp1010
g57
(g78
g59
NtRp1011
(dp1012
g62
(dp1013
g82
g83
ssg71
g1007
sg64
(lp1014
S'http_accept'
p1015
asbag57
(g78
g59
NtRp1016
(dp1017
g62
(dp1018
g89
g90
ssg71
g1007
sg64
(lp1019
S':'
asbag57
(g78
g59
NtRp1020
(dp1021
g62
(dp1022
sg71
g1007
sg64
(lp1023
g57
(g58
g59
NtRp1024
(dp1025
g62
(dp1026
g70
I4
ssg71
g1020
sg64
(lp1027
S'text/html,application/xhtml+xml,application/xml;q=0.9,*/*;q=0.8'
p1028
asbasbasbag57
(g73
g59
NtRp1029
(dp1030
g62
(dp1031
sg71
g847
sg64
(lp1032
g57
(g78
g59
NtRp1033
(dp1034
g62
(dp1035
g82
g83
ssg71
g1029
sg64
(lp1036
S'http_accept_encoding'
p1037
asbag57
(g78
g59
NtRp1038
(dp1039
g62
(dp1040
g89
g90
ssg71
g1029
sg64
(lp1041
S':'
asbag57
(g78
g59
NtRp1042
(dp1043
g62
(dp1044
sg71
g1029
sg64
(lp1045
g57
(g58
g59
NtRp1046
(dp1047
g62
(dp1048
g70
I4
ssg71
g1042
sg64
(lp1049
S'gzip, deflate'
p1050
asbasbasbag57
(g73
g59
NtRp1051
(dp1052
g62
(dp1053
sg71
g847
sg64
(lp1054
g57
(g78
g59
NtRp1055
(dp1056
g62
(dp1057
g82
g83
ssg71
g1051
sg64
(lp1058
S'http_accept_language'
p1059
asbag57
(g78
g59
NtRp1060
(dp1061
g62
(dp1062
g89
g90
ssg71
g1051
sg64
(lp1063
S':'
asbag57
(g78
g59
NtRp1064
(dp1065
g62
(dp1066
sg71
g1051
sg64
(lp1067
g57
(g58
g59
NtRp1068
(dp1069
g62
(dp1070
g70
I4
ssg71
g1064
sg64
(lp1071
S'en-US,en;q=0.5'
p1072
asbasbasbag57
(g73
g59
NtRp1073
(dp1074
g62
(dp1075
sg71
g847
sg64
(lp1076
g57
(g78
g59
NtRp1077
(dp1078
g62
(dp1079
g82
g83
ssg71
g1073
sg64
(lp1080
S'http_cache_control'
p1081
asbag57
(g78
g59
NtRp1082
(dp1083
g62
(dp1084
g89
g90
ssg71
g1073
sg64
(lp1085
S':'
asbag57
(g78
g59
NtRp1086
(dp1087
g62
(dp1088
sg71
g1073
sg64
(lp1089
g57
(g58
g59
NtRp1090
(dp1091
g62
(dp1092
g70
I4
ssg71
g1086
sg64
(lp1093
S'max-age=0'
p1094
asbasbasbag57
(g73
g59
NtRp1095
(dp1096
g62
(dp1097
sg71
g847
sg64
(lp1098
g57
(g78
g59
NtRp1099
(dp1100
g62
(dp1101
g82
g83
ssg71
g1095
sg64
(lp1102
S'http_connection'
p1103
asbag57
(g78
g59
NtRp1104
(dp1105
g62
(dp1106
g89
g90
ssg71
g1095
sg64
(lp1107
S':'
asbag57
(g78
g59
NtRp1108
(dp1109
g62
(dp1110
sg71
g1095
sg64
(lp1111
g57
(g58
g59
NtRp1112
(dp1113
g62
(dp1114
g70
I4
ssg71
g1108
sg64
(lp1115
S'keep-alive'
p1116
asbasbasbag57
(g73
g59
NtRp1117
(dp1118
g62
(dp1119
sg71
g847
sg64
(lp1120
g57
(g78
g59
NtRp1121
(dp1122
g62
(dp1123
g82
g83
ssg71
g1117
sg64
(lp1124
S'http_cookie'
p1125
asbag57
(g78
g59
NtRp1126
(dp1127
g62
(dp1128
g89
g90
ssg71
g1117
sg64
(lp1129
S':'
asbag57
(g78
g59
NtRp1130
(dp1131
g62
(dp1132
sg71
g1117
sg64
(lp1133
g57
(g58
g59
NtRp1134
(dp1135
g62
(dp1136
g70
I4
ssg71
g1130
sg64
(lp1137
S'session_id_welcome=127.0.0.1-38d0672e-334a-4529-83ed-1185abbc44d8; session_id_admin=127.0.0.1-f62c110b-7e8b-41d1-b2a4-c544f2842a3f; session_id_assignment2=127.0.0.1-8d570691-9fef-4051-bb01-b4497c1dfc12'
p1138
asbasbasbag57
(g73
g59
NtRp1139
(dp1140
g62
(dp1141
sg71
g847
sg64
(lp1142
g57
(g78
g59
NtRp1143
(dp1144
g62
(dp1145
g82
g83
ssg71
g1139
sg64
(lp1146
S'http_host'
p1147
asbag57
(g78
g59
NtRp1148
(dp1149
g62
(dp1150
g89
g90
ssg71
g1139
sg64
(lp1151
S':'
asbag57
(g78
g59
NtRp1152
(dp1153
g62
(dp1154
sg71
g1139
sg64
(lp1155
g57
(g58
g59
NtRp1156
(dp1157
g62
(dp1158
g70
I4
ssg71
g1152
sg64
(lp1159
S'127.0.0.1:8000'
p1160
asbasbasbag57
(g73
g59
NtRp1161
(dp1162
g62
(dp1163
sg71
g847
sg64
(lp1164
g57
(g78
g59
NtRp1165
(dp1166
g62
(dp1167
g82
g83
ssg71
g1161
sg64
(lp1168
S'http_referer'
p1169
asbag57
(g78
g59
NtRp1170
(dp1171
g62
(dp1172
g89
g90
ssg71
g1161
sg64
(lp1173
S':'
asbag57
(g78
g59
NtRp1174
(dp1175
g62
(dp1176
sg71
g1161
sg64
(lp1177
g57
(g58
g59
NtRp1178
(dp1179
g62
(dp1180
g70
I4
ssg71
g1174
sg64
(lp1181
S'http://127.0.0.1:8000/assignment2/default/user/login?_next=/assignment2/default/index'
p1182
asbasbasbag57
(g73
g59
NtRp1183
(dp1184
g62
(dp1185
sg71
g847
sg64
(lp1186
g57
(g78
g59
NtRp1187
(dp1188
g62
(dp1189
g82
g83
ssg71
g1183
sg64
(lp1190
S'http_user_agent'
p1191
asbag57
(g78
g59
NtRp1192
(dp1193
g62
(dp1194
g89
g90
ssg71
g1183
sg64
(lp1195
S':'
asbag57
(g78
g59
NtRp1196
(dp1197
g62
(dp1198
sg71
g1183
sg64
(lp1199
g57
(g58
g59
NtRp1200
(dp1201
g62
(dp1202
g70
I4
ssg71
g1196
sg64
(lp1203
S'Mozilla/5.0 (X11; Ubuntu; Linux i686; rv:23.0) Gecko/20100101 Firefox/23.0'
p1204
asbasbasbag57
(g73
g59
NtRp1205
(dp1206
g62
(dp1207
sg71
g847
sg64
(lp1208
g57
(g78
g59
NtRp1209
(dp1210
g62
(dp1211
g82
g83
ssg71
g1205
sg64
(lp1212
S'is_jython'
p1213
asbag57
(g78
g59
NtRp1214
(dp1215
g62
(dp1216
g89
g90
ssg71
g1205
sg64
(lp1217
S':'
asbag57
(g78
g59
NtRp1218
(dp1219
g62
(dp1220
sg71
g1205
sg64
(lp1221
g57
(g58
g59
NtRp1222
(dp1223
g62
(dp1224
g70
I4
ssg71
g1218
sg64
(lp1225
g100
asbasbasbag57
(g73
g59
NtRp1226
(dp1227
g62
(dp1228
sg71
g847
sg64
(lp1229
g57
(g78
g59
NtRp1230
(dp1231
g62
(dp1232
g82
g83
ssg71
g1226
sg64
(lp1233
S'is_pypy'
p1234
asbag57
(g78
g59
NtRp1235
(dp1236
g62
(dp1237
g89
g90
ssg71
g1226
sg64
(lp1238
S':'
asbag57
(g78
g59
NtRp1239
(dp1240
g62
(dp1241
sg71
g1226
sg64
(lp1242
g57
(g58
g59
NtRp1243
(dp1244
g62
(dp1245
g70
I4
ssg71
g1239
sg64
(lp1246
g100
asbasbasbag57
(g73
g59
NtRp1247
(dp1248
g62
(dp1249
sg71
g847
sg64
(lp1250
g57
(g78
g59
NtRp1251
(dp1252
g62
(dp1253
g82
g83
ssg71
g1247
sg64
(lp1254
S'local_hosts'
p1255
asbag57
(g78
g59
NtRp1256
(dp1257
g62
(dp1258
g89
g90
ssg71
g1247
sg64
(lp1259
S':'
asbag57
(g78
g59
NtRp1260
(dp1261
g62
(dp1262
sg71
g1247
sg64
(lp1263
g57
(g58
g59
NtRp1264
(dp1265
g62
(dp1266
g70
I4
ssg71
g1260
sg64
(lp1267
g57
(g66
g59
NtRp1268
(dp1269
g62
(dp1270
g70
I3
ssg71
Nsg64
(lp1271
g57
(g73
g59
NtRp1272
(dp1273
g62
(dp1274
sg71
g1268
sg64
(lp1275
g57
(g78
g59
NtRp1276
(dp1277
g62
(dp1278
sg71
g1272
sg64
(lp1279
g57
(g58
g59
NtRp1280
(dp1281
g62
(dp1282
g70
I3
ssg71
g1276
sg64
(lp1283
S'ubuntu.ubuntu-domain'
p1284
asbasbasbag57
(g73
g59
NtRp1285
(dp1286
g62
(dp1287
sg71
g1268
sg64
(lp1288
g57
(g78
g59
NtRp1289
(dp1290
g62
(dp1291
sg71
g1285
sg64
(lp1292
g57
(g58
g59
NtRp1293
(dp1294
g62
(dp1295
g70
I3
ssg71
g1289
sg64
(lp1296
S'::ffff:127.0.0.1'
p1297
asbasbasbag57
(g73
g59
NtRp1298
(dp1299
g62
(dp1300
sg71
g1268
sg64
(lp1301
g57
(g78
g59
NtRp1302
(dp1303
g62
(dp1304
sg71
g1298
sg64
(lp1305
g57
(g58
g59
NtRp1306
(dp1307
g62
(dp1308
g70
I3
ssg71
g1302
sg64
(lp1309
S'::1'
p1310
asbasbasbag57
(g73
g59
NtRp1311
(dp1312
g62
(dp1313
sg71
g1268
sg64
(lp1314
g57
(g78
g59
NtRp1315
(dp1316
g62
(dp1317
sg71
g1311
sg64
(lp1318
g57
(g58
g59
NtRp1319
(dp1320
g62
(dp1321
g70
I3
ssg71
g1315
sg64
(lp1322
S'ubuntu'
p1323
asbasbasbag57
(g73
g59
NtRp1324
(dp1325
g62
(dp1326
sg71
g1268
sg64
(lp1327
g57
(g78
g59
NtRp1328
(dp1329
g62
(dp1330
sg71
g1324
sg64
(lp1331
g57
(g58
g59
NtRp1332
(dp1333
g62
(dp1334
g70
I3
ssg71
g1328
sg64
(lp1335
S'127.0.1.1'
p1336
asbasbasbag57
(g73
g59
NtRp1337
(dp1338
g62
(dp1339
sg71
g1268
sg64
(lp1340
g57
(g78
g59
NtRp1341
(dp1342
g62
(dp1343
sg71
g1337
sg64
(lp1344
g57
(g58
g59
NtRp1345
(dp1346
g62
(dp1347
g70
I3
ssg71
g1341
sg64
(lp1348
S'127.0.0.1'
p1349
asbasbasbasbasbasbasbag57
(g73
g59
NtRp1350
(dp1351
g62
(dp1352
sg71
g847
sg64
(lp1353
g57
(g78
g59
NtRp1354
(dp1355
g62
(dp1356
g82
g83
ssg71
g1350
sg64
(lp1357
S'path_info'
p1358
asbag57
(g78
g59
NtRp1359
(dp1360
g62
(dp1361
g89
g90
ssg71
g1350
sg64
(lp1362
S':'
asbag57
(g78
g59
NtRp1363
(dp1364
g62
(dp1365
sg71
g1350
sg64
(lp1366
g57
(g58
g59
NtRp1367
(dp1368
g62
(dp1369
g70
I4
ssg71
g1363
sg64
(lp1370
S'/assignment2/default/user_homepage'
p1371
asbasbasbag57
(g73
g59
NtRp1372
(dp1373
g62
(dp1374
sg71
g847
sg64
(lp1375
g57
(g78
g59
NtRp1376
(dp1377
g62
(dp1378
g82
g83
ssg71
g1372
sg64
(lp1379
S'query_string'
p1380
asbag57
(g78
g59
NtRp1381
(dp1382
g62
(dp1383
g89
g90
ssg71
g1372
sg64
(lp1384
S':'
asbag57
(g78
g59
NtRp1385
(dp1386
g62
(dp1387
sg71
g1372
sg64
(lp1388
g57
(g58
g59
NtRp1389
(dp1390
g62
(dp1391
g70
I4
ssg71
g1385
sg64
(lp1392
S''
asbasbasbag57
(g73
g59
NtRp1393
(dp1394
g62
(dp1395
sg71
g847
sg64
(lp1396
g57
(g78
g59
NtRp1397
(dp1398
g62
(dp1399
g82
g83
ssg71
g1393
sg64
(lp1400
S'remote_addr'
p1401
asbag57
(g78
g59
NtRp1402
(dp1403
g62
(dp1404
g89
g90
ssg71
g1393
sg64
(lp1405
S':'
asbag57
(g78
g59
NtRp1406
(dp1407
g62
(dp1408
sg71
g1393
sg64
(lp1409
g57
(g58
g59
NtRp1410
(dp1411
g62
(dp1412
g70
I4
ssg71
g1406
sg64
(lp1413
g212
asbasbasbag57
(g73
g59
NtRp1414
(dp1415
g62
(dp1416
sg71
g847
sg64
(lp1417
g57
(g78
g59
NtRp1418
(dp1419
g62
(dp1420
g82
g83
ssg71
g1414
sg64
(lp1421
S'remote_port'
p1422
asbag57
(g78
g59
NtRp1423
(dp1424
g62
(dp1425
g89
g90
ssg71
g1414
sg64
(lp1426
S':'
asbag57
(g78
g59
NtRp1427
(dp1428
g62
(dp1429
sg71
g1414
sg64
(lp1430
g57
(g58
g59
NtRp1431
(dp1432
g62
(dp1433
g70
I4
ssg71
g1427
sg64
(lp1434
S'38726'
p1435
asbasbasbag57
(g73
g59
NtRp1436
(dp1437
g62
(dp1438
sg71
g847
sg64
(lp1439
g57
(g78
g59
NtRp1440
(dp1441
g62
(dp1442
g82
g83
ssg71
g1436
sg64
(lp1443
S'request_method'
p1444
asbag57
(g78
g59
NtRp1445
(dp1446
g62
(dp1447
g89
g90
ssg71
g1436
sg64
(lp1448
S':'
asbag57
(g78
g59
NtRp1449
(dp1450
g62
(dp1451
sg71
g1436
sg64
(lp1452
g57
(g58
g59
NtRp1453
(dp1454
g62
(dp1455
g70
I4
ssg71
g1449
sg64
(lp1456
S'GET'
p1457
asbasbasbag57
(g73
g59
NtRp1458
(dp1459
g62
(dp1460
sg71
g847
sg64
(lp1461
g57
(g78
g59
NtRp1462
(dp1463
g62
(dp1464
g82
g83
ssg71
g1458
sg64
(lp1465
S'request_uri'
p1466
asbag57
(g78
g59
NtRp1467
(dp1468
g62
(dp1469
g89
g90
ssg71
g1458
sg64
(lp1470
S':'
asbag57
(g78
g59
NtRp1471
(dp1472
g62
(dp1473
sg71
g1458
sg64
(lp1474
g57
(g58
g59
NtRp1475
(dp1476
g62
(dp1477
g70
I4
ssg71
g1471
sg64
(lp1478
g1371
asbasbasbag57
(g73
g59
NtRp1479
(dp1480
g62
(dp1481
sg71
g847
sg64
(lp1482
g57
(g78
g59
NtRp1483
(dp1484
g62
(dp1485
g82
g83
ssg71
g1479
sg64
(lp1486
S'script_name'
p1487
asbag57
(g78
g59
NtRp1488
(dp1489
g62
(dp1490
g89
g90
ssg71
g1479
sg64
(lp1491
S':'
asbag57
(g78
g59
NtRp1492
(dp1493
g62
(dp1494
sg71
g1479
sg64
(lp1495
g57
(g58
g59
NtRp1496
(dp1497
g62
(dp1498
g70
I4
ssg71
g1492
sg64
(lp1499
S''
asbasbasbag57
(g73
g59
NtRp1500
(dp1501
g62
(dp1502
sg71
g847
sg64
(lp1503
g57
(g78
g59
NtRp1504
(dp1505
g62
(dp1506
g82
g83
ssg71
g1500
sg64
(lp1507
S'server_name'
p1508
asbag57
(g78
g59
NtRp1509
(dp1510
g62
(dp1511
g89
g90
ssg71
g1500
sg64
(lp1512
S':'
asbag57
(g78
g59
NtRp1513
(dp1514
g62
(dp1515
sg71
g1500
sg64
(lp1516
g57
(g58
g59
NtRp1517
(dp1518
g62
(dp1519
g70
I4
ssg71
g1513
sg64
(lp1520
S'ubuntu'
p1521
asbasbasbag57
(g73
g59
NtRp1522
(dp1523
g62
(dp1524
sg71
g847
sg64
(lp1525
g57
(g78
g59
NtRp1526
(dp1527
g62
(dp1528
g82
g83
ssg71
g1522
sg64
(lp1529
S'server_port'
p1530
asbag57
(g78
g59
NtRp1531
(dp1532
g62
(dp1533
g89
g90
ssg71
g1522
sg64
(lp1534
S':'
asbag57
(g78
g59
NtRp1535
(dp1536
g62
(dp1537
sg71
g1522
sg64
(lp1538
g57
(g58
g59
NtRp1539
(dp1540
g62
(dp1541
g70
I4
ssg71
g1535
sg64
(lp1542
S'8000'
p1543
asbasbasbag57
(g73
g59
NtRp1544
(dp1545
g62
(dp1546
sg71
g847
sg64
(lp1547
g57
(g78
g59
NtRp1548
(dp1549
g62
(dp1550
g82
g83
ssg71
g1544
sg64
(lp1551
S'server_protocol'
p1552
asbag57
(g78
g59
NtRp1553
(dp1554
g62
(dp1555
g89
g90
ssg71
g1544
sg64
(lp1556
S':'
asbag57
(g78
g59
NtRp1557
(dp1558
g62
(dp1559
sg71
g1544
sg64
(lp1560
g57
(g58
g59
NtRp1561
(dp1562
g62
(dp1563
g70
I4
ssg71
g1557
sg64
(lp1564
S'HTTP/1.1'
p1565
asbasbasbag57
(g73
g59
NtRp1566
(dp1567
g62
(dp1568
sg71
g847
sg64
(lp1569
g57
(g78
g59
NtRp1570
(dp1571
g62
(dp1572
g82
g83
ssg71
g1566
sg64
(lp1573
S'server_software'
p1574
asbag57
(g78
g59
NtRp1575
(dp1576
g62
(dp1577
g89
g90
ssg71
g1566
sg64
(lp1578
S':'
asbag57
(g78
g59
NtRp1579
(dp1580
g62
(dp1581
sg71
g1566
sg64
(lp1582
g57
(g58
g59
NtRp1583
(dp1584
g62
(dp1585
g70
I4
ssg71
g1579
sg64
(lp1586
S'Rocket 1.2.6'
p1587
asbasbasbag57
(g73
g59
NtRp1588
(dp1589
g62
(dp1590
sg71
g847
sg64
(lp1591
g57
(g78
g59
NtRp1592
(dp1593
g62
(dp1594
g82
g83
ssg71
g1588
sg64
(lp1595
S'web2py_path'
p1596
asbag57
(g78
g59
NtRp1597
(dp1598
g62
(dp1599
g89
g90
ssg71
g1588
sg64
(lp1600
S':'
asbag57
(g78
g59
NtRp1601
(dp1602
g62
(dp1603
sg71
g1588
sg64
(lp1604
g57
(g58
g59
NtRp1605
(dp1606
g62
(dp1607
g70
I4
ssg71
g1601
sg64
(lp1608
g894
asbasbasbag57
(g73
g59
NtRp1609
(dp1610
g62
(dp1611
sg71
g847
sg64
(lp1612
g57
(g78
g59
NtRp1613
(dp1614
g62
(dp1615
g82
g83
ssg71
g1609
sg64
(lp1616
S'web2py_version'
p1617
asbag57
(g78
g59
NtRp1618
(dp1619
g62
(dp1620
g89
g90
ssg71
g1609
sg64
(lp1621
S':'
asbag57
(g78
g59
NtRp1622
(dp1623
g62
(dp1624
sg71
g1609
sg64
(lp1625
g57
(g58
g59
NtRp1626
(dp1627
g62
(dp1628
g70
I4
ssg71
g1622
sg64
(lp1629
g57
(g66
g59
NtRp1630
(dp1631
g62
(dp1632
g70
I3
ssg71
Nsg64
(lp1633
g57
(g73
g59
NtRp1634
(dp1635
g62
(dp1636
sg71
g1630
sg64
(lp1637
g57
(g78
g59
NtRp1638
(dp1639
g62
(dp1640
sg71
g1634
sg64
(lp1641
g57
(g58
g59
NtRp1642
(dp1643
g62
(dp1644
g70
I3
ssg71
g1638
sg64
(lp1645
S'2'
asbasbasbag57
(g73
g59
NtRp1646
(dp1647
g62
(dp1648
sg71
g1630
sg64
(lp1649
g57
(g78
g59
NtRp1650
(dp1651
g62
(dp1652
sg71
g1646
sg64
(lp1653
g57
(g58
g59
NtRp1654
(dp1655
g62
(dp1656
g70
I3
ssg71
g1650
sg64
(lp1657
S'3'
asbasbasbag57
(g73
g59
NtRp1658
(dp1659
g62
(dp1660
sg71
g1630
sg64
(lp1661
g57
(g78
g59
NtRp1662
(dp1663
g62
(dp1664
sg71
g1658
sg64
(lp1665
g57
(g58
g59
NtRp1666
(dp1667
g62
(dp1668
g70
I3
ssg71
g1662
sg64
(lp1669
S'2'
asbasbasbag57
(g73
g59
NtRp1670
(dp1671
g62
(dp1672
sg71
g1630
sg64
(lp1673
g57
(g78
g59
NtRp1674
(dp1675
g62
(dp1676
sg71
g1670
sg64
(lp1677
g57
(g58
g59
NtRp1678
(dp1679
g62
(dp1680
g70
I3
ssg71
g1674
sg64
(lp1681
S'datetime.datetime(2012, 12, 17, 15, 3, 30)'
p1682
asbasbasbag57
(g73
g59
NtRp1683
(dp1684
g62
(dp1685
sg71
g1630
sg64
(lp1686
g57
(g78
g59
NtRp1687
(dp1688
g62
(dp1689
sg71
g1683
sg64
(lp1690
g57
(g58
g59
NtRp1691
(dp1692
g62
(dp1693
g70
I3
ssg71
g1687
sg64
(lp1694
S'stable'
p1695
asbasbasbasbasbasbasbag57
(g73
g59
NtRp1696
(dp1697
g62
(dp1698
sg71
g847
sg64
(lp1699
g57
(g78
g59
NtRp1700
(dp1701
g62
(dp1702
g82
g83
ssg71
g1696
sg64
(lp1703
S'wsgi_errors'
p1704
asbag57
(g78
g59
NtRp1705
(dp1706
g62
(dp1707
g89
g90
ssg71
g1696
sg64
(lp1708
S':'
asbag57
(g78
g59
NtRp1709
(dp1710
g62
(dp1711
sg71
g1696
sg64
(lp1712
g57
(g58
g59
NtRp1713
(dp1714
g62
(dp1715
g70
I4
ssg71
g1709
sg64
(lp1716
S"<open file '<stderr>', mode 'w' at 0xb73690d0>"
p1717
asbasbasbag57
(g73
g59
NtRp1718
(dp1719
g62
(dp1720
sg71
g847
sg64
(lp1721
g57
(g78
g59
NtRp1722
(dp1723
g62
(dp1724
g82
g83
ssg71
g1718
sg64
(lp1725
S'wsgi_file_wrapper'
p1726
asbag57
(g78
g59
NtRp1727
(dp1728
g62
(dp1729
g89
g90
ssg71
g1718
sg64
(lp1730
S':'
asbag57
(g78
g59
NtRp1731
(dp1732
g62
(dp1733
sg71
g1718
sg64
(lp1734
g57
(g58
g59
NtRp1735
(dp1736
g62
(dp1737
g70
I4
ssg71
g1731
sg64
(lp1738
S'<class wsgiref.util.FileWrapper at 0x958165c>'
p1739
asbasbasbag57
(g73
g59
NtRp1740
(dp1741
g62
(dp1742
sg71
g847
sg64
(lp1743
g57
(g78
g59
NtRp1744
(dp1745
g62
(dp1746
g82
g83
ssg71
g1740
sg64
(lp1747
S'wsgi_input'
p1748
asbag57
(g78
g59
NtRp1749
(dp1750
g62
(dp1751
g89
g90
ssg71
g1740
sg64
(lp1752
S':'
asbag57
(g78
g59
NtRp1753
(dp1754
g62
(dp1755
sg71
g1740
sg64
(lp1756
g57
(g58
g59
NtRp1757
(dp1758
g62
(dp1759
g70
I4
ssg71
g1753
sg64
(lp1760
S'<socket._fileobject object at 0xad6b006c>'
p1761
asbasbasbag57
(g73
g59
NtRp1762
(dp1763
g62
(dp1764
sg71
g847
sg64
(lp1765
g57
(g78
g59
NtRp1766
(dp1767
g62
(dp1768
g82
g83
ssg71
g1762
sg64
(lp1769
S'wsgi_multiprocess'
p1770
asbag57
(g78
g59
NtRp1771
(dp1772
g62
(dp1773
g89
g90
ssg71
g1762
sg64
(lp1774
S':'
asbag57
(g78
g59
NtRp1775
(dp1776
g62
(dp1777
sg71
g1762
sg64
(lp1778
g57
(g58
g59
NtRp1779
(dp1780
g62
(dp1781
g70
I4
ssg71
g1775
sg64
(lp1782
g100
asbasbasbag57
(g73
g59
NtRp1783
(dp1784
g62
(dp1785
sg71
g847
sg64
(lp1786
g57
(g78
g59
NtRp1787
(dp1788
g62
(dp1789
g82
g83
ssg71
g1783
sg64
(lp1790
S'wsgi_multithread'
p1791
asbag57
(g78
g59
NtRp1792
(dp1793
g62
(dp1794
g89
g90
ssg71
g1783
sg64
(lp1795
S':'
asbag57
(g78
g59
NtRp1796
(dp1797
g62
(dp1798
sg71
g1783
sg64
(lp1799
g57
(g58
g59
NtRp1800
(dp1801
g62
(dp1802
g70
I4
ssg71
g1796
sg64
(lp1803
S'True'
p1804
asbasbasbag57
(g73
g59
NtRp1805
(dp1806
g62
(dp1807
sg71
g847
sg64
(lp1808
g57
(g78
g59
NtRp1809
(dp1810
g62
(dp1811
g82
g83
ssg71
g1805
sg64
(lp1812
S'wsgi_run_once'
p1813
asbag57
(g78
g59
NtRp1814
(dp1815
g62
(dp1816
g89
g90
ssg71
g1805
sg64
(lp1817
S':'
asbag57
(g78
g59
NtRp1818
(dp1819
g62
(dp1820
sg71
g1805
sg64
(lp1821
g57
(g58
g59
NtRp1822
(dp1823
g62
(dp1824
g70
I4
ssg71
g1818
sg64
(lp1825
g100
asbasbasbag57
(g73
g59
NtRp1826
(dp1827
g62
(dp1828
sg71
g847
sg64
(lp1829
g57
(g78
g59
NtRp1830
(dp1831
g62
(dp1832
g82
g83
ssg71
g1826
sg64
(lp1833
S'wsgi_url_scheme'
p1834
asbag57
(g78
g59
NtRp1835
(dp1836
g62
(dp1837
g89
g90
ssg71
g1826
sg64
(lp1838
S':'
asbag57
(g78
g59
NtRp1839
(dp1840
g62
(dp1841
sg71
g1826
sg64
(lp1842
g57
(g58
g59
NtRp1843
(dp1844
g62
(dp1845
g70
I4
ssg71
g1839
sg64
(lp1846
S'http'
p1847
asbasbasbag57
(g73
g59
NtRp1848
(dp1849
g62
(dp1850
sg71
g847
sg64
(lp1851
g57
(g78
g59
NtRp1852
(dp1853
g62
(dp1854
g82
g83
ssg71
g1848
sg64
(lp1855
S'wsgi_version'
p1856
asbag57
(g78
g59
NtRp1857
(dp1858
g62
(dp1859
g89
g90
ssg71
g1848
sg64
(lp1860
S':'
asbag57
(g78
g59
NtRp1861
(dp1862
g62
(dp1863
sg71
g1848
sg64
(lp1864
g57
(g58
g59
NtRp1865
(dp1866
g62
(dp1867
g70
I4
ssg71
g1861
sg64
(lp1868
g57
(g66
g59
NtRp1869
(dp1870
g62
(dp1871
g70
I3
ssg71
Nsg64
(lp1872
g57
(g73
g59
NtRp1873
(dp1874
g62
(dp1875
sg71
g1869
sg64
(lp1876
g57
(g78
g59
NtRp1877
(dp1878
g62
(dp1879
sg71
g1873
sg64
(lp1880
g57
(g58
g59
NtRp1881
(dp1882
g62
(dp1883
g70
I3
ssg71
g1877
sg64
(lp1884
S'1'
asbasbasbag57
(g73
g59
NtRp1885
(dp1886
g62
(dp1887
sg71
g1869
sg64
(lp1888
g57
(g78
g59
NtRp1889
(dp1890
g62
(dp1891
sg71
g1885
sg64
(lp1892
g57
(g58
g59
NtRp1893
(dp1894
g62
(dp1895
g70
I3
ssg71
g1889
sg64
(lp1896
S'0'
asbasbasbasbasbasbasbasbasbasbasbag57
(g73
g59
NtRp1897
(dp1898
g62
(dp1899
sg71
g67
sg64
(lp1900
g57
(g78
g59
NtRp1901
(dp1902
g62
(dp1903
g82
g83
ssg71
g1897
sg64
(lp1904
S'extension'
p1905
asbag57
(g78
g59
NtRp1906
(dp1907
g62
(dp1908
g89
g90
ssg71
g1897
sg64
(lp1909
S':'
asbag57
(g78
g59
NtRp1910
(dp1911
g62
(dp1912
sg71
g1897
sg64
(lp1913
g57
(g58
g59
NtRp1914
(dp1915
g62
(dp1916
g70
I5
ssg71
g1910
sg64
(lp1917
S'html'
p1918
asbasbasbag57
(g73
g59
NtRp1919
(dp1920
g62
(dp1921
sg71
g67
sg64
(lp1922
g57
(g78
g59
NtRp1923
(dp1924
g62
(dp1925
g82
g83
ssg71
g1919
sg64
(lp1926
S'folder'
p1927
asbag57
(g78
g59
NtRp1928
(dp1929
g62
(dp1930
g89
g90
ssg71
g1919
sg64
(lp1931
S':'
asbag57
(g78
g59
NtRp1932
(dp1933
g62
(dp1934
sg71
g1919
sg64
(lp1935
g57
(g58
g59
NtRp1936
(dp1937
g62
(dp1938
g70
I5
ssg71
g1932
sg64
(lp1939
S'/home/aditi/Desktop/web2py/applications/assignment2/'
p1940
asbasbasbag57
(g73
g59
NtRp1941
(dp1942
g62
(dp1943
sg71
g67
sg64
(lp1944
g57
(g78
g59
NtRp1945
(dp1946
g62
(dp1947
g82
g83
ssg71
g1941
sg64
(lp1948
S'function'
p1949
asbag57
(g78
g59
NtRp1950
(dp1951
g62
(dp1952
g89
g90
ssg71
g1941
sg64
(lp1953
S':'
asbag57
(g78
g59
NtRp1954
(dp1955
g62
(dp1956
sg71
g1941
sg64
(lp1957
g57
(g58
g59
NtRp1958
(dp1959
g62
(dp1960
g70
I5
ssg71
g1954
sg64
(lp1961
S'user_homepage'
p1962
asbasbasbag57
(g73
g59
NtRp1963
(dp1964
g62
(dp1965
sg71
g67
sg64
(lp1966
g57
(g78
g59
NtRp1967
(dp1968
g62
(dp1969
g82
g83
ssg71
g1963
sg64
(lp1970
S'get_vars'
p1971
asbag57
(g78
g59
NtRp1972
(dp1973
g62
(dp1974
g89
g90
ssg71
g1963
sg64
(lp1975
S':'
asbag57
(g78
g59
NtRp1976
(dp1977
g62
(dp1978
sg71
g1963
sg64
(lp1979
g57
(g58
g59
NtRp1980
(dp1981
g62
(dp1982
g70
I5
ssg71
g1976
sg64
(lp1983
g57
(g66
g59
NtRp1984
(dp1985
g62
(dp1986
g70
I4
ssg71
Nsg64
(lp1987
sbasbasbasbag57
(g73
g59
NtRp1988
(dp1989
g62
(dp1990
sg71
g67
sg64
(lp1991
g57
(g78
g59
NtRp1992
(dp1993
g62
(dp1994
g82
g83
ssg71
g1988
sg64
(lp1995
S'global_settings'
p1996
asbag57
(g78
g59
NtRp1997
(dp1998
g62
(dp1999
g89
g90
ssg71
g1988
sg64
(lp2000
S':'
asbag57
(g78
g59
NtRp2001
(dp2002
g62
(dp2003
sg71
g1988
sg64
(lp2004
g57
(g58
g59
NtRp2005
(dp2006
g62
(dp2007
g70
I5
ssg71
g2001
sg64
(lp2008
g57
(g66
g59
NtRp2009
(dp2010
g62
(dp2011
g70
I4
ssg71
Nsg64
(lp2012
g57
(g73
g59
NtRp2013
(dp2014
g62
(dp2015
sg71
g2009
sg64
(lp2016
g57
(g78
g59
NtRp2017
(dp2018
g62
(dp2019
g82
g83
ssg71
g2013
sg64
(lp2020
g859
asbag57
(g78
g59
NtRp2021
(dp2022
g62
(dp2023
g89
g90
ssg71
g2013
sg64
(lp2024
S':'
asbag57
(g78
g59
NtRp2025
(dp2026
g62
(dp2027
sg71
g2013
sg64
(lp2028
g57
(g58
g59
NtRp2029
(dp2030
g62
(dp2031
g70
I4
ssg71
g2025
sg64
(lp2032
S"set(['/home/aditi/Desktop/web2py/applications/assignment2/', '/home/aditi/Desktop/web2py/applications/admin/', '/home/aditi/Desktop/web2py/applications/welcome/'])"
p2033
asbasbasbag57
(g73
g59
NtRp2034
(dp2035
g62
(dp2036
sg71
g2009
sg64
(lp2037
g57
(g78
g59
NtRp2038
(dp2039
g62
(dp2040
g82
g83
ssg71
g2034
sg64
(lp2041
g881
asbag57
(g78
g59
NtRp2042
(dp2043
g62
(dp2044
g89
g90
ssg71
g2034
sg64
(lp2045
S':'
asbag57
(g78
g59
NtRp2046
(dp2047
g62
(dp2048
sg71
g2034
sg64
(lp2049
g57
(g58
g59
NtRp2050
(dp2051
g62
(dp2052
g70
I4
ssg71
g2046
sg64
(lp2053
g894
asbasbasbag57
(g73
g59
NtRp2054
(dp2055
g62
(dp2056
sg71
g2009
sg64
(lp2057
g57
(g78
g59
NtRp2058
(dp2059
g62
(dp2060
g82
g83
ssg71
g2054
sg64
(lp2061
g903
asbag57
(g78
g59
NtRp2062
(dp2063
g62
(dp2064
g89
g90
ssg71
g2054
sg64
(lp2065
S':'
asbag57
(g78
g59
NtRp2066
(dp2067
g62
(dp2068
sg71
g2054
sg64
(lp2069
g57
(g58
g59
NtRp2070
(dp2071
g62
(dp2072
g70
I4
ssg71
g2066
sg64
(lp2073
g57
(g66
g59
NtRp2074
(dp2075
g62
(dp2076
g70
I3
ssg71
Nsg64
(lp2077
sbasbasbasbag57
(g73
g59
NtRp2078
(dp2079
g62
(dp2080
sg71
g2009
sg64
(lp2081
g57
(g78
g59
NtRp2082
(dp2083
g62
(dp2084
g82
g83
ssg71
g2078
sg64
(lp2085
g928
asbag57
(g78
g59
NtRp2086
(dp2087
g62
(dp2088
g89
g90
ssg71
g2078
sg64
(lp2089
S':'
asbag57
(g78
g59
NtRp2090
(dp2091
g62
(dp2092
sg71
g2078
sg64
(lp2093
g57
(g58
g59
NtRp2094
(dp2095
g62
(dp2096
g70
I4
ssg71
g2090
sg64
(lp2097
S"<Values at 0x95c5a0c: {'verbose': False, 'ip': '127.0.0.1', 'with_scheduler': False, 'ips': [], 'shutdown_timeout': 5, 'taskbar': False, 'port': 8000, 'maxthreads': None, 'softcron': False, 'server_name': 'ubuntu', 'bpython': False, 'nogui': False, 'pid_filename': 'httpserver.pid', 'extcron': False, 'runcron': False, 'run_system_tests': False, 'test': None, 'folder': '/home/aditi/Desktop/web2py', 'config': '', 'import_models': False, 'winservice': '', 'shell': None, 'run': '', 'log_filename': 'httpserver.log', 'debuglevel': 30, 'args': [''], 'socket_timeout': 5, 'ssl_ca_certificate': None, 'scheduler': None, 'profiler_filename': None, 'ssl_private_key': '', 'scheduler_groups': None, 'password': '<ask>', 'request_queue_size': 5, 'ssl_certificate': '', 'cronjob': False, 'numthreads': None, 'quiet': False, 'interfaces': None, 'minthreads': None, 'timeout': 10, 'plain': False, 'nobanner': False}>"
p2098
asbasbasbag57
(g73
g59
NtRp2099
(dp2100
g62
(dp2101
sg71
g2009
sg64
(lp2102
g57
(g78
g59
NtRp2103
(dp2104
g62
(dp2105
g82
g83
ssg71
g2099
sg64
(lp2106
g950
asbag57
(g78
g59
NtRp2107
(dp2108
g62
(dp2109
g89
g90
ssg71
g2099
sg64
(lp2110
S':'
asbag57
(g78
g59
NtRp2111
(dp2112
g62
(dp2113
sg71
g2099
sg64
(lp2114
g57
(g58
g59
NtRp2115
(dp2116
g62
(dp2117
g70
I4
ssg71
g2111
sg64
(lp2118
S'set([])'
p2119
asbasbasbag57
(g73
g59
NtRp2120
(dp2121
g62
(dp2122
sg71
g2009
sg64
(lp2123
g57
(g78
g59
NtRp2124
(dp2125
g62
(dp2126
g82
g83
ssg71
g2120
sg64
(lp2127
g972
asbag57
(g78
g59
NtRp2128
(dp2129
g62
(dp2130
g89
g90
ssg71
g2120
sg64
(lp2131
S':'
asbag57
(g78
g59
NtRp2132
(dp2133
g62
(dp2134
sg71
g2120
sg64
(lp2135
g57
(g58
g59
NtRp2136
(dp2137
g62
(dp2138
g70
I4
ssg71
g2132
sg64
(lp2139
g100
asbasbasbag57
(g73
g59
NtRp2140
(dp2141
g62
(dp2142
sg71
g2009
sg64
(lp2143
g57
(g78
g59
NtRp2144
(dp2145
g62
(dp2146
g82
g83
ssg71
g2140
sg64
(lp2147
g993
asbag57
(g78
g59
NtRp2148
(dp2149
g62
(dp2150
g89
g90
ssg71
g2140
sg64
(lp2151
S':'
asbag57
(g78
g59
NtRp2152
(dp2153
g62
(dp2154
sg71
g2140
sg64
(lp2155
g57
(g58
g59
NtRp2156
(dp2157
g62
(dp2158
g70
I4
ssg71
g2152
sg64
(lp2159
g1006
asbasbasbag57
(g73
g59
NtRp2160
(dp2161
g62
(dp2162
sg71
g2009
sg64
(lp2163
g57
(g78
g59
NtRp2164
(dp2165
g62
(dp2166
g82
g83
ssg71
g2160
sg64
(lp2167
g1213
asbag57
(g78
g59
NtRp2168
(dp2169
g62
(dp2170
g89
g90
ssg71
g2160
sg64
(lp2171
S':'
asbag57
(g78
g59
NtRp2172
(dp2173
g62
(dp2174
sg71
g2160
sg64
(lp2175
g57
(g58
g59
NtRp2176
(dp2177
g62
(dp2178
g70
I4
ssg71
g2172
sg64
(lp2179
g100
asbasbasbag57
(g73
g59
NtRp2180
(dp2181
g62
(dp2182
sg71
g2009
sg64
(lp2183
g57
(g78
g59
NtRp2184
(dp2185
g62
(dp2186
g82
g83
ssg71
g2180
sg64
(lp2187
g1234
asbag57
(g78
g59
NtRp2188
(dp2189
g62
(dp2190
g89
g90
ssg71
g2180
sg64
(lp2191
S':'
asbag57
(g78
g59
NtRp2192
(dp2193
g62
(dp2194
sg71
g2180
sg64
(lp2195
g57
(g58
g59
NtRp2196
(dp2197
g62
(dp2198
g70
I4
ssg71
g2192
sg64
(lp2199
g100
asbasbasbag57
(g73
g59
NtRp2200
(dp2201
g62
(dp2202
sg71
g2009
sg64
(lp2203
g57
(g78
g59
NtRp2204
(dp2205
g62
(dp2206
g82
g83
ssg71
g2200
sg64
(lp2207
g1255
asbag57
(g78
g59
NtRp2208
(dp2209
g62
(dp2210
g89
g90
ssg71
g2200
sg64
(lp2211
S':'
asbag57
(g78
g59
NtRp2212
(dp2213
g62
(dp2214
sg71
g2200
sg64
(lp2215
g57
(g58
g59
NtRp2216
(dp2217
g62
(dp2218
g70
I4
ssg71
g2212
sg64
(lp2219
g57
(g66
g59
NtRp2220
(dp2221
g62
(dp2222
g70
I3
ssg71
Nsg64
(lp2223
g57
(g73
g59
NtRp2224
(dp2225
g62
(dp2226
sg71
g2220
sg64
(lp2227
g57
(g78
g59
NtRp2228
(dp2229
g62
(dp2230
sg71
g2224
sg64
(lp2231
g57
(g58
g59
NtRp2232
(dp2233
g62
(dp2234
g70
I3
ssg71
g2228
sg64
(lp2235
g1284
asbasbasbag57
(g73
g59
NtRp2236
(dp2237
g62
(dp2238
sg71
g2220
sg64
(lp2239
g57
(g78
g59
NtRp2240
(dp2241
g62
(dp2242
sg71
g2236
sg64
(lp2243
g57
(g58
g59
NtRp2244
(dp2245
g62
(dp2246
g70
I3
ssg71
g2240
sg64
(lp2247
g1297
asbasbasbag57
(g73
g59
NtRp2248
(dp2249
g62
(dp2250
sg71
g2220
sg64
(lp2251
g57
(g78
g59
NtRp2252
(dp2253
g62
(dp2254
sg71
g2248
sg64
(lp2255
g57
(g58
g59
NtRp2256
(dp2257
g62
(dp2258
g70
I3
ssg71
g2252
sg64
(lp2259
g1310
asbasbasbag57
(g73
g59
NtRp2260
(dp2261
g62
(dp2262
sg71
g2220
sg64
(lp2263
g57
(g78
g59
NtRp2264
(dp2265
g62
(dp2266
sg71
g2260
sg64
(lp2267
g57
(g58
g59
NtRp2268
(dp2269
g62
(dp2270
g70
I3
ssg71
g2264
sg64
(lp2271
g1323
asbasbasbag57
(g73
g59
NtRp2272
(dp2273
g62
(dp2274
sg71
g2220
sg64
(lp2275
g57
(g78
g59
NtRp2276
(dp2277
g62
(dp2278
sg71
g2272
sg64
(lp2279
g57
(g58
g59
NtRp2280
(dp2281
g62
(dp2282
g70
I3
ssg71
g2276
sg64
(lp2283
g1336
asbasbasbag57
(g73
g59
NtRp2284
(dp2285
g62
(dp2286
sg71
g2220
sg64
(lp2287
g57
(g78
g59
NtRp2288
(dp2289
g62
(dp2290
sg71
g2284
sg64
(lp2291
g57
(g58
g59
NtRp2292
(dp2293
g62
(dp2294
g70
I3
ssg71
g2288
sg64
(lp2295
g1349
asbasbasbasbasbasbasbag57
(g73
g59
NtRp2296
(dp2297
g62
(dp2298
sg71
g2009
sg64
(lp2299
g57
(g78
g59
NtRp2300
(dp2301
g62
(dp2302
g82
g83
ssg71
g2296
sg64
(lp2303
g1617
asbag57
(g78
g59
NtRp2304
(dp2305
g62
(dp2306
g89
g90
ssg71
g2296
sg64
(lp2307
S':'
asbag57
(g78
g59
NtRp2308
(dp2309
g62
(dp2310
sg71
g2296
sg64
(lp2311
g57
(g58
g59
NtRp2312
(dp2313
g62
(dp2314
g70
I4
ssg71
g2308
sg64
(lp2315
g57
(g66
g59
NtRp2316
(dp2317
g62
(dp2318
g70
I3
ssg71
Nsg64
(lp2319
g57
(g73
g59
NtRp2320
(dp2321
g62
(dp2322
sg71
g2316
sg64
(lp2323
g57
(g78
g59
NtRp2324
(dp2325
g62
(dp2326
sg71
g2320
sg64
(lp2327
g57
(g58
g59
NtRp2328
(dp2329
g62
(dp2330
g70
I3
ssg71
g2324
sg64
(lp2331
S'2'
asbasbasbag57
(g73
g59
NtRp2332
(dp2333
g62
(dp2334
sg71
g2316
sg64
(lp2335
g57
(g78
g59
NtRp2336
(dp2337
g62
(dp2338
sg71
g2332
sg64
(lp2339
g57
(g58
g59
NtRp2340
(dp2341
g62
(dp2342
g70
I3
ssg71
g2336
sg64
(lp2343
S'3'
asbasbasbag57
(g73
g59
NtRp2344
(dp2345
g62
(dp2346
sg71
g2316
sg64
(lp2347
g57
(g78
g59
NtRp2348
(dp2349
g62
(dp2350
sg71
g2344
sg64
(lp2351
g57
(g58
g59
NtRp2352
(dp2353
g62
(dp2354
g70
I3
ssg71
g2348
sg64
(lp2355
S'2'
asbasbasbag57
(g73
g59
NtRp2356
(dp2357
g62
(dp2358
sg71
g2316
sg64
(lp2359
g57
(g78
g59
NtRp2360
(dp2361
g62
(dp2362
sg71
g2356
sg64
(lp2363
g57
(g58
g59
NtRp2364
(dp2365
g62
(dp2366
g70
I3
ssg71
g2360
sg64
(lp2367
S'datetime.datetime(2012, 12, 17, 15, 3, 30)'
p2368
asbasbasbag57
(g73
g59
NtRp2369
(dp2370
g62
(dp2371
sg71
g2316
sg64
(lp2372
g57
(g78
g59
NtRp2373
(dp2374
g62
(dp2375
sg71
g2369
sg64
(lp2376
g57
(g58
g59
NtRp2377
(dp2378
g62
(dp2379
g70
I3
ssg71
g2373
sg64
(lp2380
g1695
asbasbasbasbasbasbasbasbasbasbasbag57
(g73
g59
NtRp2381
(dp2382
g62
(dp2383
sg71
g67
sg64
(lp2384
g57
(g78
g59
NtRp2385
(dp2386
g62
(dp2387
g82
g83
ssg71
g2381
sg64
(lp2388
S'is_https'
p2389
asbag57
(g78
g59
NtRp2390
(dp2391
g62
(dp2392
g89
g90
ssg71
g2381
sg64
(lp2393
S':'
asbag57
(g78
g59
NtRp2394
(dp2395
g62
(dp2396
sg71
g2381
sg64
(lp2397
g57
(g58
g59
NtRp2398
(dp2399
g62
(dp2400
g70
I5
ssg71
g2394
sg64
(lp2401
g100
asbasbasbag57
(g73
g59
NtRp2402
(dp2403
g62
(dp2404
sg71
g67
sg64
(lp2405
g57
(g78
g59
NtRp2406
(dp2407
g62
(dp2408
g82
g83
ssg71
g2402
sg64
(lp2409
S'is_local'
p2410
asbag57
(g78
g59
NtRp2411
(dp2412
g62
(dp2413
g89
g90
ssg71
g2402
sg64
(lp2414
S':'
asbag57
(g78
g59
NtRp2415
(dp2416
g62
(dp2417
sg71
g2402
sg64
(lp2418
g57
(g58
g59
NtRp2419
(dp2420
g62
(dp2421
g70
I5
ssg71
g2415
sg64
(lp2422
g1804
asbasbasbag57
(g73
g59
NtRp2423
(dp2424
g62
(dp2425
sg71
g67
sg64
(lp2426
g57
(g78
g59
NtRp2427
(dp2428
g62
(dp2429
g82
g83
ssg71
g2423
sg64
(lp2430
S'is_restful'
p2431
asbag57
(g78
g59
NtRp2432
(dp2433
g62
(dp2434
g89
g90
ssg71
g2423
sg64
(lp2435
S':'
asbag57
(g78
g59
NtRp2436
(dp2437
g62
(dp2438
sg71
g2423
sg64
(lp2439
g57
(g58
g59
NtRp2440
(dp2441
g62
(dp2442
g70
I5
ssg71
g2436
sg64
(lp2443
g100
asbasbasbag57
(g73
g59
NtRp2444
(dp2445
g62
(dp2446
sg71
g67
sg64
(lp2447
g57
(g78
g59
NtRp2448
(dp2449
g62
(dp2450
g82
g83
ssg71
g2444
sg64
(lp2451
S'now'
p2452
asbag57
(g78
g59
NtRp2453
(dp2454
g62
(dp2455
g89
g90
ssg71
g2444
sg64
(lp2456
S':'
asbag57
(g78
g59
NtRp2457
(dp2458
g62
(dp2459
sg71
g2444
sg64
(lp2460
g57
(g58
g59
NtRp2461
(dp2462
g62
(dp2463
g70
I5
ssg71
g2457
sg64
(lp2464
S'datetime.datetime(2013, 8, 29, 18, 44, 45, 60867)'
p2465
asbasbasbag57
(g73
g59
NtRp2466
(dp2467
g62
(dp2468
sg71
g67
sg64
(lp2469
g57
(g78
g59
NtRp2470
(dp2471
g62
(dp2472
g82
g83
ssg71
g2466
sg64
(lp2473
S'post_vars'
p2474
asbag57
(g78
g59
NtRp2475
(dp2476
g62
(dp2477
g89
g90
ssg71
g2466
sg64
(lp2478
S':'
asbag57
(g78
g59
NtRp2479
(dp2480
g62
(dp2481
sg71
g2466
sg64
(lp2482
g57
(g58
g59
NtRp2483
(dp2484
g62
(dp2485
g70
I5
ssg71
g2479
sg64
(lp2486
g57
(g66
g59
NtRp2487
(dp2488
g62
(dp2489
g70
I4
ssg71
Nsg64
(lp2490
sbasbasbasbag57
(g73
g59
NtRp2491
(dp2492
g62
(dp2493
sg71
g67
sg64
(lp2494
g57
(g78
g59
NtRp2495
(dp2496
g62
(dp2497
g82
g83
ssg71
g2491
sg64
(lp2498
S'raw_args'
p2499
asbag57
(g78
g59
NtRp2500
(dp2501
g62
(dp2502
g89
g90
ssg71
g2491
sg64
(lp2503
S':'
asbag57
(g78
g59
NtRp2504
(dp2505
g62
(dp2506
sg71
g2491
sg64
(lp2507
g57
(g58
g59
NtRp2508
(dp2509
g62
(dp2510
g70
I5
ssg71
g2504
sg64
(lp2511
S''
asbasbasbag57
(g73
g59
NtRp2512
(dp2513
g62
(dp2514
sg71
g67
sg64
(lp2515
g57
(g78
g59
NtRp2516
(dp2517
g62
(dp2518
g82
g83
ssg71
g2512
sg64
(lp2519
S'raw_extension'
p2520
asbag57
(g78
g59
NtRp2521
(dp2522
g62
(dp2523
g89
g90
ssg71
g2512
sg64
(lp2524
S':'
asbag57
(g78
g59
NtRp2525
(dp2526
g62
(dp2527
sg71
g2512
sg64
(lp2528
g57
(g58
g59
NtRp2529
(dp2530
g62
(dp2531
g70
I5
ssg71
g2525
sg64
(lp2532
S'None'
p2533
asbasbasbag57
(g73
g59
NtRp2534
(dp2535
g62
(dp2536
sg71
g67
sg64
(lp2537
g57
(g78
g59
NtRp2538
(dp2539
g62
(dp2540
g82
g83
ssg71
g2534
sg64
(lp2541
S'url'
p2542
asbag57
(g78
g59
NtRp2543
(dp2544
g62
(dp2545
g89
g90
ssg71
g2534
sg64
(lp2546
S':'
asbag57
(g78
g59
NtRp2547
(dp2548
g62
(dp2549
sg71
g2534
sg64
(lp2550
g57
(g58
g59
NtRp2551
(dp2552
g62
(dp2553
g70
I5
ssg71
g2547
sg64
(lp2554
g1371
asbasbasbag57
(g73
g59
NtRp2555
(dp2556
g62
(dp2557
sg71
g67
sg64
(lp2558
g57
(g78
g59
NtRp2559
(dp2560
g62
(dp2561
g82
g83
ssg71
g2555
sg64
(lp2562
S'utcnow'
p2563
asbag57
(g78
g59
NtRp2564
(dp2565
g62
(dp2566
g89
g90
ssg71
g2555
sg64
(lp2567
S':'
asbag57
(g78
g59
NtRp2568
(dp2569
g62
(dp2570
sg71
g2555
sg64
(lp2571
g57
(g58
g59
NtRp2572
(dp2573
g62
(dp2574
g70
I5
ssg71
g2568
sg64
(lp2575
S'datetime.datetime(2013, 8, 29, 13, 14, 45, 60919)'
p2576
asbasbasbag57
(g73
g59
NtRp2577
(dp2578
g62
(dp2579
sg71
g67
sg64
(lp2580
g57
(g78
g59
NtRp2581
(dp2582
g62
(dp2583
g82
g83
ssg71
g2577
sg64
(lp2584
S'uuid'
p2585
asbag57
(g78
g59
NtRp2586
(dp2587
g62
(dp2588
g89
g90
ssg71
g2577
sg64
(lp2589
S':'
asbag57
(g78
g59
NtRp2590
(dp2591
g62
(dp2592
sg71
g2577
sg64
(lp2593
g57
(g58
g59
NtRp2594
(dp2595
g62
(dp2596
g70
I5
ssg71
g2590
sg64
(lp2597
S'assignment2/127.0.0.1.2013-08-29.18-44-45.bf9eb6eb-3125-4fba-8d17-92bc89b9ccd6'
p2598
asbasbasbag57
(g73
g59
NtRp2599
(dp2600
g62
(dp2601
sg71
g67
sg64
(lp2602
g57
(g78
g59
NtRp2603
(dp2604
g62
(dp2605
g82
g83
ssg71
g2599
sg64
(lp2606
S'vars'
p2607
asbag57
(g78
g59
NtRp2608
(dp2609
g62
(dp2610
g89
g90
ssg71
g2599
sg64
(lp2611
S':'
asbag57
(g78
g59
NtRp2612
(dp2613
g62
(dp2614
sg71
g2599
sg64
(lp2615
g57
(g58
g59
NtRp2616
(dp2617
g62
(dp2618
g70
I5
ssg71
g2612
sg64
(lp2619
g57
(g66
g59
NtRp2620
(dp2621
g62
(dp2622
g70
I4
ssg71
Nsg64
(lp2623
sbasbasbasbag57
(g73
g59
NtRp2624
(dp2625
g62
(dp2626
sg71
g67
sg64
(lp2627
g57
(g78
g59
NtRp2628
(dp2629
g62
(dp2630
g82
g83
ssg71
g2624
sg64
(lp2631
S'wsgi'
p2632
asbag57
(g78
g59
NtRp2633
(dp2634
g62
(dp2635
g89
g90
ssg71
g2624
sg64
(lp2636
S':'
asbag57
(g78
g59
NtRp2637
(dp2638
g62
(dp2639
sg71
g2624
sg64
(lp2640
g57
(g58
g59
NtRp2641
(dp2642
g62
(dp2643
g70
I5
ssg71
g2637
sg64
(lp2644
g57
(g66
g59
NtRp2645
(dp2646
g62
(dp2647
g70
I4
ssg71
Nsg64
(lp2648
g57
(g73
g59
NtRp2649
(dp2650
g62
(dp2651
sg71
g2645
sg64
(lp2652
g57
(g78
g59
NtRp2653
(dp2654
g62
(dp2655
g82
g83
ssg71
g2649
sg64
(lp2656
S'environ'
p2657
asbag57
(g78
g59
NtRp2658
(dp2659
g62
(dp2660
g89
g90
ssg71
g2649
sg64
(lp2661
S':'
asbag57
(g78
g59
NtRp2662
(dp2663
g62
(dp2664
sg71
g2649
sg64
(lp2665
g57
(g58
g59
NtRp2666
(dp2667
g62
(dp2668
g70
I4
ssg71
g2662
sg64
(lp2669
g57
(g66
g59
NtRp2670
(dp2671
g62
(dp2672
g70
I3
ssg71
Nsg64
(lp2673
g57
(g73
g59
NtRp2674
(dp2675
g62
(dp2676
sg71
g2670
sg64
(lp2677
g57
(g78
g59
NtRp2678
(dp2679
g62
(dp2680
g82
g83
ssg71
g2674
sg64
(lp2681
S'HTTP_ACCEPT'
p2682
asbag57
(g78
g59
NtRp2683
(dp2684
g62
(dp2685
g89
g90
ssg71
g2674
sg64
(lp2686
S':'
asbag57
(g78
g59
NtRp2687
(dp2688
g62
(dp2689
sg71
g2674
sg64
(lp2690
g57
(g58
g59
NtRp2691
(dp2692
g62
(dp2693
g70
I3
ssg71
g2687
sg64
(lp2694
g1028
asbasbasbag57
(g73
g59
NtRp2695
(dp2696
g62
(dp2697
sg71
g2670
sg64
(lp2698
g57
(g78
g59
NtRp2699
(dp2700
g62
(dp2701
g82
g83
ssg71
g2695
sg64
(lp2702
S'HTTP_ACCEPT_ENCODING'
p2703
asbag57
(g78
g59
NtRp2704
(dp2705
g62
(dp2706
g89
g90
ssg71
g2695
sg64
(lp2707
S':'
asbag57
(g78
g59
NtRp2708
(dp2709
g62
(dp2710
sg71
g2695
sg64
(lp2711
g57
(g58
g59
NtRp2712
(dp2713
g62
(dp2714
g70
I3
ssg71
g2708
sg64
(lp2715
g1050
asbasbasbag57
(g73
g59
NtRp2716
(dp2717
g62
(dp2718
sg71
g2670
sg64
(lp2719
g57
(g78
g59
NtRp2720
(dp2721
g62
(dp2722
g82
g83
ssg71
g2716
sg64
(lp2723
S'HTTP_ACCEPT_LANGUAGE'
p2724
asbag57
(g78
g59
NtRp2725
(dp2726
g62
(dp2727
g89
g90
ssg71
g2716
sg64
(lp2728
S':'
asbag57
(g78
g59
NtRp2729
(dp2730
g62
(dp2731
sg71
g2716
sg64
(lp2732
g57
(g58
g59
NtRp2733
(dp2734
g62
(dp2735
g70
I3
ssg71
g2729
sg64
(lp2736
g1072
asbasbasbag57
(g73
g59
NtRp2737
(dp2738
g62
(dp2739
sg71
g2670
sg64
(lp2740
g57
(g78
g59
NtRp2741
(dp2742
g62
(dp2743
g82
g83
ssg71
g2737
sg64
(lp2744
S'HTTP_CACHE_CONTROL'
p2745
asbag57
(g78
g59
NtRp2746
(dp2747
g62
(dp2748
g89
g90
ssg71
g2737
sg64
(lp2749
S':'
asbag57
(g78
g59
NtRp2750
(dp2751
g62
(dp2752
sg71
g2737
sg64
(lp2753
g57
(g58
g59
NtRp2754
(dp2755
g62
(dp2756
g70
I3
ssg71
g2750
sg64
(lp2757
g1094
asbasbasbag57
(g73
g59
NtRp2758
(dp2759
g62
(dp2760
sg71
g2670
sg64
(lp2761
g57
(g78
g59
NtRp2762
(dp2763
g62
(dp2764
g82
g83
ssg71
g2758
sg64
(lp2765
S'HTTP_CONNECTION'
p2766
asbag57
(g78
g59
NtRp2767
(dp2768
g62
(dp2769
g89
g90
ssg71
g2758
sg64
(lp2770
S':'
asbag57
(g78
g59
NtRp2771
(dp2772
g62
(dp2773
sg71
g2758
sg64
(lp2774
g57
(g58
g59
NtRp2775
(dp2776
g62
(dp2777
g70
I3
ssg71
g2771
sg64
(lp2778
g1116
asbasbasbag57
(g73
g59
NtRp2779
(dp2780
g62
(dp2781
sg71
g2670
sg64
(lp2782
g57
(g78
g59
NtRp2783
(dp2784
g62
(dp2785
g82
g83
ssg71
g2779
sg64
(lp2786
S'HTTP_COOKIE'
p2787
asbag57
(g78
g59
NtRp2788
(dp2789
g62
(dp2790
g89
g90
ssg71
g2779
sg64
(lp2791
S':'
asbag57
(g78
g59
NtRp2792
(dp2793
g62
(dp2794
sg71
g2779
sg64
(lp2795
g57
(g58
g59
NtRp2796
(dp2797
g62
(dp2798
g70
I3
ssg71
g2792
sg64
(lp2799
g1138
asbasbasbag57
(g73
g59
NtRp2800
(dp2801
g62
(dp2802
sg71
g2670
sg64
(lp2803
g57
(g78
g59
NtRp2804
(dp2805
g62
(dp2806
g82
g83
ssg71
g2800
sg64
(lp2807
S'HTTP_HOST'
p2808
asbag57
(g78
g59
NtRp2809
(dp2810
g62
(dp2811
g89
g90
ssg71
g2800
sg64
(lp2812
S':'
asbag57
(g78
g59
NtRp2813
(dp2814
g62
(dp2815
sg71
g2800
sg64
(lp2816
g57
(g58
g59
NtRp2817
(dp2818
g62
(dp2819
g70
I3
ssg71
g2813
sg64
(lp2820
g1160
asbasbasbag57
(g73
g59
NtRp2821
(dp2822
g62
(dp2823
sg71
g2670
sg64
(lp2824
g57
(g78
g59
NtRp2825
(dp2826
g62
(dp2827
g82
g83
ssg71
g2821
sg64
(lp2828
S'HTTP_REFERER'
p2829
asbag57
(g78
g59
NtRp2830
(dp2831
g62
(dp2832
g89
g90
ssg71
g2821
sg64
(lp2833
S':'
asbag57
(g78
g59
NtRp2834
(dp2835
g62
(dp2836
sg71
g2821
sg64
(lp2837
g57
(g58
g59
NtRp2838
(dp2839
g62
(dp2840
g70
I3
ssg71
g2834
sg64
(lp2841
g1182
asbasbasbag57
(g73
g59
NtRp2842
(dp2843
g62
(dp2844
sg71
g2670
sg64
(lp2845
g57
(g78
g59
NtRp2846
(dp2847
g62
(dp2848
g82
g83
ssg71
g2842
sg64
(lp2849
S'HTTP_USER_AGENT'
p2850
asbag57
(g78
g59
NtRp2851
(dp2852
g62
(dp2853
g89
g90
ssg71
g2842
sg64
(lp2854
S':'
asbag57
(g78
g59
NtRp2855
(dp2856
g62
(dp2857
sg71
g2842
sg64
(lp2858
g57
(g58
g59
NtRp2859
(dp2860
g62
(dp2861
g70
I3
ssg71
g2855
sg64
(lp2862
g1204
asbasbasbag57
(g73
g59
NtRp2863
(dp2864
g62
(dp2865
sg71
g2670
sg64
(lp2866
g57
(g78
g59
NtRp2867
(dp2868
g62
(dp2869
g82
g83
ssg71
g2863
sg64
(lp2870
S'PATH_INFO'
p2871
asbag57
(g78
g59
NtRp2872
(dp2873
g62
(dp2874
g89
g90
ssg71
g2863
sg64
(lp2875
S':'
asbag57
(g78
g59
NtRp2876
(dp2877
g62
(dp2878
sg71
g2863
sg64
(lp2879
g57
(g58
g59
NtRp2880
(dp2881
g62
(dp2882
g70
I3
ssg71
g2876
sg64
(lp2883
g1371
asbasbasbag57
(g73
g59
NtRp2884
(dp2885
g62
(dp2886
sg71
g2670
sg64
(lp2887
g57
(g78
g59
NtRp2888
(dp2889
g62
(dp2890
g82
g83
ssg71
g2884
sg64
(lp2891
S'QUERY_STRING'
p2892
asbag57
(g78
g59
NtRp2893
(dp2894
g62
(dp2895
g89
g90
ssg71
g2884
sg64
(lp2896
S':'
asbag57
(g78
g59
NtRp2897
(dp2898
g62
(dp2899
sg71
g2884
sg64
(lp2900
g57
(g58
g59
NtRp2901
(dp2902
g62
(dp2903
g70
I3
ssg71
g2897
sg64
(lp2904
S''
asbasbasbag57
(g73
g59
NtRp2905
(dp2906
g62
(dp2907
sg71
g2670
sg64
(lp2908
g57
(g78
g59
NtRp2909
(dp2910
g62
(dp2911
g82
g83
ssg71
g2905
sg64
(lp2912
S'REMOTE_ADDR'
p2913
asbag57
(g78
g59
NtRp2914
(dp2915
g62
(dp2916
g89
g90
ssg71
g2905
sg64
(lp2917
S':'
asbag57
(g78
g59
NtRp2918
(dp2919
g62
(dp2920
sg71
g2905
sg64
(lp2921
g57
(g58
g59
NtRp2922
(dp2923
g62
(dp2924
g70
I3
ssg71
g2918
sg64
(lp2925
g212
asbasbasbag57
(g73
g59
NtRp2926
(dp2927
g62
(dp2928
sg71
g2670
sg64
(lp2929
g57
(g78
g59
NtRp2930
(dp2931
g62
(dp2932
g82
g83
ssg71
g2926
sg64
(lp2933
S'REMOTE_PORT'
p2934
asbag57
(g78
g59
NtRp2935
(dp2936
g62
(dp2937
g89
g90
ssg71
g2926
sg64
(lp2938
S':'
asbag57
(g78
g59
NtRp2939
(dp2940
g62
(dp2941
sg71
g2926
sg64
(lp2942
g57
(g58
g59
NtRp2943
(dp2944
g62
(dp2945
g70
I3
ssg71
g2939
sg64
(lp2946
g1435
asbasbasbag57
(g73
g59
NtRp2947
(dp2948
g62
(dp2949
sg71
g2670
sg64
(lp2950
g57
(g78
g59
NtRp2951
(dp2952
g62
(dp2953
g82
g83
ssg71
g2947
sg64
(lp2954
S'REQUEST_METHOD'
p2955
asbag57
(g78
g59
NtRp2956
(dp2957
g62
(dp2958
g89
g90
ssg71
g2947
sg64
(lp2959
S':'
asbag57
(g78
g59
NtRp2960
(dp2961
g62
(dp2962
sg71
g2947
sg64
(lp2963
g57
(g58
g59
NtRp2964
(dp2965
g62
(dp2966
g70
I3
ssg71
g2960
sg64
(lp2967
g1457
asbasbasbag57
(g73
g59
NtRp2968
(dp2969
g62
(dp2970
sg71
g2670
sg64
(lp2971
g57
(g78
g59
NtRp2972
(dp2973
g62
(dp2974
g82
g83
ssg71
g2968
sg64
(lp2975
S'REQUEST_URI'
p2976
asbag57
(g78
g59
NtRp2977
(dp2978
g62
(dp2979
g89
g90
ssg71
g2968
sg64
(lp2980
S':'
asbag57
(g78
g59
NtRp2981
(dp2982
g62
(dp2983
sg71
g2968
sg64
(lp2984
g57
(g58
g59
NtRp2985
(dp2986
g62
(dp2987
g70
I3
ssg71
g2981
sg64
(lp2988
g1371
asbasbasbag57
(g73
g59
NtRp2989
(dp2990
g62
(dp2991
sg71
g2670
sg64
(lp2992
g57
(g78
g59
NtRp2993
(dp2994
g62
(dp2995
g82
g83
ssg71
g2989
sg64
(lp2996
S'SCRIPT_NAME'
p2997
asbag57
(g78
g59
NtRp2998
(dp2999
g62
(dp3000
g89
g90
ssg71
g2989
sg64
(lp3001
S':'
asbag57
(g78
g59
NtRp3002
(dp3003
g62
(dp3004
sg71
g2989
sg64
(lp3005
g57
(g58
g59
NtRp3006
(dp3007
g62
(dp3008
g70
I3
ssg71
g3002
sg64
(lp3009
S''
asbasbasbag57
(g73
g59
NtRp3010
(dp3011
g62
(dp3012
sg71
g2670
sg64
(lp3013
g57
(g78
g59
NtRp3014
(dp3015
g62
(dp3016
g82
g83
ssg71
g3010
sg64
(lp3017
S'SERVER_NAME'
p3018
asbag57
(g78
g59
NtRp3019
(dp3020
g62
(dp3021
g89
g90
ssg71
g3010
sg64
(lp3022
S':'
asbag57
(g78
g59
NtRp3023
(dp3024
g62
(dp3025
sg71
g3010
sg64
(lp3026
g57
(g58
g59
NtRp3027
(dp3028
g62
(dp3029
g70
I3
ssg71
g3023
sg64
(lp3030
g1521
asbasbasbag57
(g73
g59
NtRp3031
(dp3032
g62
(dp3033
sg71
g2670
sg64
(lp3034
g57
(g78
g59
NtRp3035
(dp3036
g62
(dp3037
g82
g83
ssg71
g3031
sg64
(lp3038
S'SERVER_PORT'
p3039
asbag57
(g78
g59
NtRp3040
(dp3041
g62
(dp3042
g89
g90
ssg71
g3031
sg64
(lp3043
S':'
asbag57
(g78
g59
NtRp3044
(dp3045
g62
(dp3046
sg71
g3031
sg64
(lp3047
g57
(g58
g59
NtRp3048
(dp3049
g62
(dp3050
g70
I3
ssg71
g3044
sg64
(lp3051
g1543
asbasbasbag57
(g73
g59
NtRp3052
(dp3053
g62
(dp3054
sg71
g2670
sg64
(lp3055
g57
(g78
g59
NtRp3056
(dp3057
g62
(dp3058
g82
g83
ssg71
g3052
sg64
(lp3059
S'SERVER_PROTOCOL'
p3060
asbag57
(g78
g59
NtRp3061
(dp3062
g62
(dp3063
g89
g90
ssg71
g3052
sg64
(lp3064
S':'
asbag57
(g78
g59
NtRp3065
(dp3066
g62
(dp3067
sg71
g3052
sg64
(lp3068
g57
(g58
g59
NtRp3069
(dp3070
g62
(dp3071
g70
I3
ssg71
g3065
sg64
(lp3072
g1565
asbasbasbag57
(g73
g59
NtRp3073
(dp3074
g62
(dp3075
sg71
g2670
sg64
(lp3076
g57
(g78
g59
NtRp3077
(dp3078
g62
(dp3079
g82
g83
ssg71
g3073
sg64
(lp3080
S'SERVER_SOFTWARE'
p3081
asbag57
(g78
g59
NtRp3082
(dp3083
g62
(dp3084
g89
g90
ssg71
g3073
sg64
(lp3085
S':'
asbag57
(g78
g59
NtRp3086
(dp3087
g62
(dp3088
sg71
g3073
sg64
(lp3089
g57
(g58
g59
NtRp3090
(dp3091
g62
(dp3092
g70
I3
ssg71
g3086
sg64
(lp3093
g1587
asbasbasbag57
(g73
g59
NtRp3094
(dp3095
g62
(dp3096
sg71
g2670
sg64
(lp3097
g57
(g78
g59
NtRp3098
(dp3099
g62
(dp3100
g82
g83
ssg71
g3094
sg64
(lp3101
S'wsgi.errors'
p3102
asbag57
(g78
g59
NtRp3103
(dp3104
g62
(dp3105
g89
g90
ssg71
g3094
sg64
(lp3106
S':'
asbag57
(g78
g59
NtRp3107
(dp3108
g62
(dp3109
sg71
g3094
sg64
(lp3110
g57
(g58
g59
NtRp3111
(dp3112
g62
(dp3113
g70
I3
ssg71
g3107
sg64
(lp3114
S"<open file '<stderr>', mode 'w' at 0xb73690d0>"
p3115
asbasbasbag57
(g73
g59
NtRp3116
(dp3117
g62
(dp3118
sg71
g2670
sg64
(lp3119
g57
(g78
g59
NtRp3120
(dp3121
g62
(dp3122
g82
g83
ssg71
g3116
sg64
(lp3123
S'wsgi.file_wrapper'
p3124
asbag57
(g78
g59
NtRp3125
(dp3126
g62
(dp3127
g89
g90
ssg71
g3116
sg64
(lp3128
S':'
asbag57
(g78
g59
NtRp3129
(dp3130
g62
(dp3131
sg71
g3116
sg64
(lp3132
g57
(g58
g59
NtRp3133
(dp3134
g62
(dp3135
g70
I3
ssg71
g3129
sg64
(lp3136
S'<class wsgiref.util.FileWrapper at 0x958165c>'
p3137
asbasbasbag57
(g73
g59
NtRp3138
(dp3139
g62
(dp3140
sg71
g2670
sg64
(lp3141
g57
(g78
g59
NtRp3142
(dp3143
g62
(dp3144
g82
g83
ssg71
g3138
sg64
(lp3145
S'wsgi.input'
p3146
asbag57
(g78
g59
NtRp3147
(dp3148
g62
(dp3149
g89
g90
ssg71
g3138
sg64
(lp3150
S':'
asbag57
(g78
g59
NtRp3151
(dp3152
g62
(dp3153
sg71
g3138
sg64
(lp3154
g57
(g58
g59
NtRp3155
(dp3156
g62
(dp3157
g70
I3
ssg71
g3151
sg64
(lp3158
S'<cStringIO.StringO object at 0xad0a89a0>'
p3159
asbasbasbag57
(g73
g59
NtRp3160
(dp3161
g62
(dp3162
sg71
g2670
sg64
(lp3163
g57
(g78
g59
NtRp3164
(dp3165
g62
(dp3166
g82
g83
ssg71
g3160
sg64
(lp3167
S'wsgi.multiprocess'
p3168
asbag57
(g78
g59
NtRp3169
(dp3170
g62
(dp3171
g89
g90
ssg71
g3160
sg64
(lp3172
S':'
asbag57
(g78
g59
NtRp3173
(dp3174
g62
(dp3175
sg71
g3160
sg64
(lp3176
g57
(g58
g59
NtRp3177
(dp3178
g62
(dp3179
g70
I3
ssg71
g3173
sg64
(lp3180
g100
asbasbasbag57
(g73
g59
NtRp3181
(dp3182
g62
(dp3183
sg71
g2670
sg64
(lp3184
g57
(g78
g59
NtRp3185
(dp3186
g62
(dp3187
g82
g83
ssg71
g3181
sg64
(lp3188
S'wsgi.multithread'
p3189
asbag57
(g78
g59
NtRp3190
(dp3191
g62
(dp3192
g89
g90
ssg71
g3181
sg64
(lp3193
S':'
asbag57
(g78
g59
NtRp3194
(dp3195
g62
(dp3196
sg71
g3181
sg64
(lp3197
g57
(g58
g59
NtRp3198
(dp3199
g62
(dp3200
g70
I3
ssg71
g3194
sg64
(lp3201
g1804
asbasbasbag57
(g73
g59
NtRp3202
(dp3203
g62
(dp3204
sg71
g2670
sg64
(lp3205
g57
(g78
g59
NtRp3206
(dp3207
g62
(dp3208
g82
g83
ssg71
g3202
sg64
(lp3209
S'wsgi.run_once'
p3210
asbag57
(g78
g59
NtRp3211
(dp3212
g62
(dp3213
g89
g90
ssg71
g3202
sg64
(lp3214
S':'
asbag57
(g78
g59
NtRp3215
(dp3216
g62
(dp3217
sg71
g3202
sg64
(lp3218
g57
(g58
g59
NtRp3219
(dp3220
g62
(dp3221
g70
I3
ssg71
g3215
sg64
(lp3222
g100
asbasbasbag57
(g73
g59
NtRp3223
(dp3224
g62
(dp3225
sg71
g2670
sg64
(lp3226
g57
(g78
g59
NtRp3227
(dp3228
g62
(dp3229
g82
g83
ssg71
g3223
sg64
(lp3230
S'wsgi.url_scheme'
p3231
asbag57
(g78
g59
NtRp3232
(dp3233
g62
(dp3234
g89
g90
ssg71
g3223
sg64
(lp3235
S':'
asbag57
(g78
g59
NtRp3236
(dp3237
g62
(dp3238
sg71
g3223
sg64
(lp3239
g57
(g58
g59
NtRp3240
(dp3241
g62
(dp3242
g70
I3
ssg71
g3236
sg64
(lp3243
g1847
asbasbasbag57
(g73
g59
NtRp3244
(dp3245
g62
(dp3246
sg71
g2670
sg64
(lp3247
g57
(g78
g59
NtRp3248
(dp3249
g62
(dp3250
g82
g83
ssg71
g3244
sg64
(lp3251
S'wsgi.version'
p3252
asbag57
(g78
g59
NtRp3253
(dp3254
g62
(dp3255
g89
g90
ssg71
g3244
sg64
(lp3256
S':'
asbag57
(g78
g59
NtRp3257
(dp3258
g62
(dp3259
sg71
g3244
sg64
(lp3260
g57
(g58
g59
NtRp3261
(dp3262
g62
(dp3263
g70
I3
ssg71
g3257
sg64
(lp3264
S'1'
asbasbasbasbasbasbasbasbasbasbasbasbasbsS'frames'
p3265
(lp3266
(dp3267
S'file'
p3268
S'/home/aditi/Desktop/web2py/gluon/restricted.py'
p3269
sS'dump'
p3270
(dp3271
S'environment'
p3272
S"{'A': <class 'gluon.html.A'>, 'Auth': <class 'gluon.tools.Auth'>, 'B': <class 'gluon.html.B'>, 'BEAUTIFY': <class 'gluon.html.BEAUTIFY'>, 'BODY': <class 'gluon.html.BODY'>, 'BR': <class 'gluon.html.BR'>, 'BUTTON': <class 'gluon.html.BUTTON'>, 'CAT': <class 'gluon.html.CAT'>, 'CENTER': <class 'gluon.html.CENTER'>, 'CLEANUP': <class 'gluon.validators.CLEANUP'>, ...}"
p3273
sS'ccode'
p3274
S'<code object <module> at 0xadb3fda0, file "/home...ons/assignment2/controllers/default.py", line 13>'
p3275
ssS'lnum'
p3276
I212
sS'lines'
p3277
(dp3278
I207
S'    try:'
p3279
sI208
S'        if isinstance(code, types.CodeType):'
p3280
sI209
S'            ccode = code'
p3281
sI210
S'        else:'
p3282
sI211
S'            ccode = compile2(code, layer)'
p3283
sI212
S'        exec ccode in environment'
p3284
sI213
S'    except HTTP:'
p3285
sI214
S'        raise'
p3286
sI215
S'    except RestrictedError:'
p3287
sI216
S'        # do not encapsulate (obfuscate) the original RestrictedError'
p3288
ssS'call'
p3289
S"(code='# -*- coding: utf-8 -*-\\n# this file is released ...\\n\\nresponse._vars=response._caller(user_homepage)\\n', environment={'A': <class 'gluon.html.A'>, 'Auth': <class 'gluon.tools.Auth'>, 'B': <class 'gluon.html.B'>, 'BEAUTIFY': <class 'gluon.html.BEAUTIFY'>, 'BODY': <class 'gluon.html.BODY'>, 'BR': <class 'gluon.html.BR'>, 'BUTTON': <class 'gluon.html.BUTTON'>, 'CAT': <class 'gluon.html.CAT'>, 'CENTER': <class 'gluon.html.CENTER'>, 'CLEANUP': <class 'gluon.validators.CLEANUP'>, ...}, layer='/home/aditi/Desktop/web2py/applications/assignment2/controllers/default.py')"
p3290
sS'func'
p3291
S'restricted'
p3292
sa(dp3293
g3268
S'/home/aditi/Desktop/web2py/applications/assignment2/controllers/default.py'
p3294
sg3270
(dp3295
sg3276
I287
sg3277
(dp3296
I276
S'    http://..../[app]/default/data/update/[table]/[id]'
p3297
sI277
S'    http://..../[app]/default/data/delete/[table]/[id]'
p3298
sI278
S'    http://..../[app]/default/data/select/[table]'
p3299
sI279
S'    http://..../[app]/default/data/search/[table]'
p3300
sI280
S'    but URLs must be signed, i.e. linked with'
p3301
sI281
S"      A('table',_href=URL('data/tables',user_signature=True))"
p3302
sI282
S'    or with the signed load operator'
p3303
sI283
S"      LOAD('default','data.load',args='tables',ajax=True,user_signature=True)"
p3304
sI284
S'    """'
p3305
sI285
S'    return dict(form=crud())'
p3306
ssg3289
S'()'
p3307
sg3291
S'<module>'
p3308
sa(dp3309
g3268
S'/home/aditi/Desktop/web2py/gluon/globals.py'
p3310
sg3270
(dp3311
S'self'
p3312
S'undefined'
p3313
sS'f'
S'<function user_homepage>'
p3314
ssg3276
I193
sg3277
(dp3315
I192
S'        self._vars = None'
p3316
sI193
S'        self._caller = lambda f: f()'
p3317
sI194
S'        self._view_environment = None'
p3318
sI195
S'        self._custom_commit = None'
p3319
sI196
S'        self._custom_rollback = None'
p3320
sI197
S''
sI188
S'        self.menu = []             # used by the default view layout'
p3321
sI189
S'        self.files = []            # used by web2py_ajax.html'
p3322
sI190
S'        self.generic_patterns = []  # patterns to allow generic views'
p3323
sI191
S"        self.delimiters = ('{{', '}}')"
p3324
ssg3289
S'(f=<function user_homepage>)'
p3325
sg3291
S'<lambda>'
p3326
sa(dp3327
g3268
S'/home/aditi/Desktop/web2py/applications/assignment2/controllers/default.py'
p3328
sg3270
(dp3329
S'orderby'
p3330
g3313
sS'db.newsitem.points'
p3331
S'<gluon.dal.Field object>'
p3332
sS').select'
p3333
g3313
sS'db.newsitem'
p3334
S'<Table newsitem (id,userid,category,heading,choice,url,points,likes,dislikes,rating,ranking)>'
p3335
sS'global db'
p3336
S'<DAL uri="sqlite://storage.sqlite">'
p3337
sS'n'
S'<Rows (4)>'
p3338
sS'db.news_item'
p3339
g3313
ssg3276
I183
sg3277
(dp3340
I178
S'                db.comments.insert(userid=a,postid=p,cmt=request.vars.cmt)'
p3341
sI179
S"                redirect(URL(r=request,f='user_homepage'))"
p3342
sI180
S'            count+=1'
p3343
sI181
S'    cm=db().select(db.comments.ALL)'
p3344
sI182
S'    us=db().select(db.auth_user.ALL)'
p3345
sI183
S'    n=db().select(db.news_item.ALL,orderby=~db.newsitem.points)'
p3346
sI184
S'    return locals()'
p3347
sI185
S''
sI186
S'def changedetails():'
p3348
sI187
S'    p=request.vars.id'
p3349
ssg3289
S'()'
p3350
sg3291
S'user_homepage'
p3351
sa(dp3352
g3268
S'/home/aditi/Desktop/web2py/gluon/dal.py'
p3353
sg3270
(dp3354
S'self'
p3355
S'<DAL uri="sqlite://storage.sqlite">'
p3356
sS'global ogetattr'
p3357
S"<slot wrapper '__getattribute__' of 'object' objects>"
p3358
sS'key'
p3359
S"'news_item'"
p3360
ssg3276
I7255
sg3277
(dp3361
I7250
S'    def __getattr__(self, key):'
p3362
sI7251
S"        if ogetattr(self,'_lazy_tables') and \\"
p3363
sI7252
S"                key in ogetattr(self,'_LAZY_TABLES'):"
p3364
sI7253
S'            tablename, fields, args = self._LAZY_TABLES.pop(key)'
p3365
sI7254
S'            return self.lazy_define_table(tablename,*fields,**args)'
p3366
sI7255
S'        return ogetattr(self, key)'
p3367
sI7256
S''
sI7257
S'    def __setitem__(self, key, value):'
p3368
sI7258
S'        osetattr(self, str(key), value)'
p3369
sI7259
S''
ssg3289
S'(self=<DAL uri="sqlite://storage.sqlite">, key=\'news_item\')'
p3370
sg3291
S'__getattr__'
p3371
sasS'pyver'
p3372
S'Python 2.7.3: /usr/bin/python'
p3373
sS'session'
p3374
g57
(g58
g59
NtRp3375
(dp3376
g62
(dp3377
sg64
(lp3378
g57
(g66
g59
NtRp3379
(dp3380
g62
(dp3381
g70
I5
ssg71
Nsg64
(lp3382
g57
(g73
g59
NtRp3383
(dp3384
g62
(dp3385
sg71
g3379
sg64
(lp3386
g57
(g78
g59
NtRp3387
(dp3388
g62
(dp3389
g82
g83
ssg71
g3383
sg64
(lp3390
S'auth'
p3391
asbag57
(g78
g59
NtRp3392
(dp3393
g62
(dp3394
g89
g90
ssg71
g3383
sg64
(lp3395
S':'
asbag57
(g78
g59
NtRp3396
(dp3397
g62
(dp3398
sg71
g3383
sg64
(lp3399
g57
(g58
g59
NtRp3400
(dp3401
g62
(dp3402
g70
I5
ssg71
g3396
sg64
(lp3403
g57
(g66
g59
NtRp3404
(dp3405
g62
(dp3406
g70
I4
ssg71
Nsg64
(lp3407
g57
(g73
g59
NtRp3408
(dp3409
g62
(dp3410
sg71
g3404
sg64
(lp3411
g57
(g78
g59
NtRp3412
(dp3413
g62
(dp3414
g82
g83
ssg71
g3408
sg64
(lp3415
S'expiration'
p3416
asbag57
(g78
g59
NtRp3417
(dp3418
g62
(dp3419
g89
g90
ssg71
g3408
sg64
(lp3420
S':'
asbag57
(g78
g59
NtRp3421
(dp3422
g62
(dp3423
sg71
g3408
sg64
(lp3424
g57
(g58
g59
NtRp3425
(dp3426
g62
(dp3427
g70
I4
ssg71
g3421
sg64
(lp3428
S'3600'
p3429
asbasbasbag57
(g73
g59
NtRp3430
(dp3431
g62
(dp3432
sg71
g3404
sg64
(lp3433
g57
(g78
g59
NtRp3434
(dp3435
g62
(dp3436
g82
g83
ssg71
g3430
sg64
(lp3437
S'hmac_key'
p3438
asbag57
(g78
g59
NtRp3439
(dp3440
g62
(dp3441
g89
g90
ssg71
g3430
sg64
(lp3442
S':'
asbag57
(g78
g59
NtRp3443
(dp3444
g62
(dp3445
sg71
g3430
sg64
(lp3446
g57
(g58
g59
NtRp3447
(dp3448
g62
(dp3449
g70
I4
ssg71
g3443
sg64
(lp3450
S'7d3f6bb5-9173-4453-98e6-d11edd6483c5'
p3451
asbasbasbag57
(g73
g59
NtRp3452
(dp3453
g62
(dp3454
sg71
g3404
sg64
(lp3455
g57
(g78
g59
NtRp3456
(dp3457
g62
(dp3458
g82
g83
ssg71
g3452
sg64
(lp3459
S'last_visit'
p3460
asbag57
(g78
g59
NtRp3461
(dp3462
g62
(dp3463
g89
g90
ssg71
g3452
sg64
(lp3464
S':'
asbag57
(g78
g59
NtRp3465
(dp3466
g62
(dp3467
sg71
g3452
sg64
(lp3468
g57
(g58
g59
NtRp3469
(dp3470
g62
(dp3471
g70
I4
ssg71
g3465
sg64
(lp3472
S'datetime.datetime(2013, 8, 29, 18, 44, 45, 60867)'
p3473
asbasbasbag57
(g73
g59
NtRp3474
(dp3475
g62
(dp3476
sg71
g3404
sg64
(lp3477
g57
(g78
g59
NtRp3478
(dp3479
g62
(dp3480
g82
g83
ssg71
g3474
sg64
(lp3481
S'remember'
p3482
asbag57
(g78
g59
NtRp3483
(dp3484
g62
(dp3485
g89
g90
ssg71
g3474
sg64
(lp3486
S':'
asbag57
(g78
g59
NtRp3487
(dp3488
g62
(dp3489
sg71
g3474
sg64
(lp3490
g57
(g58
g59
NtRp3491
(dp3492
g62
(dp3493
g70
I4
ssg71
g3487
sg64
(lp3494
g100
asbasbasbag57
(g73
g59
NtRp3495
(dp3496
g62
(dp3497
sg71
g3404
sg64
(lp3498
g57
(g78
g59
NtRp3499
(dp3500
g62
(dp3501
g82
g83
ssg71
g3495
sg64
(lp3502
S'user'
p3503
asbag57
(g78
g59
NtRp3504
(dp3505
g62
(dp3506
g89
g90
ssg71
g3495
sg64
(lp3507
S':'
asbag57
(g78
g59
NtRp3508
(dp3509
g62
(dp3510
sg71
g3495
sg64
(lp3511
g57
(g58
g59
NtRp3512
(dp3513
g62
(dp3514
g70
I4
ssg71
g3508
sg64
(lp3515
g57
(g66
g59
NtRp3516
(dp3517
g62
(dp3518
g70
I3
ssg71
Nsg64
(lp3519
g57
(g73
g59
NtRp3520
(dp3521
g62
(dp3522
sg71
g3516
sg64
(lp3523
g57
(g78
g59
NtRp3524
(dp3525
g62
(dp3526
g82
g83
ssg71
g3520
sg64
(lp3527
S'account_type'
p3528
asbag57
(g78
g59
NtRp3529
(dp3530
g62
(dp3531
g89
g90
ssg71
g3520
sg64
(lp3532
S':'
asbag57
(g78
g59
NtRp3533
(dp3534
g62
(dp3535
sg71
g3520
sg64
(lp3536
g57
(g58
g59
NtRp3537
(dp3538
g62
(dp3539
g70
I3
ssg71
g3533
sg64
(lp3540
S'user'
p3541
asbasbasbag57
(g73
g59
NtRp3542
(dp3543
g62
(dp3544
sg71
g3516
sg64
(lp3545
g57
(g78
g59
NtRp3546
(dp3547
g62
(dp3548
g82
g83
ssg71
g3542
sg64
(lp3549
S'alt_email'
p3550
asbag57
(g78
g59
NtRp3551
(dp3552
g62
(dp3553
g89
g90
ssg71
g3542
sg64
(lp3554
S':'
asbag57
(g78
g59
NtRp3555
(dp3556
g62
(dp3557
sg71
g3542
sg64
(lp3558
g57
(g58
g59
NtRp3559
(dp3560
g62
(dp3561
g70
I3
ssg71
g3555
sg64
(lp3562
S'switch2aditi@gmail.com'
p3563
asbasbasbag57
(g73
g59
NtRp3564
(dp3565
g62
(dp3566
sg71
g3516
sg64
(lp3567
g57
(g78
g59
NtRp3568
(dp3569
g62
(dp3570
g82
g83
ssg71
g3564
sg64
(lp3571
S'dob'
p3572
asbag57
(g78
g59
NtRp3573
(dp3574
g62
(dp3575
g89
g90
ssg71
g3564
sg64
(lp3576
S':'
asbag57
(g78
g59
NtRp3577
(dp3578
g62
(dp3579
sg71
g3564
sg64
(lp3580
g57
(g58
g59
NtRp3581
(dp3582
g62
(dp3583
g70
I3
ssg71
g3577
sg64
(lp3584
S'datetime.date(1994, 5, 11)'
p3585
asbasbasbag57
(g73
g59
NtRp3586
(dp3587
g62
(dp3588
sg71
g3516
sg64
(lp3589
g57
(g78
g59
NtRp3590
(dp3591
g62
(dp3592
g82
g83
ssg71
g3586
sg64
(lp3593
S'email'
p3594
asbag57
(g78
g59
NtRp3595
(dp3596
g62
(dp3597
g89
g90
ssg71
g3586
sg64
(lp3598
S':'
asbag57
(g78
g59
NtRp3599
(dp3600
g62
(dp3601
sg71
g3586
sg64
(lp3602
g57
(g58
g59
NtRp3603
(dp3604
g62
(dp3605
g70
I3
ssg71
g3599
sg64
(lp3606
S'aditi.mavalankar@students.iiit.ac.in'
p3607
asbasbasbag57
(g73
g59
NtRp3608
(dp3609
g62
(dp3610
sg71
g3516
sg64
(lp3611
g57
(g78
g59
NtRp3612
(dp3613
g62
(dp3614
g82
g83
ssg71
g3608
sg64
(lp3615
S'first_name'
p3616
asbag57
(g78
g59
NtRp3617
(dp3618
g62
(dp3619
g89
g90
ssg71
g3608
sg64
(lp3620
S':'
asbag57
(g78
g59
NtRp3621
(dp3622
g62
(dp3623
sg71
g3608
sg64
(lp3624
g57
(g58
g59
NtRp3625
(dp3626
g62
(dp3627
g70
I3
ssg71
g3621
sg64
(lp3628
S'aditi'
p3629
asbasbasbag57
(g73
g59
NtRp3630
(dp3631
g62
(dp3632
sg71
g3516
sg64
(lp3633
g57
(g78
g59
NtRp3634
(dp3635
g62
(dp3636
g82
g83
ssg71
g3630
sg64
(lp3637
S'id'
p3638
asbag57
(g78
g59
NtRp3639
(dp3640
g62
(dp3641
g89
g90
ssg71
g3630
sg64
(lp3642
S':'
asbag57
(g78
g59
NtRp3643
(dp3644
g62
(dp3645
sg71
g3630
sg64
(lp3646
g57
(g58
g59
NtRp3647
(dp3648
g62
(dp3649
g70
I3
ssg71
g3643
sg64
(lp3650
S'1'
asbasbasbag57
(g73
g59
NtRp3651
(dp3652
g62
(dp3653
sg71
g3516
sg64
(lp3654
g57
(g78
g59
NtRp3655
(dp3656
g62
(dp3657
g82
g83
ssg71
g3651
sg64
(lp3658
S'last_name'
p3659
asbag57
(g78
g59
NtRp3660
(dp3661
g62
(dp3662
g89
g90
ssg71
g3651
sg64
(lp3663
S':'
asbag57
(g78
g59
NtRp3664
(dp3665
g62
(dp3666
sg71
g3651
sg64
(lp3667
g57
(g58
g59
NtRp3668
(dp3669
g62
(dp3670
g70
I3
ssg71
g3664
sg64
(lp3671
S'mavalankar'
p3672
asbasbasbag57
(g73
g59
NtRp3673
(dp3674
g62
(dp3675
sg71
g3516
sg64
(lp3676
g57
(g78
g59
NtRp3677
(dp3678
g62
(dp3679
g82
g83
ssg71
g3673
sg64
(lp3680
S'registration_id'
p3681
asbag57
(g78
g59
NtRp3682
(dp3683
g62
(dp3684
g89
g90
ssg71
g3673
sg64
(lp3685
S':'
asbag57
(g78
g59
NtRp3686
(dp3687
g62
(dp3688
sg71
g3673
sg64
(lp3689
g57
(g58
g59
NtRp3690
(dp3691
g62
(dp3692
g70
I3
ssg71
g3686
sg64
(lp3693
S''
asbasbasbag57
(g73
g59
NtRp3694
(dp3695
g62
(dp3696
sg71
g3516
sg64
(lp3697
g57
(g78
g59
NtRp3698
(dp3699
g62
(dp3700
g82
g83
ssg71
g3694
sg64
(lp3701
S'registration_key'
p3702
asbag57
(g78
g59
NtRp3703
(dp3704
g62
(dp3705
g89
g90
ssg71
g3694
sg64
(lp3706
S':'
asbag57
(g78
g59
NtRp3707
(dp3708
g62
(dp3709
sg71
g3694
sg64
(lp3710
g57
(g58
g59
NtRp3711
(dp3712
g62
(dp3713
g70
I3
ssg71
g3707
sg64
(lp3714
S''
asbasbasbag57
(g73
g59
NtRp3715
(dp3716
g62
(dp3717
sg71
g3516
sg64
(lp3718
g57
(g78
g59
NtRp3719
(dp3720
g62
(dp3721
g82
g83
ssg71
g3715
sg64
(lp3722
S'reset_password_key'
p3723
asbag57
(g78
g59
NtRp3724
(dp3725
g62
(dp3726
g89
g90
ssg71
g3715
sg64
(lp3727
S':'
asbag57
(g78
g59
NtRp3728
(dp3729
g62
(dp3730
sg71
g3715
sg64
(lp3731
g57
(g58
g59
NtRp3732
(dp3733
g62
(dp3734
g70
I3
ssg71
g3728
sg64
(lp3735
S''
asbasbasbag57
(g73
g59
NtRp3736
(dp3737
g62
(dp3738
sg71
g3516
sg64
(lp3739
g57
(g78
g59
NtRp3740
(dp3741
g62
(dp3742
g82
g83
ssg71
g3736
sg64
(lp3743
S'username'
p3744
asbag57
(g78
g59
NtRp3745
(dp3746
g62
(dp3747
g89
g90
ssg71
g3736
sg64
(lp3748
S':'
asbag57
(g78
g59
NtRp3749
(dp3750
g62
(dp3751
sg71
g3736
sg64
(lp3752
g57
(g58
g59
NtRp3753
(dp3754
g62
(dp3755
g70
I3
ssg71
g3749
sg64
(lp3756
S'aditi.mavalankar'
p3757
asbasbasbasbasbasbasbag57
(g73
g59
NtRp3758
(dp3759
g62
(dp3760
sg71
g3404
sg64
(lp3761
g57
(g78
g59
NtRp3762
(dp3763
g62
(dp3764
g82
g83
ssg71
g3758
sg64
(lp3765
S'user_groups'
p3766
asbag57
(g78
g59
NtRp3767
(dp3768
g62
(dp3769
g89
g90
ssg71
g3758
sg64
(lp3770
S':'
asbag57
(g78
g59
NtRp3771
(dp3772
g62
(dp3773
sg71
g3758
sg64
(lp3774
g57
(g58
g59
NtRp3775
(dp3776
g62
(dp3777
g70
I4
ssg71
g3771
sg64
(lp3778
g57
(g66
g59
NtRp3779
(dp3780
g62
(dp3781
g70
I3
ssg71
Nsg64
(lp3782
g57
(g73
g59
NtRp3783
(dp3784
g62
(dp3785
sg71
g3779
sg64
(lp3786
g57
(g78
g59
NtRp3787
(dp3788
g62
(dp3789
g82
g83
ssg71
g3783
sg64
(lp3790
S'1'
asbag57
(g78
g59
NtRp3791
(dp3792
g62
(dp3793
g89
g90
ssg71
g3783
sg64
(lp3794
S':'
asbag57
(g78
g59
NtRp3795
(dp3796
g62
(dp3797
sg71
g3783
sg64
(lp3798
g57
(g58
g59
NtRp3799
(dp3800
g62
(dp3801
g70
I3
ssg71
g3795
sg64
(lp3802
S'user_1'
p3803
asbasbasbasbasbasbasbasbasbasbasbag57
(g73
g59
NtRp3804
(dp3805
g62
(dp3806
sg71
g3379
sg64
(lp3807
g57
(g78
g59
NtRp3808
(dp3809
g62
(dp3810
g82
g83
ssg71
g3804
sg64
(lp3811
S'flash'
p3812
asbag57
(g78
g59
NtRp3813
(dp3814
g62
(dp3815
g89
g90
ssg71
g3804
sg64
(lp3816
S':'
asbag57
(g78
g59
NtRp3817
(dp3818
g62
(dp3819
sg71
g3804
sg64
(lp3820
g57
(g58
g59
NtRp3821
(dp3822
g62
(dp3823
g70
I5
ssg71
g3817
sg64
(lp3824
S'None'
p3825
asbasbasbasbasbsS'etype'
p3826
S"<type 'exceptions.AttributeError'>"
p3827
sS'date'
p3828
S'Thu Aug 29 18:44:45 2013'
p3829
sS'response'
p3830
g57
(g58
g59
NtRp3831
(dp3832
g62
(dp3833
sg64
(lp3834
g57
(g66
g59
NtRp3835
(dp3836
g62
(dp3837
g70
I5
ssg71
Nsg64
(lp3838
g57
(g73
g59
NtRp3839
(dp3840
g62
(dp3841
sg71
g3835
sg64
(lp3842
g57
(g78
g59
NtRp3843
(dp3844
g62
(dp3845
g82
g83
ssg71
g3839
sg64
(lp3846
g155
asbag57
(g78
g59
NtRp3847
(dp3848
g62
(dp3849
g89
g90
ssg71
g3839
sg64
(lp3850
S':'
asbag57
(g78
g59
NtRp3851
(dp3852
g62
(dp3853
sg71
g3839
sg64
(lp3854
g57
(g58
g59
NtRp3855
(dp3856
g62
(dp3857
g70
I5
ssg71
g3851
sg64
(lp3858
S'<cStringIO.StringO object at 0xacd37cc0>'
p3859
asbasbasbag57
(g73
g59
NtRp3860
(dp3861
g62
(dp3862
sg71
g3835
sg64
(lp3863
g57
(g78
g59
NtRp3864
(dp3865
g62
(dp3866
g82
g83
ssg71
g3860
sg64
(lp3867
g243
asbag57
(g78
g59
NtRp3868
(dp3869
g62
(dp3870
g89
g90
ssg71
g3860
sg64
(lp3871
S':'
asbag57
(g78
g59
NtRp3872
(dp3873
g62
(dp3874
sg71
g3860
sg64
(lp3875
g57
(g58
g59
NtRp3876
(dp3877
g62
(dp3878
g70
I5
ssg71
g3872
sg64
(lp3879
g57
(g66
g59
NtRp3880
(dp3881
g62
(dp3882
g70
I4
ssg71
Nsg64
(lp3883
g57
(g73
g59
NtRp3884
(dp3885
g62
(dp3886
sg71
g3880
sg64
(lp3887
g57
(g78
g59
NtRp3888
(dp3889
g62
(dp3890
g82
g83
ssg71
g3884
sg64
(lp3891
S'session_id_assignment2'
p3892
asbag57
(g78
g59
NtRp3893
(dp3894
g62
(dp3895
g89
g90
ssg71
g3884
sg64
(lp3896
S':'
asbag57
(g78
g59
NtRp3897
(dp3898
g62
(dp3899
sg71
g3884
sg64
(lp3900
g57
(g58
g59
NtRp3901
(dp3902
g62
(dp3903
g70
I4
ssg71
g3897
sg64
(lp3904
g475
ag57
(g66
g59
NtRp3905
(dp3906
g62
(dp3907
g70
I3
ssg71
Nsg64
(lp3908
g57
(g73
g59
NtRp3909
(dp3910
g62
(dp3911
sg71
g3905
sg64
(lp3912
g57
(g78
g59
NtRp3913
(dp3914
g62
(dp3915
g82
g83
ssg71
g3909
sg64
(lp3916
g294
asbag57
(g78
g59
NtRp3917
(dp3918
g62
(dp3919
g89
g90
ssg71
g3909
sg64
(lp3920
S':'
asbag57
(g78
g59
NtRp3921
(dp3922
g62
(dp3923
sg71
g3909
sg64
(lp3924
g57
(g58
g59
NtRp3925
(dp3926
g62
(dp3927
g70
I3
ssg71
g3921
sg64
(lp3928
S''
asbasbasbag57
(g73
g59
NtRp3929
(dp3930
g62
(dp3931
sg71
g3905
sg64
(lp3932
g57
(g78
g59
NtRp3933
(dp3934
g62
(dp3935
g82
g83
ssg71
g3929
sg64
(lp3936
g315
asbag57
(g78
g59
NtRp3937
(dp3938
g62
(dp3939
g89
g90
ssg71
g3929
sg64
(lp3940
S':'
asbag57
(g78
g59
NtRp3941
(dp3942
g62
(dp3943
sg71
g3929
sg64
(lp3944
g57
(g58
g59
NtRp3945
(dp3946
g62
(dp3947
g70
I3
ssg71
g3941
sg64
(lp3948
S''
asbasbasbag57
(g73
g59
NtRp3949
(dp3950
g62
(dp3951
sg71
g3905
sg64
(lp3952
g57
(g78
g59
NtRp3953
(dp3954
g62
(dp3955
g82
g83
ssg71
g3949
sg64
(lp3956
g336
asbag57
(g78
g59
NtRp3957
(dp3958
g62
(dp3959
g89
g90
ssg71
g3949
sg64
(lp3960
S':'
asbag57
(g78
g59
NtRp3961
(dp3962
g62
(dp3963
sg71
g3949
sg64
(lp3964
g57
(g58
g59
NtRp3965
(dp3966
g62
(dp3967
g70
I3
ssg71
g3961
sg64
(lp3968
S''
asbasbasbag57
(g73
g59
NtRp3969
(dp3970
g62
(dp3971
sg71
g3905
sg64
(lp3972
g57
(g78
g59
NtRp3973
(dp3974
g62
(dp3975
g82
g83
ssg71
g3969
sg64
(lp3976
g357
asbag57
(g78
g59
NtRp3977
(dp3978
g62
(dp3979
g89
g90
ssg71
g3969
sg64
(lp3980
S':'
asbag57
(g78
g59
NtRp3981
(dp3982
g62
(dp3983
sg71
g3969
sg64
(lp3984
g57
(g58
g59
NtRp3985
(dp3986
g62
(dp3987
g70
I3
ssg71
g3981
sg64
(lp3988
S''
asbasbasbag57
(g73
g59
NtRp3989
(dp3990
g62
(dp3991
sg71
g3905
sg64
(lp3992
g57
(g78
g59
NtRp3993
(dp3994
g62
(dp3995
g82
g83
ssg71
g3989
sg64
(lp3996
g378
asbag57
(g78
g59
NtRp3997
(dp3998
g62
(dp3999
g89
g90
ssg71
g3989
sg64
(lp4000
S':'
asbag57
(g78
g59
NtRp4001
(dp4002
g62
(dp4003
sg71
g3989
sg64
(lp4004
g57
(g58
g59
NtRp4005
(dp4006
g62
(dp4007
g70
I3
ssg71
g4001
sg64
(lp4008
S''
asbasbasbag57
(g73
g59
NtRp4009
(dp4010
g62
(dp4011
sg71
g3905
sg64
(lp4012
g57
(g78
g59
NtRp4013
(dp4014
g62
(dp4015
g82
g83
ssg71
g4009
sg64
(lp4016
g399
asbag57
(g78
g59
NtRp4017
(dp4018
g62
(dp4019
g89
g90
ssg71
g4009
sg64
(lp4020
S':'
asbag57
(g78
g59
NtRp4021
(dp4022
g62
(dp4023
sg71
g4009
sg64
(lp4024
g57
(g58
g59
NtRp4025
(dp4026
g62
(dp4027
g70
I3
ssg71
g4021
sg64
(lp4028
S'/'
asbasbasbag57
(g73
g59
NtRp4029
(dp4030
g62
(dp4031
sg71
g3905
sg64
(lp4032
g57
(g78
g59
NtRp4033
(dp4034
g62
(dp4035
g82
g83
ssg71
g4029
sg64
(lp4036
g420
asbag57
(g78
g59
NtRp4037
(dp4038
g62
(dp4039
g89
g90
ssg71
g4029
sg64
(lp4040
S':'
asbag57
(g78
g59
NtRp4041
(dp4042
g62
(dp4043
sg71
g4029
sg64
(lp4044
g57
(g58
g59
NtRp4045
(dp4046
g62
(dp4047
g70
I3
ssg71
g4041
sg64
(lp4048
S''
asbasbasbag57
(g73
g59
NtRp4049
(dp4050
g62
(dp4051
sg71
g3905
sg64
(lp4052
g57
(g78
g59
NtRp4053
(dp4054
g62
(dp4055
g82
g83
ssg71
g4049
sg64
(lp4056
g441
asbag57
(g78
g59
NtRp4057
(dp4058
g62
(dp4059
g89
g90
ssg71
g4049
sg64
(lp4060
S':'
asbag57
(g78
g59
NtRp4061
(dp4062
g62
(dp4063
sg71
g4049
sg64
(lp4064
g57
(g58
g59
NtRp4065
(dp4066
g62
(dp4067
g70
I3
ssg71
g4061
sg64
(lp4068
S''
asbasbasbasbasbasbasbasbasbasbasbag57
(g73
g59
NtRp4069
(dp4070
g62
(dp4071
sg71
g3835
sg64
(lp4072
g57
(g78
g59
NtRp4073
(dp4074
g62
(dp4075
g82
g83
ssg71
g4069
sg64
(lp4076
S'delimiters'
p4077
asbag57
(g78
g59
NtRp4078
(dp4079
g62
(dp4080
g89
g90
ssg71
g4069
sg64
(lp4081
S':'
asbag57
(g78
g59
NtRp4082
(dp4083
g62
(dp4084
sg71
g4069
sg64
(lp4085
g57
(g58
g59
NtRp4086
(dp4087
g62
(dp4088
g70
I5
ssg71
g4082
sg64
(lp4089
g57
(g66
g59
NtRp4090
(dp4091
g62
(dp4092
g70
I4
ssg71
Nsg64
(lp4093
g57
(g73
g59
NtRp4094
(dp4095
g62
(dp4096
sg71
g4090
sg64
(lp4097
g57
(g78
g59
NtRp4098
(dp4099
g62
(dp4100
sg71
g4094
sg64
(lp4101
g57
(g58
g59
NtRp4102
(dp4103
g62
(dp4104
g70
I4
ssg71
g4098
sg64
(lp4105
S'{{'
p4106
asbasbasbag57
(g73
g59
NtRp4107
(dp4108
g62
(dp4109
sg71
g4090
sg64
(lp4110
g57
(g78
g59
NtRp4111
(dp4112
g62
(dp4113
sg71
g4107
sg64
(lp4114
g57
(g58
g59
NtRp4115
(dp4116
g62
(dp4117
g70
I4
ssg71
g4111
sg64
(lp4118
S'}}'
p4119
asbasbasbasbasbasbasbag57
(g73
g59
NtRp4120
(dp4121
g62
(dp4122
sg71
g3835
sg64
(lp4123
g57
(g78
g59
NtRp4124
(dp4125
g62
(dp4126
g82
g83
ssg71
g4120
sg64
(lp4127
S'files'
p4128
asbag57
(g78
g59
NtRp4129
(dp4130
g62
(dp4131
g89
g90
ssg71
g4120
sg64
(lp4132
S':'
asbag57
(g78
g59
NtRp4133
(dp4134
g62
(dp4135
sg71
g4120
sg64
(lp4136
g57
(g58
g59
NtRp4137
(dp4138
g62
(dp4139
g70
I5
ssg71
g4133
sg64
(lp4140
g57
(g66
g59
NtRp4141
(dp4142
g62
(dp4143
g70
I4
ssg71
Nsg64
(lp4144
sbasbasbasbag57
(g73
g59
NtRp4145
(dp4146
g62
(dp4147
sg71
g3835
sg64
(lp4148
g57
(g78
g59
NtRp4149
(dp4150
g62
(dp4151
g82
g83
ssg71
g4145
sg64
(lp4152
S'flash'
p4153
asbag57
(g78
g59
NtRp4154
(dp4155
g62
(dp4156
g89
g90
ssg71
g4145
sg64
(lp4157
S':'
asbag57
(g78
g59
NtRp4158
(dp4159
g62
(dp4160
sg71
g4145
sg64
(lp4161
g57
(g58
g59
NtRp4162
(dp4163
g62
(dp4164
g70
I5
ssg71
g4158
sg64
(lp4165
S''
asbasbasbag57
(g73
g59
NtRp4166
(dp4167
g62
(dp4168
sg71
g3835
sg64
(lp4169
g57
(g78
g59
NtRp4170
(dp4171
g62
(dp4172
g82
g83
ssg71
g4166
sg64
(lp4173
S'generic_patterns'
p4174
asbag57
(g78
g59
NtRp4175
(dp4176
g62
(dp4177
g89
g90
ssg71
g4166
sg64
(lp4178
S':'
asbag57
(g78
g59
NtRp4179
(dp4180
g62
(dp4181
sg71
g4166
sg64
(lp4182
g57
(g58
g59
NtRp4183
(dp4184
g62
(dp4185
g70
I5
ssg71
g4179
sg64
(lp4186
g57
(g66
g59
NtRp4187
(dp4188
g62
(dp4189
g70
I4
ssg71
Nsg64
(lp4190
g57
(g73
g59
NtRp4191
(dp4192
g62
(dp4193
sg71
g4187
sg64
(lp4194
g57
(g78
g59
NtRp4195
(dp4196
g62
(dp4197
sg71
g4191
sg64
(lp4198
g57
(g58
g59
NtRp4199
(dp4200
g62
(dp4201
g70
I4
ssg71
g4195
sg64
(lp4202
S'*'
asbasbasbasbasbasbasbag57
(g73
g59
NtRp4203
(dp4204
g62
(dp4205
sg71
g3835
sg64
(lp4206
g57
(g78
g59
NtRp4207
(dp4208
g62
(dp4209
g82
g83
ssg71
g4203
sg64
(lp4210
S'google_analytics_id'
p4211
asbag57
(g78
g59
NtRp4212
(dp4213
g62
(dp4214
g89
g90
ssg71
g4203
sg64
(lp4215
S':'
asbag57
(g78
g59
NtRp4216
(dp4217
g62
(dp4218
sg71
g4203
sg64
(lp4219
g57
(g58
g59
NtRp4220
(dp4221
g62
(dp4222
g70
I5
ssg71
g4216
sg64
(lp4223
S'None'
p4224
asbasbasbag57
(g73
g59
NtRp4225
(dp4226
g62
(dp4227
sg71
g3835
sg64
(lp4228
g57
(g78
g59
NtRp4229
(dp4230
g62
(dp4231
g82
g83
ssg71
g4225
sg64
(lp4232
S'headers'
p4233
asbag57
(g78
g59
NtRp4234
(dp4235
g62
(dp4236
g89
g90
ssg71
g4225
sg64
(lp4237
S':'
asbag57
(g78
g59
NtRp4238
(dp4239
g62
(dp4240
sg71
g4225
sg64
(lp4241
g57
(g58
g59
NtRp4242
(dp4243
g62
(dp4244
g70
I5
ssg71
g4238
sg64
(lp4245
g57
(g66
g59
NtRp4246
(dp4247
g62
(dp4248
g70
I4
ssg71
Nsg64
(lp4249
g57
(g73
g59
NtRp4250
(dp4251
g62
(dp4252
sg71
g4246
sg64
(lp4253
g57
(g78
g59
NtRp4254
(dp4255
g62
(dp4256
g82
g83
ssg71
g4250
sg64
(lp4257
S'X-Powered-By'
p4258
asbag57
(g78
g59
NtRp4259
(dp4260
g62
(dp4261
g89
g90
ssg71
g4250
sg64
(lp4262
S':'
asbag57
(g78
g59
NtRp4263
(dp4264
g62
(dp4265
sg71
g4250
sg64
(lp4266
g57
(g58
g59
NtRp4267
(dp4268
g62
(dp4269
g70
I4
ssg71
g4263
sg64
(lp4270
S'web2py'
p4271
asbasbasbasbasbasbasbag57
(g73
g59
NtRp4272
(dp4273
g62
(dp4274
sg71
g3835
sg64
(lp4275
g57
(g78
g59
NtRp4276
(dp4277
g62
(dp4278
g82
g83
ssg71
g4272
sg64
(lp4279
S'logo'
p4280
asbag57
(g78
g59
NtRp4281
(dp4282
g62
(dp4283
g89
g90
ssg71
g4272
sg64
(lp4284
S':'
asbag57
(g78
g59
NtRp4285
(dp4286
g62
(dp4287
sg71
g4272
sg64
(lp4288
g57
(g58
g59
NtRp4289
(dp4290
g62
(dp4291
g70
I5
ssg71
g4285
sg64
(lp4292
g57
(cgluon.html
A
p4293
g59
NtRp4294
(dp4295
g62
(dp4296
S'_class'
p4297
S'brand'
p4298
sS'_href'
p4299
S'http://www.web2py.com/'
p4300
ssg71
Nsg64
(lp4301
g57
(cgluon.html
B
p4302
g59
NtRp4303
(dp4304
g62
(dp4305
sg71
g4294
sg64
(lp4306
S'web'
p4307
ag57
(cgluon.html
SPAN
p4308
g59
NtRp4309
(dp4310
g62
(dp4311
sg71
g4303
sg64
(lp4312
I2
asbaS'py'
p4313
asbacgluon.html
XML_unpickle
p4314
(S's\r\x00\x00\x00&trade;&nbsp;'
tRp4315
asbasbasbasbag57
(g73
g59
NtRp4316
(dp4317
g62
(dp4318
sg71
g3835
sg64
(lp4319
g57
(g78
g59
NtRp4320
(dp4321
g62
(dp4322
g82
g83
ssg71
g4316
sg64
(lp4323
S'menu'
p4324
asbag57
(g78
g59
NtRp4325
(dp4326
g62
(dp4327
g89
g90
ssg71
g4316
sg64
(lp4328
S':'
asbag57
(g78
g59
NtRp4329
(dp4330
g62
(dp4331
sg71
g4316
sg64
(lp4332
g57
(g58
g59
NtRp4333
(dp4334
g62
(dp4335
g70
I5
ssg71
g4329
sg64
(lp4336
g57
(g66
g59
NtRp4337
(dp4338
g62
(dp4339
g70
I4
ssg71
Nsg64
(lp4340
g57
(g73
g59
NtRp4341
(dp4342
g62
(dp4343
sg71
g4337
sg64
(lp4344
g57
(g78
g59
NtRp4345
(dp4346
g62
(dp4347
sg71
g4341
sg64
(lp4348
g57
(g58
g59
NtRp4349
(dp4350
g62
(dp4351
g70
I4
ssg71
g4345
sg64
(lp4352
g57
(g66
g59
NtRp4353
(dp4354
g62
(dp4355
g70
I3
ssg71
Nsg64
(lp4356
g57
(g73
g59
NtRp4357
(dp4358
g62
(dp4359
sg71
g4353
sg64
(lp4360
g57
(g78
g59
NtRp4361
(dp4362
g62
(dp4363
sg71
g4357
sg64
(lp4364
g57
(g58
g59
NtRp4365
(dp4366
g62
(dp4367
g70
I3
ssg71
g4361
sg64
(lp4368
cgluon.languages
lazyT_unpickle
p4369
(S's\x04\x00\x00\x00Home'
tRp4370
asbasbasbag57
(g73
g59
NtRp4371
(dp4372
g62
(dp4373
sg71
g4353
sg64
(lp4374
g57
(g78
g59
NtRp4375
(dp4376
g62
(dp4377
sg71
g4371
sg64
(lp4378
g57
(g58
g59
NtRp4379
(dp4380
g62
(dp4381
g70
I3
ssg71
g4375
sg64
(lp4382
g100
asbasbasbag57
(g73
g59
NtRp4383
(dp4384
g62
(dp4385
sg71
g4353
sg64
(lp4386
g57
(g78
g59
NtRp4387
(dp4388
g62
(dp4389
sg71
g4383
sg64
(lp4390
g57
(g58
g59
NtRp4391
(dp4392
g62
(dp4393
g70
I3
ssg71
g4387
sg64
(lp4394
S'/assignment2/default/index'
p4395
asbasbasbag57
(g73
g59
NtRp4396
(dp4397
g62
(dp4398
sg71
g4353
sg64
(lp4399
g57
(g78
g59
NtRp4400
(dp4401
g62
(dp4402
sg71
g4396
sg64
(lp4403
g57
(g58
g59
NtRp4404
(dp4405
g62
(dp4406
g70
I3
ssg71
g4400
sg64
(lp4407
g57
(g66
g59
NtRp4408
(dp4409
g62
(dp4410
g70
I2
ssg71
Nsg64
(lp4411
sbasbasbasbasbasbasbasbag57
(g73
g59
NtRp4412
(dp4413
g62
(dp4414
sg71
g4337
sg64
(lp4415
g57
(g78
g59
NtRp4416
(dp4417
g62
(dp4418
sg71
g4412
sg64
(lp4419
g57
(g58
g59
NtRp4420
(dp4421
g62
(dp4422
g70
I4
ssg71
g4416
sg64
(lp4423
g57
(g66
g59
NtRp4424
(dp4425
g62
(dp4426
g70
I3
ssg71
Nsg64
(lp4427
g57
(g73
g59
NtRp4428
(dp4429
g62
(dp4430
sg71
g4424
sg64
(lp4431
g57
(g78
g59
NtRp4432
(dp4433
g62
(dp4434
sg71
g4428
sg64
(lp4435
g57
(g58
g59
NtRp4436
(dp4437
g62
(dp4438
g70
I3
ssg71
g4432
sg64
(lp4439
g57
(g4308
g59
NtRp4440
(dp4441
g62
(dp4442
g4297
S'highlighted'
p4443
ssg71
Nsg64
(lp4444
g4271
asbasbasbasbag57
(g73
g59
NtRp4445
(dp4446
g62
(dp4447
sg71
g4424
sg64
(lp4448
g57
(g78
g59
NtRp4449
(dp4450
g62
(dp4451
sg71
g4445
sg64
(lp4452
g57
(g58
g59
NtRp4453
(dp4454
g62
(dp4455
g70
I3
ssg71
g4449
sg64
(lp4456
g100
asbasbasbag57
(g73
g59
NtRp4457
(dp4458
g62
(dp4459
sg71
g4424
sg64
(lp4460
g57
(g78
g59
NtRp4461
(dp4462
g62
(dp4463
sg71
g4457
sg64
(lp4464
g57
(g58
g59
NtRp4465
(dp4466
g62
(dp4467
g70
I3
ssg71
g4461
sg64
(lp4468
S'http://web2py.com'
p4469
asbasbasbag57
(g73
g59
NtRp4470
(dp4471
g62
(dp4472
sg71
g4424
sg64
(lp4473
g57
(g78
g59
NtRp4474
(dp4475
g62
(dp4476
sg71
g4470
sg64
(lp4477
g57
(g58
g59
NtRp4478
(dp4479
g62
(dp4480
g70
I3
ssg71
g4474
sg64
(lp4481
g57
(g66
g59
NtRp4482
(dp4483
g62
(dp4484
g70
I2
ssg71
Nsg64
(lp4485
g57
(g73
g59
NtRp4486
(dp4487
g62
(dp4488
sg71
g4482
sg64
(lp4489
g57
(g78
g59
NtRp4490
(dp4491
g62
(dp4492
sg71
g4486
sg64
(lp4493
g57
(g58
g59
NtRp4494
(dp4495
g62
(dp4496
g70
I2
ssg71
g4490
sg64
(lp4497
g57
(g66
g59
NtRp4498
(dp4499
g62
(dp4500
g70
I1
ssg71
Nsg64
(lp4501
g57
(g73
g59
NtRp4502
(dp4503
g62
(dp4504
sg71
g4498
sg64
(lp4505
g57
(g78
g59
NtRp4506
(dp4507
g62
(dp4508
sg71
g4502
sg64
(lp4509
g57
(g58
g59
NtRp4510
(dp4511
g62
(dp4512
g70
I1
ssg71
g4506
sg64
(lp4513
g4369
(S's\x08\x00\x00\x00My Sites'
tRp4514
asbasbasbag57
(g73
g59
NtRp4515
(dp4516
g62
(dp4517
sg71
g4498
sg64
(lp4518
g57
(g78
g59
NtRp4519
(dp4520
g62
(dp4521
sg71
g4515
sg64
(lp4522
g57
(g58
g59
NtRp4523
(dp4524
g62
(dp4525
g70
I1
ssg71
g4519
sg64
(lp4526
I00
asbasbasbag57
(g73
g59
NtRp4527
(dp4528
g62
(dp4529
sg71
g4498
sg64
(lp4530
g57
(g78
g59
NtRp4531
(dp4532
g62
(dp4533
sg71
g4527
sg64
(lp4534
g57
(g58
g59
NtRp4535
(dp4536
g62
(dp4537
g70
I1
ssg71
g4531
sg64
(lp4538
S'/admin/default/site'
p4539
asbasbasbasbasbasbasbag57
(g73
g59
NtRp4540
(dp4541
g62
(dp4542
sg71
g4482
sg64
(lp4543
g57
(g78
g59
NtRp4544
(dp4545
g62
(dp4546
sg71
g4540
sg64
(lp4547
g57
(g58
g59
NtRp4548
(dp4549
g62
(dp4550
g70
I2
ssg71
g4544
sg64
(lp4551
g57
(g66
g59
NtRp4552
(dp4553
g62
(dp4554
g70
I1
ssg71
Nsg64
(lp4555
g57
(g73
g59
NtRp4556
(dp4557
g62
(dp4558
sg71
g4552
sg64
(lp4559
g57
(g78
g59
NtRp4560
(dp4561
g62
(dp4562
sg71
g4556
sg64
(lp4563
g57
(g58
g59
NtRp4564
(dp4565
g62
(dp4566
g70
I1
ssg71
g4560
sg64
(lp4567
g4369
(S's\x08\x00\x00\x00This App'
tRp4568
asbasbasbag57
(g73
g59
NtRp4569
(dp4570
g62
(dp4571
sg71
g4552
sg64
(lp4572
g57
(g78
g59
NtRp4573
(dp4574
g62
(dp4575
sg71
g4569
sg64
(lp4576
g57
(g58
g59
NtRp4577
(dp4578
g62
(dp4579
g70
I1
ssg71
g4573
sg64
(lp4580
I00
asbasbasbag57
(g73
g59
NtRp4581
(dp4582
g62
(dp4583
sg71
g4552
sg64
(lp4584
g57
(g78
g59
NtRp4585
(dp4586
g62
(dp4587
sg71
g4581
sg64
(lp4588
g57
(g58
g59
NtRp4589
(dp4590
g62
(dp4591
g70
I1
ssg71
g4585
sg64
(lp4592
S'/admin/default/design/assignment2'
p4593
asbasbasbag57
(g73
g59
NtRp4594
(dp4595
g62
(dp4596
sg71
g4552
sg64
(lp4597
g57
(g78
g59
NtRp4598
(dp4599
g62
(dp4600
sg71
g4594
sg64
(lp4601
g57
(g58
g59
NtRp4602
(dp4603
g62
(dp4604
g70
I1
ssg71
g4598
sg64
(lp4605
(lp4606
(g4369
(S's\n\x00\x00\x00Controller'
tRp4607
I00
S'/admin/default/edit/assignment2/controllers/default.py'
tp4608
a(g4369
(S's\x04\x00\x00\x00View'
tRp4609
I00
S'/admin/default/edit/assignment2/views/default/user_homepage.html'
tp4610
a(g4369
(S's\x06\x00\x00\x00Layout'
tRp4611
I00
S'/admin/default/edit/assignment2/views/layout.html'
tp4612
a(g4369
(S's\n\x00\x00\x00Stylesheet'
tRp4613
I00
S'/admin/default/edit/assignment2/static/css/web2py.css'
tp4614
a(g4369
(S's\x08\x00\x00\x00DB Model'
tRp4615
I00
S'/admin/default/edit/assignment2/models/db.py'
tp4616
a(g4369
(S's\n\x00\x00\x00Menu Model'
tRp4617
I00
S'/admin/default/edit/assignment2/models/menu.py'
tp4618
a(g4369
(S's\x08\x00\x00\x00Database'
tRp4619
I00
S'/assignment2/appadmin/index'
tp4620
a(g4369
(S's\x06\x00\x00\x00Errors'
tRp4621
I00
S'/admin/default/errors/assignment2'
tp4622
a(g4369
(S's\x05\x00\x00\x00About'
tRp4623
I00
S'/admin/default/about/assignment2'
tp4624
aasbasbasbasbasbasbasbag57
(g73
g59
NtRp4625
(dp4626
g62
(dp4627
sg71
g4482
sg64
(lp4628
g57
(g78
g59
NtRp4629
(dp4630
g62
(dp4631
sg71
g4625
sg64
(lp4632
g57
(g58
g59
NtRp4633
(dp4634
g62
(dp4635
g70
I2
ssg71
g4629
sg64
(lp4636
g57
(g66
g59
NtRp4637
(dp4638
g62
(dp4639
g70
I1
ssg71
Nsg64
(lp4640
g57
(g73
g59
NtRp4641
(dp4642
g62
(dp4643
sg71
g4637
sg64
(lp4644
g57
(g78
g59
NtRp4645
(dp4646
g62
(dp4647
sg71
g4641
sg64
(lp4648
g57
(g58
g59
NtRp4649
(dp4650
g62
(dp4651
g70
I1
ssg71
g4645
sg64
(lp4652
S'web2py.com'
p4653
asbasbasbag57
(g73
g59
NtRp4654
(dp4655
g62
(dp4656
sg71
g4637
sg64
(lp4657
g57
(g78
g59
NtRp4658
(dp4659
g62
(dp4660
sg71
g4654
sg64
(lp4661
g57
(g58
g59
NtRp4662
(dp4663
g62
(dp4664
g70
I1
ssg71
g4658
sg64
(lp4665
I00
asbasbasbag57
(g73
g59
NtRp4666
(dp4667
g62
(dp4668
sg71
g4637
sg64
(lp4669
g57
(g78
g59
NtRp4670
(dp4671
g62
(dp4672
sg71
g4666
sg64
(lp4673
g57
(g58
g59
NtRp4674
(dp4675
g62
(dp4676
g70
I1
ssg71
g4670
sg64
(lp4677
S'http://www.web2py.com'
p4678
asbasbasbag57
(g73
g59
NtRp4679
(dp4680
g62
(dp4681
sg71
g4637
sg64
(lp4682
g57
(g78
g59
NtRp4683
(dp4684
g62
(dp4685
sg71
g4679
sg64
(lp4686
g57
(g58
g59
NtRp4687
(dp4688
g62
(dp4689
g70
I1
ssg71
g4683
sg64
(lp4690
(lp4691
(g4369
(S's\x08\x00\x00\x00Download'
tRp4692
I00
S'http://www.web2py.com/examples/default/download'
p4693
tp4694
a(g4369
(S's\x07\x00\x00\x00Support'
tRp4695
I00
S'http://www.web2py.com/examples/default/support'
p4696
tp4697
a(g4369
(S's\x04\x00\x00\x00Demo'
tRp4698
I00
S'http://web2py.com/demo_admin'
p4699
tp4700
a(g4369
(S's\x0e\x00\x00\x00Quick Examples'
tRp4701
I00
S'http://web2py.com/examples/default/examples'
p4702
tp4703
a(g4369
(S's\x03\x00\x00\x00FAQ'
tRp4704
I00
S'http://web2py.com/AlterEgo'
p4705
tp4706
a(g4369
(S's\x06\x00\x00\x00Videos'
tRp4707
I00
S'http://www.web2py.com/examples/default/videos/'
p4708
tp4709
a(g4369
(S's\x11\x00\x00\x00Free Applications'
tRp4710
I00
S'http://web2py.com/appliances'
p4711
tp4712
a(g4369
(S's\x07\x00\x00\x00Plugins'
tRp4713
I00
S'http://web2py.com/plugins'
p4714
tp4715
a(g4369
(S's\x07\x00\x00\x00Layouts'
tRp4716
I00
S'http://web2py.com/layouts'
p4717
tp4718
a(g4369
(S's\x07\x00\x00\x00Recipes'
tRp4719
I00
S'http://web2pyslices.com/'
p4720
tp4721
a(g4369
(S's\x08\x00\x00\x00Semantic'
tRp4722
I00
S'http://web2py.com/semantic'
p4723
tp4724
aasbasbasbasbasbasbasbag57
(g73
g59
NtRp4725
(dp4726
g62
(dp4727
sg71
g4482
sg64
(lp4728
g57
(g78
g59
NtRp4729
(dp4730
g62
(dp4731
sg71
g4725
sg64
(lp4732
g57
(g58
g59
NtRp4733
(dp4734
g62
(dp4735
g70
I2
ssg71
g4729
sg64
(lp4736
g57
(g66
g59
NtRp4737
(dp4738
g62
(dp4739
g70
I1
ssg71
Nsg64
(lp4740
g57
(g73
g59
NtRp4741
(dp4742
g62
(dp4743
sg71
g4737
sg64
(lp4744
g57
(g78
g59
NtRp4745
(dp4746
g62
(dp4747
sg71
g4741
sg64
(lp4748
g57
(g58
g59
NtRp4749
(dp4750
g62
(dp4751
g70
I1
ssg71
g4745
sg64
(lp4752
g4369
(S's\r\x00\x00\x00Documentation'
tRp4753
asbasbasbag57
(g73
g59
NtRp4754
(dp4755
g62
(dp4756
sg71
g4737
sg64
(lp4757
g57
(g78
g59
NtRp4758
(dp4759
g62
(dp4760
sg71
g4754
sg64
(lp4761
g57
(g58
g59
NtRp4762
(dp4763
g62
(dp4764
g70
I1
ssg71
g4758
sg64
(lp4765
I00
asbasbasbag57
(g73
g59
NtRp4766
(dp4767
g62
(dp4768
sg71
g4737
sg64
(lp4769
g57
(g78
g59
NtRp4770
(dp4771
g62
(dp4772
sg71
g4766
sg64
(lp4773
g57
(g58
g59
NtRp4774
(dp4775
g62
(dp4776
g70
I1
ssg71
g4770
sg64
(lp4777
S'http://www.web2py.com/book'
p4778
asbasbasbag57
(g73
g59
NtRp4779
(dp4780
g62
(dp4781
sg71
g4737
sg64
(lp4782
g57
(g78
g59
NtRp4783
(dp4784
g62
(dp4785
sg71
g4779
sg64
(lp4786
g57
(g58
g59
NtRp4787
(dp4788
g62
(dp4789
g70
I1
ssg71
g4783
sg64
(lp4790
(lp4791
(g4369
(S's\x07\x00\x00\x00Preface'
tRp4792
I00
S'http://www.web2py.com/book/default/chapter/00'
p4793
tp4794
a(g4369
(S's\x0c\x00\x00\x00Introduction'
tRp4795
I00
S'http://www.web2py.com/book/default/chapter/01'
p4796
tp4797
a(g4369
(S's\x06\x00\x00\x00Python'
tRp4798
I00
S'http://www.web2py.com/book/default/chapter/02'
p4799
tp4800
a(g4369
(S's\x08\x00\x00\x00Overview'
tRp4801
I00
S'http://www.web2py.com/book/default/chapter/03'
p4802
tp4803
a(g4369
(S's\x08\x00\x00\x00The Core'
tRp4804
I00
S'http://www.web2py.com/book/default/chapter/04'
p4805
tp4806
a(g4369
(S's\t\x00\x00\x00The Views'
tRp4807
I00
S'http://www.web2py.com/book/default/chapter/05'
p4808
tp4809
a(g4369
(S's\x08\x00\x00\x00Database'
tRp4810
I00
S'http://www.web2py.com/book/default/chapter/06'
p4811
tp4812
a(g4369
(S's\x14\x00\x00\x00Forms and Validators'
tRp4813
I00
S'http://www.web2py.com/book/default/chapter/07'
p4814
tp4815
a(g4369
(S's\r\x00\x00\x00Email and SMS'
tRp4816
I00
S'http://www.web2py.com/book/default/chapter/08'
p4817
tp4818
a(g4369
(S's\x0e\x00\x00\x00Access Control'
tRp4819
I00
S'http://www.web2py.com/book/default/chapter/09'
p4820
tp4821
a(g4369
(S's\x08\x00\x00\x00Services'
tRp4822
I00
S'http://www.web2py.com/book/default/chapter/10'
p4823
tp4824
a(g4369
(S's\x0c\x00\x00\x00Ajax Recipes'
tRp4825
I00
S'http://www.web2py.com/book/default/chapter/11'
p4826
tp4827
a(g4369
(S's\x16\x00\x00\x00Components and Plugins'
tRp4828
I00
S'http://www.web2py.com/book/default/chapter/12'
p4829
tp4830
a(g4369
(S's\x12\x00\x00\x00Deployment Recipes'
tRp4831
I00
S'http://www.web2py.com/book/default/chapter/13'
p4832
tp4833
a(g4369
(S's\r\x00\x00\x00Other Recipes'
tRp4834
I00
S'http://www.web2py.com/book/default/chapter/14'
p4835
tp4836
a(g4369
(S's\r\x00\x00\x00Buy this book'
tRp4837
I00
S'http://stores.lulu.com/web2py'
p4838
tp4839
aasbasbasbasbasbasbasbag57
(g73
g59
NtRp4840
(dp4841
g62
(dp4842
sg71
g4482
sg64
(lp4843
g57
(g78
g59
NtRp4844
(dp4845
g62
(dp4846
sg71
g4840
sg64
(lp4847
g57
(g58
g59
NtRp4848
(dp4849
g62
(dp4850
g70
I2
ssg71
g4844
sg64
(lp4851
g57
(g66
g59
NtRp4852
(dp4853
g62
(dp4854
g70
I1
ssg71
Nsg64
(lp4855
g57
(g73
g59
NtRp4856
(dp4857
g62
(dp4858
sg71
g4852
sg64
(lp4859
g57
(g78
g59
NtRp4860
(dp4861
g62
(dp4862
sg71
g4856
sg64
(lp4863
g57
(g58
g59
NtRp4864
(dp4865
g62
(dp4866
g70
I1
ssg71
g4860
sg64
(lp4867
g4369
(S's\t\x00\x00\x00Community'
tRp4868
asbasbasbag57
(g73
g59
NtRp4869
(dp4870
g62
(dp4871
sg71
g4852
sg64
(lp4872
g57
(g78
g59
NtRp4873
(dp4874
g62
(dp4875
sg71
g4869
sg64
(lp4876
g57
(g58
g59
NtRp4877
(dp4878
g62
(dp4879
g70
I1
ssg71
g4873
sg64
(lp4880
I00
asbasbasbag57
(g73
g59
NtRp4881
(dp4882
g62
(dp4883
sg71
g4852
sg64
(lp4884
g57
(g78
g59
NtRp4885
(dp4886
g62
(dp4887
sg71
g4881
sg64
(lp4888
g57
(g58
g59
NtRp4889
(dp4890
g62
(dp4891
g70
I1
ssg71
g4885
sg64
(lp4892
Nasbasbasbag57
(g73
g59
NtRp4893
(dp4894
g62
(dp4895
sg71
g4852
sg64
(lp4896
g57
(g78
g59
NtRp4897
(dp4898
g62
(dp4899
sg71
g4893
sg64
(lp4900
g57
(g58
g59
NtRp4901
(dp4902
g62
(dp4903
g70
I1
ssg71
g4897
sg64
(lp4904
(lp4905
(g4369
(S's\x06\x00\x00\x00Groups'
tRp4906
I00
S'http://www.web2py.com/examples/default/usergroups'
p4907
tp4908
a(g4369
(S's\x07\x00\x00\x00Twitter'
tRp4909
I00
S'http://twitter.com/web2py'
p4910
tp4911
a(g4369
(S's\t\x00\x00\x00Live Chat'
tRp4912
I00
S'http://webchat.freenode.net/?channels=web2py'
p4913
tp4914
aasbasbasbasbasbasbasbag57
(g73
g59
NtRp4915
(dp4916
g62
(dp4917
sg71
g4482
sg64
(lp4918
g57
(g78
g59
NtRp4919
(dp4920
g62
(dp4921
sg71
g4915
sg64
(lp4922
g57
(g58
g59
NtRp4923
(dp4924
g62
(dp4925
g70
I2
ssg71
g4919
sg64
(lp4926
g57
(g66
g59
NtRp4927
(dp4928
g62
(dp4929
g70
I1
ssg71
Nsg64
(lp4930
g57
(g73
g59
NtRp4931
(dp4932
g62
(dp4933
sg71
g4927
sg64
(lp4934
g57
(g78
g59
NtRp4935
(dp4936
g62
(dp4937
sg71
g4931
sg64
(lp4938
g57
(g58
g59
NtRp4939
(dp4940
g62
(dp4941
g70
I1
ssg71
g4935
sg64
(lp4942
g4369
(S's\x07\x00\x00\x00Plugins'
tRp4943
asbasbasbag57
(g73
g59
NtRp4944
(dp4945
g62
(dp4946
sg71
g4927
sg64
(lp4947
g57
(g78
g59
NtRp4948
(dp4949
g62
(dp4950
sg71
g4944
sg64
(lp4951
g57
(g58
g59
NtRp4952
(dp4953
g62
(dp4954
g70
I1
ssg71
g4948
sg64
(lp4955
I00
asbasbasbag57
(g73
g59
NtRp4956
(dp4957
g62
(dp4958
sg71
g4927
sg64
(lp4959
g57
(g78
g59
NtRp4960
(dp4961
g62
(dp4962
sg71
g4956
sg64
(lp4963
g57
(g58
g59
NtRp4964
(dp4965
g62
(dp4966
g70
I1
ssg71
g4960
sg64
(lp4967
Nasbasbasbag57
(g73
g59
NtRp4968
(dp4969
g62
(dp4970
sg71
g4927
sg64
(lp4971
g57
(g78
g59
NtRp4972
(dp4973
g62
(dp4974
sg71
g4968
sg64
(lp4975
g57
(g58
g59
NtRp4976
(dp4977
g62
(dp4978
g70
I1
ssg71
g4972
sg64
(lp4979
(lp4980
(S'plugin_wiki'
p4981
I00
S'http://web2py.com/examples/default/download'
p4982
tp4983
a(g4369
(S's\r\x00\x00\x00Other Plugins'
tRp4984
I00
g4714
tp4985
a(g4369
(S's\x0e\x00\x00\x00Layout Plugins'
tRp4986
I00
g4717
tp4987
aasbasbasbasbasbasbasbasbasbasbasbasbasbasbasbasbasbasbasbag57
(g73
g59
NtRp4988
(dp4989
g62
(dp4990
sg71
g3835
sg64
(lp4991
g57
(g78
g59
NtRp4992
(dp4993
g62
(dp4994
g82
g83
ssg71
g4988
sg64
(lp4995
S'meta'
p4996
asbag57
(g78
g59
NtRp4997
(dp4998
g62
(dp4999
g89
g90
ssg71
g4988
sg64
(lp5000
S':'
asbag57
(g78
g59
NtRp5001
(dp5002
g62
(dp5003
sg71
g4988
sg64
(lp5004
g57
(g58
g59
NtRp5005
(dp5006
g62
(dp5007
g70
I5
ssg71
g5001
sg64
(lp5008
g57
(g66
g59
NtRp5009
(dp5010
g62
(dp5011
g70
I4
ssg71
Nsg64
(lp5012
g57
(g73
g59
NtRp5013
(dp5014
g62
(dp5015
sg71
g5009
sg64
(lp5016
g57
(g78
g59
NtRp5017
(dp5018
g62
(dp5019
g82
g83
ssg71
g5013
sg64
(lp5020
S'author'
p5021
asbag57
(g78
g59
NtRp5022
(dp5023
g62
(dp5024
g89
g90
ssg71
g5013
sg64
(lp5025
S':'
asbag57
(g78
g59
NtRp5026
(dp5027
g62
(dp5028
sg71
g5013
sg64
(lp5029
g57
(g58
g59
NtRp5030
(dp5031
g62
(dp5032
g70
I4
ssg71
g5026
sg64
(lp5033
S'Your Name <you@example.com>'
p5034
asbasbasbag57
(g73
g59
NtRp5035
(dp5036
g62
(dp5037
sg71
g5009
sg64
(lp5038
g57
(g78
g59
NtRp5039
(dp5040
g62
(dp5041
g82
g83
ssg71
g5035
sg64
(lp5042
S'description'
p5043
asbag57
(g78
g59
NtRp5044
(dp5045
g62
(dp5046
g89
g90
ssg71
g5035
sg64
(lp5047
S':'
asbag57
(g78
g59
NtRp5048
(dp5049
g62
(dp5050
sg71
g5035
sg64
(lp5051
g57
(g58
g59
NtRp5052
(dp5053
g62
(dp5054
g70
I4
ssg71
g5048
sg64
(lp5055
S'a cool new app'
p5056
asbasbasbag57
(g73
g59
NtRp5057
(dp5058
g62
(dp5059
sg71
g5009
sg64
(lp5060
g57
(g78
g59
NtRp5061
(dp5062
g62
(dp5063
g82
g83
ssg71
g5057
sg64
(lp5064
S'generator'
p5065
asbag57
(g78
g59
NtRp5066
(dp5067
g62
(dp5068
g89
g90
ssg71
g5057
sg64
(lp5069
S':'
asbag57
(g78
g59
NtRp5070
(dp5071
g62
(dp5072
sg71
g5057
sg64
(lp5073
g57
(g58
g59
NtRp5074
(dp5075
g62
(dp5076
g70
I4
ssg71
g5070
sg64
(lp5077
S'Web2py Web Framework'
p5078
asbasbasbag57
(g73
g59
NtRp5079
(dp5080
g62
(dp5081
sg71
g5009
sg64
(lp5082
g57
(g78
g59
NtRp5083
(dp5084
g62
(dp5085
g82
g83
ssg71
g5079
sg64
(lp5086
S'keywords'
p5087
asbag57
(g78
g59
NtRp5088
(dp5089
g62
(dp5090
g89
g90
ssg71
g5079
sg64
(lp5091
S':'
asbag57
(g78
g59
NtRp5092
(dp5093
g62
(dp5094
sg71
g5079
sg64
(lp5095
g57
(g58
g59
NtRp5096
(dp5097
g62
(dp5098
g70
I4
ssg71
g5092
sg64
(lp5099
S'web2py, python, framework'
p5100
asbasbasbasbasbasbasbag57
(g73
g59
NtRp5101
(dp5102
g62
(dp5103
sg71
g3835
sg64
(lp5104
g57
(g78
g59
NtRp5105
(dp5106
g62
(dp5107
g82
g83
ssg71
g5101
sg64
(lp5108
S'models_to_run'
p5109
asbag57
(g78
g59
NtRp5110
(dp5111
g62
(dp5112
g89
g90
ssg71
g5101
sg64
(lp5113
S':'
asbag57
(g78
g59
NtRp5114
(dp5115
g62
(dp5116
sg71
g5101
sg64
(lp5117
g57
(g58
g59
NtRp5118
(dp5119
g62
(dp5120
g70
I5
ssg71
g5114
sg64
(lp5121
g57
(g66
g59
NtRp5122
(dp5123
g62
(dp5124
g70
I4
ssg71
Nsg64
(lp5125
g57
(g73
g59
NtRp5126
(dp5127
g62
(dp5128
sg71
g5122
sg64
(lp5129
g57
(g78
g59
NtRp5130
(dp5131
g62
(dp5132
sg71
g5126
sg64
(lp5133
g57
(g58
g59
NtRp5134
(dp5135
g62
(dp5136
g70
I4
ssg71
g5130
sg64
(lp5137
S'^\\w+\\.py$'
p5138
asbasbasbag57
(g73
g59
NtRp5139
(dp5140
g62
(dp5141
sg71
g5122
sg64
(lp5142
g57
(g78
g59
NtRp5143
(dp5144
g62
(dp5145
sg71
g5139
sg64
(lp5146
g57
(g58
g59
NtRp5147
(dp5148
g62
(dp5149
g70
I4
ssg71
g5143
sg64
(lp5150
S'^default/\\w+\\.py$'
p5151
asbasbasbag57
(g73
g59
NtRp5152
(dp5153
g62
(dp5154
sg71
g5122
sg64
(lp5155
g57
(g78
g59
NtRp5156
(dp5157
g62
(dp5158
sg71
g5152
sg64
(lp5159
g57
(g58
g59
NtRp5160
(dp5161
g62
(dp5162
g70
I4
ssg71
g5156
sg64
(lp5163
S'^default/user_homepage/\\w+\\.py$'
p5164
asbasbasbasbasbasbasbag57
(g73
g59
NtRp5165
(dp5166
g62
(dp5167
sg71
g3835
sg64
(lp5168
g57
(g78
g59
NtRp5169
(dp5170
g62
(dp5171
g82
g83
ssg71
g5165
sg64
(lp5172
S'postprocessing'
p5173
asbag57
(g78
g59
NtRp5174
(dp5175
g62
(dp5176
g89
g90
ssg71
g5165
sg64
(lp5177
S':'
asbag57
(g78
g59
NtRp5178
(dp5179
g62
(dp5180
sg71
g5165
sg64
(lp5181
g57
(g58
g59
NtRp5182
(dp5183
g62
(dp5184
g70
I5
ssg71
g5178
sg64
(lp5185
g57
(g66
g59
NtRp5186
(dp5187
g62
(dp5188
g70
I4
ssg71
Nsg64
(lp5189
sbasbasbasbag57
(g73
g59
NtRp5190
(dp5191
g62
(dp5192
sg71
g3835
sg64
(lp5193
g57
(g78
g59
NtRp5194
(dp5195
g62
(dp5196
g82
g83
ssg71
g5190
sg64
(lp5197
S'session_cookie_expires'
p5198
asbag57
(g78
g59
NtRp5199
(dp5200
g62
(dp5201
g89
g90
ssg71
g5190
sg64
(lp5202
S':'
asbag57
(g78
g59
NtRp5203
(dp5204
g62
(dp5205
sg71
g5190
sg64
(lp5206
g57
(g58
g59
NtRp5207
(dp5208
g62
(dp5209
g70
I5
ssg71
g5203
sg64
(lp5210
S'None'
p5211
asbasbasbag57
(g73
g59
NtRp5212
(dp5213
g62
(dp5214
sg71
g3835
sg64
(lp5215
g57
(g78
g59
NtRp5216
(dp5217
g62
(dp5218
g82
g83
ssg71
g5212
sg64
(lp5219
S'session_data_name'
p5220
asbag57
(g78
g59
NtRp5221
(dp5222
g62
(dp5223
g89
g90
ssg71
g5212
sg64
(lp5224
S':'
asbag57
(g78
g59
NtRp5225
(dp5226
g62
(dp5227
sg71
g5212
sg64
(lp5228
g57
(g58
g59
NtRp5229
(dp5230
g62
(dp5231
g70
I5
ssg71
g5225
sg64
(lp5232
S'session_data_assignment2'
p5233
asbasbasbag57
(g73
g59
NtRp5234
(dp5235
g62
(dp5236
sg71
g3835
sg64
(lp5237
g57
(g78
g59
NtRp5238
(dp5239
g62
(dp5240
g82
g83
ssg71
g5234
sg64
(lp5241
S'session_file'
p5242
asbag57
(g78
g59
NtRp5243
(dp5244
g62
(dp5245
g89
g90
ssg71
g5234
sg64
(lp5246
S':'
asbag57
(g78
g59
NtRp5247
(dp5248
g62
(dp5249
sg71
g5234
sg64
(lp5250
g57
(g58
g59
NtRp5251
(dp5252
g62
(dp5253
g70
I5
ssg71
g5247
sg64
(lp5254
S"<open file '/home/aditi/Desktop/web2py/applications/assignment2/sessions/127.0.0.1-8d570691-9fef-4051-bb01-b4497c1dfc12', mode 'rb+' at 0x99ffd30>"
p5255
asbasbasbag57
(g73
g59
NtRp5256
(dp5257
g62
(dp5258
sg71
g3835
sg64
(lp5259
g57
(g78
g59
NtRp5260
(dp5261
g62
(dp5262
g82
g83
ssg71
g5256
sg64
(lp5263
S'session_filename'
p5264
asbag57
(g78
g59
NtRp5265
(dp5266
g62
(dp5267
g89
g90
ssg71
g5256
sg64
(lp5268
S':'
asbag57
(g78
g59
NtRp5269
(dp5270
g62
(dp5271
sg71
g5256
sg64
(lp5272
g57
(g58
g59
NtRp5273
(dp5274
g62
(dp5275
g70
I5
ssg71
g5269
sg64
(lp5276
S'/home/aditi/Desktop/web2py/applications/assignment2/sessions/127.0.0.1-8d570691-9fef-4051-bb01-b4497c1dfc12'
p5277
asbasbasbag57
(g73
g59
NtRp5278
(dp5279
g62
(dp5280
sg71
g3835
sg64
(lp5281
g57
(g78
g59
NtRp5282
(dp5283
g62
(dp5284
g82
g83
ssg71
g5278
sg64
(lp5285
S'session_id'
p5286
asbag57
(g78
g59
NtRp5287
(dp5288
g62
(dp5289
g89
g90
ssg71
g5278
sg64
(lp5290
S':'
asbag57
(g78
g59
NtRp5291
(dp5292
g62
(dp5293
sg71
g5278
sg64
(lp5294
g57
(g58
g59
NtRp5295
(dp5296
g62
(dp5297
g70
I5
ssg71
g5291
sg64
(lp5298
g475
asbasbasbag57
(g73
g59
NtRp5299
(dp5300
g62
(dp5301
sg71
g3835
sg64
(lp5302
g57
(g78
g59
NtRp5303
(dp5304
g62
(dp5305
g82
g83
ssg71
g5299
sg64
(lp5306
S'session_id_name'
p5307
asbag57
(g78
g59
NtRp5308
(dp5309
g62
(dp5310
g89
g90
ssg71
g5299
sg64
(lp5311
S':'
asbag57
(g78
g59
NtRp5312
(dp5313
g62
(dp5314
sg71
g5299
sg64
(lp5315
g57
(g58
g59
NtRp5316
(dp5317
g62
(dp5318
g70
I5
ssg71
g5312
sg64
(lp5319
g3892
asbasbasbag57
(g73
g59
NtRp5320
(dp5321
g62
(dp5322
sg71
g3835
sg64
(lp5323
g57
(g78
g59
NtRp5324
(dp5325
g62
(dp5326
g82
g83
ssg71
g5320
sg64
(lp5327
S'session_locked'
p5328
asbag57
(g78
g59
NtRp5329
(dp5330
g62
(dp5331
g89
g90
ssg71
g5320
sg64
(lp5332
S':'
asbag57
(g78
g59
NtRp5333
(dp5334
g62
(dp5335
sg71
g5320
sg64
(lp5336
g57
(g58
g59
NtRp5337
(dp5338
g62
(dp5339
g70
I5
ssg71
g5333
sg64
(lp5340
g1804
asbasbasbag57
(g73
g59
NtRp5341
(dp5342
g62
(dp5343
sg71
g3835
sg64
(lp5344
g57
(g78
g59
NtRp5345
(dp5346
g62
(dp5347
g82
g83
ssg71
g5341
sg64
(lp5348
S'session_new'
p5349
asbag57
(g78
g59
NtRp5350
(dp5351
g62
(dp5352
g89
g90
ssg71
g5341
sg64
(lp5353
S':'
asbag57
(g78
g59
NtRp5354
(dp5355
g62
(dp5356
sg71
g5341
sg64
(lp5357
g57
(g58
g59
NtRp5358
(dp5359
g62
(dp5360
g70
I5
ssg71
g5354
sg64
(lp5361
g100
asbasbasbag57
(g73
g59
NtRp5362
(dp5363
g62
(dp5364
sg71
g3835
sg64
(lp5365
g57
(g78
g59
NtRp5366
(dp5367
g62
(dp5368
g82
g83
ssg71
g5362
sg64
(lp5369
S'session_storage_type'
p5370
asbag57
(g78
g59
NtRp5371
(dp5372
g62
(dp5373
g89
g90
ssg71
g5362
sg64
(lp5374
S':'
asbag57
(g78
g59
NtRp5375
(dp5376
g62
(dp5377
sg71
g5362
sg64
(lp5378
g57
(g58
g59
NtRp5379
(dp5380
g62
(dp5381
g70
I5
ssg71
g5375
sg64
(lp5382
g3268
asbasbasbag57
(g73
g59
NtRp5383
(dp5384
g62
(dp5385
sg71
g3835
sg64
(lp5386
g57
(g78
g59
NtRp5387
(dp5388
g62
(dp5389
g82
g83
ssg71
g5383
sg64
(lp5390
S'status'
p5391
asbag57
(g78
g59
NtRp5392
(dp5393
g62
(dp5394
g89
g90
ssg71
g5383
sg64
(lp5395
S':'
asbag57
(g78
g59
NtRp5396
(dp5397
g62
(dp5398
sg71
g5383
sg64
(lp5399
g57
(g58
g59
NtRp5400
(dp5401
g62
(dp5402
g70
I5
ssg71
g5396
sg64
(lp5403
S'200'
p5404
asbasbasbag57
(g73
g59
NtRp5405
(dp5406
g62
(dp5407
sg71
g3835
sg64
(lp5408
g57
(g78
g59
NtRp5409
(dp5410
g62
(dp5411
g82
g83
ssg71
g5405
sg64
(lp5412
S'subtitle'
p5413
asbag57
(g78
g59
NtRp5414
(dp5415
g62
(dp5416
g89
g90
ssg71
g5405
sg64
(lp5417
S':'
asbag57
(g78
g59
NtRp5418
(dp5419
g62
(dp5420
sg71
g5405
sg64
(lp5421
g57
(g58
g59
NtRp5422
(dp5423
g62
(dp5424
g70
I5
ssg71
g5418
sg64
(lp5425
g4369
(S's\r\x00\x00\x00customize me!'
tRp5426
asbasbasbag57
(g73
g59
NtRp5427
(dp5428
g62
(dp5429
sg71
g3835
sg64
(lp5430
g57
(g78
g59
NtRp5431
(dp5432
g62
(dp5433
g82
g83
ssg71
g5427
sg64
(lp5434
S'title'
p5435
asbag57
(g78
g59
NtRp5436
(dp5437
g62
(dp5438
g89
g90
ssg71
g5427
sg64
(lp5439
S':'
asbag57
(g78
g59
NtRp5440
(dp5441
g62
(dp5442
sg71
g5427
sg64
(lp5443
g57
(g58
g59
NtRp5444
(dp5445
g62
(dp5446
g70
I5
ssg71
g5440
sg64
(lp5447
S'Assignment2'
p5448
asbasbasbag57
(g73
g59
NtRp5449
(dp5450
g62
(dp5451
sg71
g3835
sg64
(lp5452
g57
(g78
g59
NtRp5453
(dp5454
g62
(dp5455
g82
g83
ssg71
g5449
sg64
(lp5456
S'view'
p5457
asbag57
(g78
g59
NtRp5458
(dp5459
g62
(dp5460
g89
g90
ssg71
g5449
sg64
(lp5461
S':'
asbag57
(g78
g59
NtRp5462
(dp5463
g62
(dp5464
sg71
g5449
sg64
(lp5465
g57
(g58
g59
NtRp5466
(dp5467
g62
(dp5468
g70
I5
ssg71
g5462
sg64
(lp5469
S'default/user_homepage.html'
p5470
asbasbasbasbasbsS'locals'
p5471
(dp5472
S'self'
p5473
S'<DAL uri="sqlite://storage.sqlite">'
p5474
sS'key'
p5475
S"'news_item'"
p5476
sssS'traceback'
p5477
S'Traceback (most recent call last):\n  File "/home/aditi/Desktop/web2py/gluon/restricted.py", line 212, in restricted\n    exec ccode in environment\n  File "/home/aditi/Desktop/web2py/applications/assignment2/controllers/default.py", line 287, in <module>\n  File "/home/aditi/Desktop/web2py/gluon/globals.py", line 193, in <lambda>\n    self._caller = lambda f: f()\n  File "/home/aditi/Desktop/web2py/applications/assignment2/controllers/default.py", line 183, in user_homepage\n    n=db().select(db.news_item.ALL,orderby=~db.newsitem.points)\n  File "/home/aditi/Desktop/web2py/gluon/dal.py", line 7255, in __getattr__\n    return ogetattr(self, key)\nAttributeError: \'DAL\' object has no attribute \'news_item\'\n'
p5478
s.