(dp1
S'output'
p2
S"<type 'exceptions.TypeError'> unsupported operand type(s) for &: 'int' and 'Field'"
p3
sS'layer'
p4
S'/home/aditi/Desktop/web2py/applications/assignment2/controllers/default.py'
p5
sS'code'
p6
S'# -*- coding: utf-8 -*-\n# this file is released under public domain and you can use without limitations\n\n#########################################################################\n## This is a samples controller\n## - index is the default action of any application\n## - user is required for authentication and authorization\n## - download is for downloading files uploaded in the db (does streaming)\n## - call exposes all registered services (none by default)\n#########################################################################\nimport datetime\n\n@auth.requires_login()\ndef index():\n    """\n    example action using the internationalization operator T and flash\n    rendered by views/default/index.html or views/generic.html\n\n    if you need a simple wiki simple replace the two lines below with:\n    return auth.wiki()\n    """\n    a=auth.user.id\n    b=db(db.auth_user.id==a).select(db.auth_user.username,db.auth_user.account_type)\n    if b[0][\'account_type\']==\'user\':\n        redirect(URL(r=request,f=\'user_homepage\'))\n    elif b[0][\'account_type\']==\'admin\':\n        redirect(URL(r=request,f=\'intermediate\'))\n    else:\n        response.flash="You may not be having an account"\n    return locals()\n\ndef user_homepage():\n    a=auth.user.id\n    f=db(db.auth_user.id==a).select(db.auth_user.first_name)\n    l=db(db.auth_user.id==a).select(db.auth_user.last_name)\n    c=db().select(db.category.name)\n    temp=[]\n    for i in range(len(c)):\n        temp.append(c[i][\'name\'])\n    form=SQLFORM.factory(db.Field(\'category\',\'string\',requires=IS_IN_SET(temp),required=True,label=\'Enter category\'),\n                        Field(\'heading\',\'string\',label=\'Enter heading\',required=True),\n                        Field(\'choice\',\'string\',requires=IS_IN_SET([\'article\',\'video\']),required=True,default=\'article\'),\n                        Field(\'url\',\'string\',requires=IS_URL(),label=\'Enter URL\',required=True))\n    if(form.accepts(request.vars,session)):\n        db.newsitem.insert(userid=a,category=form.vars.category,choice=form.vars.choice,heading=form.vars.heading,url=form.vars.url,points=100,likes=0,dislikes=0,dt=datetime.datetime.today())\n        response.flash=\'News item successfully added\'\n        redirect(URL(r=request,f=\'user_homepage\'))\n    n=db().select(db.newsitem.ALL,orderby=~db.newsitem.points)\n    deleteform=[]\n    editform=[]\n    likeform=[]\n    dislikeform=[]\n    totallike=[]\n    totaldislike=[]\n    dislikes=[]\n    likes=[]\n    commentform=[]\n    for j in range(len(n)):\n        p=n[j][\'id\']\n        likes.append(0)\n        dislikes.append(0)\n        L=db(db.likedposts.postid==p).select(db.likedposts.userid)\n        D=db(db.dislikedposts.postid==p).select(db.dislikedposts.userid)\n        for k in range(len(L)):\n            likes[j]+=1\n        for k in range(len(D)):\n            dislikes[j]+=1\n        if n[j][\'userid\']==a:\n            deleteform.append(SQLFORM.factory(submit_button="Delete post"))\n            if deleteform[j].process(formname=\'deleteform[%d]\' % j).accepted:\n                db(db.newsitem.id==p).delete()\n                db(db.likedposts.postid==p).delete()\n                db(db.dislikedposts.postid==p).delete()\n                db(db.comments.postid==p).delete()\n                redirect(URL(r=request,f=\'user_homepage\'))\n                response.flash="Successfully deleted post"\n            editform.append(SQLFORM.factory(submit_button="Edit post"))\n            likeform.append(SQLFORM.factory(submit_button="Like post"))\n            dislikeform.append(SQLFORM.factory(submit_button="Dislike post"))\n            commentform.append(SQLFORM.factory(db.Field(\'cmt\',\'string\',required=True,label=\'Comment\'),\n                                submit_button="Post comment"))\n            if editform[j].process(formname=\'editform[%d]\'%j).accepted:\n                redirect(URL(r=request,f=\'changedetails?id=%d\'%p))\n            if likeform[j].process(formname=\'likeform[%d]\'%j).accepted:\n                flag=0\n                lk=db(db.likedposts.postid==p).select(db.likedposts.ALL)\n                dlk=db(db.dislikedposts.postid==p).select(db.dislikedposts.ALL)\n                for k in range(len(lk)):\n                    if lk[k][\'userid\']==a and lk[k][\'postid\']==p:\n                        flag=1\n                        likes[j]-=1\n                        xyz=db(db.likedposts.postid==p & db.likedposts.userid==a).select(db.likedposts.id)\n                        db(db.likedposts.id==xyz[0][\'id\']).delete()\n                        db(db.newsitem.id==p).update(points=100+(5*likes[j])-(3*dislikes[j]))\n                for k in range(len(dlk)):\n                    flag=1\n                    if dlk[k][\'userid\']==a and dlk[k][\'postid\']==p:\n                        db.likedposts.insert(userid=a,postid=p)\n                        pt=db(db.newsitem.id==p).select(db.newsitem.points)\n                        db(db.dislikedposts.id==dlk[k][\'id\']).delete()\n                        response.flash="Successfully liked post"\n                        likes[j]+=1\n                        dislikes[j]-=1\n                        db(db.newsitem.id==p).update(points=100+(5*likes[j])-(3*dislikes[j]))\n                        redirect(URL(r=request,f=\'user_homepage\'))\n                if flag==0:\n                    db.likedposts.insert(userid=a,postid=p)\n                    pt=db(db.newsitem.id==p).select(db.newsitem.points)\n                    pts=pt[0][\'points\']\n                    likes[j]+=1\n                    db(db.newsitem==p).update(points=100+(5*likes[j])-(3*dislikes[j]))\n                    response.flash="Successfully liked post"\n                    redirect(URL(r=request,f=\'user_homepage\'))\n            if dislikeform[j].process(formname=\'dislikeform[%d]\'%j).accepted:\n                lk=db(db.likedposts.postid==p).select(db.likedposts.ALL)\n                dlk=db(db.dislikedposts.postid==p).select(db.dislikedposts.ALL)\n                flag=0\n                for k in range(len(dlk)):\n                    if dlk[k][\'userid\']==a and dlk[k][\'postid\']==p:\n                        flag=1\n                        response.flash="You have already disliked this post"\n                for k in range(len(lk)):\n                    if lk[k][\'postid\']==p and lk[k][\'userid\']==a:\n                        flag=1\n                        db.dislikedposts.insert(userid=a,postid=p)\n                        pt=db(db.newsitem.id==p).select(db.newsitem.points)\n                        pts=pt[0][\'points\']\n                        db(db.likedposts.id==lk[k][\'id\']).delete()\n                        likes[j]-=1\n                        dislikes[j]+=1\n                        db(db.newsitem.id==p).update(points=100+(5*likes[j])-(3*dislikes[j]))\n                        response.flash="Successfully disliked post"\n                        redirect(URL(r=request,f=\'user_homepage\'))\n                if flag==0:\n                    db.dislikedposts.insert(userid=a,postid=p)\n                    pt=db(db.newsitem.id==p).select(db.newsitem.points)\n                    pts=pt[0][\'points\']\n                    dislikes[j]+=1\n                    db(db.newsitem.id==p).update(points=100+(5*likes[j])-(3*dislikes[j]))\n                    response.flash="Succesfully disliked post"\n                    redirect(URL(r=request,f=\'user_homepage\'))\n            if commentform[j].process(formname=\'commentform[%d]\'%j).accepted:\n                db.comments.insert(userid=a,postid=p,cmt=commentform.vars.cmt)\n                response.flash="Your comment has been added"\n        else:\n            p=n[j][\'id\']\n            deleteform.append(SQLFORM.factory())\n            editform.append(SQLFORM.factory())\n            likeform.append(SQLFORM.factory(submit_button="Like post"))\n            dislikeform.append(SQLFORM.factory(submit_button="Dislike post"))\n            commentform.append(SQLFORM.factory(db.Field(\'cmt\',\'string\',required=True,label=\'Comment\'),\n                                submit_button="Post comment"))\n            if likeform[j].process(formname=\'likeform[%d]\'%j).accepted:\n                flag=0\n                lk=db(db.likedposts.postid==p).select(db.likedposts.ALL)\n                dlk=db(db.dislikedposts.postid==p).select(db.dislikedposts.ALL)\n                for k in range(len(lk)):\n                    if lk[k][\'userid\']==a and lk[k][\'postid\']==p:\n                        flag=1\n                        response.flash="You have already liked this post"\n                for k in range(len(dlk)):\n                    flag=1\n                    if dlk[k][\'userid\']==a and dlk[k][\'postid\']==p:\n                        db.likedposts.insert(userid=a,postid=p)\n                        pt=db(db.newsitem.id==p).select(db.newsitem.points)\n                        pts=pt[0][\'points\']\n                        db(db.dislikedposts.id==dlk[k][\'id\']).delete()\n                        likes[j]+=1\n                        dislikes[j]-=1\n                        db(db.newsitem.id==p).update(points=100+(5*likes[j])-(3*dislikes[j]))\n                        response.flash="Successfully liked post"\n                        redirect(URL(r=request,f=\'user_homepage\'))\n                if flag==0:\n                    db.likedposts.insert(userid=a,postid=p)\n                    pt=db(db.newsitem.id==p).select(db.newsitem.points)\n                    pts=pt[0][\'points\']\n                    likes[j]+=1\n                    db(db.newsitem.id==p).update(points=100+(5*likes[j])-(3*dislikes[j]))\n                    response.flash="Successfully liked post"\n                    redirect(URL(r=request,f=\'user_homepage\'))\n            if dislikeform[j].process(formname=\'dislikeform[%d]\'%j).accepted:\n                lk=db(db.likedposts.postid==p).select(db.likedposts.ALL)\n                dlk=db(db.dislikedposts.postid==p).select(db.dislikedposts.ALL)\n                flag=0\n                for k in range(len(dlk)):\n                    if dlk[k][\'userid\']==a and dlk[k][\'postid\']==p:\n                        flag=1\n                        response.flash="You have already disliked this post"\n                for k in range(len(lk)):\n                    if lk[k][\'postid\']==p and lk[k][\'userid\']==a:\n                        flag=1\n                        db.dislikedposts.insert(userid=a,postid=p)\n                        pt=db(db.newsitem.id==p).select(db.newsitem.points)\n                        pts=pt[0][\'points\']\n                        db(db.likedposts.id==lk[k][\'id\']).delete()\n                        likes[j]-=1\n                        dislikes[j]+=1\n                        db(db.newsitem.id==p).update(points=100+(5*likes[j])-(3*dislikes[j]))\n                        response.flash="Successfully disliked post"\n                        redirect(URL(r=request,f=\'user_homepage\'))\n                if flag==0:\n                    db.dislikedposts.insert(userid=a,postid=p)\n                    pt=db(db.newsitem.id==p).select(db.newsitem.points)\n                    pts=pt[0][\'points\']\n                    dislikes[j]+=1\n                    db(db.newsitem.id==p).update(points=100+(5*likes[j])-(3*dislikes[j]))\n                    response.flash="Successfully disliked post"\n                    redirect(URL(r=request,f=\'user_homepage\'))\n            if commentform[j].process(formname=\'commentform[%d]\'%j).accepted:\n                db.comments.insert(userid=a,postid=p,cmt=request.vars.cmt)\n                response.flash="Your comment has been added"\n    cm=db().select(db.comments.ALL)\n    us=db().select(db.auth_user.ALL)\n    return locals()\n\ndef changedetails():\n    p=request.vars.id\n    x=db(db.newsitem.id==p).select(db.newsitem.ALL)\n    c=db().select(db.category.ALL)\n    temp=[]\n    for i in range(len(c)):\n        temp.append(c[i][\'name\'])\n    form=SQLFORM.factory(db.Field(\'category\',\'string\',requires=IS_IN_SET(temp),required=True,default=x[0][\'category\']),\n                        Field(\'heading\',\'string\',required=True,default=x[0][\'heading\']),\n                        Field(\'choice\',\'string\',requires=IS_IN_SET([\'article\',\'video\']),required=True,default=x[0][\'choice\']),\n                        Field(\'url\',\'string\',requires=IS_URL(),required=True,default=x[0][\'url\']))\n    if(form.accepts(request.vars,session)):\n        db(db.newsitem.id==p).update(category=form.vars.category,heading=form.vars.heading,choice=form.vars.choice,url=form.vars.url)\n        redirect(URL(r=request,f=\'user_homepage\'))\n        response.flash="Your news item has been updated successfully!"\n    return locals()\n\ndef intermediate():\n    form=SQLFORM.factory(db.Field(\'key\',\'password\',readable=False,required=True))\n    if(form.accepts(request.vars,session)):\n        if form.vars.key==\'ab%k20*(kd12$\':\n            redirect(URL(r=request,f=\'admin_homepage\'))\n        else:\n            response.flash="Wrong key entered."\n    return locals()\n\ndef admin_homepage():\n    a=auth.user.id\n    count=0\n    f=db(db.auth_user.id==a).select(db.auth_user.first_name)\n    l=db(db.auth_user.id==a).select(db.auth_user.last_name)\n    form1=SQLFORM.factory(db.Field(\'category\',\'string\',label=\'Enter category\',required=True))\n    if(form1.accepts(request.vars,session)):\n        db.category.insert(name=form1.vars.category)\n        response.flash=\'New category successfully added.\'\n    n=db().select(db.newsitem.ALL,orderby=~db.newsitem.points)\n    c=db().select(db.category.name)\n    form2=[]\n    for i in range(len(n)):\n        form2.append(SQLFORM.factory(submit_button="Delete post"))\n        if form2[i].process(formname=\'form2[%d]\'%i).accepted:\n            db(db.newsitem.id==n[i][\'id\']).delete()\n            db(db.likedposts.postid==n[i][\'id\']).delete()\n            db(db.dislikedposts.postid==n[i][\'id\']).delete()\n            db(db.comments.postid==n[i][\'id\']).delete()\n    cm=db().select(db.comments.ALL)\n    us=db().select(db.auth_user.ALL) \n    form=SQLFORM.factory(submit_button="GO")   \n    if form.process(formname=\'form\').accepted:\n        redirect(URL(r=request,f=\'delete_record\'))\n    return locals()\n\ndef delete_record():\n    a=auth.user.id\n    records=db().select(db.auth_user.ALL)\n    form=[]\n    for i in range(len(records)):\n        p=records[i][\'id\']\n        form.append(SQLFORM.factory(submit_button="Delete user"))\n        if form[i].process(formname=\'form[%d]\'%i).accepted:\n            redirect(URL(r=request,f=\'confirmation_page?id=%d\'%p))\n    return locals()\n    \ndef confirmation_page():\n    p=request.vars.id\n    x=db(db.auth_user.id==p).select(db.auth_user.ALL)\n    f1=SQLFORM.factory(submit_button="Yes")\n    f2=SQLFORM.factory(submit_button="No")\n    if f1.process(formname=\'f1\').accepted:\n        db(db.auth_user.id==p).delete()\n        db(db.newsitem.userid==p).delete()\n        db(db.likedposts.userid==p).delete()\n        db(db.dislikedposts.userid==p).delete()\n        db(db.comments.userid==p).delete()\n        redirect(URL(r=request,f=\'admin_homepage\'))\n    elif f2.process(formname=\'f2\').accepted:\n        redirect(URL(r=request,f=\'delete_record\'))\n    return locals()\n\ndef user():\n    """\n    exposes:\n    http://..../[app]/default/user/login\n    http://..../[app]/default/user/logout\n    http://..../[app]/default/user/register\n    http://..../[app]/default/user/profile\n    http://..../[app]/default/user/retrieve_password\n    http://..../[app]/default/user/change_password\n    use @auth.requires_login()\n        @auth.requires_membership(\'group name\')\n        @auth.requires_permission(\'read\',\'table name\',record_id)\n    to decorate functions that need access control\n    """\n    return dict(form=auth())\n\n\ndef download():\n    """\n    allows downloading of uploaded files\n    http://..../[app]/default/download/[filename]\n    """\n    return response.download(request, db)\n\n\ndef call():\n    """\n    exposes services. for example:\n    http://..../[app]/default/call/jsonrpc\n    decorate with @services.jsonrpc the functions to expose\n    supports xml, json, xmlrpc, jsonrpc, amfrpc, rss, csv\n    """\n    return service()\n\n\n@auth.requires_signature()\ndef data():\n    """\n    http://..../[app]/default/data/tables\n    http://..../[app]/default/data/create/[table]\n    http://..../[app]/default/data/read/[table]/[id]\n    http://..../[app]/default/data/update/[table]/[id]\n    http://..../[app]/default/data/delete/[table]/[id]\n    http://..../[app]/default/data/select/[table]\n    http://..../[app]/default/data/search/[table]\n    but URLs must be signed, i.e. linked with\n      A(\'table\',_href=URL(\'data/tables\',user_signature=True))\n    or with the signed load operator\n      LOAD(\'default\',\'data.load\',args=\'tables\',ajax=True,user_signature=True)\n    """\n    return dict(form=crud())\n\nresponse._vars=response._caller(user_homepage)\n'
p7
sS'snapshot'
p8
(dp9
S'exception'
p10
(dp11
S'__hash__'
p12
S"<method-wrapper '__hash__' of exceptions.TypeError object>"
p13
sS'__setattr__'
p14
S"<method-wrapper '__setattr__' of exceptions.TypeError object>"
p15
sS'__reduce_ex__'
p16
S'<built-in method __reduce_ex__ of exceptions.TypeError object>'
p17
sS'__getslice__'
p18
S"<method-wrapper '__getslice__' of exceptions.TypeError object>"
p19
sS'__getitem__'
p20
S"<method-wrapper '__getitem__' of exceptions.TypeError object>"
p21
sS'__setstate__'
p22
S'<built-in method __setstate__ of exceptions.TypeError object>'
p23
sS'__reduce__'
p24
S'<built-in method __reduce__ of exceptions.TypeError object>'
p25
sS'__str__'
p26
S"<method-wrapper '__str__' of exceptions.TypeError object>"
p27
sS'__format__'
p28
S'<built-in method __format__ of exceptions.TypeError object>'
p29
sS'__getattribute__'
p30
S"<method-wrapper '__getattribute__' of exceptions.TypeError object>"
p31
sS'__class__'
p32
S"<type 'exceptions.TypeError'>"
p33
sS'__unicode__'
p34
S'<built-in method __unicode__ of exceptions.TypeError object>'
p35
sS'__delattr__'
p36
S"<method-wrapper '__delattr__' of exceptions.TypeError object>"
p37
sS'__subclasshook__'
p38
S'<built-in method __subclasshook__ of type object>'
p39
sS'__repr__'
p40
S"<method-wrapper '__repr__' of exceptions.TypeError object>"
p41
sS'args'
p42
S'("unsupported operand type(s) for &: \'int\' and \'Field\'",)'
p43
sS'__dict__'
p44
S'{}'
p45
sS'__sizeof__'
p46
S'<built-in method __sizeof__ of exceptions.TypeError object>'
p47
sS'__doc__'
p48
S"'Inappropriate argument type.'"
p49
sS'__init__'
p50
S"<method-wrapper '__init__' of exceptions.TypeError object>"
p51
sS'__new__'
p52
S'<built-in method __new__ of type object>'
p53
ssS'evalue'
p54
S"unsupported operand type(s) for &: 'int' and 'Field'"
p55
sS'request'
p56
ccopy_reg
_reconstructor
p57
(cgluon.html
BEAUTIFY
p58
c__builtin__
object
p59
NtRp60
(dp61
S'attributes'
p62
(dp63
sS'components'
p64
(lp65
g57
(cgluon.html
TABLE
p66
g59
NtRp67
(dp68
g62
(dp69
S'level'
p70
I5
ssS'parent'
p71
Nsg64
(lp72
g57
(cgluon.html
TR
p73
g59
NtRp74
(dp75
g62
(dp76
sg71
g67
sg64
(lp77
g57
(cgluon.html
TD
p78
g59
NtRp79
(dp80
g62
(dp81
S'_style'
p82
S'font-weight:bold;vertical-align:top'
p83
ssg71
g74
sg64
(lp84
S'ajax'
p85
asbag57
(g78
g59
NtRp86
(dp87
g62
(dp88
S'_valign'
p89
S'top'
p90
ssg71
g74
sg64
(lp91
S':'
asbag57
(g78
g59
NtRp92
(dp93
g62
(dp94
sg71
g74
sg64
(lp95
g57
(g58
g59
NtRp96
(dp97
g62
(dp98
g70
I5
ssg71
g92
sg64
(lp99
S'False'
p100
asbasbasbag57
(g73
g59
NtRp101
(dp102
g62
(dp103
sg71
g67
sg64
(lp104
g57
(g78
g59
NtRp105
(dp106
g62
(dp107
g82
g83
ssg71
g101
sg64
(lp108
S'application'
p109
asbag57
(g78
g59
NtRp110
(dp111
g62
(dp112
g89
g90
ssg71
g101
sg64
(lp113
S':'
asbag57
(g78
g59
NtRp114
(dp115
g62
(dp116
sg71
g101
sg64
(lp117
g57
(g58
g59
NtRp118
(dp119
g62
(dp120
g70
I5
ssg71
g114
sg64
(lp121
S'assignment2'
p122
asbasbasbag57
(g73
g59
NtRp123
(dp124
g62
(dp125
sg71
g67
sg64
(lp126
g57
(g78
g59
NtRp127
(dp128
g62
(dp129
g82
g83
ssg71
g123
sg64
(lp130
g42
asbag57
(g78
g59
NtRp131
(dp132
g62
(dp133
g89
g90
ssg71
g123
sg64
(lp134
S':'
asbag57
(g78
g59
NtRp135
(dp136
g62
(dp137
sg71
g123
sg64
(lp138
g57
(g58
g59
NtRp139
(dp140
g62
(dp141
g70
I5
ssg71
g135
sg64
(lp142
g57
(g66
g59
NtRp143
(dp144
g62
(dp145
g70
I4
ssg71
Nsg64
(lp146
sbasbasbasbag57
(g73
g59
NtRp147
(dp148
g62
(dp149
sg71
g67
sg64
(lp150
g57
(g78
g59
NtRp151
(dp152
g62
(dp153
g82
g83
ssg71
g147
sg64
(lp154
S'body'
p155
asbag57
(g78
g59
NtRp156
(dp157
g62
(dp158
g89
g90
ssg71
g147
sg64
(lp159
S':'
asbag57
(g78
g59
NtRp160
(dp161
g62
(dp162
sg71
g147
sg64
(lp163
g57
(g58
g59
NtRp164
(dp165
g62
(dp166
g70
I5
ssg71
g160
sg64
(lp167
S"<open file '<fdopen>', mode 'w+b' at 0x89241d8>"
p168
asbasbasbag57
(g73
g59
NtRp169
(dp170
g62
(dp171
sg71
g67
sg64
(lp172
g57
(g78
g59
NtRp173
(dp174
g62
(dp175
g82
g83
ssg71
g169
sg64
(lp176
S'cid'
p177
asbag57
(g78
g59
NtRp178
(dp179
g62
(dp180
g89
g90
ssg71
g169
sg64
(lp181
S':'
asbag57
(g78
g59
NtRp182
(dp183
g62
(dp184
sg71
g169
sg64
(lp185
g57
(g58
g59
NtRp186
(dp187
g62
(dp188
g70
I5
ssg71
g182
sg64
(lp189
S'None'
p190
asbasbasbag57
(g73
g59
NtRp191
(dp192
g62
(dp193
sg71
g67
sg64
(lp194
g57
(g78
g59
NtRp195
(dp196
g62
(dp197
g82
g83
ssg71
g191
sg64
(lp198
S'client'
p199
asbag57
(g78
g59
NtRp200
(dp201
g62
(dp202
g89
g90
ssg71
g191
sg64
(lp203
S':'
asbag57
(g78
g59
NtRp204
(dp205
g62
(dp206
sg71
g191
sg64
(lp207
g57
(g58
g59
NtRp208
(dp209
g62
(dp210
g70
I5
ssg71
g204
sg64
(lp211
S'127.0.0.1'
p212
asbasbasbag57
(g73
g59
NtRp213
(dp214
g62
(dp215
sg71
g67
sg64
(lp216
g57
(g78
g59
NtRp217
(dp218
g62
(dp219
g82
g83
ssg71
g213
sg64
(lp220
S'controller'
p221
asbag57
(g78
g59
NtRp222
(dp223
g62
(dp224
g89
g90
ssg71
g213
sg64
(lp225
S':'
asbag57
(g78
g59
NtRp226
(dp227
g62
(dp228
sg71
g213
sg64
(lp229
g57
(g58
g59
NtRp230
(dp231
g62
(dp232
g70
I5
ssg71
g226
sg64
(lp233
S'default'
p234
asbasbasbag57
(g73
g59
NtRp235
(dp236
g62
(dp237
sg71
g67
sg64
(lp238
g57
(g78
g59
NtRp239
(dp240
g62
(dp241
g82
g83
ssg71
g235
sg64
(lp242
S'cookies'
p243
asbag57
(g78
g59
NtRp244
(dp245
g62
(dp246
g89
g90
ssg71
g235
sg64
(lp247
S':'
asbag57
(g78
g59
NtRp248
(dp249
g62
(dp250
sg71
g235
sg64
(lp251
g57
(g58
g59
NtRp252
(dp253
g62
(dp254
g70
I5
ssg71
g248
sg64
(lp255
g57
(g66
g59
NtRp256
(dp257
g62
(dp258
g70
I4
ssg71
Nsg64
(lp259
g57
(g73
g59
NtRp260
(dp261
g62
(dp262
sg71
g256
sg64
(lp263
g57
(g78
g59
NtRp264
(dp265
g62
(dp266
g82
g83
ssg71
g260
sg64
(lp267
S'session_id_admin'
p268
asbag57
(g78
g59
NtRp269
(dp270
g62
(dp271
g89
g90
ssg71
g260
sg64
(lp272
S':'
asbag57
(g78
g59
NtRp273
(dp274
g62
(dp275
sg71
g260
sg64
(lp276
g57
(g58
g59
NtRp277
(dp278
g62
(dp279
g70
I4
ssg71
g273
sg64
(lp280
S'127.0.0.1-607d6797-5acb-4b78-aa40-cda7f3954f23'
p281
ag57
(g66
g59
NtRp282
(dp283
g62
(dp284
g70
I3
ssg71
Nsg64
(lp285
g57
(g73
g59
NtRp286
(dp287
g62
(dp288
sg71
g282
sg64
(lp289
g57
(g78
g59
NtRp290
(dp291
g62
(dp292
g82
g83
ssg71
g286
sg64
(lp293
S'comment'
p294
asbag57
(g78
g59
NtRp295
(dp296
g62
(dp297
g89
g90
ssg71
g286
sg64
(lp298
S':'
asbag57
(g78
g59
NtRp299
(dp300
g62
(dp301
sg71
g286
sg64
(lp302
g57
(g58
g59
NtRp303
(dp304
g62
(dp305
g70
I3
ssg71
g299
sg64
(lp306
S''
asbasbasbag57
(g73
g59
NtRp307
(dp308
g62
(dp309
sg71
g282
sg64
(lp310
g57
(g78
g59
NtRp311
(dp312
g62
(dp313
g82
g83
ssg71
g307
sg64
(lp314
S'domain'
p315
asbag57
(g78
g59
NtRp316
(dp317
g62
(dp318
g89
g90
ssg71
g307
sg64
(lp319
S':'
asbag57
(g78
g59
NtRp320
(dp321
g62
(dp322
sg71
g307
sg64
(lp323
g57
(g58
g59
NtRp324
(dp325
g62
(dp326
g70
I3
ssg71
g320
sg64
(lp327
S''
asbasbasbag57
(g73
g59
NtRp328
(dp329
g62
(dp330
sg71
g282
sg64
(lp331
g57
(g78
g59
NtRp332
(dp333
g62
(dp334
g82
g83
ssg71
g328
sg64
(lp335
S'expires'
p336
asbag57
(g78
g59
NtRp337
(dp338
g62
(dp339
g89
g90
ssg71
g328
sg64
(lp340
S':'
asbag57
(g78
g59
NtRp341
(dp342
g62
(dp343
sg71
g328
sg64
(lp344
g57
(g58
g59
NtRp345
(dp346
g62
(dp347
g70
I3
ssg71
g341
sg64
(lp348
S''
asbasbasbag57
(g73
g59
NtRp349
(dp350
g62
(dp351
sg71
g282
sg64
(lp352
g57
(g78
g59
NtRp353
(dp354
g62
(dp355
g82
g83
ssg71
g349
sg64
(lp356
S'httponly'
p357
asbag57
(g78
g59
NtRp358
(dp359
g62
(dp360
g89
g90
ssg71
g349
sg64
(lp361
S':'
asbag57
(g78
g59
NtRp362
(dp363
g62
(dp364
sg71
g349
sg64
(lp365
g57
(g58
g59
NtRp366
(dp367
g62
(dp368
g70
I3
ssg71
g362
sg64
(lp369
S''
asbasbasbag57
(g73
g59
NtRp370
(dp371
g62
(dp372
sg71
g282
sg64
(lp373
g57
(g78
g59
NtRp374
(dp375
g62
(dp376
g82
g83
ssg71
g370
sg64
(lp377
S'max-age'
p378
asbag57
(g78
g59
NtRp379
(dp380
g62
(dp381
g89
g90
ssg71
g370
sg64
(lp382
S':'
asbag57
(g78
g59
NtRp383
(dp384
g62
(dp385
sg71
g370
sg64
(lp386
g57
(g58
g59
NtRp387
(dp388
g62
(dp389
g70
I3
ssg71
g383
sg64
(lp390
S''
asbasbasbag57
(g73
g59
NtRp391
(dp392
g62
(dp393
sg71
g282
sg64
(lp394
g57
(g78
g59
NtRp395
(dp396
g62
(dp397
g82
g83
ssg71
g391
sg64
(lp398
S'path'
p399
asbag57
(g78
g59
NtRp400
(dp401
g62
(dp402
g89
g90
ssg71
g391
sg64
(lp403
S':'
asbag57
(g78
g59
NtRp404
(dp405
g62
(dp406
sg71
g391
sg64
(lp407
g57
(g58
g59
NtRp408
(dp409
g62
(dp410
g70
I3
ssg71
g404
sg64
(lp411
S''
asbasbasbag57
(g73
g59
NtRp412
(dp413
g62
(dp414
sg71
g282
sg64
(lp415
g57
(g78
g59
NtRp416
(dp417
g62
(dp418
g82
g83
ssg71
g412
sg64
(lp419
S'secure'
p420
asbag57
(g78
g59
NtRp421
(dp422
g62
(dp423
g89
g90
ssg71
g412
sg64
(lp424
S':'
asbag57
(g78
g59
NtRp425
(dp426
g62
(dp427
sg71
g412
sg64
(lp428
g57
(g58
g59
NtRp429
(dp430
g62
(dp431
g70
I3
ssg71
g425
sg64
(lp432
S''
asbasbasbag57
(g73
g59
NtRp433
(dp434
g62
(dp435
sg71
g282
sg64
(lp436
g57
(g78
g59
NtRp437
(dp438
g62
(dp439
g82
g83
ssg71
g433
sg64
(lp440
S'version'
p441
asbag57
(g78
g59
NtRp442
(dp443
g62
(dp444
g89
g90
ssg71
g433
sg64
(lp445
S':'
asbag57
(g78
g59
NtRp446
(dp447
g62
(dp448
sg71
g433
sg64
(lp449
g57
(g58
g59
NtRp450
(dp451
g62
(dp452
g70
I3
ssg71
g446
sg64
(lp453
S''
asbasbasbasbasbasbasbag57
(g73
g59
NtRp454
(dp455
g62
(dp456
sg71
g256
sg64
(lp457
g57
(g78
g59
NtRp458
(dp459
g62
(dp460
g82
g83
ssg71
g454
sg64
(lp461
S'session_id_assignment2'
p462
asbag57
(g78
g59
NtRp463
(dp464
g62
(dp465
g89
g90
ssg71
g454
sg64
(lp466
S':'
asbag57
(g78
g59
NtRp467
(dp468
g62
(dp469
sg71
g454
sg64
(lp470
g57
(g58
g59
NtRp471
(dp472
g62
(dp473
g70
I4
ssg71
g467
sg64
(lp474
S'127.0.0.1-fb26053d-4af7-4f49-b52a-360360706137'
p475
ag57
(g66
g59
NtRp476
(dp477
g62
(dp478
g70
I3
ssg71
Nsg64
(lp479
g57
(g73
g59
NtRp480
(dp481
g62
(dp482
sg71
g476
sg64
(lp483
g57
(g78
g59
NtRp484
(dp485
g62
(dp486
g82
g83
ssg71
g480
sg64
(lp487
g294
asbag57
(g78
g59
NtRp488
(dp489
g62
(dp490
g89
g90
ssg71
g480
sg64
(lp491
S':'
asbag57
(g78
g59
NtRp492
(dp493
g62
(dp494
sg71
g480
sg64
(lp495
g57
(g58
g59
NtRp496
(dp497
g62
(dp498
g70
I3
ssg71
g492
sg64
(lp499
S''
asbasbasbag57
(g73
g59
NtRp500
(dp501
g62
(dp502
sg71
g476
sg64
(lp503
g57
(g78
g59
NtRp504
(dp505
g62
(dp506
g82
g83
ssg71
g500
sg64
(lp507
g315
asbag57
(g78
g59
NtRp508
(dp509
g62
(dp510
g89
g90
ssg71
g500
sg64
(lp511
S':'
asbag57
(g78
g59
NtRp512
(dp513
g62
(dp514
sg71
g500
sg64
(lp515
g57
(g58
g59
NtRp516
(dp517
g62
(dp518
g70
I3
ssg71
g512
sg64
(lp519
S''
asbasbasbag57
(g73
g59
NtRp520
(dp521
g62
(dp522
sg71
g476
sg64
(lp523
g57
(g78
g59
NtRp524
(dp525
g62
(dp526
g82
g83
ssg71
g520
sg64
(lp527
g336
asbag57
(g78
g59
NtRp528
(dp529
g62
(dp530
g89
g90
ssg71
g520
sg64
(lp531
S':'
asbag57
(g78
g59
NtRp532
(dp533
g62
(dp534
sg71
g520
sg64
(lp535
g57
(g58
g59
NtRp536
(dp537
g62
(dp538
g70
I3
ssg71
g532
sg64
(lp539
S''
asbasbasbag57
(g73
g59
NtRp540
(dp541
g62
(dp542
sg71
g476
sg64
(lp543
g57
(g78
g59
NtRp544
(dp545
g62
(dp546
g82
g83
ssg71
g540
sg64
(lp547
g357
asbag57
(g78
g59
NtRp548
(dp549
g62
(dp550
g89
g90
ssg71
g540
sg64
(lp551
S':'
asbag57
(g78
g59
NtRp552
(dp553
g62
(dp554
sg71
g540
sg64
(lp555
g57
(g58
g59
NtRp556
(dp557
g62
(dp558
g70
I3
ssg71
g552
sg64
(lp559
S''
asbasbasbag57
(g73
g59
NtRp560
(dp561
g62
(dp562
sg71
g476
sg64
(lp563
g57
(g78
g59
NtRp564
(dp565
g62
(dp566
g82
g83
ssg71
g560
sg64
(lp567
g378
asbag57
(g78
g59
NtRp568
(dp569
g62
(dp570
g89
g90
ssg71
g560
sg64
(lp571
S':'
asbag57
(g78
g59
NtRp572
(dp573
g62
(dp574
sg71
g560
sg64
(lp575
g57
(g58
g59
NtRp576
(dp577
g62
(dp578
g70
I3
ssg71
g572
sg64
(lp579
S''
asbasbasbag57
(g73
g59
NtRp580
(dp581
g62
(dp582
sg71
g476
sg64
(lp583
g57
(g78
g59
NtRp584
(dp585
g62
(dp586
g82
g83
ssg71
g580
sg64
(lp587
g399
asbag57
(g78
g59
NtRp588
(dp589
g62
(dp590
g89
g90
ssg71
g580
sg64
(lp591
S':'
asbag57
(g78
g59
NtRp592
(dp593
g62
(dp594
sg71
g580
sg64
(lp595
g57
(g58
g59
NtRp596
(dp597
g62
(dp598
g70
I3
ssg71
g592
sg64
(lp599
S''
asbasbasbag57
(g73
g59
NtRp600
(dp601
g62
(dp602
sg71
g476
sg64
(lp603
g57
(g78
g59
NtRp604
(dp605
g62
(dp606
g82
g83
ssg71
g600
sg64
(lp607
g420
asbag57
(g78
g59
NtRp608
(dp609
g62
(dp610
g89
g90
ssg71
g600
sg64
(lp611
S':'
asbag57
(g78
g59
NtRp612
(dp613
g62
(dp614
sg71
g600
sg64
(lp615
g57
(g58
g59
NtRp616
(dp617
g62
(dp618
g70
I3
ssg71
g612
sg64
(lp619
S''
asbasbasbag57
(g73
g59
NtRp620
(dp621
g62
(dp622
sg71
g476
sg64
(lp623
g57
(g78
g59
NtRp624
(dp625
g62
(dp626
g82
g83
ssg71
g620
sg64
(lp627
g441
asbag57
(g78
g59
NtRp628
(dp629
g62
(dp630
g89
g90
ssg71
g620
sg64
(lp631
S':'
asbag57
(g78
g59
NtRp632
(dp633
g62
(dp634
sg71
g620
sg64
(lp635
g57
(g58
g59
NtRp636
(dp637
g62
(dp638
g70
I3
ssg71
g632
sg64
(lp639
S''
asbasbasbasbasbasbasbag57
(g73
g59
NtRp640
(dp641
g62
(dp642
sg71
g256
sg64
(lp643
g57
(g78
g59
NtRp644
(dp645
g62
(dp646
g82
g83
ssg71
g640
sg64
(lp647
S'session_id_welcome'
p648
asbag57
(g78
g59
NtRp649
(dp650
g62
(dp651
g89
g90
ssg71
g640
sg64
(lp652
S':'
asbag57
(g78
g59
NtRp653
(dp654
g62
(dp655
sg71
g640
sg64
(lp656
g57
(g58
g59
NtRp657
(dp658
g62
(dp659
g70
I4
ssg71
g653
sg64
(lp660
S'127.0.0.1-6e53581c-3d30-4287-b4c3-8169493b1e8d'
p661
ag57
(g66
g59
NtRp662
(dp663
g62
(dp664
g70
I3
ssg71
Nsg64
(lp665
g57
(g73
g59
NtRp666
(dp667
g62
(dp668
sg71
g662
sg64
(lp669
g57
(g78
g59
NtRp670
(dp671
g62
(dp672
g82
g83
ssg71
g666
sg64
(lp673
g294
asbag57
(g78
g59
NtRp674
(dp675
g62
(dp676
g89
g90
ssg71
g666
sg64
(lp677
S':'
asbag57
(g78
g59
NtRp678
(dp679
g62
(dp680
sg71
g666
sg64
(lp681
g57
(g58
g59
NtRp682
(dp683
g62
(dp684
g70
I3
ssg71
g678
sg64
(lp685
S''
asbasbasbag57
(g73
g59
NtRp686
(dp687
g62
(dp688
sg71
g662
sg64
(lp689
g57
(g78
g59
NtRp690
(dp691
g62
(dp692
g82
g83
ssg71
g686
sg64
(lp693
g315
asbag57
(g78
g59
NtRp694
(dp695
g62
(dp696
g89
g90
ssg71
g686
sg64
(lp697
S':'
asbag57
(g78
g59
NtRp698
(dp699
g62
(dp700
sg71
g686
sg64
(lp701
g57
(g58
g59
NtRp702
(dp703
g62
(dp704
g70
I3
ssg71
g698
sg64
(lp705
S''
asbasbasbag57
(g73
g59
NtRp706
(dp707
g62
(dp708
sg71
g662
sg64
(lp709
g57
(g78
g59
NtRp710
(dp711
g62
(dp712
g82
g83
ssg71
g706
sg64
(lp713
g336
asbag57
(g78
g59
NtRp714
(dp715
g62
(dp716
g89
g90
ssg71
g706
sg64
(lp717
S':'
asbag57
(g78
g59
NtRp718
(dp719
g62
(dp720
sg71
g706
sg64
(lp721
g57
(g58
g59
NtRp722
(dp723
g62
(dp724
g70
I3
ssg71
g718
sg64
(lp725
S''
asbasbasbag57
(g73
g59
NtRp726
(dp727
g62
(dp728
sg71
g662
sg64
(lp729
g57
(g78
g59
NtRp730
(dp731
g62
(dp732
g82
g83
ssg71
g726
sg64
(lp733
g357
asbag57
(g78
g59
NtRp734
(dp735
g62
(dp736
g89
g90
ssg71
g726
sg64
(lp737
S':'
asbag57
(g78
g59
NtRp738
(dp739
g62
(dp740
sg71
g726
sg64
(lp741
g57
(g58
g59
NtRp742
(dp743
g62
(dp744
g70
I3
ssg71
g738
sg64
(lp745
S''
asbasbasbag57
(g73
g59
NtRp746
(dp747
g62
(dp748
sg71
g662
sg64
(lp749
g57
(g78
g59
NtRp750
(dp751
g62
(dp752
g82
g83
ssg71
g746
sg64
(lp753
g378
asbag57
(g78
g59
NtRp754
(dp755
g62
(dp756
g89
g90
ssg71
g746
sg64
(lp757
S':'
asbag57
(g78
g59
NtRp758
(dp759
g62
(dp760
sg71
g746
sg64
(lp761
g57
(g58
g59
NtRp762
(dp763
g62
(dp764
g70
I3
ssg71
g758
sg64
(lp765
S''
asbasbasbag57
(g73
g59
NtRp766
(dp767
g62
(dp768
sg71
g662
sg64
(lp769
g57
(g78
g59
NtRp770
(dp771
g62
(dp772
g82
g83
ssg71
g766
sg64
(lp773
g399
asbag57
(g78
g59
NtRp774
(dp775
g62
(dp776
g89
g90
ssg71
g766
sg64
(lp777
S':'
asbag57
(g78
g59
NtRp778
(dp779
g62
(dp780
sg71
g766
sg64
(lp781
g57
(g58
g59
NtRp782
(dp783
g62
(dp784
g70
I3
ssg71
g778
sg64
(lp785
S''
asbasbasbag57
(g73
g59
NtRp786
(dp787
g62
(dp788
sg71
g662
sg64
(lp789
g57
(g78
g59
NtRp790
(dp791
g62
(dp792
g82
g83
ssg71
g786
sg64
(lp793
g420
asbag57
(g78
g59
NtRp794
(dp795
g62
(dp796
g89
g90
ssg71
g786
sg64
(lp797
S':'
asbag57
(g78
g59
NtRp798
(dp799
g62
(dp800
sg71
g786
sg64
(lp801
g57
(g58
g59
NtRp802
(dp803
g62
(dp804
g70
I3
ssg71
g798
sg64
(lp805
S''
asbasbasbag57
(g73
g59
NtRp806
(dp807
g62
(dp808
sg71
g662
sg64
(lp809
g57
(g78
g59
NtRp810
(dp811
g62
(dp812
g82
g83
ssg71
g806
sg64
(lp813
g441
asbag57
(g78
g59
NtRp814
(dp815
g62
(dp816
g89
g90
ssg71
g806
sg64
(lp817
S':'
asbag57
(g78
g59
NtRp818
(dp819
g62
(dp820
sg71
g806
sg64
(lp821
g57
(g58
g59
NtRp822
(dp823
g62
(dp824
g70
I3
ssg71
g818
sg64
(lp825
S''
asbasbasbasbasbasbasbasbasbasbasbag57
(g73
g59
NtRp826
(dp827
g62
(dp828
sg71
g67
sg64
(lp829
g57
(g78
g59
NtRp830
(dp831
g62
(dp832
g82
g83
ssg71
g826
sg64
(lp833
S'env'
p834
asbag57
(g78
g59
NtRp835
(dp836
g62
(dp837
g89
g90
ssg71
g826
sg64
(lp838
S':'
asbag57
(g78
g59
NtRp839
(dp840
g62
(dp841
sg71
g826
sg64
(lp842
g57
(g58
g59
NtRp843
(dp844
g62
(dp845
g70
I5
ssg71
g839
sg64
(lp846
g57
(g66
g59
NtRp847
(dp848
g62
(dp849
g70
I4
ssg71
Nsg64
(lp850
g57
(g73
g59
NtRp851
(dp852
g62
(dp853
sg71
g847
sg64
(lp854
g57
(g78
g59
NtRp855
(dp856
g62
(dp857
g82
g83
ssg71
g851
sg64
(lp858
S'app_folders'
p859
asbag57
(g78
g59
NtRp860
(dp861
g62
(dp862
g89
g90
ssg71
g851
sg64
(lp863
S':'
asbag57
(g78
g59
NtRp864
(dp865
g62
(dp866
sg71
g851
sg64
(lp867
g57
(g58
g59
NtRp868
(dp869
g62
(dp870
g70
I4
ssg71
g864
sg64
(lp871
S"set(['/home/aditi/Desktop/web2py/applications/assignment2/', '/home/aditi/Desktop/web2py/applications/admin/', '/home/aditi/Desktop/web2py/applications/welcome/'])"
p872
asbasbasbag57
(g73
g59
NtRp873
(dp874
g62
(dp875
sg71
g847
sg64
(lp876
g57
(g78
g59
NtRp877
(dp878
g62
(dp879
g82
g83
ssg71
g873
sg64
(lp880
S'applications_parent'
p881
asbag57
(g78
g59
NtRp882
(dp883
g62
(dp884
g89
g90
ssg71
g873
sg64
(lp885
S':'
asbag57
(g78
g59
NtRp886
(dp887
g62
(dp888
sg71
g873
sg64
(lp889
g57
(g58
g59
NtRp890
(dp891
g62
(dp892
g70
I4
ssg71
g886
sg64
(lp893
S'/home/aditi/Desktop/web2py'
p894
asbasbasbag57
(g73
g59
NtRp895
(dp896
g62
(dp897
sg71
g847
sg64
(lp898
g57
(g78
g59
NtRp899
(dp900
g62
(dp901
g82
g83
ssg71
g895
sg64
(lp902
S'cmd_args'
p903
asbag57
(g78
g59
NtRp904
(dp905
g62
(dp906
g89
g90
ssg71
g895
sg64
(lp907
S':'
asbag57
(g78
g59
NtRp908
(dp909
g62
(dp910
sg71
g895
sg64
(lp911
g57
(g58
g59
NtRp912
(dp913
g62
(dp914
g70
I4
ssg71
g908
sg64
(lp915
g57
(g66
g59
NtRp916
(dp917
g62
(dp918
g70
I3
ssg71
Nsg64
(lp919
sbasbasbasbag57
(g73
g59
NtRp920
(dp921
g62
(dp922
sg71
g847
sg64
(lp923
g57
(g78
g59
NtRp924
(dp925
g62
(dp926
g82
g83
ssg71
g920
sg64
(lp927
S'cmd_options'
p928
asbag57
(g78
g59
NtRp929
(dp930
g62
(dp931
g89
g90
ssg71
g920
sg64
(lp932
S':'
asbag57
(g78
g59
NtRp933
(dp934
g62
(dp935
sg71
g920
sg64
(lp936
g57
(g58
g59
NtRp937
(dp938
g62
(dp939
g70
I4
ssg71
g933
sg64
(lp940
S"<Values at 0x891ea0c: {'verbose': False, 'ip': '127.0.0.1', 'with_scheduler': False, 'ips': [], 'shutdown_timeout': 5, 'taskbar': False, 'port': 8000, 'maxthreads': None, 'softcron': False, 'server_name': 'ubuntu', 'bpython': False, 'nogui': False, 'pid_filename': 'httpserver.pid', 'extcron': False, 'runcron': False, 'run_system_tests': False, 'test': None, 'folder': '/home/aditi/Desktop/web2py', 'config': '', 'import_models': False, 'winservice': '', 'shell': None, 'run': '', 'log_filename': 'httpserver.log', 'debuglevel': 30, 'args': [''], 'socket_timeout': 5, 'ssl_ca_certificate': None, 'scheduler': None, 'profiler_filename': None, 'ssl_private_key': '', 'scheduler_groups': None, 'password': '<ask>', 'request_queue_size': 5, 'ssl_certificate': '', 'cronjob': False, 'numthreads': None, 'quiet': False, 'interfaces': None, 'minthreads': None, 'timeout': 10, 'plain': False, 'nobanner': False}>"
p941
asbasbasbag57
(g73
g59
NtRp942
(dp943
g62
(dp944
sg71
g847
sg64
(lp945
g57
(g78
g59
NtRp946
(dp947
g62
(dp948
g82
g83
ssg71
g942
sg64
(lp949
S'content_length'
p950
asbag57
(g78
g59
NtRp951
(dp952
g62
(dp953
g89
g90
ssg71
g942
sg64
(lp954
S':'
asbag57
(g78
g59
NtRp955
(dp956
g62
(dp957
sg71
g942
sg64
(lp958
g57
(g58
g59
NtRp959
(dp960
g62
(dp961
g70
I4
ssg71
g955
sg64
(lp962
S'339'
p963
asbasbasbag57
(g73
g59
NtRp964
(dp965
g62
(dp966
sg71
g847
sg64
(lp967
g57
(g78
g59
NtRp968
(dp969
g62
(dp970
g82
g83
ssg71
g964
sg64
(lp971
S'content_type'
p972
asbag57
(g78
g59
NtRp973
(dp974
g62
(dp975
g89
g90
ssg71
g964
sg64
(lp976
S':'
asbag57
(g78
g59
NtRp977
(dp978
g62
(dp979
sg71
g964
sg64
(lp980
g57
(g58
g59
NtRp981
(dp982
g62
(dp983
g70
I4
ssg71
g977
sg64
(lp984
S'multipart/form-data; boundary=---------------------------147830316820174453461258661842'
p985
asbasbasbag57
(g73
g59
NtRp986
(dp987
g62
(dp988
sg71
g847
sg64
(lp989
g57
(g78
g59
NtRp990
(dp991
g62
(dp992
g82
g83
ssg71
g986
sg64
(lp993
S'db_sessions'
p994
asbag57
(g78
g59
NtRp995
(dp996
g62
(dp997
g89
g90
ssg71
g986
sg64
(lp998
S':'
asbag57
(g78
g59
NtRp999
(dp1000
g62
(dp1001
sg71
g986
sg64
(lp1002
g57
(g58
g59
NtRp1003
(dp1004
g62
(dp1005
g70
I4
ssg71
g999
sg64
(lp1006
S'set([])'
p1007
asbasbasbag57
(g73
g59
NtRp1008
(dp1009
g62
(dp1010
sg71
g847
sg64
(lp1011
g57
(g78
g59
NtRp1012
(dp1013
g62
(dp1014
g82
g83
ssg71
g1008
sg64
(lp1015
S'debugging'
p1016
asbag57
(g78
g59
NtRp1017
(dp1018
g62
(dp1019
g89
g90
ssg71
g1008
sg64
(lp1020
S':'
asbag57
(g78
g59
NtRp1021
(dp1022
g62
(dp1023
sg71
g1008
sg64
(lp1024
g57
(g58
g59
NtRp1025
(dp1026
g62
(dp1027
g70
I4
ssg71
g1021
sg64
(lp1028
g100
asbasbasbag57
(g73
g59
NtRp1029
(dp1030
g62
(dp1031
sg71
g847
sg64
(lp1032
g57
(g78
g59
NtRp1033
(dp1034
g62
(dp1035
g82
g83
ssg71
g1029
sg64
(lp1036
S'gluon_parent'
p1037
asbag57
(g78
g59
NtRp1038
(dp1039
g62
(dp1040
g89
g90
ssg71
g1029
sg64
(lp1041
S':'
asbag57
(g78
g59
NtRp1042
(dp1043
g62
(dp1044
sg71
g1029
sg64
(lp1045
g57
(g58
g59
NtRp1046
(dp1047
g62
(dp1048
g70
I4
ssg71
g1042
sg64
(lp1049
S'/home/aditi/Desktop/web2py'
p1050
asbasbasbag57
(g73
g59
NtRp1051
(dp1052
g62
(dp1053
sg71
g847
sg64
(lp1054
g57
(g78
g59
NtRp1055
(dp1056
g62
(dp1057
g82
g83
ssg71
g1051
sg64
(lp1058
S'http_accept'
p1059
asbag57
(g78
g59
NtRp1060
(dp1061
g62
(dp1062
g89
g90
ssg71
g1051
sg64
(lp1063
S':'
asbag57
(g78
g59
NtRp1064
(dp1065
g62
(dp1066
sg71
g1051
sg64
(lp1067
g57
(g58
g59
NtRp1068
(dp1069
g62
(dp1070
g70
I4
ssg71
g1064
sg64
(lp1071
S'text/html,application/xhtml+xml,application/xml;q=0.9,*/*;q=0.8'
p1072
asbasbasbag57
(g73
g59
NtRp1073
(dp1074
g62
(dp1075
sg71
g847
sg64
(lp1076
g57
(g78
g59
NtRp1077
(dp1078
g62
(dp1079
g82
g83
ssg71
g1073
sg64
(lp1080
S'http_accept_encoding'
p1081
asbag57
(g78
g59
NtRp1082
(dp1083
g62
(dp1084
g89
g90
ssg71
g1073
sg64
(lp1085
S':'
asbag57
(g78
g59
NtRp1086
(dp1087
g62
(dp1088
sg71
g1073
sg64
(lp1089
g57
(g58
g59
NtRp1090
(dp1091
g62
(dp1092
g70
I4
ssg71
g1086
sg64
(lp1093
S'gzip, deflate'
p1094
asbasbasbag57
(g73
g59
NtRp1095
(dp1096
g62
(dp1097
sg71
g847
sg64
(lp1098
g57
(g78
g59
NtRp1099
(dp1100
g62
(dp1101
g82
g83
ssg71
g1095
sg64
(lp1102
S'http_accept_language'
p1103
asbag57
(g78
g59
NtRp1104
(dp1105
g62
(dp1106
g89
g90
ssg71
g1095
sg64
(lp1107
S':'
asbag57
(g78
g59
NtRp1108
(dp1109
g62
(dp1110
sg71
g1095
sg64
(lp1111
g57
(g58
g59
NtRp1112
(dp1113
g62
(dp1114
g70
I4
ssg71
g1108
sg64
(lp1115
S'en-US,en;q=0.5'
p1116
asbasbasbag57
(g73
g59
NtRp1117
(dp1118
g62
(dp1119
sg71
g847
sg64
(lp1120
g57
(g78
g59
NtRp1121
(dp1122
g62
(dp1123
g82
g83
ssg71
g1117
sg64
(lp1124
S'http_connection'
p1125
asbag57
(g78
g59
NtRp1126
(dp1127
g62
(dp1128
g89
g90
ssg71
g1117
sg64
(lp1129
S':'
asbag57
(g78
g59
NtRp1130
(dp1131
g62
(dp1132
sg71
g1117
sg64
(lp1133
g57
(g58
g59
NtRp1134
(dp1135
g62
(dp1136
g70
I4
ssg71
g1130
sg64
(lp1137
S'keep-alive'
p1138
asbasbasbag57
(g73
g59
NtRp1139
(dp1140
g62
(dp1141
sg71
g847
sg64
(lp1142
g57
(g78
g59
NtRp1143
(dp1144
g62
(dp1145
g82
g83
ssg71
g1139
sg64
(lp1146
S'http_content_length'
p1147
asbag57
(g78
g59
NtRp1148
(dp1149
g62
(dp1150
g89
g90
ssg71
g1139
sg64
(lp1151
S':'
asbag57
(g78
g59
NtRp1152
(dp1153
g62
(dp1154
sg71
g1139
sg64
(lp1155
g57
(g58
g59
NtRp1156
(dp1157
g62
(dp1158
g70
I4
ssg71
g1152
sg64
(lp1159
g963
asbasbasbag57
(g73
g59
NtRp1160
(dp1161
g62
(dp1162
sg71
g847
sg64
(lp1163
g57
(g78
g59
NtRp1164
(dp1165
g62
(dp1166
g82
g83
ssg71
g1160
sg64
(lp1167
S'http_content_type'
p1168
asbag57
(g78
g59
NtRp1169
(dp1170
g62
(dp1171
g89
g90
ssg71
g1160
sg64
(lp1172
S':'
asbag57
(g78
g59
NtRp1173
(dp1174
g62
(dp1175
sg71
g1160
sg64
(lp1176
g57
(g58
g59
NtRp1177
(dp1178
g62
(dp1179
g70
I4
ssg71
g1173
sg64
(lp1180
g985
asbasbasbag57
(g73
g59
NtRp1181
(dp1182
g62
(dp1183
sg71
g847
sg64
(lp1184
g57
(g78
g59
NtRp1185
(dp1186
g62
(dp1187
g82
g83
ssg71
g1181
sg64
(lp1188
S'http_cookie'
p1189
asbag57
(g78
g59
NtRp1190
(dp1191
g62
(dp1192
g89
g90
ssg71
g1181
sg64
(lp1193
S':'
asbag57
(g78
g59
NtRp1194
(dp1195
g62
(dp1196
sg71
g1181
sg64
(lp1197
g57
(g58
g59
NtRp1198
(dp1199
g62
(dp1200
g70
I4
ssg71
g1194
sg64
(lp1201
S'session_id_welcome=127.0.0.1-6e53581c-3d30-4287-b4c3-8169493b1e8d; session_id_admin=127.0.0.1-607d6797-5acb-4b78-aa40-cda7f3954f23; session_id_assignment2=127.0.0.1-fb26053d-4af7-4f49-b52a-360360706137'
p1202
asbasbasbag57
(g73
g59
NtRp1203
(dp1204
g62
(dp1205
sg71
g847
sg64
(lp1206
g57
(g78
g59
NtRp1207
(dp1208
g62
(dp1209
g82
g83
ssg71
g1203
sg64
(lp1210
S'http_host'
p1211
asbag57
(g78
g59
NtRp1212
(dp1213
g62
(dp1214
g89
g90
ssg71
g1203
sg64
(lp1215
S':'
asbag57
(g78
g59
NtRp1216
(dp1217
g62
(dp1218
sg71
g1203
sg64
(lp1219
g57
(g58
g59
NtRp1220
(dp1221
g62
(dp1222
g70
I4
ssg71
g1216
sg64
(lp1223
S'127.0.0.1:8000'
p1224
asbasbasbag57
(g73
g59
NtRp1225
(dp1226
g62
(dp1227
sg71
g847
sg64
(lp1228
g57
(g78
g59
NtRp1229
(dp1230
g62
(dp1231
g82
g83
ssg71
g1225
sg64
(lp1232
S'http_referer'
p1233
asbag57
(g78
g59
NtRp1234
(dp1235
g62
(dp1236
g89
g90
ssg71
g1225
sg64
(lp1237
S':'
asbag57
(g78
g59
NtRp1238
(dp1239
g62
(dp1240
sg71
g1225
sg64
(lp1241
g57
(g58
g59
NtRp1242
(dp1243
g62
(dp1244
g70
I4
ssg71
g1238
sg64
(lp1245
S'http://127.0.0.1:8000/assignment2/default/user_homepage'
p1246
asbasbasbag57
(g73
g59
NtRp1247
(dp1248
g62
(dp1249
sg71
g847
sg64
(lp1250
g57
(g78
g59
NtRp1251
(dp1252
g62
(dp1253
g82
g83
ssg71
g1247
sg64
(lp1254
S'http_user_agent'
p1255
asbag57
(g78
g59
NtRp1256
(dp1257
g62
(dp1258
g89
g90
ssg71
g1247
sg64
(lp1259
S':'
asbag57
(g78
g59
NtRp1260
(dp1261
g62
(dp1262
sg71
g1247
sg64
(lp1263
g57
(g58
g59
NtRp1264
(dp1265
g62
(dp1266
g70
I4
ssg71
g1260
sg64
(lp1267
S'Mozilla/5.0 (X11; Ubuntu; Linux i686; rv:23.0) Gecko/20100101 Firefox/23.0'
p1268
asbasbasbag57
(g73
g59
NtRp1269
(dp1270
g62
(dp1271
sg71
g847
sg64
(lp1272
g57
(g78
g59
NtRp1273
(dp1274
g62
(dp1275
g82
g83
ssg71
g1269
sg64
(lp1276
S'is_jython'
p1277
asbag57
(g78
g59
NtRp1278
(dp1279
g62
(dp1280
g89
g90
ssg71
g1269
sg64
(lp1281
S':'
asbag57
(g78
g59
NtRp1282
(dp1283
g62
(dp1284
sg71
g1269
sg64
(lp1285
g57
(g58
g59
NtRp1286
(dp1287
g62
(dp1288
g70
I4
ssg71
g1282
sg64
(lp1289
g100
asbasbasbag57
(g73
g59
NtRp1290
(dp1291
g62
(dp1292
sg71
g847
sg64
(lp1293
g57
(g78
g59
NtRp1294
(dp1295
g62
(dp1296
g82
g83
ssg71
g1290
sg64
(lp1297
S'is_pypy'
p1298
asbag57
(g78
g59
NtRp1299
(dp1300
g62
(dp1301
g89
g90
ssg71
g1290
sg64
(lp1302
S':'
asbag57
(g78
g59
NtRp1303
(dp1304
g62
(dp1305
sg71
g1290
sg64
(lp1306
g57
(g58
g59
NtRp1307
(dp1308
g62
(dp1309
g70
I4
ssg71
g1303
sg64
(lp1310
g100
asbasbasbag57
(g73
g59
NtRp1311
(dp1312
g62
(dp1313
sg71
g847
sg64
(lp1314
g57
(g78
g59
NtRp1315
(dp1316
g62
(dp1317
g82
g83
ssg71
g1311
sg64
(lp1318
S'local_hosts'
p1319
asbag57
(g78
g59
NtRp1320
(dp1321
g62
(dp1322
g89
g90
ssg71
g1311
sg64
(lp1323
S':'
asbag57
(g78
g59
NtRp1324
(dp1325
g62
(dp1326
sg71
g1311
sg64
(lp1327
g57
(g58
g59
NtRp1328
(dp1329
g62
(dp1330
g70
I4
ssg71
g1324
sg64
(lp1331
g57
(g66
g59
NtRp1332
(dp1333
g62
(dp1334
g70
I3
ssg71
Nsg64
(lp1335
g57
(g73
g59
NtRp1336
(dp1337
g62
(dp1338
sg71
g1332
sg64
(lp1339
g57
(g78
g59
NtRp1340
(dp1341
g62
(dp1342
sg71
g1336
sg64
(lp1343
g57
(g58
g59
NtRp1344
(dp1345
g62
(dp1346
g70
I3
ssg71
g1340
sg64
(lp1347
S'ubuntu.ubuntu-domain'
p1348
asbasbasbag57
(g73
g59
NtRp1349
(dp1350
g62
(dp1351
sg71
g1332
sg64
(lp1352
g57
(g78
g59
NtRp1353
(dp1354
g62
(dp1355
sg71
g1349
sg64
(lp1356
g57
(g58
g59
NtRp1357
(dp1358
g62
(dp1359
g70
I3
ssg71
g1353
sg64
(lp1360
S'::ffff:127.0.0.1'
p1361
asbasbasbag57
(g73
g59
NtRp1362
(dp1363
g62
(dp1364
sg71
g1332
sg64
(lp1365
g57
(g78
g59
NtRp1366
(dp1367
g62
(dp1368
sg71
g1362
sg64
(lp1369
g57
(g58
g59
NtRp1370
(dp1371
g62
(dp1372
g70
I3
ssg71
g1366
sg64
(lp1373
S'::1'
p1374
asbasbasbag57
(g73
g59
NtRp1375
(dp1376
g62
(dp1377
sg71
g1332
sg64
(lp1378
g57
(g78
g59
NtRp1379
(dp1380
g62
(dp1381
sg71
g1375
sg64
(lp1382
g57
(g58
g59
NtRp1383
(dp1384
g62
(dp1385
g70
I3
ssg71
g1379
sg64
(lp1386
S'ubuntu'
p1387
asbasbasbag57
(g73
g59
NtRp1388
(dp1389
g62
(dp1390
sg71
g1332
sg64
(lp1391
g57
(g78
g59
NtRp1392
(dp1393
g62
(dp1394
sg71
g1388
sg64
(lp1395
g57
(g58
g59
NtRp1396
(dp1397
g62
(dp1398
g70
I3
ssg71
g1392
sg64
(lp1399
S'127.0.1.1'
p1400
asbasbasbag57
(g73
g59
NtRp1401
(dp1402
g62
(dp1403
sg71
g1332
sg64
(lp1404
g57
(g78
g59
NtRp1405
(dp1406
g62
(dp1407
sg71
g1401
sg64
(lp1408
g57
(g58
g59
NtRp1409
(dp1410
g62
(dp1411
g70
I3
ssg71
g1405
sg64
(lp1412
S'127.0.0.1'
p1413
asbasbasbasbasbasbasbag57
(g73
g59
NtRp1414
(dp1415
g62
(dp1416
sg71
g847
sg64
(lp1417
g57
(g78
g59
NtRp1418
(dp1419
g62
(dp1420
g82
g83
ssg71
g1414
sg64
(lp1421
S'path_info'
p1422
asbag57
(g78
g59
NtRp1423
(dp1424
g62
(dp1425
g89
g90
ssg71
g1414
sg64
(lp1426
S':'
asbag57
(g78
g59
NtRp1427
(dp1428
g62
(dp1429
sg71
g1414
sg64
(lp1430
g57
(g58
g59
NtRp1431
(dp1432
g62
(dp1433
g70
I4
ssg71
g1427
sg64
(lp1434
S'/assignment2/default/user_homepage'
p1435
asbasbasbag57
(g73
g59
NtRp1436
(dp1437
g62
(dp1438
sg71
g847
sg64
(lp1439
g57
(g78
g59
NtRp1440
(dp1441
g62
(dp1442
g82
g83
ssg71
g1436
sg64
(lp1443
S'query_string'
p1444
asbag57
(g78
g59
NtRp1445
(dp1446
g62
(dp1447
g89
g90
ssg71
g1436
sg64
(lp1448
S':'
asbag57
(g78
g59
NtRp1449
(dp1450
g62
(dp1451
sg71
g1436
sg64
(lp1452
g57
(g58
g59
NtRp1453
(dp1454
g62
(dp1455
g70
I4
ssg71
g1449
sg64
(lp1456
S''
asbasbasbag57
(g73
g59
NtRp1457
(dp1458
g62
(dp1459
sg71
g847
sg64
(lp1460
g57
(g78
g59
NtRp1461
(dp1462
g62
(dp1463
g82
g83
ssg71
g1457
sg64
(lp1464
S'remote_addr'
p1465
asbag57
(g78
g59
NtRp1466
(dp1467
g62
(dp1468
g89
g90
ssg71
g1457
sg64
(lp1469
S':'
asbag57
(g78
g59
NtRp1470
(dp1471
g62
(dp1472
sg71
g1457
sg64
(lp1473
g57
(g58
g59
NtRp1474
(dp1475
g62
(dp1476
g70
I4
ssg71
g1470
sg64
(lp1477
g212
asbasbasbag57
(g73
g59
NtRp1478
(dp1479
g62
(dp1480
sg71
g847
sg64
(lp1481
g57
(g78
g59
NtRp1482
(dp1483
g62
(dp1484
g82
g83
ssg71
g1478
sg64
(lp1485
S'remote_port'
p1486
asbag57
(g78
g59
NtRp1487
(dp1488
g62
(dp1489
g89
g90
ssg71
g1478
sg64
(lp1490
S':'
asbag57
(g78
g59
NtRp1491
(dp1492
g62
(dp1493
sg71
g1478
sg64
(lp1494
g57
(g58
g59
NtRp1495
(dp1496
g62
(dp1497
g70
I4
ssg71
g1491
sg64
(lp1498
S'44143'
p1499
asbasbasbag57
(g73
g59
NtRp1500
(dp1501
g62
(dp1502
sg71
g847
sg64
(lp1503
g57
(g78
g59
NtRp1504
(dp1505
g62
(dp1506
g82
g83
ssg71
g1500
sg64
(lp1507
S'request_method'
p1508
asbag57
(g78
g59
NtRp1509
(dp1510
g62
(dp1511
g89
g90
ssg71
g1500
sg64
(lp1512
S':'
asbag57
(g78
g59
NtRp1513
(dp1514
g62
(dp1515
sg71
g1500
sg64
(lp1516
g57
(g58
g59
NtRp1517
(dp1518
g62
(dp1519
g70
I4
ssg71
g1513
sg64
(lp1520
S'POST'
p1521
asbasbasbag57
(g73
g59
NtRp1522
(dp1523
g62
(dp1524
sg71
g847
sg64
(lp1525
g57
(g78
g59
NtRp1526
(dp1527
g62
(dp1528
g82
g83
ssg71
g1522
sg64
(lp1529
S'request_uri'
p1530
asbag57
(g78
g59
NtRp1531
(dp1532
g62
(dp1533
g89
g90
ssg71
g1522
sg64
(lp1534
S':'
asbag57
(g78
g59
NtRp1535
(dp1536
g62
(dp1537
sg71
g1522
sg64
(lp1538
g57
(g58
g59
NtRp1539
(dp1540
g62
(dp1541
g70
I4
ssg71
g1535
sg64
(lp1542
g1435
asbasbasbag57
(g73
g59
NtRp1543
(dp1544
g62
(dp1545
sg71
g847
sg64
(lp1546
g57
(g78
g59
NtRp1547
(dp1548
g62
(dp1549
g82
g83
ssg71
g1543
sg64
(lp1550
S'script_name'
p1551
asbag57
(g78
g59
NtRp1552
(dp1553
g62
(dp1554
g89
g90
ssg71
g1543
sg64
(lp1555
S':'
asbag57
(g78
g59
NtRp1556
(dp1557
g62
(dp1558
sg71
g1543
sg64
(lp1559
g57
(g58
g59
NtRp1560
(dp1561
g62
(dp1562
g70
I4
ssg71
g1556
sg64
(lp1563
S''
asbasbasbag57
(g73
g59
NtRp1564
(dp1565
g62
(dp1566
sg71
g847
sg64
(lp1567
g57
(g78
g59
NtRp1568
(dp1569
g62
(dp1570
g82
g83
ssg71
g1564
sg64
(lp1571
S'server_name'
p1572
asbag57
(g78
g59
NtRp1573
(dp1574
g62
(dp1575
g89
g90
ssg71
g1564
sg64
(lp1576
S':'
asbag57
(g78
g59
NtRp1577
(dp1578
g62
(dp1579
sg71
g1564
sg64
(lp1580
g57
(g58
g59
NtRp1581
(dp1582
g62
(dp1583
g70
I4
ssg71
g1577
sg64
(lp1584
S'ubuntu'
p1585
asbasbasbag57
(g73
g59
NtRp1586
(dp1587
g62
(dp1588
sg71
g847
sg64
(lp1589
g57
(g78
g59
NtRp1590
(dp1591
g62
(dp1592
g82
g83
ssg71
g1586
sg64
(lp1593
S'server_port'
p1594
asbag57
(g78
g59
NtRp1595
(dp1596
g62
(dp1597
g89
g90
ssg71
g1586
sg64
(lp1598
S':'
asbag57
(g78
g59
NtRp1599
(dp1600
g62
(dp1601
sg71
g1586
sg64
(lp1602
g57
(g58
g59
NtRp1603
(dp1604
g62
(dp1605
g70
I4
ssg71
g1599
sg64
(lp1606
S'8000'
p1607
asbasbasbag57
(g73
g59
NtRp1608
(dp1609
g62
(dp1610
sg71
g847
sg64
(lp1611
g57
(g78
g59
NtRp1612
(dp1613
g62
(dp1614
g82
g83
ssg71
g1608
sg64
(lp1615
S'server_protocol'
p1616
asbag57
(g78
g59
NtRp1617
(dp1618
g62
(dp1619
g89
g90
ssg71
g1608
sg64
(lp1620
S':'
asbag57
(g78
g59
NtRp1621
(dp1622
g62
(dp1623
sg71
g1608
sg64
(lp1624
g57
(g58
g59
NtRp1625
(dp1626
g62
(dp1627
g70
I4
ssg71
g1621
sg64
(lp1628
S'HTTP/1.1'
p1629
asbasbasbag57
(g73
g59
NtRp1630
(dp1631
g62
(dp1632
sg71
g847
sg64
(lp1633
g57
(g78
g59
NtRp1634
(dp1635
g62
(dp1636
g82
g83
ssg71
g1630
sg64
(lp1637
S'server_software'
p1638
asbag57
(g78
g59
NtRp1639
(dp1640
g62
(dp1641
g89
g90
ssg71
g1630
sg64
(lp1642
S':'
asbag57
(g78
g59
NtRp1643
(dp1644
g62
(dp1645
sg71
g1630
sg64
(lp1646
g57
(g58
g59
NtRp1647
(dp1648
g62
(dp1649
g70
I4
ssg71
g1643
sg64
(lp1650
S'Rocket 1.2.6'
p1651
asbasbasbag57
(g73
g59
NtRp1652
(dp1653
g62
(dp1654
sg71
g847
sg64
(lp1655
g57
(g78
g59
NtRp1656
(dp1657
g62
(dp1658
g82
g83
ssg71
g1652
sg64
(lp1659
S'web2py_path'
p1660
asbag57
(g78
g59
NtRp1661
(dp1662
g62
(dp1663
g89
g90
ssg71
g1652
sg64
(lp1664
S':'
asbag57
(g78
g59
NtRp1665
(dp1666
g62
(dp1667
sg71
g1652
sg64
(lp1668
g57
(g58
g59
NtRp1669
(dp1670
g62
(dp1671
g70
I4
ssg71
g1665
sg64
(lp1672
g894
asbasbasbag57
(g73
g59
NtRp1673
(dp1674
g62
(dp1675
sg71
g847
sg64
(lp1676
g57
(g78
g59
NtRp1677
(dp1678
g62
(dp1679
g82
g83
ssg71
g1673
sg64
(lp1680
S'web2py_version'
p1681
asbag57
(g78
g59
NtRp1682
(dp1683
g62
(dp1684
g89
g90
ssg71
g1673
sg64
(lp1685
S':'
asbag57
(g78
g59
NtRp1686
(dp1687
g62
(dp1688
sg71
g1673
sg64
(lp1689
g57
(g58
g59
NtRp1690
(dp1691
g62
(dp1692
g70
I4
ssg71
g1686
sg64
(lp1693
g57
(g66
g59
NtRp1694
(dp1695
g62
(dp1696
g70
I3
ssg71
Nsg64
(lp1697
g57
(g73
g59
NtRp1698
(dp1699
g62
(dp1700
sg71
g1694
sg64
(lp1701
g57
(g78
g59
NtRp1702
(dp1703
g62
(dp1704
sg71
g1698
sg64
(lp1705
g57
(g58
g59
NtRp1706
(dp1707
g62
(dp1708
g70
I3
ssg71
g1702
sg64
(lp1709
S'2'
asbasbasbag57
(g73
g59
NtRp1710
(dp1711
g62
(dp1712
sg71
g1694
sg64
(lp1713
g57
(g78
g59
NtRp1714
(dp1715
g62
(dp1716
sg71
g1710
sg64
(lp1717
g57
(g58
g59
NtRp1718
(dp1719
g62
(dp1720
g70
I3
ssg71
g1714
sg64
(lp1721
S'3'
asbasbasbag57
(g73
g59
NtRp1722
(dp1723
g62
(dp1724
sg71
g1694
sg64
(lp1725
g57
(g78
g59
NtRp1726
(dp1727
g62
(dp1728
sg71
g1722
sg64
(lp1729
g57
(g58
g59
NtRp1730
(dp1731
g62
(dp1732
g70
I3
ssg71
g1726
sg64
(lp1733
S'2'
asbasbasbag57
(g73
g59
NtRp1734
(dp1735
g62
(dp1736
sg71
g1694
sg64
(lp1737
g57
(g78
g59
NtRp1738
(dp1739
g62
(dp1740
sg71
g1734
sg64
(lp1741
g57
(g58
g59
NtRp1742
(dp1743
g62
(dp1744
g70
I3
ssg71
g1738
sg64
(lp1745
S'datetime.datetime(2012, 12, 17, 15, 3, 30)'
p1746
asbasbasbag57
(g73
g59
NtRp1747
(dp1748
g62
(dp1749
sg71
g1694
sg64
(lp1750
g57
(g78
g59
NtRp1751
(dp1752
g62
(dp1753
sg71
g1747
sg64
(lp1754
g57
(g58
g59
NtRp1755
(dp1756
g62
(dp1757
g70
I3
ssg71
g1751
sg64
(lp1758
S'stable'
p1759
asbasbasbasbasbasbasbag57
(g73
g59
NtRp1760
(dp1761
g62
(dp1762
sg71
g847
sg64
(lp1763
g57
(g78
g59
NtRp1764
(dp1765
g62
(dp1766
g82
g83
ssg71
g1760
sg64
(lp1767
S'wsgi_errors'
p1768
asbag57
(g78
g59
NtRp1769
(dp1770
g62
(dp1771
g89
g90
ssg71
g1760
sg64
(lp1772
S':'
asbag57
(g78
g59
NtRp1773
(dp1774
g62
(dp1775
sg71
g1760
sg64
(lp1776
g57
(g58
g59
NtRp1777
(dp1778
g62
(dp1779
g70
I4
ssg71
g1773
sg64
(lp1780
S"<open file '<stderr>', mode 'w' at 0xb72e90d0>"
p1781
asbasbasbag57
(g73
g59
NtRp1782
(dp1783
g62
(dp1784
sg71
g847
sg64
(lp1785
g57
(g78
g59
NtRp1786
(dp1787
g62
(dp1788
g82
g83
ssg71
g1782
sg64
(lp1789
S'wsgi_file_wrapper'
p1790
asbag57
(g78
g59
NtRp1791
(dp1792
g62
(dp1793
g89
g90
ssg71
g1782
sg64
(lp1794
S':'
asbag57
(g78
g59
NtRp1795
(dp1796
g62
(dp1797
sg71
g1782
sg64
(lp1798
g57
(g58
g59
NtRp1799
(dp1800
g62
(dp1801
g70
I4
ssg71
g1795
sg64
(lp1802
S'<class wsgiref.util.FileWrapper at 0x88da65c>'
p1803
asbasbasbag57
(g73
g59
NtRp1804
(dp1805
g62
(dp1806
sg71
g847
sg64
(lp1807
g57
(g78
g59
NtRp1808
(dp1809
g62
(dp1810
g82
g83
ssg71
g1804
sg64
(lp1811
S'wsgi_input'
p1812
asbag57
(g78
g59
NtRp1813
(dp1814
g62
(dp1815
g89
g90
ssg71
g1804
sg64
(lp1816
S':'
asbag57
(g78
g59
NtRp1817
(dp1818
g62
(dp1819
sg71
g1804
sg64
(lp1820
g57
(g58
g59
NtRp1821
(dp1822
g62
(dp1823
g70
I4
ssg71
g1817
sg64
(lp1824
S'<socket._fileobject object at 0xada9bcec>'
p1825
asbasbasbag57
(g73
g59
NtRp1826
(dp1827
g62
(dp1828
sg71
g847
sg64
(lp1829
g57
(g78
g59
NtRp1830
(dp1831
g62
(dp1832
g82
g83
ssg71
g1826
sg64
(lp1833
S'wsgi_multiprocess'
p1834
asbag57
(g78
g59
NtRp1835
(dp1836
g62
(dp1837
g89
g90
ssg71
g1826
sg64
(lp1838
S':'
asbag57
(g78
g59
NtRp1839
(dp1840
g62
(dp1841
sg71
g1826
sg64
(lp1842
g57
(g58
g59
NtRp1843
(dp1844
g62
(dp1845
g70
I4
ssg71
g1839
sg64
(lp1846
g100
asbasbasbag57
(g73
g59
NtRp1847
(dp1848
g62
(dp1849
sg71
g847
sg64
(lp1850
g57
(g78
g59
NtRp1851
(dp1852
g62
(dp1853
g82
g83
ssg71
g1847
sg64
(lp1854
S'wsgi_multithread'
p1855
asbag57
(g78
g59
NtRp1856
(dp1857
g62
(dp1858
g89
g90
ssg71
g1847
sg64
(lp1859
S':'
asbag57
(g78
g59
NtRp1860
(dp1861
g62
(dp1862
sg71
g1847
sg64
(lp1863
g57
(g58
g59
NtRp1864
(dp1865
g62
(dp1866
g70
I4
ssg71
g1860
sg64
(lp1867
S'True'
p1868
asbasbasbag57
(g73
g59
NtRp1869
(dp1870
g62
(dp1871
sg71
g847
sg64
(lp1872
g57
(g78
g59
NtRp1873
(dp1874
g62
(dp1875
g82
g83
ssg71
g1869
sg64
(lp1876
S'wsgi_run_once'
p1877
asbag57
(g78
g59
NtRp1878
(dp1879
g62
(dp1880
g89
g90
ssg71
g1869
sg64
(lp1881
S':'
asbag57
(g78
g59
NtRp1882
(dp1883
g62
(dp1884
sg71
g1869
sg64
(lp1885
g57
(g58
g59
NtRp1886
(dp1887
g62
(dp1888
g70
I4
ssg71
g1882
sg64
(lp1889
g100
asbasbasbag57
(g73
g59
NtRp1890
(dp1891
g62
(dp1892
sg71
g847
sg64
(lp1893
g57
(g78
g59
NtRp1894
(dp1895
g62
(dp1896
g82
g83
ssg71
g1890
sg64
(lp1897
S'wsgi_url_scheme'
p1898
asbag57
(g78
g59
NtRp1899
(dp1900
g62
(dp1901
g89
g90
ssg71
g1890
sg64
(lp1902
S':'
asbag57
(g78
g59
NtRp1903
(dp1904
g62
(dp1905
sg71
g1890
sg64
(lp1906
g57
(g58
g59
NtRp1907
(dp1908
g62
(dp1909
g70
I4
ssg71
g1903
sg64
(lp1910
S'http'
p1911
asbasbasbag57
(g73
g59
NtRp1912
(dp1913
g62
(dp1914
sg71
g847
sg64
(lp1915
g57
(g78
g59
NtRp1916
(dp1917
g62
(dp1918
g82
g83
ssg71
g1912
sg64
(lp1919
S'wsgi_version'
p1920
asbag57
(g78
g59
NtRp1921
(dp1922
g62
(dp1923
g89
g90
ssg71
g1912
sg64
(lp1924
S':'
asbag57
(g78
g59
NtRp1925
(dp1926
g62
(dp1927
sg71
g1912
sg64
(lp1928
g57
(g58
g59
NtRp1929
(dp1930
g62
(dp1931
g70
I4
ssg71
g1925
sg64
(lp1932
g57
(g66
g59
NtRp1933
(dp1934
g62
(dp1935
g70
I3
ssg71
Nsg64
(lp1936
g57
(g73
g59
NtRp1937
(dp1938
g62
(dp1939
sg71
g1933
sg64
(lp1940
g57
(g78
g59
NtRp1941
(dp1942
g62
(dp1943
sg71
g1937
sg64
(lp1944
g57
(g58
g59
NtRp1945
(dp1946
g62
(dp1947
g70
I3
ssg71
g1941
sg64
(lp1948
S'1'
asbasbasbag57
(g73
g59
NtRp1949
(dp1950
g62
(dp1951
sg71
g1933
sg64
(lp1952
g57
(g78
g59
NtRp1953
(dp1954
g62
(dp1955
sg71
g1949
sg64
(lp1956
g57
(g58
g59
NtRp1957
(dp1958
g62
(dp1959
g70
I3
ssg71
g1953
sg64
(lp1960
S'0'
asbasbasbasbasbasbasbasbasbasbasbag57
(g73
g59
NtRp1961
(dp1962
g62
(dp1963
sg71
g67
sg64
(lp1964
g57
(g78
g59
NtRp1965
(dp1966
g62
(dp1967
g82
g83
ssg71
g1961
sg64
(lp1968
S'extension'
p1969
asbag57
(g78
g59
NtRp1970
(dp1971
g62
(dp1972
g89
g90
ssg71
g1961
sg64
(lp1973
S':'
asbag57
(g78
g59
NtRp1974
(dp1975
g62
(dp1976
sg71
g1961
sg64
(lp1977
g57
(g58
g59
NtRp1978
(dp1979
g62
(dp1980
g70
I5
ssg71
g1974
sg64
(lp1981
S'html'
p1982
asbasbasbag57
(g73
g59
NtRp1983
(dp1984
g62
(dp1985
sg71
g67
sg64
(lp1986
g57
(g78
g59
NtRp1987
(dp1988
g62
(dp1989
g82
g83
ssg71
g1983
sg64
(lp1990
S'folder'
p1991
asbag57
(g78
g59
NtRp1992
(dp1993
g62
(dp1994
g89
g90
ssg71
g1983
sg64
(lp1995
S':'
asbag57
(g78
g59
NtRp1996
(dp1997
g62
(dp1998
sg71
g1983
sg64
(lp1999
g57
(g58
g59
NtRp2000
(dp2001
g62
(dp2002
g70
I5
ssg71
g1996
sg64
(lp2003
S'/home/aditi/Desktop/web2py/applications/assignment2/'
p2004
asbasbasbag57
(g73
g59
NtRp2005
(dp2006
g62
(dp2007
sg71
g67
sg64
(lp2008
g57
(g78
g59
NtRp2009
(dp2010
g62
(dp2011
g82
g83
ssg71
g2005
sg64
(lp2012
S'function'
p2013
asbag57
(g78
g59
NtRp2014
(dp2015
g62
(dp2016
g89
g90
ssg71
g2005
sg64
(lp2017
S':'
asbag57
(g78
g59
NtRp2018
(dp2019
g62
(dp2020
sg71
g2005
sg64
(lp2021
g57
(g58
g59
NtRp2022
(dp2023
g62
(dp2024
g70
I5
ssg71
g2018
sg64
(lp2025
S'user_homepage'
p2026
asbasbasbag57
(g73
g59
NtRp2027
(dp2028
g62
(dp2029
sg71
g67
sg64
(lp2030
g57
(g78
g59
NtRp2031
(dp2032
g62
(dp2033
g82
g83
ssg71
g2027
sg64
(lp2034
S'get_vars'
p2035
asbag57
(g78
g59
NtRp2036
(dp2037
g62
(dp2038
g89
g90
ssg71
g2027
sg64
(lp2039
S':'
asbag57
(g78
g59
NtRp2040
(dp2041
g62
(dp2042
sg71
g2027
sg64
(lp2043
g57
(g58
g59
NtRp2044
(dp2045
g62
(dp2046
g70
I5
ssg71
g2040
sg64
(lp2047
g57
(g66
g59
NtRp2048
(dp2049
g62
(dp2050
g70
I4
ssg71
Nsg64
(lp2051
sbasbasbasbag57
(g73
g59
NtRp2052
(dp2053
g62
(dp2054
sg71
g67
sg64
(lp2055
g57
(g78
g59
NtRp2056
(dp2057
g62
(dp2058
g82
g83
ssg71
g2052
sg64
(lp2059
S'global_settings'
p2060
asbag57
(g78
g59
NtRp2061
(dp2062
g62
(dp2063
g89
g90
ssg71
g2052
sg64
(lp2064
S':'
asbag57
(g78
g59
NtRp2065
(dp2066
g62
(dp2067
sg71
g2052
sg64
(lp2068
g57
(g58
g59
NtRp2069
(dp2070
g62
(dp2071
g70
I5
ssg71
g2065
sg64
(lp2072
g57
(g66
g59
NtRp2073
(dp2074
g62
(dp2075
g70
I4
ssg71
Nsg64
(lp2076
g57
(g73
g59
NtRp2077
(dp2078
g62
(dp2079
sg71
g2073
sg64
(lp2080
g57
(g78
g59
NtRp2081
(dp2082
g62
(dp2083
g82
g83
ssg71
g2077
sg64
(lp2084
g859
asbag57
(g78
g59
NtRp2085
(dp2086
g62
(dp2087
g89
g90
ssg71
g2077
sg64
(lp2088
S':'
asbag57
(g78
g59
NtRp2089
(dp2090
g62
(dp2091
sg71
g2077
sg64
(lp2092
g57
(g58
g59
NtRp2093
(dp2094
g62
(dp2095
g70
I4
ssg71
g2089
sg64
(lp2096
S"set(['/home/aditi/Desktop/web2py/applications/assignment2/', '/home/aditi/Desktop/web2py/applications/admin/', '/home/aditi/Desktop/web2py/applications/welcome/'])"
p2097
asbasbasbag57
(g73
g59
NtRp2098
(dp2099
g62
(dp2100
sg71
g2073
sg64
(lp2101
g57
(g78
g59
NtRp2102
(dp2103
g62
(dp2104
g82
g83
ssg71
g2098
sg64
(lp2105
g881
asbag57
(g78
g59
NtRp2106
(dp2107
g62
(dp2108
g89
g90
ssg71
g2098
sg64
(lp2109
S':'
asbag57
(g78
g59
NtRp2110
(dp2111
g62
(dp2112
sg71
g2098
sg64
(lp2113
g57
(g58
g59
NtRp2114
(dp2115
g62
(dp2116
g70
I4
ssg71
g2110
sg64
(lp2117
g894
asbasbasbag57
(g73
g59
NtRp2118
(dp2119
g62
(dp2120
sg71
g2073
sg64
(lp2121
g57
(g78
g59
NtRp2122
(dp2123
g62
(dp2124
g82
g83
ssg71
g2118
sg64
(lp2125
g903
asbag57
(g78
g59
NtRp2126
(dp2127
g62
(dp2128
g89
g90
ssg71
g2118
sg64
(lp2129
S':'
asbag57
(g78
g59
NtRp2130
(dp2131
g62
(dp2132
sg71
g2118
sg64
(lp2133
g57
(g58
g59
NtRp2134
(dp2135
g62
(dp2136
g70
I4
ssg71
g2130
sg64
(lp2137
g57
(g66
g59
NtRp2138
(dp2139
g62
(dp2140
g70
I3
ssg71
Nsg64
(lp2141
sbasbasbasbag57
(g73
g59
NtRp2142
(dp2143
g62
(dp2144
sg71
g2073
sg64
(lp2145
g57
(g78
g59
NtRp2146
(dp2147
g62
(dp2148
g82
g83
ssg71
g2142
sg64
(lp2149
g928
asbag57
(g78
g59
NtRp2150
(dp2151
g62
(dp2152
g89
g90
ssg71
g2142
sg64
(lp2153
S':'
asbag57
(g78
g59
NtRp2154
(dp2155
g62
(dp2156
sg71
g2142
sg64
(lp2157
g57
(g58
g59
NtRp2158
(dp2159
g62
(dp2160
g70
I4
ssg71
g2154
sg64
(lp2161
S"<Values at 0x891ea0c: {'verbose': False, 'ip': '127.0.0.1', 'with_scheduler': False, 'ips': [], 'shutdown_timeout': 5, 'taskbar': False, 'port': 8000, 'maxthreads': None, 'softcron': False, 'server_name': 'ubuntu', 'bpython': False, 'nogui': False, 'pid_filename': 'httpserver.pid', 'extcron': False, 'runcron': False, 'run_system_tests': False, 'test': None, 'folder': '/home/aditi/Desktop/web2py', 'config': '', 'import_models': False, 'winservice': '', 'shell': None, 'run': '', 'log_filename': 'httpserver.log', 'debuglevel': 30, 'args': [''], 'socket_timeout': 5, 'ssl_ca_certificate': None, 'scheduler': None, 'profiler_filename': None, 'ssl_private_key': '', 'scheduler_groups': None, 'password': '<ask>', 'request_queue_size': 5, 'ssl_certificate': '', 'cronjob': False, 'numthreads': None, 'quiet': False, 'interfaces': None, 'minthreads': None, 'timeout': 10, 'plain': False, 'nobanner': False}>"
p2162
asbasbasbag57
(g73
g59
NtRp2163
(dp2164
g62
(dp2165
sg71
g2073
sg64
(lp2166
g57
(g78
g59
NtRp2167
(dp2168
g62
(dp2169
g82
g83
ssg71
g2163
sg64
(lp2170
g994
asbag57
(g78
g59
NtRp2171
(dp2172
g62
(dp2173
g89
g90
ssg71
g2163
sg64
(lp2174
S':'
asbag57
(g78
g59
NtRp2175
(dp2176
g62
(dp2177
sg71
g2163
sg64
(lp2178
g57
(g58
g59
NtRp2179
(dp2180
g62
(dp2181
g70
I4
ssg71
g2175
sg64
(lp2182
S'set([])'
p2183
asbasbasbag57
(g73
g59
NtRp2184
(dp2185
g62
(dp2186
sg71
g2073
sg64
(lp2187
g57
(g78
g59
NtRp2188
(dp2189
g62
(dp2190
g82
g83
ssg71
g2184
sg64
(lp2191
g1016
asbag57
(g78
g59
NtRp2192
(dp2193
g62
(dp2194
g89
g90
ssg71
g2184
sg64
(lp2195
S':'
asbag57
(g78
g59
NtRp2196
(dp2197
g62
(dp2198
sg71
g2184
sg64
(lp2199
g57
(g58
g59
NtRp2200
(dp2201
g62
(dp2202
g70
I4
ssg71
g2196
sg64
(lp2203
g100
asbasbasbag57
(g73
g59
NtRp2204
(dp2205
g62
(dp2206
sg71
g2073
sg64
(lp2207
g57
(g78
g59
NtRp2208
(dp2209
g62
(dp2210
g82
g83
ssg71
g2204
sg64
(lp2211
g1037
asbag57
(g78
g59
NtRp2212
(dp2213
g62
(dp2214
g89
g90
ssg71
g2204
sg64
(lp2215
S':'
asbag57
(g78
g59
NtRp2216
(dp2217
g62
(dp2218
sg71
g2204
sg64
(lp2219
g57
(g58
g59
NtRp2220
(dp2221
g62
(dp2222
g70
I4
ssg71
g2216
sg64
(lp2223
g1050
asbasbasbag57
(g73
g59
NtRp2224
(dp2225
g62
(dp2226
sg71
g2073
sg64
(lp2227
g57
(g78
g59
NtRp2228
(dp2229
g62
(dp2230
g82
g83
ssg71
g2224
sg64
(lp2231
g1277
asbag57
(g78
g59
NtRp2232
(dp2233
g62
(dp2234
g89
g90
ssg71
g2224
sg64
(lp2235
S':'
asbag57
(g78
g59
NtRp2236
(dp2237
g62
(dp2238
sg71
g2224
sg64
(lp2239
g57
(g58
g59
NtRp2240
(dp2241
g62
(dp2242
g70
I4
ssg71
g2236
sg64
(lp2243
g100
asbasbasbag57
(g73
g59
NtRp2244
(dp2245
g62
(dp2246
sg71
g2073
sg64
(lp2247
g57
(g78
g59
NtRp2248
(dp2249
g62
(dp2250
g82
g83
ssg71
g2244
sg64
(lp2251
g1298
asbag57
(g78
g59
NtRp2252
(dp2253
g62
(dp2254
g89
g90
ssg71
g2244
sg64
(lp2255
S':'
asbag57
(g78
g59
NtRp2256
(dp2257
g62
(dp2258
sg71
g2244
sg64
(lp2259
g57
(g58
g59
NtRp2260
(dp2261
g62
(dp2262
g70
I4
ssg71
g2256
sg64
(lp2263
g100
asbasbasbag57
(g73
g59
NtRp2264
(dp2265
g62
(dp2266
sg71
g2073
sg64
(lp2267
g57
(g78
g59
NtRp2268
(dp2269
g62
(dp2270
g82
g83
ssg71
g2264
sg64
(lp2271
g1319
asbag57
(g78
g59
NtRp2272
(dp2273
g62
(dp2274
g89
g90
ssg71
g2264
sg64
(lp2275
S':'
asbag57
(g78
g59
NtRp2276
(dp2277
g62
(dp2278
sg71
g2264
sg64
(lp2279
g57
(g58
g59
NtRp2280
(dp2281
g62
(dp2282
g70
I4
ssg71
g2276
sg64
(lp2283
g57
(g66
g59
NtRp2284
(dp2285
g62
(dp2286
g70
I3
ssg71
Nsg64
(lp2287
g57
(g73
g59
NtRp2288
(dp2289
g62
(dp2290
sg71
g2284
sg64
(lp2291
g57
(g78
g59
NtRp2292
(dp2293
g62
(dp2294
sg71
g2288
sg64
(lp2295
g57
(g58
g59
NtRp2296
(dp2297
g62
(dp2298
g70
I3
ssg71
g2292
sg64
(lp2299
g1348
asbasbasbag57
(g73
g59
NtRp2300
(dp2301
g62
(dp2302
sg71
g2284
sg64
(lp2303
g57
(g78
g59
NtRp2304
(dp2305
g62
(dp2306
sg71
g2300
sg64
(lp2307
g57
(g58
g59
NtRp2308
(dp2309
g62
(dp2310
g70
I3
ssg71
g2304
sg64
(lp2311
g1361
asbasbasbag57
(g73
g59
NtRp2312
(dp2313
g62
(dp2314
sg71
g2284
sg64
(lp2315
g57
(g78
g59
NtRp2316
(dp2317
g62
(dp2318
sg71
g2312
sg64
(lp2319
g57
(g58
g59
NtRp2320
(dp2321
g62
(dp2322
g70
I3
ssg71
g2316
sg64
(lp2323
g1374
asbasbasbag57
(g73
g59
NtRp2324
(dp2325
g62
(dp2326
sg71
g2284
sg64
(lp2327
g57
(g78
g59
NtRp2328
(dp2329
g62
(dp2330
sg71
g2324
sg64
(lp2331
g57
(g58
g59
NtRp2332
(dp2333
g62
(dp2334
g70
I3
ssg71
g2328
sg64
(lp2335
g1387
asbasbasbag57
(g73
g59
NtRp2336
(dp2337
g62
(dp2338
sg71
g2284
sg64
(lp2339
g57
(g78
g59
NtRp2340
(dp2341
g62
(dp2342
sg71
g2336
sg64
(lp2343
g57
(g58
g59
NtRp2344
(dp2345
g62
(dp2346
g70
I3
ssg71
g2340
sg64
(lp2347
g1400
asbasbasbag57
(g73
g59
NtRp2348
(dp2349
g62
(dp2350
sg71
g2284
sg64
(lp2351
g57
(g78
g59
NtRp2352
(dp2353
g62
(dp2354
sg71
g2348
sg64
(lp2355
g57
(g58
g59
NtRp2356
(dp2357
g62
(dp2358
g70
I3
ssg71
g2352
sg64
(lp2359
g1413
asbasbasbasbasbasbasbag57
(g73
g59
NtRp2360
(dp2361
g62
(dp2362
sg71
g2073
sg64
(lp2363
g57
(g78
g59
NtRp2364
(dp2365
g62
(dp2366
g82
g83
ssg71
g2360
sg64
(lp2367
g1681
asbag57
(g78
g59
NtRp2368
(dp2369
g62
(dp2370
g89
g90
ssg71
g2360
sg64
(lp2371
S':'
asbag57
(g78
g59
NtRp2372
(dp2373
g62
(dp2374
sg71
g2360
sg64
(lp2375
g57
(g58
g59
NtRp2376
(dp2377
g62
(dp2378
g70
I4
ssg71
g2372
sg64
(lp2379
g57
(g66
g59
NtRp2380
(dp2381
g62
(dp2382
g70
I3
ssg71
Nsg64
(lp2383
g57
(g73
g59
NtRp2384
(dp2385
g62
(dp2386
sg71
g2380
sg64
(lp2387
g57
(g78
g59
NtRp2388
(dp2389
g62
(dp2390
sg71
g2384
sg64
(lp2391
g57
(g58
g59
NtRp2392
(dp2393
g62
(dp2394
g70
I3
ssg71
g2388
sg64
(lp2395
S'2'
asbasbasbag57
(g73
g59
NtRp2396
(dp2397
g62
(dp2398
sg71
g2380
sg64
(lp2399
g57
(g78
g59
NtRp2400
(dp2401
g62
(dp2402
sg71
g2396
sg64
(lp2403
g57
(g58
g59
NtRp2404
(dp2405
g62
(dp2406
g70
I3
ssg71
g2400
sg64
(lp2407
S'3'
asbasbasbag57
(g73
g59
NtRp2408
(dp2409
g62
(dp2410
sg71
g2380
sg64
(lp2411
g57
(g78
g59
NtRp2412
(dp2413
g62
(dp2414
sg71
g2408
sg64
(lp2415
g57
(g58
g59
NtRp2416
(dp2417
g62
(dp2418
g70
I3
ssg71
g2412
sg64
(lp2419
S'2'
asbasbasbag57
(g73
g59
NtRp2420
(dp2421
g62
(dp2422
sg71
g2380
sg64
(lp2423
g57
(g78
g59
NtRp2424
(dp2425
g62
(dp2426
sg71
g2420
sg64
(lp2427
g57
(g58
g59
NtRp2428
(dp2429
g62
(dp2430
g70
I3
ssg71
g2424
sg64
(lp2431
S'datetime.datetime(2012, 12, 17, 15, 3, 30)'
p2432
asbasbasbag57
(g73
g59
NtRp2433
(dp2434
g62
(dp2435
sg71
g2380
sg64
(lp2436
g57
(g78
g59
NtRp2437
(dp2438
g62
(dp2439
sg71
g2433
sg64
(lp2440
g57
(g58
g59
NtRp2441
(dp2442
g62
(dp2443
g70
I3
ssg71
g2437
sg64
(lp2444
g1759
asbasbasbasbasbasbasbasbasbasbasbag57
(g73
g59
NtRp2445
(dp2446
g62
(dp2447
sg71
g67
sg64
(lp2448
g57
(g78
g59
NtRp2449
(dp2450
g62
(dp2451
g82
g83
ssg71
g2445
sg64
(lp2452
S'is_https'
p2453
asbag57
(g78
g59
NtRp2454
(dp2455
g62
(dp2456
g89
g90
ssg71
g2445
sg64
(lp2457
S':'
asbag57
(g78
g59
NtRp2458
(dp2459
g62
(dp2460
sg71
g2445
sg64
(lp2461
g57
(g58
g59
NtRp2462
(dp2463
g62
(dp2464
g70
I5
ssg71
g2458
sg64
(lp2465
g100
asbasbasbag57
(g73
g59
NtRp2466
(dp2467
g62
(dp2468
sg71
g67
sg64
(lp2469
g57
(g78
g59
NtRp2470
(dp2471
g62
(dp2472
g82
g83
ssg71
g2466
sg64
(lp2473
S'is_local'
p2474
asbag57
(g78
g59
NtRp2475
(dp2476
g62
(dp2477
g89
g90
ssg71
g2466
sg64
(lp2478
S':'
asbag57
(g78
g59
NtRp2479
(dp2480
g62
(dp2481
sg71
g2466
sg64
(lp2482
g57
(g58
g59
NtRp2483
(dp2484
g62
(dp2485
g70
I5
ssg71
g2479
sg64
(lp2486
g1868
asbasbasbag57
(g73
g59
NtRp2487
(dp2488
g62
(dp2489
sg71
g67
sg64
(lp2490
g57
(g78
g59
NtRp2491
(dp2492
g62
(dp2493
g82
g83
ssg71
g2487
sg64
(lp2494
S'is_restful'
p2495
asbag57
(g78
g59
NtRp2496
(dp2497
g62
(dp2498
g89
g90
ssg71
g2487
sg64
(lp2499
S':'
asbag57
(g78
g59
NtRp2500
(dp2501
g62
(dp2502
sg71
g2487
sg64
(lp2503
g57
(g58
g59
NtRp2504
(dp2505
g62
(dp2506
g70
I5
ssg71
g2500
sg64
(lp2507
g100
asbasbasbag57
(g73
g59
NtRp2508
(dp2509
g62
(dp2510
sg71
g67
sg64
(lp2511
g57
(g78
g59
NtRp2512
(dp2513
g62
(dp2514
g82
g83
ssg71
g2508
sg64
(lp2515
S'now'
p2516
asbag57
(g78
g59
NtRp2517
(dp2518
g62
(dp2519
g89
g90
ssg71
g2508
sg64
(lp2520
S':'
asbag57
(g78
g59
NtRp2521
(dp2522
g62
(dp2523
sg71
g2508
sg64
(lp2524
g57
(g58
g59
NtRp2525
(dp2526
g62
(dp2527
g70
I5
ssg71
g2521
sg64
(lp2528
S'datetime.datetime(2013, 8, 30, 13, 41, 8, 643942)'
p2529
asbasbasbag57
(g73
g59
NtRp2530
(dp2531
g62
(dp2532
sg71
g67
sg64
(lp2533
g57
(g78
g59
NtRp2534
(dp2535
g62
(dp2536
g82
g83
ssg71
g2530
sg64
(lp2537
S'post_vars'
p2538
asbag57
(g78
g59
NtRp2539
(dp2540
g62
(dp2541
g89
g90
ssg71
g2530
sg64
(lp2542
S':'
asbag57
(g78
g59
NtRp2543
(dp2544
g62
(dp2545
sg71
g2530
sg64
(lp2546
g57
(g58
g59
NtRp2547
(dp2548
g62
(dp2549
g70
I5
ssg71
g2543
sg64
(lp2550
g57
(g66
g59
NtRp2551
(dp2552
g62
(dp2553
g70
I4
ssg71
Nsg64
(lp2554
sbasbasbasbag57
(g73
g59
NtRp2555
(dp2556
g62
(dp2557
sg71
g67
sg64
(lp2558
g57
(g78
g59
NtRp2559
(dp2560
g62
(dp2561
g82
g83
ssg71
g2555
sg64
(lp2562
S'raw_args'
p2563
asbag57
(g78
g59
NtRp2564
(dp2565
g62
(dp2566
g89
g90
ssg71
g2555
sg64
(lp2567
S':'
asbag57
(g78
g59
NtRp2568
(dp2569
g62
(dp2570
sg71
g2555
sg64
(lp2571
g57
(g58
g59
NtRp2572
(dp2573
g62
(dp2574
g70
I5
ssg71
g2568
sg64
(lp2575
S''
asbasbasbag57
(g73
g59
NtRp2576
(dp2577
g62
(dp2578
sg71
g67
sg64
(lp2579
g57
(g78
g59
NtRp2580
(dp2581
g62
(dp2582
g82
g83
ssg71
g2576
sg64
(lp2583
S'raw_extension'
p2584
asbag57
(g78
g59
NtRp2585
(dp2586
g62
(dp2587
g89
g90
ssg71
g2576
sg64
(lp2588
S':'
asbag57
(g78
g59
NtRp2589
(dp2590
g62
(dp2591
sg71
g2576
sg64
(lp2592
g57
(g58
g59
NtRp2593
(dp2594
g62
(dp2595
g70
I5
ssg71
g2589
sg64
(lp2596
S'None'
p2597
asbasbasbag57
(g73
g59
NtRp2598
(dp2599
g62
(dp2600
sg71
g67
sg64
(lp2601
g57
(g78
g59
NtRp2602
(dp2603
g62
(dp2604
g82
g83
ssg71
g2598
sg64
(lp2605
S'url'
p2606
asbag57
(g78
g59
NtRp2607
(dp2608
g62
(dp2609
g89
g90
ssg71
g2598
sg64
(lp2610
S':'
asbag57
(g78
g59
NtRp2611
(dp2612
g62
(dp2613
sg71
g2598
sg64
(lp2614
g57
(g58
g59
NtRp2615
(dp2616
g62
(dp2617
g70
I5
ssg71
g2611
sg64
(lp2618
g1435
asbasbasbag57
(g73
g59
NtRp2619
(dp2620
g62
(dp2621
sg71
g67
sg64
(lp2622
g57
(g78
g59
NtRp2623
(dp2624
g62
(dp2625
g82
g83
ssg71
g2619
sg64
(lp2626
S'utcnow'
p2627
asbag57
(g78
g59
NtRp2628
(dp2629
g62
(dp2630
g89
g90
ssg71
g2619
sg64
(lp2631
S':'
asbag57
(g78
g59
NtRp2632
(dp2633
g62
(dp2634
sg71
g2619
sg64
(lp2635
g57
(g58
g59
NtRp2636
(dp2637
g62
(dp2638
g70
I5
ssg71
g2632
sg64
(lp2639
S'datetime.datetime(2013, 8, 30, 8, 11, 8, 643975)'
p2640
asbasbasbag57
(g73
g59
NtRp2641
(dp2642
g62
(dp2643
sg71
g67
sg64
(lp2644
g57
(g78
g59
NtRp2645
(dp2646
g62
(dp2647
g82
g83
ssg71
g2641
sg64
(lp2648
S'uuid'
p2649
asbag57
(g78
g59
NtRp2650
(dp2651
g62
(dp2652
g89
g90
ssg71
g2641
sg64
(lp2653
S':'
asbag57
(g78
g59
NtRp2654
(dp2655
g62
(dp2656
sg71
g2641
sg64
(lp2657
g57
(g58
g59
NtRp2658
(dp2659
g62
(dp2660
g70
I5
ssg71
g2654
sg64
(lp2661
S'assignment2/127.0.0.1.2013-08-30.13-41-08.6d1f084c-d967-46fb-83ae-113eff096e35'
p2662
asbasbasbag57
(g73
g59
NtRp2663
(dp2664
g62
(dp2665
sg71
g67
sg64
(lp2666
g57
(g78
g59
NtRp2667
(dp2668
g62
(dp2669
g82
g83
ssg71
g2663
sg64
(lp2670
S'vars'
p2671
asbag57
(g78
g59
NtRp2672
(dp2673
g62
(dp2674
g89
g90
ssg71
g2663
sg64
(lp2675
S':'
asbag57
(g78
g59
NtRp2676
(dp2677
g62
(dp2678
sg71
g2663
sg64
(lp2679
g57
(g58
g59
NtRp2680
(dp2681
g62
(dp2682
g70
I5
ssg71
g2676
sg64
(lp2683
g57
(g66
g59
NtRp2684
(dp2685
g62
(dp2686
g70
I4
ssg71
Nsg64
(lp2687
sbasbasbasbag57
(g73
g59
NtRp2688
(dp2689
g62
(dp2690
sg71
g67
sg64
(lp2691
g57
(g78
g59
NtRp2692
(dp2693
g62
(dp2694
g82
g83
ssg71
g2688
sg64
(lp2695
S'wsgi'
p2696
asbag57
(g78
g59
NtRp2697
(dp2698
g62
(dp2699
g89
g90
ssg71
g2688
sg64
(lp2700
S':'
asbag57
(g78
g59
NtRp2701
(dp2702
g62
(dp2703
sg71
g2688
sg64
(lp2704
g57
(g58
g59
NtRp2705
(dp2706
g62
(dp2707
g70
I5
ssg71
g2701
sg64
(lp2708
g57
(g66
g59
NtRp2709
(dp2710
g62
(dp2711
g70
I4
ssg71
Nsg64
(lp2712
g57
(g73
g59
NtRp2713
(dp2714
g62
(dp2715
sg71
g2709
sg64
(lp2716
g57
(g78
g59
NtRp2717
(dp2718
g62
(dp2719
g82
g83
ssg71
g2713
sg64
(lp2720
S'environ'
p2721
asbag57
(g78
g59
NtRp2722
(dp2723
g62
(dp2724
g89
g90
ssg71
g2713
sg64
(lp2725
S':'
asbag57
(g78
g59
NtRp2726
(dp2727
g62
(dp2728
sg71
g2713
sg64
(lp2729
g57
(g58
g59
NtRp2730
(dp2731
g62
(dp2732
g70
I4
ssg71
g2726
sg64
(lp2733
g57
(g66
g59
NtRp2734
(dp2735
g62
(dp2736
g70
I3
ssg71
Nsg64
(lp2737
g57
(g73
g59
NtRp2738
(dp2739
g62
(dp2740
sg71
g2734
sg64
(lp2741
g57
(g78
g59
NtRp2742
(dp2743
g62
(dp2744
g82
g83
ssg71
g2738
sg64
(lp2745
S'CONTENT_LENGTH'
p2746
asbag57
(g78
g59
NtRp2747
(dp2748
g62
(dp2749
g89
g90
ssg71
g2738
sg64
(lp2750
S':'
asbag57
(g78
g59
NtRp2751
(dp2752
g62
(dp2753
sg71
g2738
sg64
(lp2754
g57
(g58
g59
NtRp2755
(dp2756
g62
(dp2757
g70
I3
ssg71
g2751
sg64
(lp2758
g963
asbasbasbag57
(g73
g59
NtRp2759
(dp2760
g62
(dp2761
sg71
g2734
sg64
(lp2762
g57
(g78
g59
NtRp2763
(dp2764
g62
(dp2765
g82
g83
ssg71
g2759
sg64
(lp2766
S'CONTENT_TYPE'
p2767
asbag57
(g78
g59
NtRp2768
(dp2769
g62
(dp2770
g89
g90
ssg71
g2759
sg64
(lp2771
S':'
asbag57
(g78
g59
NtRp2772
(dp2773
g62
(dp2774
sg71
g2759
sg64
(lp2775
g57
(g58
g59
NtRp2776
(dp2777
g62
(dp2778
g70
I3
ssg71
g2772
sg64
(lp2779
g985
asbasbasbag57
(g73
g59
NtRp2780
(dp2781
g62
(dp2782
sg71
g2734
sg64
(lp2783
g57
(g78
g59
NtRp2784
(dp2785
g62
(dp2786
g82
g83
ssg71
g2780
sg64
(lp2787
S'HTTP_ACCEPT'
p2788
asbag57
(g78
g59
NtRp2789
(dp2790
g62
(dp2791
g89
g90
ssg71
g2780
sg64
(lp2792
S':'
asbag57
(g78
g59
NtRp2793
(dp2794
g62
(dp2795
sg71
g2780
sg64
(lp2796
g57
(g58
g59
NtRp2797
(dp2798
g62
(dp2799
g70
I3
ssg71
g2793
sg64
(lp2800
g1072
asbasbasbag57
(g73
g59
NtRp2801
(dp2802
g62
(dp2803
sg71
g2734
sg64
(lp2804
g57
(g78
g59
NtRp2805
(dp2806
g62
(dp2807
g82
g83
ssg71
g2801
sg64
(lp2808
S'HTTP_ACCEPT_ENCODING'
p2809
asbag57
(g78
g59
NtRp2810
(dp2811
g62
(dp2812
g89
g90
ssg71
g2801
sg64
(lp2813
S':'
asbag57
(g78
g59
NtRp2814
(dp2815
g62
(dp2816
sg71
g2801
sg64
(lp2817
g57
(g58
g59
NtRp2818
(dp2819
g62
(dp2820
g70
I3
ssg71
g2814
sg64
(lp2821
g1094
asbasbasbag57
(g73
g59
NtRp2822
(dp2823
g62
(dp2824
sg71
g2734
sg64
(lp2825
g57
(g78
g59
NtRp2826
(dp2827
g62
(dp2828
g82
g83
ssg71
g2822
sg64
(lp2829
S'HTTP_ACCEPT_LANGUAGE'
p2830
asbag57
(g78
g59
NtRp2831
(dp2832
g62
(dp2833
g89
g90
ssg71
g2822
sg64
(lp2834
S':'
asbag57
(g78
g59
NtRp2835
(dp2836
g62
(dp2837
sg71
g2822
sg64
(lp2838
g57
(g58
g59
NtRp2839
(dp2840
g62
(dp2841
g70
I3
ssg71
g2835
sg64
(lp2842
g1116
asbasbasbag57
(g73
g59
NtRp2843
(dp2844
g62
(dp2845
sg71
g2734
sg64
(lp2846
g57
(g78
g59
NtRp2847
(dp2848
g62
(dp2849
g82
g83
ssg71
g2843
sg64
(lp2850
S'HTTP_CONNECTION'
p2851
asbag57
(g78
g59
NtRp2852
(dp2853
g62
(dp2854
g89
g90
ssg71
g2843
sg64
(lp2855
S':'
asbag57
(g78
g59
NtRp2856
(dp2857
g62
(dp2858
sg71
g2843
sg64
(lp2859
g57
(g58
g59
NtRp2860
(dp2861
g62
(dp2862
g70
I3
ssg71
g2856
sg64
(lp2863
g1138
asbasbasbag57
(g73
g59
NtRp2864
(dp2865
g62
(dp2866
sg71
g2734
sg64
(lp2867
g57
(g78
g59
NtRp2868
(dp2869
g62
(dp2870
g82
g83
ssg71
g2864
sg64
(lp2871
S'HTTP_CONTENT_LENGTH'
p2872
asbag57
(g78
g59
NtRp2873
(dp2874
g62
(dp2875
g89
g90
ssg71
g2864
sg64
(lp2876
S':'
asbag57
(g78
g59
NtRp2877
(dp2878
g62
(dp2879
sg71
g2864
sg64
(lp2880
g57
(g58
g59
NtRp2881
(dp2882
g62
(dp2883
g70
I3
ssg71
g2877
sg64
(lp2884
g963
asbasbasbag57
(g73
g59
NtRp2885
(dp2886
g62
(dp2887
sg71
g2734
sg64
(lp2888
g57
(g78
g59
NtRp2889
(dp2890
g62
(dp2891
g82
g83
ssg71
g2885
sg64
(lp2892
S'HTTP_CONTENT_TYPE'
p2893
asbag57
(g78
g59
NtRp2894
(dp2895
g62
(dp2896
g89
g90
ssg71
g2885
sg64
(lp2897
S':'
asbag57
(g78
g59
NtRp2898
(dp2899
g62
(dp2900
sg71
g2885
sg64
(lp2901
g57
(g58
g59
NtRp2902
(dp2903
g62
(dp2904
g70
I3
ssg71
g2898
sg64
(lp2905
g985
asbasbasbag57
(g73
g59
NtRp2906
(dp2907
g62
(dp2908
sg71
g2734
sg64
(lp2909
g57
(g78
g59
NtRp2910
(dp2911
g62
(dp2912
g82
g83
ssg71
g2906
sg64
(lp2913
S'HTTP_COOKIE'
p2914
asbag57
(g78
g59
NtRp2915
(dp2916
g62
(dp2917
g89
g90
ssg71
g2906
sg64
(lp2918
S':'
asbag57
(g78
g59
NtRp2919
(dp2920
g62
(dp2921
sg71
g2906
sg64
(lp2922
g57
(g58
g59
NtRp2923
(dp2924
g62
(dp2925
g70
I3
ssg71
g2919
sg64
(lp2926
g1202
asbasbasbag57
(g73
g59
NtRp2927
(dp2928
g62
(dp2929
sg71
g2734
sg64
(lp2930
g57
(g78
g59
NtRp2931
(dp2932
g62
(dp2933
g82
g83
ssg71
g2927
sg64
(lp2934
S'HTTP_HOST'
p2935
asbag57
(g78
g59
NtRp2936
(dp2937
g62
(dp2938
g89
g90
ssg71
g2927
sg64
(lp2939
S':'
asbag57
(g78
g59
NtRp2940
(dp2941
g62
(dp2942
sg71
g2927
sg64
(lp2943
g57
(g58
g59
NtRp2944
(dp2945
g62
(dp2946
g70
I3
ssg71
g2940
sg64
(lp2947
g1224
asbasbasbag57
(g73
g59
NtRp2948
(dp2949
g62
(dp2950
sg71
g2734
sg64
(lp2951
g57
(g78
g59
NtRp2952
(dp2953
g62
(dp2954
g82
g83
ssg71
g2948
sg64
(lp2955
S'HTTP_REFERER'
p2956
asbag57
(g78
g59
NtRp2957
(dp2958
g62
(dp2959
g89
g90
ssg71
g2948
sg64
(lp2960
S':'
asbag57
(g78
g59
NtRp2961
(dp2962
g62
(dp2963
sg71
g2948
sg64
(lp2964
g57
(g58
g59
NtRp2965
(dp2966
g62
(dp2967
g70
I3
ssg71
g2961
sg64
(lp2968
g1246
asbasbasbag57
(g73
g59
NtRp2969
(dp2970
g62
(dp2971
sg71
g2734
sg64
(lp2972
g57
(g78
g59
NtRp2973
(dp2974
g62
(dp2975
g82
g83
ssg71
g2969
sg64
(lp2976
S'HTTP_USER_AGENT'
p2977
asbag57
(g78
g59
NtRp2978
(dp2979
g62
(dp2980
g89
g90
ssg71
g2969
sg64
(lp2981
S':'
asbag57
(g78
g59
NtRp2982
(dp2983
g62
(dp2984
sg71
g2969
sg64
(lp2985
g57
(g58
g59
NtRp2986
(dp2987
g62
(dp2988
g70
I3
ssg71
g2982
sg64
(lp2989
g1268
asbasbasbag57
(g73
g59
NtRp2990
(dp2991
g62
(dp2992
sg71
g2734
sg64
(lp2993
g57
(g78
g59
NtRp2994
(dp2995
g62
(dp2996
g82
g83
ssg71
g2990
sg64
(lp2997
S'PATH_INFO'
p2998
asbag57
(g78
g59
NtRp2999
(dp3000
g62
(dp3001
g89
g90
ssg71
g2990
sg64
(lp3002
S':'
asbag57
(g78
g59
NtRp3003
(dp3004
g62
(dp3005
sg71
g2990
sg64
(lp3006
g57
(g58
g59
NtRp3007
(dp3008
g62
(dp3009
g70
I3
ssg71
g3003
sg64
(lp3010
g1435
asbasbasbag57
(g73
g59
NtRp3011
(dp3012
g62
(dp3013
sg71
g2734
sg64
(lp3014
g57
(g78
g59
NtRp3015
(dp3016
g62
(dp3017
g82
g83
ssg71
g3011
sg64
(lp3018
S'QUERY_STRING'
p3019
asbag57
(g78
g59
NtRp3020
(dp3021
g62
(dp3022
g89
g90
ssg71
g3011
sg64
(lp3023
S':'
asbag57
(g78
g59
NtRp3024
(dp3025
g62
(dp3026
sg71
g3011
sg64
(lp3027
g57
(g58
g59
NtRp3028
(dp3029
g62
(dp3030
g70
I3
ssg71
g3024
sg64
(lp3031
S''
asbasbasbag57
(g73
g59
NtRp3032
(dp3033
g62
(dp3034
sg71
g2734
sg64
(lp3035
g57
(g78
g59
NtRp3036
(dp3037
g62
(dp3038
g82
g83
ssg71
g3032
sg64
(lp3039
S'REMOTE_ADDR'
p3040
asbag57
(g78
g59
NtRp3041
(dp3042
g62
(dp3043
g89
g90
ssg71
g3032
sg64
(lp3044
S':'
asbag57
(g78
g59
NtRp3045
(dp3046
g62
(dp3047
sg71
g3032
sg64
(lp3048
g57
(g58
g59
NtRp3049
(dp3050
g62
(dp3051
g70
I3
ssg71
g3045
sg64
(lp3052
g212
asbasbasbag57
(g73
g59
NtRp3053
(dp3054
g62
(dp3055
sg71
g2734
sg64
(lp3056
g57
(g78
g59
NtRp3057
(dp3058
g62
(dp3059
g82
g83
ssg71
g3053
sg64
(lp3060
S'REMOTE_PORT'
p3061
asbag57
(g78
g59
NtRp3062
(dp3063
g62
(dp3064
g89
g90
ssg71
g3053
sg64
(lp3065
S':'
asbag57
(g78
g59
NtRp3066
(dp3067
g62
(dp3068
sg71
g3053
sg64
(lp3069
g57
(g58
g59
NtRp3070
(dp3071
g62
(dp3072
g70
I3
ssg71
g3066
sg64
(lp3073
g1499
asbasbasbag57
(g73
g59
NtRp3074
(dp3075
g62
(dp3076
sg71
g2734
sg64
(lp3077
g57
(g78
g59
NtRp3078
(dp3079
g62
(dp3080
g82
g83
ssg71
g3074
sg64
(lp3081
S'REQUEST_METHOD'
p3082
asbag57
(g78
g59
NtRp3083
(dp3084
g62
(dp3085
g89
g90
ssg71
g3074
sg64
(lp3086
S':'
asbag57
(g78
g59
NtRp3087
(dp3088
g62
(dp3089
sg71
g3074
sg64
(lp3090
g57
(g58
g59
NtRp3091
(dp3092
g62
(dp3093
g70
I3
ssg71
g3087
sg64
(lp3094
g1521
asbasbasbag57
(g73
g59
NtRp3095
(dp3096
g62
(dp3097
sg71
g2734
sg64
(lp3098
g57
(g78
g59
NtRp3099
(dp3100
g62
(dp3101
g82
g83
ssg71
g3095
sg64
(lp3102
S'REQUEST_URI'
p3103
asbag57
(g78
g59
NtRp3104
(dp3105
g62
(dp3106
g89
g90
ssg71
g3095
sg64
(lp3107
S':'
asbag57
(g78
g59
NtRp3108
(dp3109
g62
(dp3110
sg71
g3095
sg64
(lp3111
g57
(g58
g59
NtRp3112
(dp3113
g62
(dp3114
g70
I3
ssg71
g3108
sg64
(lp3115
g1435
asbasbasbag57
(g73
g59
NtRp3116
(dp3117
g62
(dp3118
sg71
g2734
sg64
(lp3119
g57
(g78
g59
NtRp3120
(dp3121
g62
(dp3122
g82
g83
ssg71
g3116
sg64
(lp3123
S'SCRIPT_NAME'
p3124
asbag57
(g78
g59
NtRp3125
(dp3126
g62
(dp3127
g89
g90
ssg71
g3116
sg64
(lp3128
S':'
asbag57
(g78
g59
NtRp3129
(dp3130
g62
(dp3131
sg71
g3116
sg64
(lp3132
g57
(g58
g59
NtRp3133
(dp3134
g62
(dp3135
g70
I3
ssg71
g3129
sg64
(lp3136
S''
asbasbasbag57
(g73
g59
NtRp3137
(dp3138
g62
(dp3139
sg71
g2734
sg64
(lp3140
g57
(g78
g59
NtRp3141
(dp3142
g62
(dp3143
g82
g83
ssg71
g3137
sg64
(lp3144
S'SERVER_NAME'
p3145
asbag57
(g78
g59
NtRp3146
(dp3147
g62
(dp3148
g89
g90
ssg71
g3137
sg64
(lp3149
S':'
asbag57
(g78
g59
NtRp3150
(dp3151
g62
(dp3152
sg71
g3137
sg64
(lp3153
g57
(g58
g59
NtRp3154
(dp3155
g62
(dp3156
g70
I3
ssg71
g3150
sg64
(lp3157
g1585
asbasbasbag57
(g73
g59
NtRp3158
(dp3159
g62
(dp3160
sg71
g2734
sg64
(lp3161
g57
(g78
g59
NtRp3162
(dp3163
g62
(dp3164
g82
g83
ssg71
g3158
sg64
(lp3165
S'SERVER_PORT'
p3166
asbag57
(g78
g59
NtRp3167
(dp3168
g62
(dp3169
g89
g90
ssg71
g3158
sg64
(lp3170
S':'
asbag57
(g78
g59
NtRp3171
(dp3172
g62
(dp3173
sg71
g3158
sg64
(lp3174
g57
(g58
g59
NtRp3175
(dp3176
g62
(dp3177
g70
I3
ssg71
g3171
sg64
(lp3178
g1607
asbasbasbag57
(g73
g59
NtRp3179
(dp3180
g62
(dp3181
sg71
g2734
sg64
(lp3182
g57
(g78
g59
NtRp3183
(dp3184
g62
(dp3185
g82
g83
ssg71
g3179
sg64
(lp3186
S'SERVER_PROTOCOL'
p3187
asbag57
(g78
g59
NtRp3188
(dp3189
g62
(dp3190
g89
g90
ssg71
g3179
sg64
(lp3191
S':'
asbag57
(g78
g59
NtRp3192
(dp3193
g62
(dp3194
sg71
g3179
sg64
(lp3195
g57
(g58
g59
NtRp3196
(dp3197
g62
(dp3198
g70
I3
ssg71
g3192
sg64
(lp3199
g1629
asbasbasbag57
(g73
g59
NtRp3200
(dp3201
g62
(dp3202
sg71
g2734
sg64
(lp3203
g57
(g78
g59
NtRp3204
(dp3205
g62
(dp3206
g82
g83
ssg71
g3200
sg64
(lp3207
S'SERVER_SOFTWARE'
p3208
asbag57
(g78
g59
NtRp3209
(dp3210
g62
(dp3211
g89
g90
ssg71
g3200
sg64
(lp3212
S':'
asbag57
(g78
g59
NtRp3213
(dp3214
g62
(dp3215
sg71
g3200
sg64
(lp3216
g57
(g58
g59
NtRp3217
(dp3218
g62
(dp3219
g70
I3
ssg71
g3213
sg64
(lp3220
g1651
asbasbasbag57
(g73
g59
NtRp3221
(dp3222
g62
(dp3223
sg71
g2734
sg64
(lp3224
g57
(g78
g59
NtRp3225
(dp3226
g62
(dp3227
g82
g83
ssg71
g3221
sg64
(lp3228
S'wsgi.errors'
p3229
asbag57
(g78
g59
NtRp3230
(dp3231
g62
(dp3232
g89
g90
ssg71
g3221
sg64
(lp3233
S':'
asbag57
(g78
g59
NtRp3234
(dp3235
g62
(dp3236
sg71
g3221
sg64
(lp3237
g57
(g58
g59
NtRp3238
(dp3239
g62
(dp3240
g70
I3
ssg71
g3234
sg64
(lp3241
S"<open file '<stderr>', mode 'w' at 0xb72e90d0>"
p3242
asbasbasbag57
(g73
g59
NtRp3243
(dp3244
g62
(dp3245
sg71
g2734
sg64
(lp3246
g57
(g78
g59
NtRp3247
(dp3248
g62
(dp3249
g82
g83
ssg71
g3243
sg64
(lp3250
S'wsgi.file_wrapper'
p3251
asbag57
(g78
g59
NtRp3252
(dp3253
g62
(dp3254
g89
g90
ssg71
g3243
sg64
(lp3255
S':'
asbag57
(g78
g59
NtRp3256
(dp3257
g62
(dp3258
sg71
g3243
sg64
(lp3259
g57
(g58
g59
NtRp3260
(dp3261
g62
(dp3262
g70
I3
ssg71
g3256
sg64
(lp3263
S'<class wsgiref.util.FileWrapper at 0x88da65c>'
p3264
asbasbasbag57
(g73
g59
NtRp3265
(dp3266
g62
(dp3267
sg71
g2734
sg64
(lp3268
g57
(g78
g59
NtRp3269
(dp3270
g62
(dp3271
g82
g83
ssg71
g3265
sg64
(lp3272
S'wsgi.input'
p3273
asbag57
(g78
g59
NtRp3274
(dp3275
g62
(dp3276
g89
g90
ssg71
g3265
sg64
(lp3277
S':'
asbag57
(g78
g59
NtRp3278
(dp3279
g62
(dp3280
sg71
g3265
sg64
(lp3281
g57
(g58
g59
NtRp3282
(dp3283
g62
(dp3284
g70
I3
ssg71
g3278
sg64
(lp3285
S"<open file '<fdopen>', mode 'w+b' at 0x89241d8>"
p3286
asbasbasbag57
(g73
g59
NtRp3287
(dp3288
g62
(dp3289
sg71
g2734
sg64
(lp3290
g57
(g78
g59
NtRp3291
(dp3292
g62
(dp3293
g82
g83
ssg71
g3287
sg64
(lp3294
S'wsgi.multiprocess'
p3295
asbag57
(g78
g59
NtRp3296
(dp3297
g62
(dp3298
g89
g90
ssg71
g3287
sg64
(lp3299
S':'
asbag57
(g78
g59
NtRp3300
(dp3301
g62
(dp3302
sg71
g3287
sg64
(lp3303
g57
(g58
g59
NtRp3304
(dp3305
g62
(dp3306
g70
I3
ssg71
g3300
sg64
(lp3307
g100
asbasbasbag57
(g73
g59
NtRp3308
(dp3309
g62
(dp3310
sg71
g2734
sg64
(lp3311
g57
(g78
g59
NtRp3312
(dp3313
g62
(dp3314
g82
g83
ssg71
g3308
sg64
(lp3315
S'wsgi.multithread'
p3316
asbag57
(g78
g59
NtRp3317
(dp3318
g62
(dp3319
g89
g90
ssg71
g3308
sg64
(lp3320
S':'
asbag57
(g78
g59
NtRp3321
(dp3322
g62
(dp3323
sg71
g3308
sg64
(lp3324
g57
(g58
g59
NtRp3325
(dp3326
g62
(dp3327
g70
I3
ssg71
g3321
sg64
(lp3328
g1868
asbasbasbag57
(g73
g59
NtRp3329
(dp3330
g62
(dp3331
sg71
g2734
sg64
(lp3332
g57
(g78
g59
NtRp3333
(dp3334
g62
(dp3335
g82
g83
ssg71
g3329
sg64
(lp3336
S'wsgi.run_once'
p3337
asbag57
(g78
g59
NtRp3338
(dp3339
g62
(dp3340
g89
g90
ssg71
g3329
sg64
(lp3341
S':'
asbag57
(g78
g59
NtRp3342
(dp3343
g62
(dp3344
sg71
g3329
sg64
(lp3345
g57
(g58
g59
NtRp3346
(dp3347
g62
(dp3348
g70
I3
ssg71
g3342
sg64
(lp3349
g100
asbasbasbag57
(g73
g59
NtRp3350
(dp3351
g62
(dp3352
sg71
g2734
sg64
(lp3353
g57
(g78
g59
NtRp3354
(dp3355
g62
(dp3356
g82
g83
ssg71
g3350
sg64
(lp3357
S'wsgi.url_scheme'
p3358
asbag57
(g78
g59
NtRp3359
(dp3360
g62
(dp3361
g89
g90
ssg71
g3350
sg64
(lp3362
S':'
asbag57
(g78
g59
NtRp3363
(dp3364
g62
(dp3365
sg71
g3350
sg64
(lp3366
g57
(g58
g59
NtRp3367
(dp3368
g62
(dp3369
g70
I3
ssg71
g3363
sg64
(lp3370
g1911
asbasbasbag57
(g73
g59
NtRp3371
(dp3372
g62
(dp3373
sg71
g2734
sg64
(lp3374
g57
(g78
g59
NtRp3375
(dp3376
g62
(dp3377
g82
g83
ssg71
g3371
sg64
(lp3378
S'wsgi.version'
p3379
asbag57
(g78
g59
NtRp3380
(dp3381
g62
(dp3382
g89
g90
ssg71
g3371
sg64
(lp3383
S':'
asbag57
(g78
g59
NtRp3384
(dp3385
g62
(dp3386
sg71
g3371
sg64
(lp3387
g57
(g58
g59
NtRp3388
(dp3389
g62
(dp3390
g70
I3
ssg71
g3384
sg64
(lp3391
S'1'
asbasbasbasbasbasbasbasbasbasbasbasbasbsS'frames'
p3392
(lp3393
(dp3394
S'file'
p3395
S'/home/aditi/Desktop/web2py/gluon/restricted.py'
p3396
sS'dump'
p3397
(dp3398
S'environment'
p3399
S"{'A': <class 'gluon.html.A'>, 'Auth': <class 'gluon.tools.Auth'>, 'B': <class 'gluon.html.B'>, 'BEAUTIFY': <class 'gluon.html.BEAUTIFY'>, 'BODY': <class 'gluon.html.BODY'>, 'BR': <class 'gluon.html.BR'>, 'BUTTON': <class 'gluon.html.BUTTON'>, 'CAT': <class 'gluon.html.CAT'>, 'CENTER': <class 'gluon.html.CENTER'>, 'CLEANUP': <class 'gluon.validators.CLEANUP'>, ...}"
p3400
sS'ccode'
p3401
S'<code object <module> at 0x8ca6b18, file "/home/...ons/assignment2/controllers/default.py", line 11>'
p3402
ssS'lnum'
p3403
I212
sS'lines'
p3404
(dp3405
I207
S'    try:'
p3406
sI208
S'        if isinstance(code, types.CodeType):'
p3407
sI209
S'            ccode = code'
p3408
sI210
S'        else:'
p3409
sI211
S'            ccode = compile2(code, layer)'
p3410
sI212
S'        exec ccode in environment'
p3411
sI213
S'    except HTTP:'
p3412
sI214
S'        raise'
p3413
sI215
S'    except RestrictedError:'
p3414
sI216
S'        # do not encapsulate (obfuscate) the original RestrictedError'
p3415
ssS'call'
p3416
S"(code='# -*- coding: utf-8 -*-\\n# this file is released ...\\n\\nresponse._vars=response._caller(user_homepage)\\n', environment={'A': <class 'gluon.html.A'>, 'Auth': <class 'gluon.tools.Auth'>, 'B': <class 'gluon.html.B'>, 'BEAUTIFY': <class 'gluon.html.BEAUTIFY'>, 'BODY': <class 'gluon.html.BODY'>, 'BR': <class 'gluon.html.BR'>, 'BUTTON': <class 'gluon.html.BUTTON'>, 'CAT': <class 'gluon.html.CAT'>, 'CENTER': <class 'gluon.html.CENTER'>, 'CLEANUP': <class 'gluon.validators.CLEANUP'>, ...}, layer='/home/aditi/Desktop/web2py/applications/assignment2/controllers/default.py')"
p3417
sS'func'
p3418
S'restricted'
p3419
sa(dp3420
g3395
S'/home/aditi/Desktop/web2py/applications/assignment2/controllers/default.py'
p3421
sg3397
(dp3422
sg3403
I347
sg3404
(dp3423
I336
S'    http://..../[app]/default/data/update/[table]/[id]'
p3424
sI337
S'    http://..../[app]/default/data/delete/[table]/[id]'
p3425
sI338
S'    http://..../[app]/default/data/select/[table]'
p3426
sI339
S'    http://..../[app]/default/data/search/[table]'
p3427
sI340
S'    but URLs must be signed, i.e. linked with'
p3428
sI341
S"      A('table',_href=URL('data/tables',user_signature=True))"
p3429
sI342
S'    or with the signed load operator'
p3430
sI343
S"      LOAD('default','data.load',args='tables',ajax=True,user_signature=True)"
p3431
sI344
S'    """'
p3432
sI345
S'    return dict(form=crud())'
p3433
ssg3416
S'()'
p3434
sg3418
S'<module>'
p3435
sa(dp3436
g3395
S'/home/aditi/Desktop/web2py/gluon/globals.py'
p3437
sg3397
(dp3438
S'self'
p3439
S'undefined'
p3440
sS'f'
S'<function user_homepage>'
p3441
ssg3403
I193
sg3404
(dp3442
I192
S'        self._vars = None'
p3443
sI193
S'        self._caller = lambda f: f()'
p3444
sI194
S'        self._view_environment = None'
p3445
sI195
S'        self._custom_commit = None'
p3446
sI196
S'        self._custom_rollback = None'
p3447
sI197
S''
sI188
S'        self.menu = []             # used by the default view layout'
p3448
sI189
S'        self.files = []            # used by web2py_ajax.html'
p3449
sI190
S'        self.generic_patterns = []  # patterns to allow generic views'
p3450
sI191
S"        self.delimiters = ('{{', '}}')"
p3451
ssg3416
S'(f=<function user_homepage>)'
p3452
sg3418
S'<lambda>'
p3453
sa(dp3454
g3395
S'/home/aditi/Desktop/web2py/applications/assignment2/controllers/default.py'
p3455
sg3397
(dp3456
S'a'
S'5'
sS'xyz'
p3457
g3440
sS'db.likedposts.userid'
p3458
S'<gluon.dal.Field object>'
p3459
sS'db.likedposts'
p3460
S'<Table likedposts (id,userid,postid)>'
p3461
sS').select'
p3462
g3440
sS'p'
S'12'
p3463
sS'global db'
p3464
S'<DAL uri="sqlite://storage.sqlite">'
p3465
sS'db.likedposts.id'
p3466
S'<gluon.dal.Field object>'
p3467
sS'db.likedposts.postid'
p3468
S'<gluon.dal.Field object>'
p3469
ssg3403
I92
sg3404
(dp3470
I96
S'                    flag=1'
p3471
sI87
S'                dlk=db(db.dislikedposts.postid==p).select(db.dislikedposts.ALL)'
p3472
sI88
S'                for k in range(len(lk)):'
p3473
sI89
S"                    if lk[k]['userid']==a and lk[k]['postid']==p:"
p3474
sI90
S'                        flag=1'
p3475
sI91
S'                        likes[j]-=1'
p3476
sI92
S'                        xyz=db(db.likedposts.postid==p & db.likedposts.userid==a).select(db.likedposts.id)'
p3477
sI93
S"                        db(db.likedposts.id==xyz[0]['id']).delete()"
p3478
sI94
S'                        db(db.newsitem.id==p).update(points=100+(5*likes[j])-(3*dislikes[j]))'
p3479
sI95
S'                for k in range(len(dlk)):'
p3480
ssg3416
S'()'
p3481
sg3418
S'user_homepage'
p3482
sasS'pyver'
p3483
S'Python 2.7.3: /usr/bin/python'
p3484
sS'session'
p3485
g57
(g58
g59
NtRp3486
(dp3487
g62
(dp3488
sg64
(lp3489
g57
(g66
g59
NtRp3490
(dp3491
g62
(dp3492
g70
I5
ssg71
Nsg64
(lp3493
g57
(g73
g59
NtRp3494
(dp3495
g62
(dp3496
sg71
g3490
sg64
(lp3497
g57
(g78
g59
NtRp3498
(dp3499
g62
(dp3500
g82
g83
ssg71
g3494
sg64
(lp3501
S'auth'
p3502
asbag57
(g78
g59
NtRp3503
(dp3504
g62
(dp3505
g89
g90
ssg71
g3494
sg64
(lp3506
S':'
asbag57
(g78
g59
NtRp3507
(dp3508
g62
(dp3509
sg71
g3494
sg64
(lp3510
g57
(g58
g59
NtRp3511
(dp3512
g62
(dp3513
g70
I5
ssg71
g3507
sg64
(lp3514
g57
(g66
g59
NtRp3515
(dp3516
g62
(dp3517
g70
I4
ssg71
Nsg64
(lp3518
g57
(g73
g59
NtRp3519
(dp3520
g62
(dp3521
sg71
g3515
sg64
(lp3522
g57
(g78
g59
NtRp3523
(dp3524
g62
(dp3525
g82
g83
ssg71
g3519
sg64
(lp3526
S'expiration'
p3527
asbag57
(g78
g59
NtRp3528
(dp3529
g62
(dp3530
g89
g90
ssg71
g3519
sg64
(lp3531
S':'
asbag57
(g78
g59
NtRp3532
(dp3533
g62
(dp3534
sg71
g3519
sg64
(lp3535
g57
(g58
g59
NtRp3536
(dp3537
g62
(dp3538
g70
I4
ssg71
g3532
sg64
(lp3539
S'3600'
p3540
asbasbasbag57
(g73
g59
NtRp3541
(dp3542
g62
(dp3543
sg71
g3515
sg64
(lp3544
g57
(g78
g59
NtRp3545
(dp3546
g62
(dp3547
g82
g83
ssg71
g3541
sg64
(lp3548
S'hmac_key'
p3549
asbag57
(g78
g59
NtRp3550
(dp3551
g62
(dp3552
g89
g90
ssg71
g3541
sg64
(lp3553
S':'
asbag57
(g78
g59
NtRp3554
(dp3555
g62
(dp3556
sg71
g3541
sg64
(lp3557
g57
(g58
g59
NtRp3558
(dp3559
g62
(dp3560
g70
I4
ssg71
g3554
sg64
(lp3561
S'ee5909e9-859d-4d6c-8643-39c60138abc3'
p3562
asbasbasbag57
(g73
g59
NtRp3563
(dp3564
g62
(dp3565
sg71
g3515
sg64
(lp3566
g57
(g78
g59
NtRp3567
(dp3568
g62
(dp3569
g82
g83
ssg71
g3563
sg64
(lp3570
S'last_visit'
p3571
asbag57
(g78
g59
NtRp3572
(dp3573
g62
(dp3574
g89
g90
ssg71
g3563
sg64
(lp3575
S':'
asbag57
(g78
g59
NtRp3576
(dp3577
g62
(dp3578
sg71
g3563
sg64
(lp3579
g57
(g58
g59
NtRp3580
(dp3581
g62
(dp3582
g70
I4
ssg71
g3576
sg64
(lp3583
S'datetime.datetime(2013, 8, 30, 13, 41, 2, 993955)'
p3584
asbasbasbag57
(g73
g59
NtRp3585
(dp3586
g62
(dp3587
sg71
g3515
sg64
(lp3588
g57
(g78
g59
NtRp3589
(dp3590
g62
(dp3591
g82
g83
ssg71
g3585
sg64
(lp3592
S'remember'
p3593
asbag57
(g78
g59
NtRp3594
(dp3595
g62
(dp3596
g89
g90
ssg71
g3585
sg64
(lp3597
S':'
asbag57
(g78
g59
NtRp3598
(dp3599
g62
(dp3600
sg71
g3585
sg64
(lp3601
g57
(g58
g59
NtRp3602
(dp3603
g62
(dp3604
g70
I4
ssg71
g3598
sg64
(lp3605
g100
asbasbasbag57
(g73
g59
NtRp3606
(dp3607
g62
(dp3608
sg71
g3515
sg64
(lp3609
g57
(g78
g59
NtRp3610
(dp3611
g62
(dp3612
g82
g83
ssg71
g3606
sg64
(lp3613
S'user'
p3614
asbag57
(g78
g59
NtRp3615
(dp3616
g62
(dp3617
g89
g90
ssg71
g3606
sg64
(lp3618
S':'
asbag57
(g78
g59
NtRp3619
(dp3620
g62
(dp3621
sg71
g3606
sg64
(lp3622
g57
(g58
g59
NtRp3623
(dp3624
g62
(dp3625
g70
I4
ssg71
g3619
sg64
(lp3626
g57
(g66
g59
NtRp3627
(dp3628
g62
(dp3629
g70
I3
ssg71
Nsg64
(lp3630
g57
(g73
g59
NtRp3631
(dp3632
g62
(dp3633
sg71
g3627
sg64
(lp3634
g57
(g78
g59
NtRp3635
(dp3636
g62
(dp3637
g82
g83
ssg71
g3631
sg64
(lp3638
S'account_type'
p3639
asbag57
(g78
g59
NtRp3640
(dp3641
g62
(dp3642
g89
g90
ssg71
g3631
sg64
(lp3643
S':'
asbag57
(g78
g59
NtRp3644
(dp3645
g62
(dp3646
sg71
g3631
sg64
(lp3647
g57
(g58
g59
NtRp3648
(dp3649
g62
(dp3650
g70
I3
ssg71
g3644
sg64
(lp3651
S'user'
p3652
asbasbasbag57
(g73
g59
NtRp3653
(dp3654
g62
(dp3655
sg71
g3627
sg64
(lp3656
g57
(g78
g59
NtRp3657
(dp3658
g62
(dp3659
g82
g83
ssg71
g3653
sg64
(lp3660
S'alt_email'
p3661
asbag57
(g78
g59
NtRp3662
(dp3663
g62
(dp3664
g89
g90
ssg71
g3653
sg64
(lp3665
S':'
asbag57
(g78
g59
NtRp3666
(dp3667
g62
(dp3668
sg71
g3653
sg64
(lp3669
g57
(g58
g59
NtRp3670
(dp3671
g62
(dp3672
g70
I3
ssg71
g3666
sg64
(lp3673
S'switch2aditi@gmail.com'
p3674
asbasbasbag57
(g73
g59
NtRp3675
(dp3676
g62
(dp3677
sg71
g3627
sg64
(lp3678
g57
(g78
g59
NtRp3679
(dp3680
g62
(dp3681
g82
g83
ssg71
g3675
sg64
(lp3682
S'dob'
p3683
asbag57
(g78
g59
NtRp3684
(dp3685
g62
(dp3686
g89
g90
ssg71
g3675
sg64
(lp3687
S':'
asbag57
(g78
g59
NtRp3688
(dp3689
g62
(dp3690
sg71
g3675
sg64
(lp3691
g57
(g58
g59
NtRp3692
(dp3693
g62
(dp3694
g70
I3
ssg71
g3688
sg64
(lp3695
S'datetime.date(1994, 11, 5)'
p3696
asbasbasbag57
(g73
g59
NtRp3697
(dp3698
g62
(dp3699
sg71
g3627
sg64
(lp3700
g57
(g78
g59
NtRp3701
(dp3702
g62
(dp3703
g82
g83
ssg71
g3697
sg64
(lp3704
S'email'
p3705
asbag57
(g78
g59
NtRp3706
(dp3707
g62
(dp3708
g89
g90
ssg71
g3697
sg64
(lp3709
S':'
asbag57
(g78
g59
NtRp3710
(dp3711
g62
(dp3712
sg71
g3697
sg64
(lp3713
g57
(g58
g59
NtRp3714
(dp3715
g62
(dp3716
g70
I3
ssg71
g3710
sg64
(lp3717
S'aditi.mavalankar@students.iiit.ac.in'
p3718
asbasbasbag57
(g73
g59
NtRp3719
(dp3720
g62
(dp3721
sg71
g3627
sg64
(lp3722
g57
(g78
g59
NtRp3723
(dp3724
g62
(dp3725
g82
g83
ssg71
g3719
sg64
(lp3726
S'first_name'
p3727
asbag57
(g78
g59
NtRp3728
(dp3729
g62
(dp3730
g89
g90
ssg71
g3719
sg64
(lp3731
S':'
asbag57
(g78
g59
NtRp3732
(dp3733
g62
(dp3734
sg71
g3719
sg64
(lp3735
g57
(g58
g59
NtRp3736
(dp3737
g62
(dp3738
g70
I3
ssg71
g3732
sg64
(lp3739
S'aditi'
p3740
asbasbasbag57
(g73
g59
NtRp3741
(dp3742
g62
(dp3743
sg71
g3627
sg64
(lp3744
g57
(g78
g59
NtRp3745
(dp3746
g62
(dp3747
g82
g83
ssg71
g3741
sg64
(lp3748
S'id'
p3749
asbag57
(g78
g59
NtRp3750
(dp3751
g62
(dp3752
g89
g90
ssg71
g3741
sg64
(lp3753
S':'
asbag57
(g78
g59
NtRp3754
(dp3755
g62
(dp3756
sg71
g3741
sg64
(lp3757
g57
(g58
g59
NtRp3758
(dp3759
g62
(dp3760
g70
I3
ssg71
g3754
sg64
(lp3761
S'5'
asbasbasbag57
(g73
g59
NtRp3762
(dp3763
g62
(dp3764
sg71
g3627
sg64
(lp3765
g57
(g78
g59
NtRp3766
(dp3767
g62
(dp3768
g82
g83
ssg71
g3762
sg64
(lp3769
S'last_name'
p3770
asbag57
(g78
g59
NtRp3771
(dp3772
g62
(dp3773
g89
g90
ssg71
g3762
sg64
(lp3774
S':'
asbag57
(g78
g59
NtRp3775
(dp3776
g62
(dp3777
sg71
g3762
sg64
(lp3778
g57
(g58
g59
NtRp3779
(dp3780
g62
(dp3781
g70
I3
ssg71
g3775
sg64
(lp3782
S'mavalankar'
p3783
asbasbasbag57
(g73
g59
NtRp3784
(dp3785
g62
(dp3786
sg71
g3627
sg64
(lp3787
g57
(g78
g59
NtRp3788
(dp3789
g62
(dp3790
g82
g83
ssg71
g3784
sg64
(lp3791
S'registration_id'
p3792
asbag57
(g78
g59
NtRp3793
(dp3794
g62
(dp3795
g89
g90
ssg71
g3784
sg64
(lp3796
S':'
asbag57
(g78
g59
NtRp3797
(dp3798
g62
(dp3799
sg71
g3784
sg64
(lp3800
g57
(g58
g59
NtRp3801
(dp3802
g62
(dp3803
g70
I3
ssg71
g3797
sg64
(lp3804
S''
asbasbasbag57
(g73
g59
NtRp3805
(dp3806
g62
(dp3807
sg71
g3627
sg64
(lp3808
g57
(g78
g59
NtRp3809
(dp3810
g62
(dp3811
g82
g83
ssg71
g3805
sg64
(lp3812
S'registration_key'
p3813
asbag57
(g78
g59
NtRp3814
(dp3815
g62
(dp3816
g89
g90
ssg71
g3805
sg64
(lp3817
S':'
asbag57
(g78
g59
NtRp3818
(dp3819
g62
(dp3820
sg71
g3805
sg64
(lp3821
g57
(g58
g59
NtRp3822
(dp3823
g62
(dp3824
g70
I3
ssg71
g3818
sg64
(lp3825
S''
asbasbasbag57
(g73
g59
NtRp3826
(dp3827
g62
(dp3828
sg71
g3627
sg64
(lp3829
g57
(g78
g59
NtRp3830
(dp3831
g62
(dp3832
g82
g83
ssg71
g3826
sg64
(lp3833
S'reset_password_key'
p3834
asbag57
(g78
g59
NtRp3835
(dp3836
g62
(dp3837
g89
g90
ssg71
g3826
sg64
(lp3838
S':'
asbag57
(g78
g59
NtRp3839
(dp3840
g62
(dp3841
sg71
g3826
sg64
(lp3842
g57
(g58
g59
NtRp3843
(dp3844
g62
(dp3845
g70
I3
ssg71
g3839
sg64
(lp3846
S''
asbasbasbag57
(g73
g59
NtRp3847
(dp3848
g62
(dp3849
sg71
g3627
sg64
(lp3850
g57
(g78
g59
NtRp3851
(dp3852
g62
(dp3853
g82
g83
ssg71
g3847
sg64
(lp3854
S'username'
p3855
asbag57
(g78
g59
NtRp3856
(dp3857
g62
(dp3858
g89
g90
ssg71
g3847
sg64
(lp3859
S':'
asbag57
(g78
g59
NtRp3860
(dp3861
g62
(dp3862
sg71
g3847
sg64
(lp3863
g57
(g58
g59
NtRp3864
(dp3865
g62
(dp3866
g70
I3
ssg71
g3860
sg64
(lp3867
S'aditi.mavalankar'
p3868
asbasbasbasbasbasbasbag57
(g73
g59
NtRp3869
(dp3870
g62
(dp3871
sg71
g3515
sg64
(lp3872
g57
(g78
g59
NtRp3873
(dp3874
g62
(dp3875
g82
g83
ssg71
g3869
sg64
(lp3876
S'user_groups'
p3877
asbag57
(g78
g59
NtRp3878
(dp3879
g62
(dp3880
g89
g90
ssg71
g3869
sg64
(lp3881
S':'
asbag57
(g78
g59
NtRp3882
(dp3883
g62
(dp3884
sg71
g3869
sg64
(lp3885
g57
(g58
g59
NtRp3886
(dp3887
g62
(dp3888
g70
I4
ssg71
g3882
sg64
(lp3889
g57
(g66
g59
NtRp3890
(dp3891
g62
(dp3892
g70
I3
ssg71
Nsg64
(lp3893
g57
(g73
g59
NtRp3894
(dp3895
g62
(dp3896
sg71
g3890
sg64
(lp3897
g57
(g78
g59
NtRp3898
(dp3899
g62
(dp3900
g82
g83
ssg71
g3894
sg64
(lp3901
S'5'
asbag57
(g78
g59
NtRp3902
(dp3903
g62
(dp3904
g89
g90
ssg71
g3894
sg64
(lp3905
S':'
asbag57
(g78
g59
NtRp3906
(dp3907
g62
(dp3908
sg71
g3894
sg64
(lp3909
g57
(g58
g59
NtRp3910
(dp3911
g62
(dp3912
g70
I3
ssg71
g3906
sg64
(lp3913
S'user_5'
p3914
asbasbasbasbasbasbasbasbasbasbasbag57
(g73
g59
NtRp3915
(dp3916
g62
(dp3917
sg71
g3490
sg64
(lp3918
g57
(g78
g59
NtRp3919
(dp3920
g62
(dp3921
g82
g83
ssg71
g3915
sg64
(lp3922
S'flash'
p3923
asbag57
(g78
g59
NtRp3924
(dp3925
g62
(dp3926
g89
g90
ssg71
g3915
sg64
(lp3927
S':'
asbag57
(g78
g59
NtRp3928
(dp3929
g62
(dp3930
sg71
g3915
sg64
(lp3931
g57
(g58
g59
NtRp3932
(dp3933
g62
(dp3934
g70
I5
ssg71
g3928
sg64
(lp3935
S'None'
p3936
asbasbasbasbasbsS'etype'
p3937
S"<type 'exceptions.TypeError'>"
p3938
sS'date'
p3939
S'Fri Aug 30 13:41:08 2013'
p3940
sS'response'
p3941
g57
(g58
g59
NtRp3942
(dp3943
g62
(dp3944
sg64
(lp3945
g57
(g66
g59
NtRp3946
(dp3947
g62
(dp3948
g70
I5
ssg71
Nsg64
(lp3949
g57
(g73
g59
NtRp3950
(dp3951
g62
(dp3952
sg71
g3946
sg64
(lp3953
g57
(g78
g59
NtRp3954
(dp3955
g62
(dp3956
g82
g83
ssg71
g3950
sg64
(lp3957
g155
asbag57
(g78
g59
NtRp3958
(dp3959
g62
(dp3960
g89
g90
ssg71
g3950
sg64
(lp3961
S':'
asbag57
(g78
g59
NtRp3962
(dp3963
g62
(dp3964
sg71
g3950
sg64
(lp3965
g57
(g58
g59
NtRp3966
(dp3967
g62
(dp3968
g70
I5
ssg71
g3962
sg64
(lp3969
S'<cStringIO.StringO object at 0xad4126c0>'
p3970
asbasbasbag57
(g73
g59
NtRp3971
(dp3972
g62
(dp3973
sg71
g3946
sg64
(lp3974
g57
(g78
g59
NtRp3975
(dp3976
g62
(dp3977
g82
g83
ssg71
g3971
sg64
(lp3978
g243
asbag57
(g78
g59
NtRp3979
(dp3980
g62
(dp3981
g89
g90
ssg71
g3971
sg64
(lp3982
S':'
asbag57
(g78
g59
NtRp3983
(dp3984
g62
(dp3985
sg71
g3971
sg64
(lp3986
g57
(g58
g59
NtRp3987
(dp3988
g62
(dp3989
g70
I5
ssg71
g3983
sg64
(lp3990
g57
(g66
g59
NtRp3991
(dp3992
g62
(dp3993
g70
I4
ssg71
Nsg64
(lp3994
g57
(g73
g59
NtRp3995
(dp3996
g62
(dp3997
sg71
g3991
sg64
(lp3998
g57
(g78
g59
NtRp3999
(dp4000
g62
(dp4001
g82
g83
ssg71
g3995
sg64
(lp4002
S'session_id_assignment2'
p4003
asbag57
(g78
g59
NtRp4004
(dp4005
g62
(dp4006
g89
g90
ssg71
g3995
sg64
(lp4007
S':'
asbag57
(g78
g59
NtRp4008
(dp4009
g62
(dp4010
sg71
g3995
sg64
(lp4011
g57
(g58
g59
NtRp4012
(dp4013
g62
(dp4014
g70
I4
ssg71
g4008
sg64
(lp4015
g475
ag57
(g66
g59
NtRp4016
(dp4017
g62
(dp4018
g70
I3
ssg71
Nsg64
(lp4019
g57
(g73
g59
NtRp4020
(dp4021
g62
(dp4022
sg71
g4016
sg64
(lp4023
g57
(g78
g59
NtRp4024
(dp4025
g62
(dp4026
g82
g83
ssg71
g4020
sg64
(lp4027
g294
asbag57
(g78
g59
NtRp4028
(dp4029
g62
(dp4030
g89
g90
ssg71
g4020
sg64
(lp4031
S':'
asbag57
(g78
g59
NtRp4032
(dp4033
g62
(dp4034
sg71
g4020
sg64
(lp4035
g57
(g58
g59
NtRp4036
(dp4037
g62
(dp4038
g70
I3
ssg71
g4032
sg64
(lp4039
S''
asbasbasbag57
(g73
g59
NtRp4040
(dp4041
g62
(dp4042
sg71
g4016
sg64
(lp4043
g57
(g78
g59
NtRp4044
(dp4045
g62
(dp4046
g82
g83
ssg71
g4040
sg64
(lp4047
g315
asbag57
(g78
g59
NtRp4048
(dp4049
g62
(dp4050
g89
g90
ssg71
g4040
sg64
(lp4051
S':'
asbag57
(g78
g59
NtRp4052
(dp4053
g62
(dp4054
sg71
g4040
sg64
(lp4055
g57
(g58
g59
NtRp4056
(dp4057
g62
(dp4058
g70
I3
ssg71
g4052
sg64
(lp4059
S''
asbasbasbag57
(g73
g59
NtRp4060
(dp4061
g62
(dp4062
sg71
g4016
sg64
(lp4063
g57
(g78
g59
NtRp4064
(dp4065
g62
(dp4066
g82
g83
ssg71
g4060
sg64
(lp4067
g336
asbag57
(g78
g59
NtRp4068
(dp4069
g62
(dp4070
g89
g90
ssg71
g4060
sg64
(lp4071
S':'
asbag57
(g78
g59
NtRp4072
(dp4073
g62
(dp4074
sg71
g4060
sg64
(lp4075
g57
(g58
g59
NtRp4076
(dp4077
g62
(dp4078
g70
I3
ssg71
g4072
sg64
(lp4079
S''
asbasbasbag57
(g73
g59
NtRp4080
(dp4081
g62
(dp4082
sg71
g4016
sg64
(lp4083
g57
(g78
g59
NtRp4084
(dp4085
g62
(dp4086
g82
g83
ssg71
g4080
sg64
(lp4087
g357
asbag57
(g78
g59
NtRp4088
(dp4089
g62
(dp4090
g89
g90
ssg71
g4080
sg64
(lp4091
S':'
asbag57
(g78
g59
NtRp4092
(dp4093
g62
(dp4094
sg71
g4080
sg64
(lp4095
g57
(g58
g59
NtRp4096
(dp4097
g62
(dp4098
g70
I3
ssg71
g4092
sg64
(lp4099
S''
asbasbasbag57
(g73
g59
NtRp4100
(dp4101
g62
(dp4102
sg71
g4016
sg64
(lp4103
g57
(g78
g59
NtRp4104
(dp4105
g62
(dp4106
g82
g83
ssg71
g4100
sg64
(lp4107
g378
asbag57
(g78
g59
NtRp4108
(dp4109
g62
(dp4110
g89
g90
ssg71
g4100
sg64
(lp4111
S':'
asbag57
(g78
g59
NtRp4112
(dp4113
g62
(dp4114
sg71
g4100
sg64
(lp4115
g57
(g58
g59
NtRp4116
(dp4117
g62
(dp4118
g70
I3
ssg71
g4112
sg64
(lp4119
S''
asbasbasbag57
(g73
g59
NtRp4120
(dp4121
g62
(dp4122
sg71
g4016
sg64
(lp4123
g57
(g78
g59
NtRp4124
(dp4125
g62
(dp4126
g82
g83
ssg71
g4120
sg64
(lp4127
g399
asbag57
(g78
g59
NtRp4128
(dp4129
g62
(dp4130
g89
g90
ssg71
g4120
sg64
(lp4131
S':'
asbag57
(g78
g59
NtRp4132
(dp4133
g62
(dp4134
sg71
g4120
sg64
(lp4135
g57
(g58
g59
NtRp4136
(dp4137
g62
(dp4138
g70
I3
ssg71
g4132
sg64
(lp4139
S'/'
asbasbasbag57
(g73
g59
NtRp4140
(dp4141
g62
(dp4142
sg71
g4016
sg64
(lp4143
g57
(g78
g59
NtRp4144
(dp4145
g62
(dp4146
g82
g83
ssg71
g4140
sg64
(lp4147
g420
asbag57
(g78
g59
NtRp4148
(dp4149
g62
(dp4150
g89
g90
ssg71
g4140
sg64
(lp4151
S':'
asbag57
(g78
g59
NtRp4152
(dp4153
g62
(dp4154
sg71
g4140
sg64
(lp4155
g57
(g58
g59
NtRp4156
(dp4157
g62
(dp4158
g70
I3
ssg71
g4152
sg64
(lp4159
S''
asbasbasbag57
(g73
g59
NtRp4160
(dp4161
g62
(dp4162
sg71
g4016
sg64
(lp4163
g57
(g78
g59
NtRp4164
(dp4165
g62
(dp4166
g82
g83
ssg71
g4160
sg64
(lp4167
g441
asbag57
(g78
g59
NtRp4168
(dp4169
g62
(dp4170
g89
g90
ssg71
g4160
sg64
(lp4171
S':'
asbag57
(g78
g59
NtRp4172
(dp4173
g62
(dp4174
sg71
g4160
sg64
(lp4175
g57
(g58
g59
NtRp4176
(dp4177
g62
(dp4178
g70
I3
ssg71
g4172
sg64
(lp4179
S''
asbasbasbasbasbasbasbasbasbasbasbag57
(g73
g59
NtRp4180
(dp4181
g62
(dp4182
sg71
g3946
sg64
(lp4183
g57
(g78
g59
NtRp4184
(dp4185
g62
(dp4186
g82
g83
ssg71
g4180
sg64
(lp4187
S'delimiters'
p4188
asbag57
(g78
g59
NtRp4189
(dp4190
g62
(dp4191
g89
g90
ssg71
g4180
sg64
(lp4192
S':'
asbag57
(g78
g59
NtRp4193
(dp4194
g62
(dp4195
sg71
g4180
sg64
(lp4196
g57
(g58
g59
NtRp4197
(dp4198
g62
(dp4199
g70
I5
ssg71
g4193
sg64
(lp4200
g57
(g66
g59
NtRp4201
(dp4202
g62
(dp4203
g70
I4
ssg71
Nsg64
(lp4204
g57
(g73
g59
NtRp4205
(dp4206
g62
(dp4207
sg71
g4201
sg64
(lp4208
g57
(g78
g59
NtRp4209
(dp4210
g62
(dp4211
sg71
g4205
sg64
(lp4212
g57
(g58
g59
NtRp4213
(dp4214
g62
(dp4215
g70
I4
ssg71
g4209
sg64
(lp4216
S'{{'
p4217
asbasbasbag57
(g73
g59
NtRp4218
(dp4219
g62
(dp4220
sg71
g4201
sg64
(lp4221
g57
(g78
g59
NtRp4222
(dp4223
g62
(dp4224
sg71
g4218
sg64
(lp4225
g57
(g58
g59
NtRp4226
(dp4227
g62
(dp4228
g70
I4
ssg71
g4222
sg64
(lp4229
S'}}'
p4230
asbasbasbasbasbasbasbag57
(g73
g59
NtRp4231
(dp4232
g62
(dp4233
sg71
g3946
sg64
(lp4234
g57
(g78
g59
NtRp4235
(dp4236
g62
(dp4237
g82
g83
ssg71
g4231
sg64
(lp4238
S'files'
p4239
asbag57
(g78
g59
NtRp4240
(dp4241
g62
(dp4242
g89
g90
ssg71
g4231
sg64
(lp4243
S':'
asbag57
(g78
g59
NtRp4244
(dp4245
g62
(dp4246
sg71
g4231
sg64
(lp4247
g57
(g58
g59
NtRp4248
(dp4249
g62
(dp4250
g70
I5
ssg71
g4244
sg64
(lp4251
g57
(g66
g59
NtRp4252
(dp4253
g62
(dp4254
g70
I4
ssg71
Nsg64
(lp4255
sbasbasbasbag57
(g73
g59
NtRp4256
(dp4257
g62
(dp4258
sg71
g3946
sg64
(lp4259
g57
(g78
g59
NtRp4260
(dp4261
g62
(dp4262
g82
g83
ssg71
g4256
sg64
(lp4263
S'flash'
p4264
asbag57
(g78
g59
NtRp4265
(dp4266
g62
(dp4267
g89
g90
ssg71
g4256
sg64
(lp4268
S':'
asbag57
(g78
g59
NtRp4269
(dp4270
g62
(dp4271
sg71
g4256
sg64
(lp4272
g57
(g58
g59
NtRp4273
(dp4274
g62
(dp4275
g70
I5
ssg71
g4269
sg64
(lp4276
cgluon.languages
lazyT_unpickle
p4277
(S's\x08\x00\x00\x00Success!'
tRp4278
asbasbasbag57
(g73
g59
NtRp4279
(dp4280
g62
(dp4281
sg71
g3946
sg64
(lp4282
g57
(g78
g59
NtRp4283
(dp4284
g62
(dp4285
g82
g83
ssg71
g4279
sg64
(lp4286
S'generic_patterns'
p4287
asbag57
(g78
g59
NtRp4288
(dp4289
g62
(dp4290
g89
g90
ssg71
g4279
sg64
(lp4291
S':'
asbag57
(g78
g59
NtRp4292
(dp4293
g62
(dp4294
sg71
g4279
sg64
(lp4295
g57
(g58
g59
NtRp4296
(dp4297
g62
(dp4298
g70
I5
ssg71
g4292
sg64
(lp4299
g57
(g66
g59
NtRp4300
(dp4301
g62
(dp4302
g70
I4
ssg71
Nsg64
(lp4303
g57
(g73
g59
NtRp4304
(dp4305
g62
(dp4306
sg71
g4300
sg64
(lp4307
g57
(g78
g59
NtRp4308
(dp4309
g62
(dp4310
sg71
g4304
sg64
(lp4311
g57
(g58
g59
NtRp4312
(dp4313
g62
(dp4314
g70
I4
ssg71
g4308
sg64
(lp4315
S'*'
asbasbasbasbasbasbasbag57
(g73
g59
NtRp4316
(dp4317
g62
(dp4318
sg71
g3946
sg64
(lp4319
g57
(g78
g59
NtRp4320
(dp4321
g62
(dp4322
g82
g83
ssg71
g4316
sg64
(lp4323
S'google_analytics_id'
p4324
asbag57
(g78
g59
NtRp4325
(dp4326
g62
(dp4327
g89
g90
ssg71
g4316
sg64
(lp4328
S':'
asbag57
(g78
g59
NtRp4329
(dp4330
g62
(dp4331
sg71
g4316
sg64
(lp4332
g57
(g58
g59
NtRp4333
(dp4334
g62
(dp4335
g70
I5
ssg71
g4329
sg64
(lp4336
S'None'
p4337
asbasbasbag57
(g73
g59
NtRp4338
(dp4339
g62
(dp4340
sg71
g3946
sg64
(lp4341
g57
(g78
g59
NtRp4342
(dp4343
g62
(dp4344
g82
g83
ssg71
g4338
sg64
(lp4345
S'headers'
p4346
asbag57
(g78
g59
NtRp4347
(dp4348
g62
(dp4349
g89
g90
ssg71
g4338
sg64
(lp4350
S':'
asbag57
(g78
g59
NtRp4351
(dp4352
g62
(dp4353
sg71
g4338
sg64
(lp4354
g57
(g58
g59
NtRp4355
(dp4356
g62
(dp4357
g70
I5
ssg71
g4351
sg64
(lp4358
g57
(g66
g59
NtRp4359
(dp4360
g62
(dp4361
g70
I4
ssg71
Nsg64
(lp4362
g57
(g73
g59
NtRp4363
(dp4364
g62
(dp4365
sg71
g4359
sg64
(lp4366
g57
(g78
g59
NtRp4367
(dp4368
g62
(dp4369
g82
g83
ssg71
g4363
sg64
(lp4370
S'X-Powered-By'
p4371
asbag57
(g78
g59
NtRp4372
(dp4373
g62
(dp4374
g89
g90
ssg71
g4363
sg64
(lp4375
S':'
asbag57
(g78
g59
NtRp4376
(dp4377
g62
(dp4378
sg71
g4363
sg64
(lp4379
g57
(g58
g59
NtRp4380
(dp4381
g62
(dp4382
g70
I4
ssg71
g4376
sg64
(lp4383
S'web2py'
p4384
asbasbasbasbasbasbasbag57
(g73
g59
NtRp4385
(dp4386
g62
(dp4387
sg71
g3946
sg64
(lp4388
g57
(g78
g59
NtRp4389
(dp4390
g62
(dp4391
g82
g83
ssg71
g4385
sg64
(lp4392
S'menu'
p4393
asbag57
(g78
g59
NtRp4394
(dp4395
g62
(dp4396
g89
g90
ssg71
g4385
sg64
(lp4397
S':'
asbag57
(g78
g59
NtRp4398
(dp4399
g62
(dp4400
sg71
g4385
sg64
(lp4401
g57
(g58
g59
NtRp4402
(dp4403
g62
(dp4404
g70
I5
ssg71
g4398
sg64
(lp4405
g57
(g66
g59
NtRp4406
(dp4407
g62
(dp4408
g70
I4
ssg71
Nsg64
(lp4409
g57
(g73
g59
NtRp4410
(dp4411
g62
(dp4412
sg71
g4406
sg64
(lp4413
g57
(g78
g59
NtRp4414
(dp4415
g62
(dp4416
sg71
g4410
sg64
(lp4417
g57
(g58
g59
NtRp4418
(dp4419
g62
(dp4420
g70
I4
ssg71
g4414
sg64
(lp4421
g57
(g66
g59
NtRp4422
(dp4423
g62
(dp4424
g70
I3
ssg71
Nsg64
(lp4425
g57
(g73
g59
NtRp4426
(dp4427
g62
(dp4428
sg71
g4422
sg64
(lp4429
g57
(g78
g59
NtRp4430
(dp4431
g62
(dp4432
sg71
g4426
sg64
(lp4433
g57
(g58
g59
NtRp4434
(dp4435
g62
(dp4436
g70
I3
ssg71
g4430
sg64
(lp4437
g4277
(S's\x04\x00\x00\x00Home'
tRp4438
asbasbasbag57
(g73
g59
NtRp4439
(dp4440
g62
(dp4441
sg71
g4422
sg64
(lp4442
g57
(g78
g59
NtRp4443
(dp4444
g62
(dp4445
sg71
g4439
sg64
(lp4446
g57
(g58
g59
NtRp4447
(dp4448
g62
(dp4449
g70
I3
ssg71
g4443
sg64
(lp4450
g100
asbasbasbag57
(g73
g59
NtRp4451
(dp4452
g62
(dp4453
sg71
g4422
sg64
(lp4454
g57
(g78
g59
NtRp4455
(dp4456
g62
(dp4457
sg71
g4451
sg64
(lp4458
g57
(g58
g59
NtRp4459
(dp4460
g62
(dp4461
g70
I3
ssg71
g4455
sg64
(lp4462
S'/assignment2/default/index'
p4463
asbasbasbag57
(g73
g59
NtRp4464
(dp4465
g62
(dp4466
sg71
g4422
sg64
(lp4467
g57
(g78
g59
NtRp4468
(dp4469
g62
(dp4470
sg71
g4464
sg64
(lp4471
g57
(g58
g59
NtRp4472
(dp4473
g62
(dp4474
g70
I3
ssg71
g4468
sg64
(lp4475
g57
(g66
g59
NtRp4476
(dp4477
g62
(dp4478
g70
I2
ssg71
Nsg64
(lp4479
sbasbasbasbasbasbasbasbasbasbasbasbag57
(g73
g59
NtRp4480
(dp4481
g62
(dp4482
sg71
g3946
sg64
(lp4483
g57
(g78
g59
NtRp4484
(dp4485
g62
(dp4486
g82
g83
ssg71
g4480
sg64
(lp4487
S'meta'
p4488
asbag57
(g78
g59
NtRp4489
(dp4490
g62
(dp4491
g89
g90
ssg71
g4480
sg64
(lp4492
S':'
asbag57
(g78
g59
NtRp4493
(dp4494
g62
(dp4495
sg71
g4480
sg64
(lp4496
g57
(g58
g59
NtRp4497
(dp4498
g62
(dp4499
g70
I5
ssg71
g4493
sg64
(lp4500
g57
(g66
g59
NtRp4501
(dp4502
g62
(dp4503
g70
I4
ssg71
Nsg64
(lp4504
g57
(g73
g59
NtRp4505
(dp4506
g62
(dp4507
sg71
g4501
sg64
(lp4508
g57
(g78
g59
NtRp4509
(dp4510
g62
(dp4511
g82
g83
ssg71
g4505
sg64
(lp4512
S'author'
p4513
asbag57
(g78
g59
NtRp4514
(dp4515
g62
(dp4516
g89
g90
ssg71
g4505
sg64
(lp4517
S':'
asbag57
(g78
g59
NtRp4518
(dp4519
g62
(dp4520
sg71
g4505
sg64
(lp4521
g57
(g58
g59
NtRp4522
(dp4523
g62
(dp4524
g70
I4
ssg71
g4518
sg64
(lp4525
S'Your Name <you@example.com>'
p4526
asbasbasbag57
(g73
g59
NtRp4527
(dp4528
g62
(dp4529
sg71
g4501
sg64
(lp4530
g57
(g78
g59
NtRp4531
(dp4532
g62
(dp4533
g82
g83
ssg71
g4527
sg64
(lp4534
S'description'
p4535
asbag57
(g78
g59
NtRp4536
(dp4537
g62
(dp4538
g89
g90
ssg71
g4527
sg64
(lp4539
S':'
asbag57
(g78
g59
NtRp4540
(dp4541
g62
(dp4542
sg71
g4527
sg64
(lp4543
g57
(g58
g59
NtRp4544
(dp4545
g62
(dp4546
g70
I4
ssg71
g4540
sg64
(lp4547
S'a cool new app'
p4548
asbasbasbag57
(g73
g59
NtRp4549
(dp4550
g62
(dp4551
sg71
g4501
sg64
(lp4552
g57
(g78
g59
NtRp4553
(dp4554
g62
(dp4555
g82
g83
ssg71
g4549
sg64
(lp4556
S'generator'
p4557
asbag57
(g78
g59
NtRp4558
(dp4559
g62
(dp4560
g89
g90
ssg71
g4549
sg64
(lp4561
S':'
asbag57
(g78
g59
NtRp4562
(dp4563
g62
(dp4564
sg71
g4549
sg64
(lp4565
g57
(g58
g59
NtRp4566
(dp4567
g62
(dp4568
g70
I4
ssg71
g4562
sg64
(lp4569
S'Web2py Web Framework'
p4570
asbasbasbag57
(g73
g59
NtRp4571
(dp4572
g62
(dp4573
sg71
g4501
sg64
(lp4574
g57
(g78
g59
NtRp4575
(dp4576
g62
(dp4577
g82
g83
ssg71
g4571
sg64
(lp4578
S'keywords'
p4579
asbag57
(g78
g59
NtRp4580
(dp4581
g62
(dp4582
g89
g90
ssg71
g4571
sg64
(lp4583
S':'
asbag57
(g78
g59
NtRp4584
(dp4585
g62
(dp4586
sg71
g4571
sg64
(lp4587
g57
(g58
g59
NtRp4588
(dp4589
g62
(dp4590
g70
I4
ssg71
g4584
sg64
(lp4591
S'web2py, python, framework'
p4592
asbasbasbasbasbasbasbag57
(g73
g59
NtRp4593
(dp4594
g62
(dp4595
sg71
g3946
sg64
(lp4596
g57
(g78
g59
NtRp4597
(dp4598
g62
(dp4599
g82
g83
ssg71
g4593
sg64
(lp4600
S'models_to_run'
p4601
asbag57
(g78
g59
NtRp4602
(dp4603
g62
(dp4604
g89
g90
ssg71
g4593
sg64
(lp4605
S':'
asbag57
(g78
g59
NtRp4606
(dp4607
g62
(dp4608
sg71
g4593
sg64
(lp4609
g57
(g58
g59
NtRp4610
(dp4611
g62
(dp4612
g70
I5
ssg71
g4606
sg64
(lp4613
g57
(g66
g59
NtRp4614
(dp4615
g62
(dp4616
g70
I4
ssg71
Nsg64
(lp4617
g57
(g73
g59
NtRp4618
(dp4619
g62
(dp4620
sg71
g4614
sg64
(lp4621
g57
(g78
g59
NtRp4622
(dp4623
g62
(dp4624
sg71
g4618
sg64
(lp4625
g57
(g58
g59
NtRp4626
(dp4627
g62
(dp4628
g70
I4
ssg71
g4622
sg64
(lp4629
S'^\\w+\\.py$'
p4630
asbasbasbag57
(g73
g59
NtRp4631
(dp4632
g62
(dp4633
sg71
g4614
sg64
(lp4634
g57
(g78
g59
NtRp4635
(dp4636
g62
(dp4637
sg71
g4631
sg64
(lp4638
g57
(g58
g59
NtRp4639
(dp4640
g62
(dp4641
g70
I4
ssg71
g4635
sg64
(lp4642
S'^default/\\w+\\.py$'
p4643
asbasbasbag57
(g73
g59
NtRp4644
(dp4645
g62
(dp4646
sg71
g4614
sg64
(lp4647
g57
(g78
g59
NtRp4648
(dp4649
g62
(dp4650
sg71
g4644
sg64
(lp4651
g57
(g58
g59
NtRp4652
(dp4653
g62
(dp4654
g70
I4
ssg71
g4648
sg64
(lp4655
S'^default/user_homepage/\\w+\\.py$'
p4656
asbasbasbasbasbasbasbag57
(g73
g59
NtRp4657
(dp4658
g62
(dp4659
sg71
g3946
sg64
(lp4660
g57
(g78
g59
NtRp4661
(dp4662
g62
(dp4663
g82
g83
ssg71
g4657
sg64
(lp4664
S'postprocessing'
p4665
asbag57
(g78
g59
NtRp4666
(dp4667
g62
(dp4668
g89
g90
ssg71
g4657
sg64
(lp4669
S':'
asbag57
(g78
g59
NtRp4670
(dp4671
g62
(dp4672
sg71
g4657
sg64
(lp4673
g57
(g58
g59
NtRp4674
(dp4675
g62
(dp4676
g70
I5
ssg71
g4670
sg64
(lp4677
g57
(g66
g59
NtRp4678
(dp4679
g62
(dp4680
g70
I4
ssg71
Nsg64
(lp4681
sbasbasbasbag57
(g73
g59
NtRp4682
(dp4683
g62
(dp4684
sg71
g3946
sg64
(lp4685
g57
(g78
g59
NtRp4686
(dp4687
g62
(dp4688
g82
g83
ssg71
g4682
sg64
(lp4689
S'session_cookie_expires'
p4690
asbag57
(g78
g59
NtRp4691
(dp4692
g62
(dp4693
g89
g90
ssg71
g4682
sg64
(lp4694
S':'
asbag57
(g78
g59
NtRp4695
(dp4696
g62
(dp4697
sg71
g4682
sg64
(lp4698
g57
(g58
g59
NtRp4699
(dp4700
g62
(dp4701
g70
I5
ssg71
g4695
sg64
(lp4702
S'None'
p4703
asbasbasbag57
(g73
g59
NtRp4704
(dp4705
g62
(dp4706
sg71
g3946
sg64
(lp4707
g57
(g78
g59
NtRp4708
(dp4709
g62
(dp4710
g82
g83
ssg71
g4704
sg64
(lp4711
S'session_data_name'
p4712
asbag57
(g78
g59
NtRp4713
(dp4714
g62
(dp4715
g89
g90
ssg71
g4704
sg64
(lp4716
S':'
asbag57
(g78
g59
NtRp4717
(dp4718
g62
(dp4719
sg71
g4704
sg64
(lp4720
g57
(g58
g59
NtRp4721
(dp4722
g62
(dp4723
g70
I5
ssg71
g4717
sg64
(lp4724
S'session_data_assignment2'
p4725
asbasbasbag57
(g73
g59
NtRp4726
(dp4727
g62
(dp4728
sg71
g3946
sg64
(lp4729
g57
(g78
g59
NtRp4730
(dp4731
g62
(dp4732
g82
g83
ssg71
g4726
sg64
(lp4733
S'session_file'
p4734
asbag57
(g78
g59
NtRp4735
(dp4736
g62
(dp4737
g89
g90
ssg71
g4726
sg64
(lp4738
S':'
asbag57
(g78
g59
NtRp4739
(dp4740
g62
(dp4741
sg71
g4726
sg64
(lp4742
g57
(g58
g59
NtRp4743
(dp4744
g62
(dp4745
g70
I5
ssg71
g4739
sg64
(lp4746
S"<open file '/home/aditi/Desktop/web2py/applications/assignment2/sessions/127.0.0.1-fb26053d-4af7-4f49-b52a-360360706137', mode 'rb+' at 0xade3fa70>"
p4747
asbasbasbag57
(g73
g59
NtRp4748
(dp4749
g62
(dp4750
sg71
g3946
sg64
(lp4751
g57
(g78
g59
NtRp4752
(dp4753
g62
(dp4754
g82
g83
ssg71
g4748
sg64
(lp4755
S'session_filename'
p4756
asbag57
(g78
g59
NtRp4757
(dp4758
g62
(dp4759
g89
g90
ssg71
g4748
sg64
(lp4760
S':'
asbag57
(g78
g59
NtRp4761
(dp4762
g62
(dp4763
sg71
g4748
sg64
(lp4764
g57
(g58
g59
NtRp4765
(dp4766
g62
(dp4767
g70
I5
ssg71
g4761
sg64
(lp4768
S'/home/aditi/Desktop/web2py/applications/assignment2/sessions/127.0.0.1-fb26053d-4af7-4f49-b52a-360360706137'
p4769
asbasbasbag57
(g73
g59
NtRp4770
(dp4771
g62
(dp4772
sg71
g3946
sg64
(lp4773
g57
(g78
g59
NtRp4774
(dp4775
g62
(dp4776
g82
g83
ssg71
g4770
sg64
(lp4777
S'session_id'
p4778
asbag57
(g78
g59
NtRp4779
(dp4780
g62
(dp4781
g89
g90
ssg71
g4770
sg64
(lp4782
S':'
asbag57
(g78
g59
NtRp4783
(dp4784
g62
(dp4785
sg71
g4770
sg64
(lp4786
g57
(g58
g59
NtRp4787
(dp4788
g62
(dp4789
g70
I5
ssg71
g4783
sg64
(lp4790
g475
asbasbasbag57
(g73
g59
NtRp4791
(dp4792
g62
(dp4793
sg71
g3946
sg64
(lp4794
g57
(g78
g59
NtRp4795
(dp4796
g62
(dp4797
g82
g83
ssg71
g4791
sg64
(lp4798
S'session_id_name'
p4799
asbag57
(g78
g59
NtRp4800
(dp4801
g62
(dp4802
g89
g90
ssg71
g4791
sg64
(lp4803
S':'
asbag57
(g78
g59
NtRp4804
(dp4805
g62
(dp4806
sg71
g4791
sg64
(lp4807
g57
(g58
g59
NtRp4808
(dp4809
g62
(dp4810
g70
I5
ssg71
g4804
sg64
(lp4811
g4003
asbasbasbag57
(g73
g59
NtRp4812
(dp4813
g62
(dp4814
sg71
g3946
sg64
(lp4815
g57
(g78
g59
NtRp4816
(dp4817
g62
(dp4818
g82
g83
ssg71
g4812
sg64
(lp4819
S'session_locked'
p4820
asbag57
(g78
g59
NtRp4821
(dp4822
g62
(dp4823
g89
g90
ssg71
g4812
sg64
(lp4824
S':'
asbag57
(g78
g59
NtRp4825
(dp4826
g62
(dp4827
sg71
g4812
sg64
(lp4828
g57
(g58
g59
NtRp4829
(dp4830
g62
(dp4831
g70
I5
ssg71
g4825
sg64
(lp4832
g1868
asbasbasbag57
(g73
g59
NtRp4833
(dp4834
g62
(dp4835
sg71
g3946
sg64
(lp4836
g57
(g78
g59
NtRp4837
(dp4838
g62
(dp4839
g82
g83
ssg71
g4833
sg64
(lp4840
S'session_new'
p4841
asbag57
(g78
g59
NtRp4842
(dp4843
g62
(dp4844
g89
g90
ssg71
g4833
sg64
(lp4845
S':'
asbag57
(g78
g59
NtRp4846
(dp4847
g62
(dp4848
sg71
g4833
sg64
(lp4849
g57
(g58
g59
NtRp4850
(dp4851
g62
(dp4852
g70
I5
ssg71
g4846
sg64
(lp4853
g100
asbasbasbag57
(g73
g59
NtRp4854
(dp4855
g62
(dp4856
sg71
g3946
sg64
(lp4857
g57
(g78
g59
NtRp4858
(dp4859
g62
(dp4860
g82
g83
ssg71
g4854
sg64
(lp4861
S'session_storage_type'
p4862
asbag57
(g78
g59
NtRp4863
(dp4864
g62
(dp4865
g89
g90
ssg71
g4854
sg64
(lp4866
S':'
asbag57
(g78
g59
NtRp4867
(dp4868
g62
(dp4869
sg71
g4854
sg64
(lp4870
g57
(g58
g59
NtRp4871
(dp4872
g62
(dp4873
g70
I5
ssg71
g4867
sg64
(lp4874
g3395
asbasbasbag57
(g73
g59
NtRp4875
(dp4876
g62
(dp4877
sg71
g3946
sg64
(lp4878
g57
(g78
g59
NtRp4879
(dp4880
g62
(dp4881
g82
g83
ssg71
g4875
sg64
(lp4882
S'status'
p4883
asbag57
(g78
g59
NtRp4884
(dp4885
g62
(dp4886
g89
g90
ssg71
g4875
sg64
(lp4887
S':'
asbag57
(g78
g59
NtRp4888
(dp4889
g62
(dp4890
sg71
g4875
sg64
(lp4891
g57
(g58
g59
NtRp4892
(dp4893
g62
(dp4894
g70
I5
ssg71
g4888
sg64
(lp4895
S'200'
p4896
asbasbasbag57
(g73
g59
NtRp4897
(dp4898
g62
(dp4899
sg71
g3946
sg64
(lp4900
g57
(g78
g59
NtRp4901
(dp4902
g62
(dp4903
g82
g83
ssg71
g4897
sg64
(lp4904
S'subtitle'
p4905
asbag57
(g78
g59
NtRp4906
(dp4907
g62
(dp4908
g89
g90
ssg71
g4897
sg64
(lp4909
S':'
asbag57
(g78
g59
NtRp4910
(dp4911
g62
(dp4912
sg71
g4897
sg64
(lp4913
g57
(g58
g59
NtRp4914
(dp4915
g62
(dp4916
g70
I5
ssg71
g4910
sg64
(lp4917
g4277
(S's\x0c\x00\x00\x00Online News!'
tRp4918
asbasbasbag57
(g73
g59
NtRp4919
(dp4920
g62
(dp4921
sg71
g3946
sg64
(lp4922
g57
(g78
g59
NtRp4923
(dp4924
g62
(dp4925
g82
g83
ssg71
g4919
sg64
(lp4926
S'title'
p4927
asbag57
(g78
g59
NtRp4928
(dp4929
g62
(dp4930
g89
g90
ssg71
g4919
sg64
(lp4931
S':'
asbag57
(g78
g59
NtRp4932
(dp4933
g62
(dp4934
sg71
g4919
sg64
(lp4935
g57
(g58
g59
NtRp4936
(dp4937
g62
(dp4938
g70
I5
ssg71
g4932
sg64
(lp4939
S'Assignment2'
p4940
asbasbasbag57
(g73
g59
NtRp4941
(dp4942
g62
(dp4943
sg71
g3946
sg64
(lp4944
g57
(g78
g59
NtRp4945
(dp4946
g62
(dp4947
g82
g83
ssg71
g4941
sg64
(lp4948
S'view'
p4949
asbag57
(g78
g59
NtRp4950
(dp4951
g62
(dp4952
g89
g90
ssg71
g4941
sg64
(lp4953
S':'
asbag57
(g78
g59
NtRp4954
(dp4955
g62
(dp4956
sg71
g4941
sg64
(lp4957
g57
(g58
g59
NtRp4958
(dp4959
g62
(dp4960
g70
I5
ssg71
g4954
sg64
(lp4961
S'default/user_homepage.html'
p4962
asbasbasbasbasbsS'locals'
p4963
(dp4964
S'j'
S'0'
sS'dislikes'
p4965
S'[0]'
p4966
sS'dislikeform'
p4967
S'[<gluon.sqlhtml.SQLFORM object>]'
p4968
sS'likes'
p4969
S'[1]'
p4970
sS'commentform'
p4971
S'[<gluon.sqlhtml.SQLFORM object>]'
p4972
sS'deleteform'
p4973
S'[<gluon.sqlhtml.SQLFORM object>]'
p4974
sS'dlk'
p4975
S'<Rows (0)>'
p4976
sS'lk'
p4977
S'<Rows (2)>'
p4978
sS'totallike'
p4979
S'[]'
p4980
sS'D'
S'<Rows (0)>'
p4981
sS'form'
p4982
S'<gluon.sqlhtml.SQLFORM object>'
p4983
sS'L'
S'<Rows (2)>'
p4984
sS'flag'
p4985
S'1'
sS'likeform'
p4986
S'[<gluon.sqlhtml.SQLFORM object>]'
p4987
sS'editform'
p4988
S'[<gluon.sqlhtml.SQLFORM object>]'
p4989
sS'a'
S'5'
sS'c'
S'<Rows (4)>'
p4990
sS'temp'
p4991
S"['computer science', 'india', 'bollywood', 'wildlife']"
p4992
sS'f'
S'<Rows (1)>'
p4993
sS'i'
S'3'
sS'k'
S'0'
sS'totaldislike'
p4994
S'[]'
p4995
sS'l'
S'<Rows (1)>'
p4996
sS'n'
S'<Rows (4)>'
p4997
sS'p'
S'12'
p4998
sssS'traceback'
p4999
S'Traceback (most recent call last):\n  File "/home/aditi/Desktop/web2py/gluon/restricted.py", line 212, in restricted\n    exec ccode in environment\n  File "/home/aditi/Desktop/web2py/applications/assignment2/controllers/default.py", line 347, in <module>\n  File "/home/aditi/Desktop/web2py/gluon/globals.py", line 193, in <lambda>\n    self._caller = lambda f: f()\n  File "/home/aditi/Desktop/web2py/applications/assignment2/controllers/default.py", line 92, in user_homepage\n    xyz=db(db.likedposts.postid==p & db.likedposts.userid==a).select(db.likedposts.id)\nTypeError: unsupported operand type(s) for &: \'int\' and \'Field\'\n'
p5000
s.